===== Assembly blocks =====

=== CODE BLOCK ADDRESS 0x1000 ===
  0x1000	int3   	
  0x1001	int3   	
  0x1002	int3   	
  0x1003	int3   	
  0x1004	int3   	
  === BLOCK LINK ===
    0x1005
=== CODE BLOCK END ===

=== CODE BLOCK ADDRESS 0x1005 ===
  0x1005	int3   	
  0x1006	int3   	
  0x1007	int3   	
  0x1008	int3   	
  0x1009	int3   	
  === BLOCK LINK ===
    0x100a
=== CODE BLOCK END ===

=== CODE BLOCK ADDRESS 0x100a ===
  0x100a	int3   	
  0x100b	int3   	
  0x100c	int3   	
  0x100d	int3   	
  0x100e	int3   	
  === BLOCK LINK ===
    0x100f
=== CODE BLOCK END ===

=== CODE BLOCK ADDRESS 0x100f ===
  0x100f	int3   	
  0x1010	inc    	eax
  0x1011	push   	ebx
  0x1012	dec    	eax
  0x1013	sub    	esp, 0x40
  === BLOCK LINK ===
    0x1016
=== CODE BLOCK END ===

=== CODE BLOCK ADDRESS 0x1016 ===
  0x1016	dec    	esp
  0x1017	mov    	edx, dword ptr [esp + 0x80]
  0x101e	dec    	eax
  0x101f	mov    	ebx, ecx
  0x1021	dec    	ebp
  === BLOCK LINK ===
    0x1022
=== CODE BLOCK END ===

=== CODE BLOCK ADDRESS 0x1022 ===
  0x1022	test   	edx, edx
  0x1024	je     	0x1082
  === BLOCK LINK ===
    0x1026
    0x1082
=== CODE BLOCK END ===

=== CODE BLOCK ADDRESS 0x1026 ===
  0x1026	dec    	esp
  0x1027	mov    	ebx, dword ptr [esp + 0x70]
  0x102b	mov    	eax, edx
  0x102d	test   	edx, edx
  0x102f	je     	0x1054
  === BLOCK LINK ===
    0x1031
    0x1054
=== CODE BLOCK END ===

=== CODE BLOCK ADDRESS 0x1031 ===
  0x1031	cmp    	eax, 1
  0x1034	jne    	0x1058
  === BLOCK LINK ===
    0x1036
    0x1058
=== CODE BLOCK END ===

=== CODE BLOCK ADDRESS 0x1036 ===
  0x1036	inc    	ecx
  0x1037	movzx  	ecx, al
  0x103a	mov    	eax, 0x100
  0x103f	inc    	ecx
  0x1041	dec    	ebp
  === BLOCK LINK ===
    0x1042
=== CODE BLOCK END ===

=== CODE BLOCK ADDRESS 0x1042 ===
  0x1042	mov    	dword ptr [edx + 0x10], ecx
  0x1045	inc    	ebp
  0x1046	test   	al, al
  0x1048	dec    	ebp
  0x1049	mov    	dword ptr [edx + 0x18], ebx
  === BLOCK LINK ===
    0x104c
=== CODE BLOCK END ===

=== CODE BLOCK ADDRESS 0x104c ===
  0x104c	cmovne  	eax, ecx
  0x104f	inc    	ecx
  0x1050	mov    	dword ptr [edx], eax
  0x1052	jmp    	0x1058
  === BLOCK LINK ===
    0x1054
    0x1058
=== CODE BLOCK END ===

=== CODE BLOCK ADDRESS 0x1054 ===
  0x1054	inc    	ecx
  0x1055	and    	dword ptr [edx], 0
  === BLOCK LINK ===
    0x1058
=== CODE BLOCK END ===

=== CODE BLOCK ADDRESS 0x105d ===
  0x105d	test   	eax, eax
  0x105f	je     	0x1082
  === BLOCK LINK ===
    0x1061
    0x1082
=== CODE BLOCK END ===

=== CODE BLOCK ADDRESS 0x1061 ===
  0x1061	dec    	ecx
  0x1062	mov    	ecx, dword ptr [edx + 0x30]
  0x1065	dec    	eax
  0x1066	mov    	dword ptr [esp + 0x30], ecx
  0x106a	dec    	eax
  === BLOCK LINK ===
    0x106b
=== CODE BLOCK END ===

=== CODE BLOCK ADDRESS 0x106b ===
  0x106b	mov    	ecx, dword ptr [esp + 0x78]
  0x106f	dec    	eax
  0x1070	mov    	dword ptr [esp + 0x28], ecx
  0x1074	dec    	eax
  0x1075	mov    	ecx, ebx
  === BLOCK LINK ===
    0x1077
=== CODE BLOCK END ===

=== CODE BLOCK ADDRESS 0x1077 ===
  0x1077	dec    	esp
  0x1078	mov    	dword ptr [esp + 0x20], ebx
  0x107c	call   	dword ptr [0x43de]
  === BLOCK LINK ===
    0x1082
=== CODE BLOCK END ===

=== CODE BLOCK ADDRESS 0x1082 ===
  0x1082	dec    	eax
  0x1083	add    	esp, 0x40
  0x1086	pop    	ebx
  0x1087	ret    	
  0x1088	int3   	
  === BLOCK LINK ===
    0x1089
=== CODE BLOCK END ===

=== CODE BLOCK ADDRESS 0x1089 ===
  0x1089	int3   	
  0x108a	int3   	
  0x108b	int3   	
  0x108c	int3   	
  0x108d	int3   	
  === BLOCK LINK ===
    0x108e
=== CODE BLOCK END ===

=== CODE BLOCK ADDRESS 0x108e ===
  0x108e	int3   	
  0x108f	int3   	
  === BLOCK LINK ===
    0x1090
=== CODE BLOCK END ===

=== CODE BLOCK ADDRESS 0x1097 ===
  0x1097	dec    	esp
  0x1098	lea    	edx, [edx + 1]
  0x109b	dec    	eax
  0x109c	mov    	edx, dword ptr [esp + 0x78]
  0x10a0	dec    	esp
  === BLOCK LINK ===
    0x10a1
=== CODE BLOCK END ===

=== CODE BLOCK ADDRESS 0x10a1 ===
  0x10a1	mov    	ebx, ecx
  0x10a3	shl    	eax, 0x18
  0x10a6	mov    	dword ptr [esp + 0x30], eax
  0x10aa	inc    	ecx
  0x10ab	movzx  	eax, word ptr [edx]
  === BLOCK LINK ===
    0x10ae
=== CODE BLOCK END ===

=== CODE BLOCK ADDRESS 0x10ae ===
  0x10ae	mov    	dword ptr [esp + 0x34], eax
  0x10b2	dec    	ecx
  0x10b3	mov    	eax, dword ptr [edx + 2]
  0x10b6	dec    	ecx
  0x10b7	add    	edx, 0xa
  === BLOCK LINK ===
    0x10ba
=== CODE BLOCK END ===

=== CODE BLOCK ADDRESS 0x10ba ===
  0x10ba	dec    	eax
  0x10bb	mov    	dword ptr [esp + 0x38], eax
  0x10bf	dec    	eax
  0x10c0	mov    	eax, dword ptr [ecx + 8]
  0x10c3	dec    	eax
  === BLOCK LINK ===
    0x10c4
=== CODE BLOCK END ===

=== CODE BLOCK ADDRESS 0x10c4 ===
  0x10c4	mov    	dword ptr [edx], eax
  0x10c6	dec    	eax
  0x10c7	mov    	eax, dword ptr [ecx + 8]
  0x10ca	dec    	eax
  0x10cb	mov    	dword ptr [esp + 0x28], edx
  === BLOCK LINK ===
    0x10cf
=== CODE BLOCK END ===

=== CODE BLOCK ADDRESS 0x10cf ===
  0x10cf	movzx  	ecx, word ptr [eax]
  0x10d2	mov    	dword ptr [edx + 8], ecx
  0x10d5	dec    	eax
  0x10d6	lea    	ecx, [0x49bc]
  0x10dc	mov    	dword ptr [edx + 0xc], 2
  === BLOCK LINK ===
    0x10e3
=== CODE BLOCK END ===

=== CODE BLOCK ADDRESS 0x10e3 ===
  0x10e3	dec    	esp
  0x10e4	mov    	dword ptr [edx + 0x10], edx
  0x10e7	inc    	ecx
  0x10e8	movzx  	eax, word ptr [edx]
  0x10eb	mov    	dword ptr [edx + 0x18], eax
  === BLOCK LINK ===
    0x10ee
=== CODE BLOCK END ===

=== CODE BLOCK ADDRESS 0x10ee ===
  0x10ee	dec    	eax
  0x10ef	lea    	eax, [0x4b7b]
  0x10f5	sub    	eax, ecx
  0x10f7	mov    	dword ptr [edx + 0x1c], 1
  0x10fe	dec    	ecx
  === BLOCK LINK ===
    0x10ff
=== CODE BLOCK END ===

=== CODE BLOCK ADDRESS 0x10ff ===
  0x10ff	mov    	ecx, dword ptr [ebx + 0x20]
  0x1102	dec    	eax
  0x1103	lea    	edx, [esp + 0x30]
  0x1107	mov    	dword ptr [esp + 0x78], eax
  0x110b	mov    	eax, dword ptr [esp + 0x70]
  === BLOCK LINK ===
    0x110f
=== CODE BLOCK END ===

=== CODE BLOCK ADDRESS 0x110f ===
  0x110f	mov    	dword ptr [esp + 0x20], eax
  0x1113	dec    	eax
  0x1114	call   	dword ptr [0x4286]
  === BLOCK LINK ===
    0x111a
=== CODE BLOCK END ===

=== CODE BLOCK ADDRESS 0x111a ===
  0x111a	nop    	dword ptr [eax + eax]
  0x111f	dec    	eax
  0x1120	add    	esp, 0x48
  0x1123	ret    	
  0x1124	int3   	
  === BLOCK LINK ===
    0x1125
=== CODE BLOCK END ===

=== CODE BLOCK ADDRESS 0x1125 ===
  0x1125	int3   	
  0x1126	int3   	
  0x1127	int3   	
  0x1128	int3   	
  0x1129	int3   	
  === BLOCK LINK ===
    0x112a
=== CODE BLOCK END ===

=== CODE BLOCK ADDRESS 0x112a ===
  0x112a	int3   	
  0x112b	int3   	
  0x112c	dec    	eax
  0x112d	sub    	esp, 0x88
  0x1133	dec    	eax
  === BLOCK LINK ===
    0x1134
=== CODE BLOCK END ===

=== CODE BLOCK ADDRESS 0x1134 ===
  0x1134	mov    	eax, dword ptr [0x6f0e]
  0x113a	dec    	eax
  0x113b	xor    	eax, esp
  0x113d	dec    	eax
  0x113e	mov    	dword ptr [esp + 0x70], eax
  === BLOCK LINK ===
    0x1142
=== CODE BLOCK END ===

=== CODE BLOCK ADDRESS 0x1142 ===
  0x1142	dec    	eax
  0x1143	mov    	eax, dword ptr [esp + 0xb8]
  0x114a	inc    	ebp
  0x114b	xor    	eax, eax
  0x114d	dec    	eax
  === BLOCK LINK ===
    0x114e
=== CODE BLOCK END ===

=== CODE BLOCK ADDRESS 0x114e ===
  0x114e	mov    	dword ptr [esp + 0x60], eax
  0x1152	inc    	ecx
  0x1153	mov    	ecx, 4
  0x1158	dec    	eax
  0x1159	mov    	eax, dword ptr [esp + 0xb0]
  === BLOCK LINK ===
    0x1160
=== CODE BLOCK END ===

=== CODE BLOCK ADDRESS 0x1160 ===
  0x1160	dec    	esp
  0x1161	mov    	dword ptr [esp + 0x68], ecx
  0x1165	dec    	eax
  0x1166	mov    	ecx, dword ptr [eax]
  0x1168	dec    	eax
  === BLOCK LINK ===
    0x1169
=== CODE BLOCK END ===

=== CODE BLOCK ADDRESS 0x1169 ===
  0x1169	test   	ecx, ecx
  0x116b	je     	0x117e
  === BLOCK LINK ===
    0x116d
    0x117e
=== CODE BLOCK END ===

=== CODE BLOCK ADDRESS 0x116d ===
  0x116d	dec    	eax
  0x116e	or     	eax, 0xffffffff
  === BLOCK LINK ===
    0x1171
=== CODE BLOCK END ===

=== CODE BLOCK ADDRESS 0x1175 ===
  0x1175	cmp    	byte ptr [ecx + eax], al
  0x1178	jne    	0x1171
  === BLOCK LINK ===
    0x117a
    0x1171
=== CODE BLOCK END ===

=== CODE BLOCK ADDRESS 0x117a ===
  0x117a	inc    	eax
  0x117c	jmp    	0x118a
  === BLOCK LINK ===
    0x117e
    0x118a
=== CODE BLOCK END ===

=== CODE BLOCK ADDRESS 0x117e ===
  0x117e	dec    	eax
  0x117f	lea    	ecx, [0x4536]
  0x1185	mov    	eax, 1
  === BLOCK LINK ===
    0x118a
=== CODE BLOCK END ===

=== CODE BLOCK ADDRESS 0x118f ===
  0x118f	lea    	eax, [esp + 0x30]
  0x1193	dec    	eax
  0x1194	mov    	dword ptr [esp + 0x28], eax
  0x1198	inc    	esp
  0x1199	mov    	dword ptr [esp + 0x20], ecx
  === BLOCK LINK ===
    0x119d
=== CODE BLOCK END ===

=== CODE BLOCK ADDRESS 0x119d ===
  0x119d	inc    	ebp
  0x119e	xor    	ecx, ecx
  0x11a0	dec    	eax
  0x11a1	mov    	dword ptr [esp + 0x50], ecx
  0x11a5	dec    	eax
  === BLOCK LINK ===
    0x11a6
=== CODE BLOCK END ===

=== CODE BLOCK ADDRESS 0x11a6 ===
  0x11a6	lea    	ecx, [0x6e54]
  0x11ac	inc    	esp
  0x11ad	mov    	dword ptr [esp + 0x5c], eax
  0x11b1	call   	0x1090
  === BLOCK LINK ===
    0x11b6
    0x1090
=== CODE BLOCK END ===

=== CODE BLOCK ADDRESS 0x11b6 ===
  0x11b6	dec    	eax
  0x11b7	mov    	ecx, dword ptr [esp + 0x70]
  0x11bb	dec    	eax
  0x11bc	xor    	ecx, esp
  0x11be	call   	0x3c20
  === BLOCK LINK ===
    0x11c3
    0x3c20
=== CODE BLOCK END ===

=== CODE BLOCK ADDRESS 0x11c3 ===
  0x11c3	dec    	eax
  0x11c4	add    	esp, 0x88
  0x11ca	ret    	
  0x11cb	int3   	
  0x11cc	int3   	
  === BLOCK LINK ===
    0x11cd
=== CODE BLOCK END ===

=== CODE BLOCK ADDRESS 0x1058 ===
  0x1058	dec    	ecx
  0x1059	mov    	eax, dword ptr [edx + 0x28]
  0x105c	dec    	eax
  === BLOCK LINK ===
    0x105d
=== CODE BLOCK END ===

=== CODE BLOCK ADDRESS 0x11cd ===
  0x11cd	int3   	
  0x11ce	int3   	
  0x11cf	int3   	
  0x11d0	int3   	
  0x11d1	int3   	
  === BLOCK LINK ===
    0x11d2
=== CODE BLOCK END ===

=== CODE BLOCK ADDRESS 0x11d2 ===
  0x11d2	int3   	
  0x11d3	int3   	
  0x11d4	inc    	eax
  0x11d5	push   	ebp
  0x11d6	dec    	eax
  === BLOCK LINK ===
    0x11d7
=== CODE BLOCK END ===

=== CODE BLOCK ADDRESS 0x11d7 ===
  0x11d7	lea    	ebp, [esp - 0x40]
  0x11db	dec    	eax
  0x11dc	sub    	esp, 0x140
  0x11e2	dec    	eax
  0x11e3	mov    	eax, dword ptr [0x6e5f]
  === BLOCK LINK ===
    0x11e9
=== CODE BLOCK END ===

=== CODE BLOCK ADDRESS 0x11e9 ===
  0x11e9	dec    	eax
  0x11ea	xor    	eax, esp
  0x11ec	dec    	eax
  0x11ed	mov    	dword ptr [ebp + 0x30], eax
  0x11f0	dec    	eax
  === BLOCK LINK ===
    0x11f1
=== CODE BLOCK END ===

=== CODE BLOCK ADDRESS 0x11f1 ===
  0x11f1	mov    	eax, dword ptr [ebp + 0xd8]
  0x11f7	dec    	eax
  0x11f8	lea    	ecx, [0x6e02]
  0x11fe	dec    	eax
  0x11ff	mov    	dword ptr [ebp + 0x20], eax
  === BLOCK LINK ===
    0x1202
=== CODE BLOCK END ===

=== CODE BLOCK ADDRESS 0x1202 ===
  0x1202	inc    	ebp
  0x1203	xor    	ecx, ecx
  0x1205	dec    	eax
  0x1206	mov    	eax, dword ptr [ebp + 0xd0]
  0x120c	inc    	ebp
  === BLOCK LINK ===
    0x120d
=== CODE BLOCK END ===

=== CODE BLOCK ADDRESS 0x120d ===
  0x120d	xor    	eax, eax
  0x120f	dec    	eax
  0x1210	mov    	dword ptr [ebp + 0x10], eax
  0x1213	dec    	eax
  0x1214	mov    	eax, dword ptr [ebp + 0xc8]
  === BLOCK LINK ===
    0x121a
=== CODE BLOCK END ===

=== CODE BLOCK ADDRESS 0x121a ===
  0x121a	dec    	eax
  0x121b	mov    	dword ptr [ebp], eax
  0x121e	dec    	eax
  0x121f	mov    	eax, dword ptr [ebp + 0xc0]
  0x1225	dec    	eax
  === BLOCK LINK ===
    0x1226
=== CODE BLOCK END ===

=== CODE BLOCK ADDRESS 0x1226 ===
  0x1226	mov    	dword ptr [ebp - 0x10], eax
  0x1229	dec    	eax
  0x122a	mov    	eax, dword ptr [ebp + 0xb8]
  0x1230	dec    	eax
  0x1231	mov    	dword ptr [ebp - 0x20], eax
  === BLOCK LINK ===
    0x1234
=== CODE BLOCK END ===

=== CODE BLOCK ADDRESS 0x1234 ===
  0x1234	dec    	eax
  0x1235	mov    	eax, dword ptr [ebp + 0xb0]
  0x123b	dec    	eax
  0x123c	mov    	dword ptr [ebp - 0x30], eax
  0x123f	dec    	eax
  === BLOCK LINK ===
    0x1240
=== CODE BLOCK END ===

=== CODE BLOCK ADDRESS 0x1240 ===
  0x1240	mov    	eax, dword ptr [ebp + 0xa8]
  0x1246	dec    	eax
  0x1247	mov    	dword ptr [ebp - 0x40], eax
  0x124a	dec    	eax
  0x124b	mov    	eax, dword ptr [ebp + 0xa0]
  === BLOCK LINK ===
    0x1251
=== CODE BLOCK END ===

=== CODE BLOCK ADDRESS 0x1251 ===
  0x1251	dec    	eax
  0x1252	mov    	dword ptr [ebp - 0x50], eax
  0x1255	dec    	eax
  0x1256	mov    	eax, dword ptr [ebp + 0x98]
  0x125c	dec    	eax
  === BLOCK LINK ===
    0x125d
=== CODE BLOCK END ===

=== CODE BLOCK ADDRESS 0x125d ===
  0x125d	mov    	dword ptr [ebp - 0x60], eax
  0x1260	dec    	eax
  0x1261	mov    	eax, dword ptr [ebp + 0x90]
  0x1267	dec    	eax
  0x1268	mov    	dword ptr [ebp - 0x70], eax
  === BLOCK LINK ===
    0x126b
=== CODE BLOCK END ===

=== CODE BLOCK ADDRESS 0x126b ===
  0x126b	dec    	eax
  0x126c	mov    	eax, dword ptr [ebp + 0x88]
  0x1272	dec    	eax
  0x1273	mov    	dword ptr [ebp - 0x80], eax
  0x1276	dec    	eax
  === BLOCK LINK ===
    0x1277
=== CODE BLOCK END ===

=== CODE BLOCK ADDRESS 0x1277 ===
  0x1277	mov    	eax, dword ptr [ebp + 0x80]
  0x127d	dec    	eax
  0x127e	mov    	dword ptr [esp + 0x70], eax
  0x1282	dec    	eax
  0x1283	mov    	eax, dword ptr [ebp + 0x78]
  === BLOCK LINK ===
    0x1286
=== CODE BLOCK END ===

=== CODE BLOCK ADDRESS 0x1286 ===
  0x1286	dec    	eax
  0x1287	mov    	dword ptr [esp + 0x60], eax
  0x128b	dec    	eax
  0x128c	mov    	eax, dword ptr [ebp + 0x70]
  0x128f	dec    	eax
  === BLOCK LINK ===
    0x1290
=== CODE BLOCK END ===

=== CODE BLOCK ADDRESS 0x1290 ===
  0x1290	mov    	dword ptr [esp + 0x50], eax
  0x1294	dec    	eax
  0x1295	lea    	eax, [esp + 0x30]
  0x1299	dec    	eax
  0x129a	mov    	dword ptr [esp + 0x28], eax
  === BLOCK LINK ===
    0x129e
=== CODE BLOCK END ===

=== CODE BLOCK ADDRESS 0x129e ===
  0x129e	mov    	dword ptr [esp + 0x20], 0x10
  0x12a6	dec    	eax
  0x12a7	mov    	dword ptr [ebp + 0x28], 4
  0x12ae	dec    	eax
  0x12af	mov    	dword ptr [ebp + 0x18], 4
  === BLOCK LINK ===
    0x12b6
=== CODE BLOCK END ===

=== CODE BLOCK ADDRESS 0x12b6 ===
  0x12b6	dec    	eax
  0x12b7	mov    	dword ptr [ebp + 8], 4
  0x12be	dec    	eax
  0x12bf	mov    	dword ptr [ebp - 8], 4
  0x12c6	dec    	eax
  === BLOCK LINK ===
    0x12c7
=== CODE BLOCK END ===

=== CODE BLOCK ADDRESS 0x12c7 ===
  0x12c7	mov    	dword ptr [ebp - 0x18], 4
  0x12ce	dec    	eax
  0x12cf	mov    	dword ptr [ebp - 0x28], 4
  0x12d6	dec    	eax
  0x12d7	mov    	dword ptr [ebp - 0x38], 4
  === BLOCK LINK ===
    0x12de
=== CODE BLOCK END ===

=== CODE BLOCK ADDRESS 0x12de ===
  0x12de	dec    	eax
  0x12df	mov    	dword ptr [ebp - 0x48], 4
  0x12e6	dec    	eax
  0x12e7	mov    	dword ptr [ebp - 0x58], 4
  0x12ee	dec    	eax
  === BLOCK LINK ===
    0x12ef
=== CODE BLOCK END ===

=== CODE BLOCK ADDRESS 0x12ef ===
  0x12ef	mov    	dword ptr [ebp - 0x68], 4
  0x12f6	dec    	eax
  0x12f7	mov    	dword ptr [ebp - 0x78], 4
  0x12fe	dec    	eax
  0x12ff	mov    	dword ptr [esp + 0x78], 4
  === BLOCK LINK ===
    0x1307
=== CODE BLOCK END ===

=== CODE BLOCK ADDRESS 0x1307 ===
  0x1307	dec    	eax
  0x1308	mov    	dword ptr [esp + 0x68], 4
  0x1310	dec    	eax
  0x1311	mov    	dword ptr [esp + 0x58], 4
  0x1319	call   	0x1090
  === BLOCK LINK ===
    0x131e
    0x1090
=== CODE BLOCK END ===

=== CODE BLOCK ADDRESS 0x131e ===
  0x131e	dec    	eax
  0x131f	mov    	ecx, dword ptr [ebp + 0x30]
  0x1322	dec    	eax
  0x1323	xor    	ecx, esp
  0x1325	call   	0x3c20
  === BLOCK LINK ===
    0x132a
    0x3c20
=== CODE BLOCK END ===

=== CODE BLOCK ADDRESS 0x132a ===
  0x132a	dec    	eax
  0x132b	add    	esp, 0x140
  0x1331	pop    	ebp
  0x1332	ret    	
  0x1333	int3   	
  === BLOCK LINK ===
    0x1334
=== CODE BLOCK END ===

=== CODE BLOCK ADDRESS 0x1334 ===
  0x1334	int3   	
  0x1335	int3   	
  0x1336	int3   	
  0x1337	int3   	
  0x1338	int3   	
  === BLOCK LINK ===
    0x1339
=== CODE BLOCK END ===

=== CODE BLOCK ADDRESS 0x1339 ===
  0x1339	int3   	
  0x133a	int3   	
  0x133b	int3   	
  0x133c	inc    	eax
  0x133d	push   	ebp
  === BLOCK LINK ===
    0x133e
=== CODE BLOCK END ===

=== CODE BLOCK ADDRESS 0x133e ===
  0x133e	dec    	eax
  0x133f	lea    	ebp, [esp - 0x37]
  0x1343	dec    	eax
  0x1344	sub    	esp, 0xa0
  0x134a	dec    	eax
  === BLOCK LINK ===
    0x134b
=== CODE BLOCK END ===

=== CODE BLOCK ADDRESS 0x134b ===
  0x134b	mov    	eax, dword ptr [0x6cf7]
  0x1351	dec    	eax
  0x1352	xor    	eax, esp
  0x1354	dec    	eax
  0x1355	mov    	dword ptr [ebp + 0x27], eax
  === BLOCK LINK ===
    0x1358
=== CODE BLOCK END ===

=== CODE BLOCK ADDRESS 0x1358 ===
  0x1358	dec    	eax
  0x1359	mov    	eax, dword ptr [ebp + 0x7f]
  0x135c	dec    	esp
  0x135d	mov    	edx, edx
  0x135f	dec    	eax
  === BLOCK LINK ===
    0x1360
=== CODE BLOCK END ===

=== CODE BLOCK ADDRESS 0x1360 ===
  0x1360	or     	ecx, 0xffffffff
  0x1363	inc    	ebp
  0x1364	xor    	eax, eax
  0x1366	dec    	eax
  0x1367	mov    	edx, dword ptr [eax]
  === BLOCK LINK ===
    0x1369
=== CODE BLOCK END ===

=== CODE BLOCK ADDRESS 0x1369 ===
  0x1369	dec    	eax
  0x136a	test   	edx, edx
  0x136c	je     	0x137e
  === BLOCK LINK ===
    0x136e
    0x137e
=== CODE BLOCK END ===

=== CODE BLOCK ADDRESS 0x136e ===
  0x136e	dec    	eax
  0x136f	mov    	eax, ecx
  === BLOCK LINK ===
    0x1371
=== CODE BLOCK END ===

=== CODE BLOCK ADDRESS 0x1375 ===
  0x1375	cmp    	byte ptr [edx + eax], al
  0x1378	jne    	0x1371
  === BLOCK LINK ===
    0x137a
    0x1371
=== CODE BLOCK END ===

=== CODE BLOCK ADDRESS 0x137a ===
  0x137a	inc    	eax
  0x137c	jmp    	0x138a
  === BLOCK LINK ===
    0x137e
    0x138a
=== CODE BLOCK END ===

=== CODE BLOCK ADDRESS 0x137e ===
  0x137e	dec    	eax
  0x137f	lea    	edx, [0x4336]
  0x1385	mov    	eax, 1
  === BLOCK LINK ===
    0x138a
=== CODE BLOCK END ===

=== CODE BLOCK ADDRESS 0x138e ===
  0x138e	mov    	eax, dword ptr [ebp + 0x77]
  0x1391	dec    	eax
  0x1392	mov    	dword ptr [ebp + 7], eax
  0x1395	dec    	eax
  0x1396	mov    	eax, dword ptr [ebp + 0x6f]
  === BLOCK LINK ===
    0x1399
=== CODE BLOCK END ===

=== CODE BLOCK ADDRESS 0x1399 ===
  0x1399	dec    	eax
  0x139a	mov    	dword ptr [ebp - 9], eax
  0x139d	dec    	eax
  0x139e	mov    	eax, dword ptr [ebp + 0x67]
  0x13a1	dec    	eax
  === BLOCK LINK ===
    0x13a2
=== CODE BLOCK END ===

=== CODE BLOCK ADDRESS 0x13a2 ===
  0x13a2	mov    	dword ptr [ebp + 0x17], edx
  0x13a5	inc    	esp
  0x13a6	mov    	dword ptr [ebp + 0x23], eax
  0x13a9	dec    	eax
  0x13aa	mov    	dword ptr [ebp + 0xf], 4
  === BLOCK LINK ===
    0x13b1
=== CODE BLOCK END ===

=== CODE BLOCK ADDRESS 0x13b1 ===
  0x13b1	dec    	eax
  0x13b2	mov    	edx, dword ptr [eax]
  0x13b4	dec    	eax
  0x13b5	mov    	dword ptr [ebp - 1], 4
  0x13bc	dec    	eax
  === BLOCK LINK ===
    0x13bd
=== CODE BLOCK END ===

=== CODE BLOCK ADDRESS 0x13bd ===
  0x13bd	test   	edx, edx
  0x13bf	je     	0x13ce
  === BLOCK LINK ===
    0x13c1
    0x13ce
=== CODE BLOCK END ===

=== CODE BLOCK ADDRESS 0x13c1 ===
  0x13c1	dec    	eax
  0x13c2	inc    	ecx
  0x13c4	inc    	esp
  0x13c5	cmp    	byte ptr [edx + ecx], al
  0x13c8	jne    	0x13c1
  === BLOCK LINK ===
    0x13ca
    0x13c1
=== CODE BLOCK END ===

=== CODE BLOCK ADDRESS 0x13ca ===
  0x13ca	inc    	ecx
  0x13cc	jmp    	0x13da
  === BLOCK LINK ===
    0x13ce
    0x13da
=== CODE BLOCK END ===

=== CODE BLOCK ADDRESS 0x13ce ===
  0x13ce	dec    	eax
  0x13cf	lea    	edx, [0x42e6]
  0x13d5	mov    	ecx, 1
  === BLOCK LINK ===
    0x13da
=== CODE BLOCK END ===

=== CODE BLOCK ADDRESS 0x13de ===
  0x13de	dec    	eax
  0x13df	mov    	dword ptr [ebp - 0x19], edx
  0x13e2	mov    	dword ptr [ebp - 0x11], ecx
  0x13e5	inc    	ebp
  0x13e6	xor    	ecx, ecx
  === BLOCK LINK ===
    0x13e8
=== CODE BLOCK END ===

=== CODE BLOCK ADDRESS 0x13e8 ===
  0x13e8	dec    	eax
  0x13e9	mov    	dword ptr [esp + 0x28], eax
  0x13ed	dec    	eax
  0x13ee	lea    	ecx, [0x6c0c]
  0x13f4	dec    	ecx
  === BLOCK LINK ===
    0x13f5
=== CODE BLOCK END ===

=== CODE BLOCK ADDRESS 0x13f5 ===
  0x13f5	mov    	edx, edx
  0x13f7	mov    	dword ptr [esp + 0x20], 6
  0x13ff	inc    	esp
  0x1400	mov    	dword ptr [ebp - 0xd], eax
  0x1403	call   	0x1090
  === BLOCK LINK ===
    0x1408
    0x1090
=== CODE BLOCK END ===

=== CODE BLOCK ADDRESS 0x1408 ===
  0x1408	dec    	eax
  0x1409	mov    	ecx, dword ptr [ebp + 0x27]
  0x140c	dec    	eax
  0x140d	xor    	ecx, esp
  0x140f	call   	0x3c20
  === BLOCK LINK ===
    0x1414
    0x3c20
=== CODE BLOCK END ===

=== CODE BLOCK ADDRESS 0x1414 ===
  0x1414	dec    	eax
  0x1415	add    	esp, 0xa0
  0x141b	pop    	ebp
  0x141c	ret    	
  0x141d	int3   	
  === BLOCK LINK ===
    0x141e
=== CODE BLOCK END ===

=== CODE BLOCK ADDRESS 0x141e ===
  0x141e	int3   	
  0x141f	int3   	
  0x1420	int3   	
  0x1421	int3   	
  0x1422	int3   	
  === BLOCK LINK ===
    0x1423
=== CODE BLOCK END ===

=== CODE BLOCK ADDRESS 0x1423 ===
  0x1423	int3   	
  0x1424	dec    	esp
  0x1425	mov    	dword ptr [esp + 0x18], eax
  0x1429	dec    	esp
  0x142a	mov    	dword ptr [esp + 0x20], ecx
  === BLOCK LINK ===
    0x142e
=== CODE BLOCK END ===

=== CODE BLOCK ADDRESS 0x142e ===
  0x142e	push   	ebx
  0x142f	push   	ebp
  0x1430	push   	esi
  0x1431	push   	edi
  0x1432	dec    	eax
  === BLOCK LINK ===
    0x1433
=== CODE BLOCK END ===

=== CODE BLOCK ADDRESS 0x1433 ===
  0x1433	sub    	esp, 0x28
  0x1436	dec    	eax
  0x1437	shr    	edx, 1
  0x1439	xor    	ebp, ebp
  0x143b	dec    	eax
  === BLOCK LINK ===
    0x143c
=== CODE BLOCK END ===

=== CODE BLOCK ADDRESS 0x143c ===
  0x143c	mov    	edi, ecx
  0x143e	mov    	esi, ebp
  0x1440	mov    	ecx, 0x80070057
  0x1445	dec    	eax
  0x1446	lea    	eax, [edx - 1]
  === BLOCK LINK ===
    0x1449
=== CODE BLOCK END ===

=== CODE BLOCK ADDRESS 0x1449 ===
  0x1449	dec    	eax
  0x144a	cmp    	eax, 0x7ffffffe
  0x144f	cmova  	esi, ecx
  0x1452	test   	esi, esi
  0x1454	js     	0x1491
  === BLOCK LINK ===
    0x1456
    0x1491
=== CODE BLOCK END ===

=== CODE BLOCK ADDRESS 0x1456 ===
  0x1456	dec    	eax
  0x1457	lea    	ebx, [edx - 1]
  0x145a	dec    	eax
  0x145b	mov    	ecx, edi
  0x145d	dec    	eax
  === BLOCK LINK ===
    0x145e
=== CODE BLOCK END ===

=== CODE BLOCK ADDRESS 0x145e ===
  0x145e	mov    	edx, ebx
  0x1460	dec    	esp
  0x1461	lea    	ecx, [esp + 0x68]
  0x1465	mov    	esi, ebp
  0x1467	dec    	eax
  === BLOCK LINK ===
    0x1468
=== CODE BLOCK END ===

=== CODE BLOCK ADDRESS 0x1468 ===
  0x1468	call   	dword ptr [0x3fb2]
  === BLOCK LINK ===
    0x146e
=== CODE BLOCK END ===

=== CODE BLOCK ADDRESS 0x146e ===
  0x146e	nop    	dword ptr [eax + eax]
  0x1473	test   	eax, eax
  0x1475	js     	0x1486
  === BLOCK LINK ===
    0x1477
    0x1486
=== CODE BLOCK END ===

=== CODE BLOCK ADDRESS 0x1477 ===
  0x1477	dec    	eax
  0x1478	cwde   	
  0x1479	dec    	eax
  0x147a	cmp    	eax, ebx
  0x147c	ja     	0x1486
  === BLOCK LINK ===
    0x147e
    0x1486
=== CODE BLOCK END ===

=== CODE BLOCK ADDRESS 0x147e ===
  0x147e	jne    	0x1499
  === BLOCK LINK ===
    0x1480
    0x1499
=== CODE BLOCK END ===

=== CODE BLOCK ADDRESS 0x1480 ===
  0x1480	mov    	word ptr [edi + ebx*2], bp
  0x1484	jmp    	0x1499
  === BLOCK LINK ===
    0x1486
    0x1499
=== CODE BLOCK END ===

=== CODE BLOCK ADDRESS 0x1486 ===
  0x1486	mov    	word ptr [edi + ebx*2], bp
  0x148a	mov    	esi, 0x8007007a
  0x148f	jmp    	0x1499
  === BLOCK LINK ===
    0x1491
    0x1499
=== CODE BLOCK END ===

=== CODE BLOCK ADDRESS 0x1491 ===
  0x1491	dec    	eax
  0x1492	test   	edx, edx
  0x1494	je     	0x1499
  === BLOCK LINK ===
    0x1496
    0x1499
=== CODE BLOCK END ===

=== CODE BLOCK ADDRESS 0x1496 ===
  0x1496	mov    	word ptr [edi], bp
  === BLOCK LINK ===
    0x1499
=== CODE BLOCK END ===

=== CODE BLOCK ADDRESS 0x14a0 ===
  0x14a0	pop    	esi
  0x14a1	pop    	ebp
  0x14a2	pop    	ebx
  0x14a3	ret    	
  0x14a4	int3   	
  === BLOCK LINK ===
    0x14a5
=== CODE BLOCK END ===

=== CODE BLOCK ADDRESS 0x14a5 ===
  0x14a5	int3   	
  0x14a6	int3   	
  0x14a7	int3   	
  0x14a8	int3   	
  0x14a9	int3   	
  === BLOCK LINK ===
    0x14aa
=== CODE BLOCK END ===

=== CODE BLOCK ADDRESS 0x14aa ===
  0x14aa	int3   	
  0x14ab	int3   	
  0x14ac	nop    	
  0x14ae	ret    	
  0x14af	int3   	
  === BLOCK LINK ===
    0x14b0
=== CODE BLOCK END ===

=== CODE BLOCK ADDRESS 0x1171 ===
  0x1171	dec    	eax
  0x1172	inc    	eax
  0x1174	inc    	esp
  === BLOCK LINK ===
    0x1175
=== CODE BLOCK END ===

=== CODE BLOCK ADDRESS 0x14b0 ===
  0x14b0	int3   	
  0x14b1	int3   	
  0x14b2	int3   	
  0x14b3	int3   	
  0x14b4	int3   	
  === BLOCK LINK ===
    0x14b5
=== CODE BLOCK END ===

=== CODE BLOCK ADDRESS 0x14b5 ===
  0x14b5	int3   	
  0x14b6	int3   	
  0x14b7	int3   	
  0x14b8	dec    	eax
  0x14b9	mov    	eax, esp
  === BLOCK LINK ===
    0x14bb
=== CODE BLOCK END ===

=== CODE BLOCK ADDRESS 0x14bb ===
  0x14bb	dec    	eax
  0x14bc	mov    	dword ptr [eax + 8], ebx
  0x14bf	dec    	eax
  0x14c0	mov    	dword ptr [eax + 0x10], ebp
  0x14c3	dec    	eax
  === BLOCK LINK ===
    0x14c4
=== CODE BLOCK END ===

=== CODE BLOCK ADDRESS 0x14c4 ===
  0x14c4	mov    	dword ptr [eax + 0x18], esi
  0x14c7	dec    	eax
  0x14c8	mov    	dword ptr [eax + 0x20], edi
  0x14cb	inc    	ecx
  0x14cc	push   	esp
  === BLOCK LINK ===
    0x14cd
=== CODE BLOCK END ===

=== CODE BLOCK ADDRESS 0x14cd ===
  0x14cd	inc    	ecx
  0x14ce	push   	esi
  0x14cf	inc    	ecx
  0x14d0	push   	edi
  0x14d1	inc    	ebp
  === BLOCK LINK ===
    0x14d2
=== CODE BLOCK END ===

=== CODE BLOCK ADDRESS 0x14d2 ===
  0x14d2	xor    	edi, edi
  0x14d4	dec    	eax
  0x14d5	mov    	esi, ecx
  0x14d7	inc    	ebp
  0x14d8	mov    	esi, edi
  === BLOCK LINK ===
    0x14da
=== CODE BLOCK END ===

=== CODE BLOCK ADDRESS 0x14da ===
  0x14da	inc    	ecx
  0x14db	mov    	edi, edi
  0x14dd	inc    	ecx
  0x14de	mov    	ebp, edi
  0x14e0	inc    	ecx
  === BLOCK LINK ===
    0x14e1
=== CODE BLOCK END ===

=== CODE BLOCK ADDRESS 0x14e1 ===
  0x14e1	mov    	ebx, edi
  0x14e3	inc    	ebp
  0x14e4	mov    	ebx, edi
  0x14e6	inc    	ebp
  0x14e7	mov    	edx, edi
  === BLOCK LINK ===
    0x14e9
=== CODE BLOCK END ===

=== CODE BLOCK ADDRESS 0x14e9 ===
  0x14e9	inc    	ebp
  0x14ea	lea    	esp, [edi + 1]
  0x14ed	inc    	ebp
  0x14ee	mov    	eax, edi
  0x14f0	dec    	esp
  === BLOCK LINK ===
    0x14f1
=== CODE BLOCK END ===

=== CODE BLOCK ADDRESS 0x14f1 ===
  0x14f1	mov    	ecx, ecx
  0x14f3	inc    	ecx
  0x14f4	mov    	ecx, eax
  0x14f6	inc    	ebp
  0x14f7	test   	eax, eax
  === BLOCK LINK ===
    0x14f9
=== CODE BLOCK END ===

=== CODE BLOCK ADDRESS 0x14f9 ===
  0x14f9	je     	0x158a
  === BLOCK LINK ===
    0x14ff
    0x158a
=== CODE BLOCK END ===

=== CODE BLOCK ADDRESS 0x14ff ===
  0x14ff	inc    	ecx
  0x1500	sub    	ecx, esp
  0x1502	je     	0x1537
  === BLOCK LINK ===
    0x1504
    0x1537
=== CODE BLOCK END ===

=== CODE BLOCK ADDRESS 0x1504 ===
  0x1504	inc    	ecx
  0x1505	cmp    	ecx, esp
  0x1507	jne    	0x15d7
  === BLOCK LINK ===
    0x150d
    0x15d7
=== CODE BLOCK END ===

=== CODE BLOCK ADDRESS 0x150d ===
  0x150d	inc    	ecx
  0x150e	movzx  	eax, word ptr [ecx]
  0x1511	sub    	ax, 0x30
  0x1515	cmp    	ax, 9
  0x1519	ja     	0x1617
  === BLOCK LINK ===
    0x151f
    0x1617
=== CODE BLOCK END ===

=== CODE BLOCK ADDRESS 0x151f ===
  0x151f	inc    	ecx
  0x1520	movzx  	eax, word ptr [ecx]
  0x1523	inc    	edi
  0x1524	lea    	ebx, [ebx + ebx*4]
  0x1527	inc    	ebp
  === BLOCK LINK ===
    0x1528
=== CODE BLOCK END ===

=== CODE BLOCK ADDRESS 0x1528 ===
  0x1528	lea    	ebx, [ebx - 0x18]
  0x152b	inc    	ecx
  0x152c	mov    	edi, esp
  0x152e	inc    	esi
  0x152f	lea    	ebx, [eax + ebx*2]
  === BLOCK LINK ===
    0x1532
=== CODE BLOCK END ===

=== CODE BLOCK ADDRESS 0x1532 ===
  0x1532	jmp    	0x1605
  === BLOCK LINK ===
    0x1537
    0x1605
=== CODE BLOCK END ===

=== CODE BLOCK ADDRESS 0x1537 ===
  0x1537	inc    	ecx
  0x1538	movzx  	eax, word ptr [ecx]
  0x153b	sub    	ax, 0x30
  0x153f	cmp    	ax, 9
  0x1543	ja     	0x155a
  === BLOCK LINK ===
    0x1545
    0x155a
=== CODE BLOCK END ===

=== CODE BLOCK ADDRESS 0x1545 ===
  0x1545	inc    	ecx
  0x1546	movzx  	eax, word ptr [ecx]
  0x1549	lea    	ebx, [ebx + ebx*4]
  0x154c	lea    	ebx, [ebx - 0x18]
  0x154f	inc    	ebp
  === BLOCK LINK ===
    0x1550
=== CODE BLOCK END ===

=== CODE BLOCK ADDRESS 0x1550 ===
  0x1550	mov    	esi, esp
  0x1552	lea    	ebx, [eax + ebx*2]
  0x1555	jmp    	0x1605
  === BLOCK LINK ===
    0x155a
    0x1605
=== CODE BLOCK END ===

=== CODE BLOCK ADDRESS 0x155a ===
  0x155a	inc    	ebp
  0x155b	test   	esi, esi
  0x155d	je     	0x15d7
  === BLOCK LINK ===
    0x155f
    0x15d7
=== CODE BLOCK END ===

=== CODE BLOCK ADDRESS 0x155f ===
  0x155f	cmp    	ebx, 0xff
  0x1565	jg     	0x15d7
  === BLOCK LINK ===
    0x1567
    0x15d7
=== CODE BLOCK END ===

=== CODE BLOCK ADDRESS 0x1567 ===
  0x1567	mov    	ecx, dword ptr [edx]
  0x1569	cmp    	ebx, 0x40
  0x156c	jl     	0x1572
  === BLOCK LINK ===
    0x156e
    0x1572
=== CODE BLOCK END ===

=== CODE BLOCK ADDRESS 0x156e ===
  0x156e	bts    	ecx, 0x1e
  === BLOCK LINK ===
    0x1572
=== CODE BLOCK END ===

=== CODE BLOCK ADDRESS 0x157b ===
  0x157b	inc    	cx
  0x157d	cmp    	dword ptr [ecx], 0x3a
  0x1580	jne    	0x15d7
  === BLOCK LINK ===
    0x1582
    0x15d7
=== CODE BLOCK END ===

=== CODE BLOCK ADDRESS 0x1582 ===
  0x1582	inc    	ecx
  0x1583	mov    	eax, 2
  0x1588	jmp    	0x1605
  === BLOCK LINK ===
    0x158a
    0x1605
=== CODE BLOCK END ===

=== CODE BLOCK ADDRESS 0x158a ===
  0x158a	inc    	cx
  0x158c	cmp    	dword ptr [ecx], 0x30
  0x158f	jb     	0x15d7
  === BLOCK LINK ===
    0x1591
    0x15d7
=== CODE BLOCK END ===

=== CODE BLOCK ADDRESS 0x1591 ===
  0x1591	inc    	cx
  0x1593	cmp    	dword ptr [ecx], 0x39
  0x1596	jbe    	0x15f5
  === BLOCK LINK ===
    0x1598
=== CODE BLOCK END ===

=== CODE BLOCK ADDRESS 0x1598 ===
  0x1598	inc    	cx
  0x159a	cmp    	dword ptr [ecx], 0x3a
  0x159d	je     	0x15d2
  === BLOCK LINK ===
    0x159f
=== CODE BLOCK END ===

=== CODE BLOCK ADDRESS 0x159f ===
  0x159f	inc    	cx
  0x15a1	cmp    	dword ptr [ecx], 0x50
  0x15a4	je     	0x15c4
  === BLOCK LINK ===
    0x15a6
=== CODE BLOCK END ===

=== CODE BLOCK ADDRESS 0x15a6 ===
  0x15a6	inc    	cx
  0x15a8	cmp    	dword ptr [ecx], 0x55
  0x15ab	je     	0x15bb
  === BLOCK LINK ===
    0x15ad
=== CODE BLOCK END ===

=== CODE BLOCK ADDRESS 0x15ad ===
  0x15ad	inc    	cx
  0x15af	cmp    	dword ptr [ecx], 0x70
  0x15b2	je     	0x15c4
  === BLOCK LINK ===
    0x15b4
=== CODE BLOCK END ===

=== CODE BLOCK ADDRESS 0x15b4 ===
  0x15b4	inc    	cx
  0x15b6	cmp    	dword ptr [ecx], 0x75
  0x15b9	jne    	0x15d7
  === BLOCK LINK ===
    0x15bb
=== CODE BLOCK END ===

=== CODE BLOCK ADDRESS 0x15bb ===
  0x15bb	test   	ebp, ebp
  0x15bd	jne    	0x15d7
  === BLOCK LINK ===
    0x15bf
=== CODE BLOCK END ===

=== CODE BLOCK ADDRESS 0x15bf ===
  0x15bf	inc    	ecx
  0x15c0	mov    	ebp, esp
  0x15c2	jmp    	0x1605
  === BLOCK LINK ===
    0x15c4
=== CODE BLOCK END ===

=== CODE BLOCK ADDRESS 0x15c4 ===
  0x15c4	mov    	eax, dword ptr [edx]
  0x15c6	test   	eax, eax
  0x15c8	js     	0x15d7
  === BLOCK LINK ===
    0x15ca
=== CODE BLOCK END ===

=== CODE BLOCK ADDRESS 0x15ca ===
  0x15ca	bts    	eax, 0x1f
  0x15ce	mov    	dword ptr [edx], eax
  0x15d0	jmp    	0x1605
  === BLOCK LINK ===
    0x15d2
=== CODE BLOCK END ===

=== CODE BLOCK ADDRESS 0x15d2 ===
  0x15d2	inc    	ebp
  0x15d3	test   	edx, edx
  0x15d5	jne    	0x1602
  === BLOCK LINK ===
    0x15d7
=== CODE BLOCK END ===

=== CODE BLOCK ADDRESS 0x15d7 ===
  0x15d7	xor    	eax, eax
  0x15d9	dec    	eax
  0x15da	mov    	ebx, dword ptr [esp + 0x20]
  0x15de	dec    	eax
  0x15df	mov    	ebp, dword ptr [esp + 0x28]
  === BLOCK LINK ===
    0x15e3
=== CODE BLOCK END ===

=== CODE BLOCK ADDRESS 0x15e3 ===
  0x15e3	dec    	eax
  0x15e4	mov    	esi, dword ptr [esp + 0x30]
  0x15e8	dec    	eax
  0x15e9	mov    	edi, dword ptr [esp + 0x38]
  0x15ed	inc    	ecx
  === BLOCK LINK ===
    0x15ee
=== CODE BLOCK END ===

=== CODE BLOCK ADDRESS 0x15ee ===
  0x15ee	pop    	edi
  0x15ef	inc    	ecx
  0x15f0	pop    	esi
  0x15f1	inc    	ecx
  0x15f2	pop    	esp
  === BLOCK LINK ===
    0x15f3
=== CODE BLOCK END ===

=== CODE BLOCK ADDRESS 0x15f3 ===
  0x15f3	ret    	
  0x15f4	int3   	
  0x15f5	inc    	ebp
  0x15f6	test   	edx, edx
  0x15f8	jne    	0x15d7
  === BLOCK LINK ===
    0x15fa
=== CODE BLOCK END ===

=== CODE BLOCK ADDRESS 0x118a ===
  0x118a	mov    	dword ptr [esp + 0x58], eax
  0x118e	dec    	eax
  === BLOCK LINK ===
    0x118f
=== CODE BLOCK END ===

=== CODE BLOCK ADDRESS 0x15fa ===
  0x15fa	inc    	ecx
  0x15fb	or     	edx, 0xffffffff
  0x15fe	dec    	ecx
  0x15ff	sub    	ecx, 2
  0x1602	inc    	ebp
  === BLOCK LINK ===
    0x1603
=== CODE BLOCK END ===

=== CODE BLOCK ADDRESS 0x1603 ===
  0x1603	mov    	eax, esp
  === BLOCK LINK ===
    0x1605
=== CODE BLOCK END ===

=== CODE BLOCK ADDRESS 0x160c ===
  0x160c	inc    	ecx
  0x160d	cmp    	eax, 4
  0x1610	je     	0x15d7
  === BLOCK LINK ===
    0x1612
=== CODE BLOCK END ===

=== CODE BLOCK ADDRESS 0x1612 ===
  0x1612	jmp    	0x14f3
  === BLOCK LINK ===
    0x1617
=== CODE BLOCK END ===

=== CODE BLOCK ADDRESS 0x1617 ===
  0x1617	test   	edi, edi
  0x1619	je     	0x15d7
  === BLOCK LINK ===
    0x161b
=== CODE BLOCK END ===

=== CODE BLOCK ADDRESS 0x161b ===
  0x161b	inc    	ecx
  0x161c	cmp    	ebx, 0xffff
  0x1622	jg     	0x15d7
  === BLOCK LINK ===
    0x1624
=== CODE BLOCK END ===

=== CODE BLOCK ADDRESS 0x1624 ===
  0x1624	and    	dword ptr [edx], 0xffff0000
  0x162a	inc    	esp
  0x162b	or     	dword ptr [edx], ebx
  0x162d	dec    	ecx
  0x162e	arpl   	dx, cx
  === BLOCK LINK ===
    0x1630
=== CODE BLOCK END ===

=== CODE BLOCK ADDRESS 0x1630 ===
  0x1630	inc    	sp
  0x1632	cmp    	dword ptr [esi + ecx*2], edi
  0x1635	jne    	0x15d7
  === BLOCK LINK ===
    0x1637
=== CODE BLOCK END ===

=== CODE BLOCK ADDRESS 0x1637 ===
  0x1637	inc    	ecx
  0x1638	mov    	eax, esp
  0x163a	jmp    	0x15d9
  === BLOCK LINK ===
    0x163c
=== CODE BLOCK END ===

=== CODE BLOCK ADDRESS 0x163c ===
  0x163c	int3   	
  0x163d	int3   	
  0x163e	int3   	
  0x163f	int3   	
  0x1640	int3   	
  === BLOCK LINK ===
    0x1641
=== CODE BLOCK END ===

=== CODE BLOCK ADDRESS 0x1641 ===
  0x1641	int3   	
  0x1642	int3   	
  0x1643	int3   	
  0x1644	dec    	esp
  0x1645	mov    	dword ptr [esp + 0x20], ecx
  === BLOCK LINK ===
    0x1649
=== CODE BLOCK END ===

=== CODE BLOCK ADDRESS 0x1649 ===
  0x1649	dec    	esp
  0x164a	mov    	dword ptr [esp + 0x18], eax
  0x164e	dec    	eax
  0x164f	mov    	dword ptr [esp + 0x10], edx
  0x1653	push   	ebx
  === BLOCK LINK ===
    0x1654
=== CODE BLOCK END ===

=== CODE BLOCK ADDRESS 0x1654 ===
  0x1654	push   	ebp
  0x1655	push   	esi
  0x1656	push   	edi
  0x1657	inc    	ecx
  0x1658	push   	esp
  === BLOCK LINK ===
    0x1659
=== CODE BLOCK END ===

=== CODE BLOCK ADDRESS 0x1659 ===
  0x1659	inc    	ecx
  0x165a	push   	ebp
  0x165b	inc    	ecx
  0x165c	push   	esi
  0x165d	inc    	ecx
  === BLOCK LINK ===
    0x165e
=== CODE BLOCK END ===

=== CODE BLOCK ADDRESS 0x165e ===
  0x165e	push   	edi
  0x165f	dec    	eax
  0x1660	sub    	esp, 0x38
  0x1663	dec    	esp
  0x1664	mov    	edi, dword ptr [esp + 0xa0]
  === BLOCK LINK ===
    0x166b
=== CODE BLOCK END ===

=== CODE BLOCK ADDRESS 0x166b ===
  0x166b	inc    	ebp
  0x166c	xor    	edx, edx
  0x166e	dec    	eax
  0x166f	mov    	edi, dword ptr [esp + 0xb0]
  0x1676	dec    	ecx
  === BLOCK LINK ===
    0x1677
=== CODE BLOCK END ===

=== CODE BLOCK ADDRESS 0x1677 ===
  0x1677	mov    	eax, eax
  0x1679	dec    	esp
  0x167a	mov    	esp, dword ptr [esp + 0xc8]
  0x1681	dec    	esp
  0x1682	mov    	eax, edx
  === BLOCK LINK ===
    0x1684
=== CODE BLOCK END ===

=== CODE BLOCK ADDRESS 0x1684 ===
  0x1684	dec    	eax
  0x1685	mov    	edx, dword ptr [esp + 0xa8]
  0x168c	inc    	ecx
  0x168d	mov    	ebp, edx
  0x168f	dec    	esp
  === BLOCK LINK ===
    0x1690
=== CODE BLOCK END ===

=== CODE BLOCK ADDRESS 0x1690 ===
  0x1690	mov    	ebp, dword ptr [esp + 0xd0]
  0x1697	inc    	ecx
  0x1698	mov    	esi, edx
  0x169a	inc    	ebp
  0x169b	mov    	dword ptr [ecx], edx
  === BLOCK LINK ===
    0x169d
=== CODE BLOCK END ===

=== CODE BLOCK ADDRESS 0x169d ===
  0x169d	inc    	ebp
  0x169e	mov    	esi, edx
  0x16a0	dec    	esp
  0x16a1	mov    	ecx, dword ptr [esp + 0x100]
  0x16a8	inc    	ebp
  === BLOCK LINK ===
    0x16a9
=== CODE BLOCK END ===

=== CODE BLOCK ADDRESS 0x16a9 ===
  0x16a9	mov    	ebx, edx
  0x16ab	inc    	esp
  0x16ac	mov    	dword ptr [edx], edx
  0x16ae	inc    	ecx
  0x16af	mov    	ebx, edx
  === BLOCK LINK ===
    0x16b1
=== CODE BLOCK END ===

=== CODE BLOCK ADDRESS 0x16b1 ===
  0x16b1	dec    	eax
  0x16b2	mov    	edx, dword ptr [esp + 0xb8]
  0x16b9	inc    	esp
  0x16ba	mov    	dword ptr [esp + 0x80], edx
  0x16c1	inc    	esp
  === BLOCK LINK ===
    0x16c2
=== CODE BLOCK END ===

=== CODE BLOCK ADDRESS 0x16c2 ===
  0x16c2	mov    	dword ptr [eax], edx
  0x16c4	inc    	ebp
  0x16c5	mov    	dword ptr [edi], edx
  0x16c7	inc    	esp
  0x16c8	mov    	dword ptr [edx], edx
  === BLOCK LINK ===
    0x16ca
=== CODE BLOCK END ===

=== CODE BLOCK ADDRESS 0x16ca ===
  0x16ca	dec    	eax
  0x16cb	mov    	edx, dword ptr [esp + 0xc0]
  0x16d2	inc    	esp
  0x16d3	mov    	dword ptr [edi], edx
  0x16d5	inc    	ebp
  === BLOCK LINK ===
    0x16d6
=== CODE BLOCK END ===

=== CODE BLOCK ADDRESS 0x16d6 ===
  0x16d6	mov    	dword ptr [esp], edx
  0x16d9	inc    	ebp
  0x16da	mov    	dword ptr [ebp], edx
  0x16dd	inc    	esp
  0x16de	mov    	dword ptr [edx], edx
  === BLOCK LINK ===
    0x16e0
=== CODE BLOCK END ===

=== CODE BLOCK ADDRESS 0x16e0 ===
  0x16e0	dec    	eax
  0x16e1	mov    	edx, dword ptr [esp + 0xd8]
  0x16e8	dec    	ebp
  0x16e9	mov    	dword ptr [ecx], edx
  0x16eb	inc    	esp
  === BLOCK LINK ===
    0x16ec
=== CODE BLOCK END ===

=== CODE BLOCK ADDRESS 0x16ec ===
  0x16ec	mov    	dword ptr [edx], edx
  0x16ee	dec    	eax
  0x16ef	mov    	edx, dword ptr [esp + 0xe0]
  0x16f6	inc    	esp
  0x16f7	mov    	dword ptr [edx], edx
  === BLOCK LINK ===
    0x16f9
=== CODE BLOCK END ===

=== CODE BLOCK ADDRESS 0x16f9 ===
  0x16f9	dec    	eax
  0x16fa	mov    	edx, dword ptr [esp + 0xe8]
  0x1701	inc    	esp
  0x1702	mov    	dword ptr [edx], edx
  0x1704	dec    	eax
  === BLOCK LINK ===
    0x1705
=== CODE BLOCK END ===

=== CODE BLOCK ADDRESS 0x1705 ===
  0x1705	mov    	edx, dword ptr [esp + 0xf0]
  0x170c	inc    	esp
  0x170d	mov    	dword ptr [edx], edx
  0x170f	dec    	eax
  0x1710	mov    	edx, dword ptr [esp + 0xf8]
  === BLOCK LINK ===
    0x1717
=== CODE BLOCK END ===

=== CODE BLOCK ADDRESS 0x1717 ===
  0x1717	inc    	esp
  0x1718	mov    	dword ptr [edx], edx
  0x171a	dec    	eax
  0x171b	mov    	edx, dword ptr [esp + 0x108]
  0x1722	dec    	esp
  === BLOCK LINK ===
    0x1723
=== CODE BLOCK END ===

=== CODE BLOCK ADDRESS 0x1723 ===
  0x1723	mov    	dword ptr [edx], edx
  0x1725	dec    	eax
  0x1726	mov    	edx, dword ptr [esp + 0x110]
  0x172d	dec    	esp
  0x172e	arpl   	cx, dx
  === BLOCK LINK ===
    0x1730
=== CODE BLOCK END ===

=== CODE BLOCK ADDRESS 0x1730 ===
  0x1730	dec    	esp
  0x1731	mov    	dword ptr [esp + 0x20], edx
  0x1735	mov    	dword ptr [edx], 0x1e
  0x173b	dec    	eax
  0x173c	mov    	edx, dword ptr [esp + 0x118]
  === BLOCK LINK ===
    0x1743
=== CODE BLOCK END ===

=== CODE BLOCK ADDRESS 0x1743 ===
  0x1743	mov    	dword ptr [edx], 0x800000ff
  0x1749	dec    	ecx
  0x174a	cmp    	edx, 1
  0x174d	jle    	0x1cb3
  === BLOCK LINK ===
    0x1753
=== CODE BLOCK END ===

=== CODE BLOCK ADDRESS 0x1753 ===
  0x1753	mov    	edi, 1
  0x1758	dec    	ecx
  0x1759	mov    	edx, dword ptr [eax + edi*8]
  0x175c	cmp    	word ptr [edx], 0x2d
  0x1760	je     	0x176c
  === BLOCK LINK ===
    0x1762
=== CODE BLOCK END ===

=== CODE BLOCK ADDRESS 0x1762 ===
  0x1762	cmp    	word ptr [edx], 0x2f
  0x1766	jne    	0x1ab7
  === BLOCK LINK ===
    0x176c
=== CODE BLOCK END ===

=== CODE BLOCK ADDRESS 0x176c ===
  0x176c	movzx  	ecx, word ptr [edx + 2]
  0x1770	cmp    	ecx, 0x59
  0x1773	ja     	0x1845
  === BLOCK LINK ===
    0x1779
=== CODE BLOCK END ===

=== CODE BLOCK ADDRESS 0x1779 ===
  0x1779	je     	0x1c88
  === BLOCK LINK ===
    0x177f
=== CODE BLOCK END ===

=== CODE BLOCK ADDRESS 0x177f ===
  0x177f	cmp    	ecx, 0x4c
  0x1782	ja     	0x1792
  === BLOCK LINK ===
    0x1784
=== CODE BLOCK END ===

=== CODE BLOCK ADDRESS 0x1784 ===
  0x1784	je     	0x1a63
  === BLOCK LINK ===
    0x178a
=== CODE BLOCK END ===

=== CODE BLOCK ADDRESS 0x178a ===
  0x178a	sub    	ecx, 0x41
  0x178d	jmp    	0x1857
  === BLOCK LINK ===
    0x1792
=== CODE BLOCK END ===

=== CODE BLOCK ADDRESS 0x1792 ===
  0x1792	sub    	ecx, 0x4d
  0x1795	je     	0x1c42
  === BLOCK LINK ===
    0x179b
=== CODE BLOCK END ===

=== CODE BLOCK ADDRESS 0x179b ===
  0x179b	sub    	ecx, 2
  0x179e	je     	0x1c21
  === BLOCK LINK ===
    0x17a4
=== CODE BLOCK END ===

=== CODE BLOCK ADDRESS 0x17a4 ===
  0x17a4	sub    	ecx, 1
  0x17a7	je     	0x1c14
  === BLOCK LINK ===
    0x17ad
=== CODE BLOCK END ===

=== CODE BLOCK ADDRESS 0x17ad ===
  0x17ad	sub    	ecx, 2
  0x17b0	je     	0x1bfd
  === BLOCK LINK ===
    0x17b6
=== CODE BLOCK END ===

=== CODE BLOCK ADDRESS 0x17b6 ===
  0x17b6	sub    	ecx, 1
  0x17b9	je     	0x1acb
  === BLOCK LINK ===
    0x17bf
=== CODE BLOCK END ===

=== CODE BLOCK ADDRESS 0x17bf ===
  0x17bf	cmp    	ecx, 1
  0x17c2	jne    	0x1ab7
  === BLOCK LINK ===
    0x17c8
=== CODE BLOCK END ===

=== CODE BLOCK ADDRESS 0x17c8 ===
  0x17c8	xor    	ecx, ecx
  0x17ca	test   	ebp, ebp
  0x17cc	jne    	0x1ab7
  === BLOCK LINK ===
    0x17d2
=== CODE BLOCK END ===

=== CODE BLOCK ADDRESS 0x17d2 ===
  0x17d2	dec    	eax
  0x17d3	inc    	edi
  0x17d5	dec    	ecx
  0x17d6	cmp    	edi, edx
  0x17d8	je     	0x1ab7
  === BLOCK LINK ===
    0x17de
=== CODE BLOCK END ===

=== CODE BLOCK ADDRESS 0x17de ===
  0x17de	dec    	ebp
  0x17df	mov    	ecx, dword ptr [eax + edi*8]
  0x17e2	inc    	ecx
  0x17e3	movzx  	edx, word ptr [ecx]
  0x17e6	lea    	eax, [edx - 0x30]
  === BLOCK LINK ===
    0x17e9
=== CODE BLOCK END ===

=== CODE BLOCK ADDRESS 0x17e9 ===
  0x17e9	cmp    	ax, 9
  0x17ed	ja     	0x1ab7
  === BLOCK LINK ===
    0x17f3
=== CODE BLOCK END ===

=== CODE BLOCK ADDRESS 0x17f3 ===
  0x17f3	dec    	eax
  0x17f4	mov    	ebp, dword ptr [esp + 0x110]
  0x17fb	mov    	dword ptr [ebp], ecx
  0x17fe	lea    	eax, [edx - 0x30]
  0x1801	cmp    	ax, 9
  === BLOCK LINK ===
    0x1805
=== CODE BLOCK END ===

=== CODE BLOCK ADDRESS 0x1805 ===
  0x1805	ja     	0x1ab7
  === BLOCK LINK ===
    0x180b
=== CODE BLOCK END ===

=== CODE BLOCK ADDRESS 0x180b ===
  0x180b	mov    	eax, dword ptr [ebp]
  0x180e	dec    	ecx
  0x180f	add    	ecx, 2
  0x1812	inc    	esp
  0x1813	lea    	eax, [eax + eax*4]
  === BLOCK LINK ===
    0x1816
=== CODE BLOCK END ===

=== CODE BLOCK ADDRESS 0x1816 ===
  0x1816	movzx  	eax, dx
  0x1819	inc    	ecx
  0x181a	movzx  	edx, word ptr [ecx]
  0x181d	inc    	ebp
  0x181e	lea    	eax, [eax - 0x18]
  === BLOCK LINK ===
    0x1821
=== CODE BLOCK END ===

=== CODE BLOCK ADDRESS 0x1821 ===
  0x1821	inc    	esi
  0x1822	lea    	eax, [eax + eax*2]
  0x1825	inc    	esp
  0x1826	mov    	dword ptr [ebp], eax
  0x1829	test   	dx, dx
  === BLOCK LINK ===
    0x182c
=== CODE BLOCK END ===

=== CODE BLOCK ADDRESS 0x182c ===
  0x182c	jne    	0x17fe
  === BLOCK LINK ===
    0x182e
=== CODE BLOCK END ===

=== CODE BLOCK ADDRESS 0x182e ===
  0x182e	inc    	ecx
  0x182f	cmp    	eax, 0x12cc0300
  0x1835	ja     	0x1ab7
  === BLOCK LINK ===
    0x183b
=== CODE BLOCK END ===

=== CODE BLOCK ADDRESS 0x183b ===
  0x183b	mov    	ebp, 1
  0x1840	jmp    	0x19de
  === BLOCK LINK ===
    0x1845
=== CODE BLOCK END ===

=== CODE BLOCK ADDRESS 0x1845 ===
  0x1845	cmp    	ecx, 0x6c
  0x1848	ja     	0x1a7c
  === BLOCK LINK ===
    0x184e
=== CODE BLOCK END ===

=== CODE BLOCK ADDRESS 0x184e ===
  0x184e	je     	0x1a63
  === BLOCK LINK ===
    0x1854
=== CODE BLOCK END ===

=== CODE BLOCK ADDRESS 0x1854 ===
  0x1854	sub    	ecx, 0x61
  0x1857	je     	0x1a56
  === BLOCK LINK ===
    0x185d
=== CODE BLOCK END ===

=== CODE BLOCK ADDRESS 0x185d ===
  0x185d	sub    	ecx, 2
  0x1860	je     	0x19f3
  === BLOCK LINK ===
    0x1866
=== CODE BLOCK END ===

=== CODE BLOCK ADDRESS 0x1866 ===
  0x1866	sub    	ecx, 1
  0x1869	je     	0x199c
  === BLOCK LINK ===
    0x186f
=== CODE BLOCK END ===

=== CODE BLOCK ADDRESS 0x186f ===
  0x186f	sub    	ecx, 1
  0x1872	je     	0x198f
  === BLOCK LINK ===
    0x1878
=== CODE BLOCK END ===

=== CODE BLOCK ADDRESS 0x1878 ===
  0x1878	sub    	ecx, 1
  0x187b	je     	0x193f
  === BLOCK LINK ===
    0x1881
=== CODE BLOCK END ===

=== CODE BLOCK ADDRESS 0x1881 ===
  0x1881	sub    	ecx, 1
  0x1884	je     	0x1929
  === BLOCK LINK ===
    0x188a
=== CODE BLOCK END ===

=== CODE BLOCK ADDRESS 0x188a ===
  0x188a	cmp    	ecx, 1
  0x188d	jne    	0x1ab7
  === BLOCK LINK ===
    0x1893
=== CODE BLOCK END ===

=== CODE BLOCK ADDRESS 0x1893 ===
  0x1893	movzx  	eax, word ptr [edx + 4]
  0x1897	mov    	ecx, 0xffdf
  0x189c	sub    	ax, 0x59
  0x18a0	test   	cx, ax
  0x18a3	jne    	0x1900
  === BLOCK LINK ===
    0x18a5
=== CODE BLOCK END ===

=== CODE BLOCK ADDRESS 0x18a5 ===
  0x18a5	movzx  	eax, word ptr [edx + 6]
  0x18a9	sub    	ax, 0x42
  0x18ad	test   	cx, ax
  0x18b0	jne    	0x1900
  === BLOCK LINK ===
    0x18b2
=== CODE BLOCK END ===

=== CODE BLOCK ADDRESS 0x18b2 ===
  0x18b2	movzx  	eax, word ptr [edx + 8]
  0x18b6	sub    	ax, 0x52
  0x18ba	test   	cx, ax
  0x18bd	jne    	0x1900
  === BLOCK LINK ===
    0x18bf
=== CODE BLOCK END ===

=== CODE BLOCK ADDRESS 0x18bf ===
  0x18bf	movzx  	eax, word ptr [edx + 0xa]
  0x18c3	sub    	ax, 0x49
  0x18c7	test   	cx, ax
  0x18ca	jne    	0x1900
  === BLOCK LINK ===
    0x18cc
=== CODE BLOCK END ===

=== CODE BLOCK ADDRESS 0x18cc ===
  0x18cc	movzx  	eax, word ptr [edx + 0xc]
  0x18d0	sub    	ax, 0x44
  0x18d4	test   	cx, ax
  0x18d7	jne    	0x1900
  === BLOCK LINK ===
    0x18d9
=== CODE BLOCK END ===

=== CODE BLOCK ADDRESS 0x18d9 ===
  0x18d9	xor    	ecx, ecx
  0x18db	cmp    	word ptr [edx + 0xe], cx
  0x18df	jne    	0x1ab7
  === BLOCK LINK ===
    0x18e5
=== CODE BLOCK END ===

=== CODE BLOCK ADDRESS 0x18e5 ===
  0x18e5	dec    	eax
  0x18e6	mov    	eax, dword ptr [esp + 0xe0]
  0x18ed	cmp    	dword ptr [eax], ecx
  0x18ef	jne    	0x1ab7
  === BLOCK LINK ===
    0x18f5
=== CODE BLOCK END ===

=== CODE BLOCK ADDRESS 0x18f5 ===
  0x18f5	mov    	dword ptr [eax], 1
  0x18fb	jmp    	0x1c80
  === BLOCK LINK ===
    0x1900
=== CODE BLOCK END ===

=== CODE BLOCK ADDRESS 0x1900 ===
  0x1900	dec    	eax
  0x1901	mov    	eax, dword ptr [esp + 0xa8]
  0x1908	xor    	ecx, ecx
  0x190a	cmp    	dword ptr [eax], ecx
  0x190c	jne    	0x1ab7
  === BLOCK LINK ===
    0x1912
=== CODE BLOCK END ===

=== CODE BLOCK ADDRESS 0x1912 ===
  0x1912	mov    	dword ptr [eax], 1
  0x1918	cmp    	word ptr [edx + 4], cx
  0x191c	jne    	0x1ab7
  === BLOCK LINK ===
    0x1922
=== CODE BLOCK END ===

=== CODE BLOCK ADDRESS 0x1922 ===
  0x1922	inc    	ebx
  0x1924	jmp    	0x1c80
  === BLOCK LINK ===
    0x1929
=== CODE BLOCK END ===

=== CODE BLOCK ADDRESS 0x1929 ===
  0x1929	xor    	ecx, ecx
  0x192b	inc    	ecx
  0x192c	cmp    	dword ptr [esp], ecx
  0x192f	jne    	0x1ab7
  === BLOCK LINK ===
    0x1935
=== CODE BLOCK END ===

=== CODE BLOCK ADDRESS 0x1935 ===
  0x1935	inc    	ecx
  0x1936	mov    	dword ptr [esp], 1
  0x193d	jmp    	0x1918
  === BLOCK LINK ===
    0x193f
=== CODE BLOCK END ===

=== CODE BLOCK ADDRESS 0x193f ===
  0x193f	movzx  	ecx, word ptr [edx + 4]
  0x1943	inc    	ecx
  0x1944	mov    	edi, 0xffdf
  0x1949	lea    	eax, [ecx - 0x57]
  0x194c	inc    	cx
  === BLOCK LINK ===
    0x194e
=== CODE BLOCK END ===

=== CODE BLOCK ADDRESS 0x194e ===
  0x194e	test   	edi, eax
  0x1950	dec    	esp
  0x1951	mov    	edi, dword ptr [esp + 0xa0]
  0x1958	je     	0x1974
  === BLOCK LINK ===
    0x195a
=== CODE BLOCK END ===

=== CODE BLOCK ADDRESS 0x195a ===
  0x195a	dec    	eax
  0x195b	mov    	eax, dword ptr [esp + 0x98]
  0x1962	xor    	edx, edx
  0x1964	cmp    	dword ptr [eax], edx
  0x1966	jne    	0x1ab7
  === BLOCK LINK ===
    0x196c
=== CODE BLOCK END ===

=== CODE BLOCK ADDRESS 0x196c ===
  0x196c	test   	cx, cx
  0x196f	jmp    	0x18ef
  === BLOCK LINK ===
    0x1974
=== CODE BLOCK END ===

=== CODE BLOCK ADDRESS 0x1974 ===
  0x1974	dec    	eax
  0x1975	mov    	eax, dword ptr [esp + 0xf0]
  0x197c	xor    	ecx, ecx
  0x197e	cmp    	dword ptr [eax], ecx
  0x1980	jne    	0x1ab7
  === BLOCK LINK ===
    0x1986
=== CODE BLOCK END ===

=== CODE BLOCK ADDRESS 0x1986 ===
  0x1986	cmp    	word ptr [edx + 6], cx
  0x198a	jmp    	0x18ef
  === BLOCK LINK ===
    0x198f
=== CODE BLOCK END ===

=== CODE BLOCK ADDRESS 0x198f ===
  0x198f	dec    	eax
  0x1990	mov    	eax, dword ptr [esp + 0xc0]
  0x1997	jmp    	0x1908
  === BLOCK LINK ===
    0x199c
=== CODE BLOCK END ===

=== CODE BLOCK ADDRESS 0x199c ===
  0x199c	inc    	ebp
  0x199d	test   	ebx, ebx
  0x199f	jne    	0x1ab7
  === BLOCK LINK ===
    0x19a5
=== CODE BLOCK END ===

=== CODE BLOCK ADDRESS 0x19a5 ===
  0x19a5	dec    	eax
  0x19a6	inc    	edi
  0x19a8	dec    	ecx
  0x19a9	cmp    	edi, edx
  0x19ab	je     	0x1ab7
  === BLOCK LINK ===
    0x19b1
=== CODE BLOCK END ===

=== CODE BLOCK ADDRESS 0x19b1 ===
  0x19b1	dec    	eax
  0x19b2	mov    	eax, dword ptr [esp + 0x118]
  0x19b9	dec    	ecx
  0x19ba	mov    	ecx, dword ptr [eax + edi*8]
  0x19bd	dec    	eax
  === BLOCK LINK ===
    0x19be
=== CODE BLOCK END ===

=== CODE BLOCK ADDRESS 0x19be ===
  0x19be	mov    	edx, eax
  0x19c0	mov    	dword ptr [eax], 0xff
  0x19c6	call   	0x14b8
  === BLOCK LINK ===
    0x19cb
=== CODE BLOCK END ===

=== CODE BLOCK ADDRESS 0x19cb ===
  0x19cb	test   	eax, eax
  0x19cd	je     	0x1ab7
  === BLOCK LINK ===
    0x19d3
=== CODE BLOCK END ===

=== CODE BLOCK ADDRESS 0x19d3 ===
  0x19d3	dec    	esp
  0x19d4	mov    	edx, dword ptr [esp + 0x20]
  0x19d8	inc    	ecx
  0x19d9	mov    	ebx, 1
  0x19de	dec    	esp
  === BLOCK LINK ===
    0x19df
=== CODE BLOCK END ===

=== CODE BLOCK ADDRESS 0x19df ===
  0x19df	mov    	eax, dword ptr [esp + 0x88]
  0x19e6	dec    	esp
  0x19e7	mov    	ecx, dword ptr [esp + 0x100]
  0x19ee	jmp    	0x1c80
  === BLOCK LINK ===
    0x19f3
=== CODE BLOCK END ===

=== CODE BLOCK ADDRESS 0x19f3 ===
  0x19f3	test   	esi, esi
  0x19f5	jne    	0x1ab7
  === BLOCK LINK ===
    0x19fb
=== CODE BLOCK END ===

=== CODE BLOCK ADDRESS 0x19fb ===
  0x19fb	dec    	eax
  0x19fc	inc    	edi
  0x19fe	dec    	ecx
  0x19ff	cmp    	edi, edx
  0x1a01	je     	0x1ab7
  === BLOCK LINK ===
    0x1a07
=== CODE BLOCK END ===

=== CODE BLOCK ADDRESS 0x1a07 ===
  0x1a07	dec    	eax
  0x1a08	mov    	edx, dword ptr [esp + 0x108]
  0x1a0f	xor    	esi, esi
  0x1a11	dec    	eax
  0x1a12	cmp    	dword ptr [edx], esi
  === BLOCK LINK ===
    0x1a14
=== CODE BLOCK END ===

=== CODE BLOCK ADDRESS 0x1a14 ===
  0x1a14	jne    	0x1ab7
  === BLOCK LINK ===
    0x1a1a
=== CODE BLOCK END ===

=== CODE BLOCK ADDRESS 0x1a1a ===
  0x1a1a	dec    	ecx
  0x1a1b	mov    	ecx, dword ptr [eax + edi*8]
  0x1a1e	dec    	eax
  0x1a1f	or     	eax, 0xffffffff
  0x1a22	dec    	eax
  === BLOCK LINK ===
    0x1a23
=== CODE BLOCK END ===

=== CODE BLOCK ADDRESS 0x1a23 ===
  0x1a23	inc    	eax
  0x1a25	cmp    	word ptr [ecx + eax*2], si
  0x1a29	jne    	0x1a22
  === BLOCK LINK ===
    0x1a2b
=== CODE BLOCK END ===

=== CODE BLOCK ADDRESS 0x1a2b ===
  0x1a2b	dec    	eax
  0x1a2c	cmp    	eax, 0x1ff
  0x1a31	ja     	0x1ab7
  === BLOCK LINK ===
    0x1a37
=== CODE BLOCK END ===

=== CODE BLOCK ADDRESS 0x1a37 ===
  0x1a37	dec    	eax
  0x1a38	or     	eax, 0xffffffff
  0x1a3b	dec    	eax
  0x1a3c	inc    	eax
  0x1a3e	cmp    	word ptr [ecx + eax*2], si
  === BLOCK LINK ===
    0x1a42
=== CODE BLOCK END ===

=== CODE BLOCK ADDRESS 0x1a42 ===
  0x1a42	jne    	0x1a3b
  === BLOCK LINK ===
    0x1a44
=== CODE BLOCK END ===

=== CODE BLOCK ADDRESS 0x1a44 ===
  0x1a44	dec    	eax
  0x1a45	test   	eax, eax
  0x1a47	je     	0x1ab7
  === BLOCK LINK ===
    0x1a49
=== CODE BLOCK END ===

=== CODE BLOCK ADDRESS 0x1a49 ===
  0x1a49	dec    	eax
  0x1a4a	mov    	dword ptr [edx], ecx
  0x1a4c	mov    	esi, 1
  0x1a51	jmp    	0x1c80
  === BLOCK LINK ===
    0x1a56
=== CODE BLOCK END ===

=== CODE BLOCK ADDRESS 0x1a56 ===
  0x1a56	dec    	eax
  0x1a57	mov    	eax, dword ptr [esp + 0xb0]
  0x1a5e	jmp    	0x1908
  === BLOCK LINK ===
    0x1a63
=== CODE BLOCK END ===

=== CODE BLOCK ADDRESS 0x1a63 ===
  0x1a63	xor    	ecx, ecx
  0x1a65	cmp    	dword ptr [eax], ecx
  0x1a67	jne    	0x1ab7
  === BLOCK LINK ===
    0x1a69
=== CODE BLOCK END ===

=== CODE BLOCK ADDRESS 0x1a69 ===
  0x1a69	mov    	dword ptr [eax], 1
  0x1a6f	cmp    	word ptr [edx + 4], cx
  0x1a73	jne    	0x1ab7
  === BLOCK LINK ===
    0x1a75
=== CODE BLOCK END ===

=== CODE BLOCK ADDRESS 0x1a75 ===
  0x1a75	inc    	ebx
  0x1a77	jmp    	0x1c88
  === BLOCK LINK ===
    0x1a7c
=== CODE BLOCK END ===

=== CODE BLOCK ADDRESS 0x1a7c ===
  0x1a7c	sub    	ecx, 0x6d
  0x1a7f	je     	0x1c42
  === BLOCK LINK ===
    0x1a85
=== CODE BLOCK END ===

=== CODE BLOCK ADDRESS 0x1a85 ===
  0x1a85	sub    	ecx, 2
  0x1a88	je     	0x1c21
  === BLOCK LINK ===
    0x1a8e
=== CODE BLOCK END ===

=== CODE BLOCK ADDRESS 0x1a8e ===
  0x1a8e	sub    	ecx, 1
  0x1a91	je     	0x1c14
  === BLOCK LINK ===
    0x1a97
=== CODE BLOCK END ===

=== CODE BLOCK ADDRESS 0x1a97 ===
  0x1a97	sub    	ecx, 2
  0x1a9a	je     	0x1bfd
  === BLOCK LINK ===
    0x1aa0
=== CODE BLOCK END ===

=== CODE BLOCK ADDRESS 0x1aa0 ===
  0x1aa0	sub    	ecx, 1
  0x1aa3	je     	0x1acb
  === BLOCK LINK ===
    0x1aa5
=== CODE BLOCK END ===

=== CODE BLOCK ADDRESS 0x1aa5 ===
  0x1aa5	sub    	ecx, 1
  0x1aa8	je     	0x17c8
  === BLOCK LINK ===
    0x1aae
=== CODE BLOCK END ===

=== CODE BLOCK ADDRESS 0x1aae ===
  0x1aae	cmp    	ecx, 5
  0x1ab1	je     	0x1c80
  === BLOCK LINK ===
    0x1ab7
=== CODE BLOCK END ===

=== CODE BLOCK ADDRESS 0x1ab7 ===
  0x1ab7	xor    	eax, eax
  0x1ab9	dec    	eax
  0x1aba	add    	esp, 0x38
  0x1abd	inc    	ecx
  0x1abe	pop    	edi
  === BLOCK LINK ===
    0x1abf
=== CODE BLOCK END ===

=== CODE BLOCK ADDRESS 0x1abf ===
  0x1abf	inc    	ecx
  0x1ac0	pop    	esi
  0x1ac1	inc    	ecx
  0x1ac2	pop    	ebp
  0x1ac3	inc    	ecx
  === BLOCK LINK ===
    0x1ac4
=== CODE BLOCK END ===

=== CODE BLOCK ADDRESS 0x1ac4 ===
  0x1ac4	pop    	esp
  0x1ac5	pop    	edi
  0x1ac6	pop    	esi
  0x1ac7	pop    	ebp
  0x1ac8	pop    	ebx
  === BLOCK LINK ===
    0x1ac9
=== CODE BLOCK END ===

=== CODE BLOCK ADDRESS 0x1ac9 ===
  0x1ac9	ret    	
  0x1aca	int3   	
  0x1acb	movzx  	ecx, word ptr [edx + 4]
  0x1acf	inc    	ecx
  0x1ad0	mov    	ebp, 0xffdf
  === BLOCK LINK ===
    0x1ad5
=== CODE BLOCK END ===

=== CODE BLOCK ADDRESS 0x1090 ===
  0x1090	dec    	eax
  0x1091	sub    	esp, 0x48
  0x1094	movzx  	eax, byte ptr [edx]
  === BLOCK LINK ===
    0x1097
=== CODE BLOCK END ===

=== CODE BLOCK ADDRESS 0x1ad5 ===
  0x1ad5	lea    	eax, [ecx - 0x4f]
  0x1ad8	inc    	cx
  0x1ada	test   	ebp, eax
  0x1adc	dec    	esp
  0x1add	mov    	ebp, dword ptr [esp + 0xd0]
  === BLOCK LINK ===
    0x1ae4
=== CODE BLOCK END ===

=== CODE BLOCK ADDRESS 0x1ae4 ===
  0x1ae4	jne    	0x1b33
  === BLOCK LINK ===
    0x1ae6
=== CODE BLOCK END ===

=== CODE BLOCK ADDRESS 0x1ae6 ===
  0x1ae6	movzx  	eax, word ptr [edx + 6]
  0x1aea	inc    	ecx
  0x1aeb	mov    	esp, 0xffdf
  0x1af0	sub    	ax, 0x46
  0x1af4	inc    	cx
  === BLOCK LINK ===
    0x1af6
=== CODE BLOCK END ===

=== CODE BLOCK ADDRESS 0x1af6 ===
  0x1af6	test   	esp, eax
  0x1af8	dec    	esp
  0x1af9	mov    	esp, dword ptr [esp + 0xc8]
  0x1b00	jne    	0x1b33
  === BLOCK LINK ===
    0x1b02
=== CODE BLOCK END ===

=== CODE BLOCK ADDRESS 0x1b02 ===
  0x1b02	movzx  	eax, word ptr [edx + 8]
  0x1b06	inc    	ecx
  0x1b07	mov    	edi, 0xffdf
  0x1b0c	sub    	ax, 0x54
  0x1b10	inc    	cx
  === BLOCK LINK ===
    0x1b12
=== CODE BLOCK END ===

=== CODE BLOCK ADDRESS 0x1b12 ===
  0x1b12	test   	edi, eax
  0x1b14	dec    	esp
  0x1b15	mov    	edi, dword ptr [esp + 0xa0]
  0x1b1c	jne    	0x1b33
  === BLOCK LINK ===
    0x1b1e
=== CODE BLOCK END ===

=== CODE BLOCK ADDRESS 0x1b1e ===
  0x1b1e	xor    	ecx, ecx
  0x1b20	cmp    	word ptr [edx + 0xa], cx
  0x1b24	jne    	0x1ab7
  === BLOCK LINK ===
    0x1b26
=== CODE BLOCK END ===

=== CODE BLOCK ADDRESS 0x1b26 ===
  0x1b26	dec    	eax
  0x1b27	mov    	eax, dword ptr [esp + 0xe8]
  0x1b2e	jmp    	0x18ed
  === BLOCK LINK ===
    0x1b33
=== CODE BLOCK END ===

=== CODE BLOCK ADDRESS 0x1b33 ===
  0x1b33	inc    	ecx
  0x1b34	mov    	edx, 0xffdf
  0x1b39	lea    	eax, [ecx - 0x59]
  0x1b3c	inc    	cx
  0x1b3e	test   	edx, eax
  === BLOCK LINK ===
    0x1b40
=== CODE BLOCK END ===

=== CODE BLOCK ADDRESS 0x1b40 ===
  0x1b40	dec    	esp
  0x1b41	mov    	edx, dword ptr [esp + 0x20]
  0x1b45	jne    	0x1ba1
  === BLOCK LINK ===
    0x1b47
=== CODE BLOCK END ===

=== CODE BLOCK ADDRESS 0x1b47 ===
  0x1b47	movzx  	eax, word ptr [edx + 6]
  0x1b4b	inc    	ecx
  0x1b4c	mov    	esp, 0xffdf
  0x1b51	sub    	ax, 0x4e
  0x1b55	inc    	cx
  === BLOCK LINK ===
    0x1b57
=== CODE BLOCK END ===

=== CODE BLOCK ADDRESS 0x1b57 ===
  0x1b57	test   	esp, eax
  0x1b59	dec    	esp
  0x1b5a	mov    	esp, dword ptr [esp + 0xc8]
  0x1b61	jne    	0x1ba1
  === BLOCK LINK ===
    0x1b63
=== CODE BLOCK END ===

=== CODE BLOCK ADDRESS 0x1b63 ===
  0x1b63	movzx  	eax, word ptr [edx + 8]
  0x1b67	inc    	ecx
  0x1b68	mov    	eax, 0xffdf
  0x1b6d	sub    	ax, 0x43
  0x1b71	inc    	cx
  === BLOCK LINK ===
    0x1b73
=== CODE BLOCK END ===

=== CODE BLOCK ADDRESS 0x1b73 ===
  0x1b73	test   	eax, eax
  0x1b75	dec    	esp
  0x1b76	mov    	eax, dword ptr [esp + 0x88]
  0x1b7d	jne    	0x1ba1
  === BLOCK LINK ===
    0x1b7f
=== CODE BLOCK END ===

=== CODE BLOCK ADDRESS 0x1b7f ===
  0x1b7f	xor    	ecx, ecx
  0x1b81	cmp    	word ptr [edx + 0xa], cx
  0x1b85	jne    	0x1ab7
  === BLOCK LINK ===
    0x1b8b
=== CODE BLOCK END ===

=== CODE BLOCK ADDRESS 0x1b8b ===
  0x1b8b	inc    	ebp
  0x1b8c	test   	esi, esi
  0x1b8e	jne    	0x1ab7
  === BLOCK LINK ===
    0x1b94
=== CODE BLOCK END ===

=== CODE BLOCK ADDRESS 0x1b94 ===
  0x1b94	dec    	eax
  0x1b95	mov    	eax, dword ptr [esp + 0xf8]
  0x1b9c	jmp    	0x18f5
  === BLOCK LINK ===
    0x1ba1
=== CODE BLOCK END ===

=== CODE BLOCK ADDRESS 0x1ba1 ===
  0x1ba1	inc    	ecx
  0x1ba2	mov    	ecx, 0xffdf
  0x1ba7	lea    	eax, [ecx - 0x47]
  0x1baa	inc    	cx
  0x1bac	test   	ecx, eax
  === BLOCK LINK ===
    0x1bae
=== CODE BLOCK END ===

=== CODE BLOCK ADDRESS 0x1bae ===
  0x1bae	dec    	esp
  0x1baf	mov    	ecx, dword ptr [esp + 0x100]
  0x1bb6	je     	0x1bda
  === BLOCK LINK ===
    0x1bb8
=== CODE BLOCK END ===

=== CODE BLOCK ADDRESS 0x1bb8 ===
  0x1bb8	xor    	edx, edx
  0x1bba	cmp    	dword ptr [esp + 0x80], edx
  0x1bc1	jne    	0x1ab7
  === BLOCK LINK ===
    0x1bc7
=== CODE BLOCK END ===

=== CODE BLOCK ADDRESS 0x1bc7 ===
  0x1bc7	mov    	dword ptr [esp + 0x80], 1
  0x1bd2	test   	cx, cx
  0x1bd5	jmp    	0x191c
  === BLOCK LINK ===
    0x1bda
=== CODE BLOCK END ===

=== CODE BLOCK ADDRESS 0x1bda ===
  0x1bda	xor    	ecx, ecx
  0x1bdc	cmp    	word ptr [edx + 6], cx
  0x1be0	jne    	0x1ab7
  === BLOCK LINK ===
    0x1be6
=== CODE BLOCK END ===

=== CODE BLOCK ADDRESS 0x1be6 ===
  0x1be6	inc    	ecx
  0x1be7	cmp    	dword ptr [ebp], ecx
  0x1bea	jne    	0x1ab7
  === BLOCK LINK ===
    0x1bf0
=== CODE BLOCK END ===

=== CODE BLOCK ADDRESS 0x1bf0 ===
  0x1bf0	inc    	ecx
  0x1bf1	mov    	dword ptr [ebp], 1
  0x1bf8	jmp    	0x1922
  === BLOCK LINK ===
    0x1bfd
=== CODE BLOCK END ===

=== CODE BLOCK ADDRESS 0x1bfd ===
  0x1bfd	xor    	ecx, ecx
  0x1bff	inc    	ecx
  0x1c00	cmp    	dword ptr [edi], ecx
  0x1c02	jne    	0x1ab7
  === BLOCK LINK ===
    0x1c08
=== CODE BLOCK END ===

=== CODE BLOCK ADDRESS 0x1c08 ===
  0x1c08	inc    	ecx
  0x1c09	mov    	dword ptr [edi], 1
  0x1c0f	jmp    	0x1918
  === BLOCK LINK ===
    0x1c14
=== CODE BLOCK END ===

=== CODE BLOCK ADDRESS 0x1c14 ===
  0x1c14	dec    	eax
  0x1c15	mov    	eax, dword ptr [esp + 0xb8]
  0x1c1c	jmp    	0x1908
  === BLOCK LINK ===
    0x1c21
=== CODE BLOCK END ===

=== CODE BLOCK ADDRESS 0x1c21 ===
  0x1c21	dec    	eax
  0x1c22	mov    	eax, dword ptr [esp + 0xd8]
  0x1c29	xor    	ecx, ecx
  0x1c2b	cmp    	dword ptr [eax], ecx
  0x1c2d	jne    	0x1ab7
  === BLOCK LINK ===
    0x1c33
=== CODE BLOCK END ===

=== CODE BLOCK ADDRESS 0x1c33 ===
  0x1c33	cmp    	word ptr [edx + 4], cx
  0x1c37	mov    	dword ptr [eax], 1
  0x1c3d	jmp    	0x1ab1
  === BLOCK LINK ===
    0x1c42
=== CODE BLOCK END ===

=== CODE BLOCK ADDRESS 0x1c42 ===
  0x1c42	xor    	ecx, ecx
  0x1c44	inc    	ebp
  0x1c45	test   	esi, esi
  0x1c47	jne    	0x1ab7
  === BLOCK LINK ===
    0x1c4d
=== CODE BLOCK END ===

=== CODE BLOCK ADDRESS 0x1c4d ===
  0x1c4d	dec    	eax
  0x1c4e	inc    	edi
  0x1c50	dec    	ecx
  0x1c51	cmp    	edi, edx
  0x1c53	je     	0x1ab7
  === BLOCK LINK ===
    0x1c59
=== CODE BLOCK END ===

=== CODE BLOCK ADDRESS 0x1c59 ===
  0x1c59	dec    	ecx
  0x1c5a	cmp    	dword ptr [ecx], ecx
  0x1c5c	jne    	0x1ab7
  === BLOCK LINK ===
    0x1c62
=== CODE BLOCK END ===

=== CODE BLOCK ADDRESS 0x1c62 ===
  0x1c62	dec    	ecx
  0x1c63	mov    	eax, dword ptr [eax + edi*8]
  0x1c66	cmp    	word ptr [eax], 0x5c
  0x1c6a	jne    	0x1c77
  === BLOCK LINK ===
    0x1c6c
=== CODE BLOCK END ===

=== CODE BLOCK ADDRESS 0x1c6c ===
  0x1c6c	cmp    	word ptr [eax + 2], 0x5c
  0x1c71	jne    	0x1c77
  === BLOCK LINK ===
    0x1c73
=== CODE BLOCK END ===

=== CODE BLOCK ADDRESS 0x1c73 ===
  0x1c73	dec    	eax
  0x1c74	add    	eax, 4
  0x1c77	dec    	ecx
  0x1c78	mov    	dword ptr [ecx], eax
  0x1c7a	inc    	ecx
  === BLOCK LINK ===
    0x1c7b
=== CODE BLOCK END ===

=== CODE BLOCK ADDRESS 0x1c7b ===
  0x1c7b	mov    	esi, 1
  0x1c80	dec    	eax
  0x1c81	mov    	eax, dword ptr [esp + 0x90]
  0x1c88	dec    	eax
  0x1c89	inc    	edi
  === BLOCK LINK ===
    0x1c8b
=== CODE BLOCK END ===

=== CODE BLOCK ADDRESS 0x1c8b ===
  0x1c8b	dec    	ecx
  0x1c8c	cmp    	edi, edx
  0x1c8e	jl     	0x1758
  === BLOCK LINK ===
    0x1c94
=== CODE BLOCK END ===

=== CODE BLOCK ADDRESS 0x1c94 ===
  0x1c94	cmp    	ebx, 1
  0x1c97	ja     	0x1ab7
  === BLOCK LINK ===
    0x1c9d
=== CODE BLOCK END ===

=== CODE BLOCK ADDRESS 0x1c9d ===
  0x1c9d	dec    	eax
  0x1c9e	mov    	edi, dword ptr [esp + 0xb0]
  0x1ca5	inc    	ebp
  0x1ca6	xor    	edx, edx
  0x1ca8	test   	ebx, ebx
  === BLOCK LINK ===
    0x1caa
=== CODE BLOCK END ===

=== CODE BLOCK ADDRESS 0x1caa ===
  0x1caa	je     	0x1cb6
  === BLOCK LINK ===
    0x1cac
=== CODE BLOCK END ===

=== CODE BLOCK ADDRESS 0x1cac ===
  0x1cac	inc    	esp
  0x1cad	cmp    	dword ptr [eax], edx
  0x1caf	je     	0x1cf2
  === BLOCK LINK ===
    0x1cb1
=== CODE BLOCK END ===

=== CODE BLOCK ADDRESS 0x1cb1 ===
  0x1cb1	jmp    	0x1cbc
  === BLOCK LINK ===
    0x1cb3
=== CODE BLOCK END ===

=== CODE BLOCK ADDRESS 0x1cb3 ===
  0x1cb3	inc    	ebp
  0x1cb4	xor    	edx, edx
  0x1cb6	mov    	dword ptr [eax], 1
  0x1cbc	test   	ebp, ebp
  0x1cbe	jne    	0x1ab7
  === BLOCK LINK ===
    0x1cc4
=== CODE BLOCK END ===

=== CODE BLOCK ADDRESS 0x1cc4 ===
  0x1cc4	inc    	ebp
  0x1cc5	test   	ebx, ebx
  0x1cc7	jne    	0x1ab7
  === BLOCK LINK ===
    0x1ccd
=== CODE BLOCK END ===

=== CODE BLOCK ADDRESS 0x1ccd ===
  0x1ccd	test   	esi, esi
  0x1ccf	jne    	0x1ab7
  === BLOCK LINK ===
    0x1cd5
=== CODE BLOCK END ===

=== CODE BLOCK ADDRESS 0x1cd5 ===
  0x1cd5	inc    	ebp
  0x1cd6	test   	esi, esi
  0x1cd8	jne    	0x1ab7
  === BLOCK LINK ===
    0x1cde
=== CODE BLOCK END ===

=== CODE BLOCK ADDRESS 0x1cde ===
  0x1cde	inc    	ebp
  0x1cdf	cmp    	dword ptr [esp], edx
  0x1ce2	jne    	0x1ab7
  === BLOCK LINK ===
    0x1ce8
=== CODE BLOCK END ===

=== CODE BLOCK ADDRESS 0x1ce8 ===
  0x1ce8	inc    	ebp
  0x1ce9	cmp    	dword ptr [ebp], edx
  0x1cec	jne    	0x1ab7
  === BLOCK LINK ===
    0x1cf2
=== CODE BLOCK END ===

=== CODE BLOCK ADDRESS 0x1cf2 ===
  0x1cf2	inc    	esp
  0x1cf3	cmp    	dword ptr [edi], edx
  0x1cf5	je     	0x1d37
  === BLOCK LINK ===
    0x1cf7
=== CODE BLOCK END ===

=== CODE BLOCK ADDRESS 0x1cf7 ===
  0x1cf7	test   	ebp, ebp
  0x1cf9	jne    	0x1ab7
  === BLOCK LINK ===
    0x1cff
=== CODE BLOCK END ===

=== CODE BLOCK ADDRESS 0x1cff ===
  0x1cff	inc    	ebp
  0x1d00	test   	ebx, ebx
  0x1d02	jne    	0x1ab7
  === BLOCK LINK ===
    0x1d08
=== CODE BLOCK END ===

=== CODE BLOCK ADDRESS 0x1d08 ===
  0x1d08	dec    	eax
  0x1d09	mov    	eax, dword ptr [esp + 0x98]
  0x1d10	inc    	esp
  0x1d11	cmp    	dword ptr [eax], edx
  0x1d13	jne    	0x1ab7
  === BLOCK LINK ===
    0x1d19
=== CODE BLOCK END ===

=== CODE BLOCK ADDRESS 0x1d19 ===
  0x1d19	test   	esi, esi
  0x1d1b	jne    	0x1ab7
  === BLOCK LINK ===
    0x1d21
=== CODE BLOCK END ===

=== CODE BLOCK ADDRESS 0x1d21 ===
  0x1d21	inc    	ebp
  0x1d22	cmp    	dword ptr [esp], edx
  0x1d25	jne    	0x1ab7
  === BLOCK LINK ===
    0x1d2b
=== CODE BLOCK END ===

=== CODE BLOCK ADDRESS 0x1d2b ===
  0x1d2b	inc    	ebp
  0x1d2c	cmp    	dword ptr [ebp], edx
  0x1d2f	jne    	0x1ab7
  === BLOCK LINK ===
    0x1d35
=== CODE BLOCK END ===

=== CODE BLOCK ADDRESS 0x1d35 ===
  0x1d35	jmp    	0x1d3f
  === BLOCK LINK ===
    0x1d37
=== CODE BLOCK END ===

=== CODE BLOCK ADDRESS 0x1d37 ===
  0x1d37	dec    	eax
  0x1d38	mov    	eax, dword ptr [esp + 0x98]
  0x1d3f	dec    	eax
  0x1d40	mov    	edx, dword ptr [esp + 0xa8]
  0x1d47	inc    	esp
  === BLOCK LINK ===
    0x1d48
=== CODE BLOCK END ===

=== CODE BLOCK ADDRESS 0x1d48 ===
  0x1d48	cmp    	dword ptr [edx], edx
  0x1d4a	je     	0x1d82
  === BLOCK LINK ===
    0x1d4c
=== CODE BLOCK END ===

=== CODE BLOCK ADDRESS 0x1d4c ===
  0x1d4c	test   	ebp, ebp
  0x1d4e	jne    	0x1ab7
  === BLOCK LINK ===
    0x1d54
=== CODE BLOCK END ===

=== CODE BLOCK ADDRESS 0x1d54 ===
  0x1d54	inc    	ebp
  0x1d55	test   	ebx, ebx
  0x1d57	jne    	0x1ab7
  === BLOCK LINK ===
    0x1d5d
=== CODE BLOCK END ===

=== CODE BLOCK ADDRESS 0x1d5d ===
  0x1d5d	test   	esi, esi
  0x1d5f	jne    	0x1ab7
  === BLOCK LINK ===
    0x1d65
=== CODE BLOCK END ===

=== CODE BLOCK ADDRESS 0x1d65 ===
  0x1d65	inc    	ebp
  0x1d66	test   	esi, esi
  0x1d68	jne    	0x1ab7
  === BLOCK LINK ===
    0x1d6e
=== CODE BLOCK END ===

=== CODE BLOCK ADDRESS 0x1d6e ===
  0x1d6e	inc    	ebp
  0x1d6f	cmp    	dword ptr [esp], edx
  0x1d72	jne    	0x1ab7
  === BLOCK LINK ===
    0x1d78
=== CODE BLOCK END ===

=== CODE BLOCK ADDRESS 0x1d78 ===
  0x1d78	inc    	ebp
  0x1d79	cmp    	dword ptr [ebp], edx
  0x1d7c	jne    	0x1ab7
  === BLOCK LINK ===
    0x1d82
=== CODE BLOCK END ===

=== CODE BLOCK ADDRESS 0x1d82 ===
  0x1d82	dec    	esp
  0x1d83	mov    	eax, dword ptr [esp + 0xb8]
  0x1d8a	inc    	ebp
  0x1d8b	cmp    	dword ptr [eax], edx
  0x1d8d	je     	0x1dbc
  === BLOCK LINK ===
    0x1d8f
=== CODE BLOCK END ===

=== CODE BLOCK ADDRESS 0x1d8f ===
  0x1d8f	test   	ebp, ebp
  0x1d91	jne    	0x1ab7
  === BLOCK LINK ===
    0x1d97
=== CODE BLOCK END ===

=== CODE BLOCK ADDRESS 0x1d97 ===
  0x1d97	test   	esi, esi
  0x1d99	jne    	0x1ab7
  === BLOCK LINK ===
    0x1d9f
=== CODE BLOCK END ===

=== CODE BLOCK ADDRESS 0x1d9f ===
  0x1d9f	inc    	ebp
  0x1da0	test   	esi, esi
  0x1da2	jne    	0x1ab7
  === BLOCK LINK ===
    0x1da8
=== CODE BLOCK END ===

=== CODE BLOCK ADDRESS 0x1da8 ===
  0x1da8	inc    	ebp
  0x1da9	cmp    	dword ptr [esp], edx
  0x1dac	jne    	0x1ab7
  === BLOCK LINK ===
    0x1db2
=== CODE BLOCK END ===

=== CODE BLOCK ADDRESS 0x1db2 ===
  0x1db2	inc    	ebp
  0x1db3	cmp    	dword ptr [ebp], edx
  0x1db6	jne    	0x1ab7
  === BLOCK LINK ===
    0x1dbc
=== CODE BLOCK END ===

=== CODE BLOCK ADDRESS 0x1dbc ===
  0x1dbc	dec    	eax
  0x1dbd	mov    	ecx, dword ptr [esp + 0xc0]
  0x1dc4	inc    	esp
  0x1dc5	cmp    	dword ptr [ecx], edx
  0x1dc7	je     	0x1de3
  === BLOCK LINK ===
    0x1dc9
=== CODE BLOCK END ===

=== CODE BLOCK ADDRESS 0x1dc9 ===
  0x1dc9	inc    	esp
  0x1dca	cmp    	dword ptr [eax], edx
  0x1dcc	jne    	0x1ab7
  === BLOCK LINK ===
    0x1dd2
=== CODE BLOCK END ===

=== CODE BLOCK ADDRESS 0x1dd2 ===
  0x1dd2	test   	ebp, ebp
  0x1dd4	jne    	0x1ab7
  === BLOCK LINK ===
    0x1dda
=== CODE BLOCK END ===

=== CODE BLOCK ADDRESS 0x1dda ===
  0x1dda	inc    	ebp
  0x1ddb	test   	ebx, ebx
  0x1ddd	je     	0x1ab7
  === BLOCK LINK ===
    0x1de3
=== CODE BLOCK END ===

=== CODE BLOCK ADDRESS 0x1de3 ===
  0x1de3	inc    	ecx
  0x1de4	mov    	eax, dword ptr [esp]
  0x1de7	test   	eax, eax
  0x1de9	je     	0x1df4
  === BLOCK LINK ===
    0x1deb
=== CODE BLOCK END ===

=== CODE BLOCK ADDRESS 0x1deb ===
  0x1deb	inc    	ebp
  0x1dec	cmp    	dword ptr [edi], edx
  0x1dee	jne    	0x1ab7
  === BLOCK LINK ===
    0x1df4
=== CODE BLOCK END ===

=== CODE BLOCK ADDRESS 0x1df4 ===
  0x1df4	mov    	ecx, dword ptr [esp + 0x80]
  0x1dfb	inc    	ebp
  0x1dfc	cmp    	dword ptr [ebp], edx
  0x1dff	je     	0x1e09
  === BLOCK LINK ===
    0x1e01
=== CODE BLOCK END ===

=== CODE BLOCK ADDRESS 0x1e01 ===
  0x1e01	test   	ecx, ecx
  0x1e03	jne    	0x1ab7
  === BLOCK LINK ===
    0x1e09
=== CODE BLOCK END ===

=== CODE BLOCK ADDRESS 0x1e09 ===
  0x1e09	dec    	esp
  0x1e0a	mov    	ecx, dword ptr [esp + 0xf0]
  0x1e11	inc    	ebp
  0x1e12	cmp    	dword ptr [ecx], edx
  0x1e14	je     	0x1eae
  === BLOCK LINK ===
    0x1e1a
=== CODE BLOCK END ===

=== CODE BLOCK ADDRESS 0x1e1a ===
  0x1e1a	inc    	ebp
  0x1e1b	cmp    	dword ptr [edi], edx
  0x1e1d	jne    	0x1e40
  === BLOCK LINK ===
    0x1e1f
=== CODE BLOCK END ===

=== CODE BLOCK ADDRESS 0x1e1f ===
  0x1e1f	test   	ecx, ecx
  0x1e21	jne    	0x1e40
  === BLOCK LINK ===
    0x1e23
=== CODE BLOCK END ===

=== CODE BLOCK ADDRESS 0x1e23 ===
  0x1e23	inc    	ebp
  0x1e24	cmp    	dword ptr [eax], edx
  0x1e26	jne    	0x1e40
  === BLOCK LINK ===
    0x1e28
=== CODE BLOCK END ===

=== CODE BLOCK ADDRESS 0x1e28 ===
  0x1e28	test   	eax, eax
  0x1e2a	jne    	0x1e40
  === BLOCK LINK ===
    0x1e2c
=== CODE BLOCK END ===

=== CODE BLOCK ADDRESS 0x1e2c ===
  0x1e2c	inc    	ebp
  0x1e2d	cmp    	dword ptr [ebp], edx
  0x1e30	jne    	0x1e40
  === BLOCK LINK ===
    0x1e32
=== CODE BLOCK END ===

=== CODE BLOCK ADDRESS 0x1e32 ===
  0x1e32	inc    	esp
  0x1e33	cmp    	dword ptr [edx], edx
  0x1e35	jne    	0x1e40
  === BLOCK LINK ===
    0x1e37
=== CODE BLOCK END ===

=== CODE BLOCK ADDRESS 0x1e37 ===
  0x1e37	inc    	esp
  0x1e38	cmp    	dword ptr [edi], edx
  0x1e3a	je     	0x1ab7
  === BLOCK LINK ===
    0x1e40
=== CODE BLOCK END ===

=== CODE BLOCK ADDRESS 0x1e40 ===
  0x1e40	inc    	ebp
  0x1e41	test   	esi, esi
  0x1e43	jne    	0x1ab7
  === BLOCK LINK ===
    0x1e49
=== CODE BLOCK END ===

=== CODE BLOCK ADDRESS 0x1e49 ===
  0x1e49	dec    	eax
  0x1e4a	mov    	eax, dword ptr [esp + 0xe8]
  0x1e51	inc    	esp
  0x1e52	cmp    	dword ptr [eax], edx
  0x1e54	jne    	0x1ab7
  === BLOCK LINK ===
    0x1e5a
=== CODE BLOCK END ===

=== CODE BLOCK ADDRESS 0x1e5a ===
  0x1e5a	dec    	eax
  0x1e5b	mov    	eax, dword ptr [esp + 0xd8]
  0x1e62	inc    	esp
  0x1e63	cmp    	dword ptr [eax], edx
  0x1e65	je     	0x1e70
  === BLOCK LINK ===
    0x1e67
=== CODE BLOCK END ===

=== CODE BLOCK ADDRESS 0x1e67 ===
  0x1e67	inc    	ebp
  0x1e68	cmp    	dword ptr [edi], edx
  0x1e6a	je     	0x1ab7
  === BLOCK LINK ===
    0x1e70
=== CODE BLOCK END ===

=== CODE BLOCK ADDRESS 0x1e70 ===
  0x1e70	dec    	eax
  0x1e71	mov    	eax, dword ptr [esp + 0xe0]
  0x1e78	inc    	esp
  0x1e79	cmp    	dword ptr [eax], edx
  0x1e7b	je     	0x1e85
  === BLOCK LINK ===
    0x1e7d
=== CODE BLOCK END ===

=== CODE BLOCK ADDRESS 0x1e7d ===
  0x1e7d	test   	ecx, ecx
  0x1e7f	je     	0x1ab7
  === BLOCK LINK ===
    0x1e85
=== CODE BLOCK END ===

=== CODE BLOCK ADDRESS 0x1e85 ===
  0x1e85	dec    	eax
  0x1e86	mov    	eax, dword ptr [esp + 0xf8]
  0x1e8d	inc    	esp
  0x1e8e	cmp    	dword ptr [eax], edx
  0x1e90	je     	0x1ea4
  === BLOCK LINK ===
    0x1e92
=== CODE BLOCK END ===

=== CODE BLOCK ADDRESS 0x1e92 ===
  0x1e92	inc    	ebp
  0x1e93	test   	esi, esi
  0x1e95	jne    	0x1ab7
  === BLOCK LINK ===
    0x1e9b
=== CODE BLOCK END ===

=== CODE BLOCK ADDRESS 0x1e9b ===
  0x1e9b	inc    	ebp
  0x1e9c	cmp    	dword ptr [edi], edx
  0x1e9e	je     	0x1ab7
  === BLOCK LINK ===
    0x1ea4
=== CODE BLOCK END ===

=== CODE BLOCK ADDRESS 0x1ea4 ===
  0x1ea4	mov    	eax, 1
  0x1ea9	jmp    	0x1ab9
  === BLOCK LINK ===
    0x1eae
=== CODE BLOCK END ===

=== CODE BLOCK ADDRESS 0x1eae ===
  0x1eae	dec    	eax
  0x1eaf	mov    	edx, dword ptr [esp + 0xe8]
  0x1eb6	inc    	esp
  0x1eb7	cmp    	dword ptr [edx], edx
  0x1eb9	je     	0x1e5a
  === BLOCK LINK ===
    0x1ebb
=== CODE BLOCK END ===

=== CODE BLOCK ADDRESS 0x1ebb ===
  0x1ebb	test   	eax, eax
  0x1ebd	jne    	0x1e5a
  === BLOCK LINK ===
    0x1ebf
=== CODE BLOCK END ===

=== CODE BLOCK ADDRESS 0x1ebf ===
  0x1ebf	inc    	ebp
  0x1ec0	cmp    	dword ptr [edi], edx
  0x1ec2	jne    	0x1e5a
  === BLOCK LINK ===
    0x1ec4
=== CODE BLOCK END ===

=== CODE BLOCK ADDRESS 0x1ec4 ===
  0x1ec4	dec    	eax
  0x1ec5	mov    	eax, dword ptr [esp + 0xd8]
  0x1ecc	inc    	esp
  0x1ecd	cmp    	dword ptr [eax], edx
  0x1ecf	jne    	0x1e67
  === BLOCK LINK ===
    0x1ed1
=== CODE BLOCK END ===

=== CODE BLOCK ADDRESS 0x1ed1 ===
  0x1ed1	jmp    	0x1ab7
  === BLOCK LINK ===
    0x1ed6
=== CODE BLOCK END ===

=== CODE BLOCK ADDRESS 0x1ed6 ===
  0x1ed6	int3   	
  0x1ed7	int3   	
  0x1ed8	int3   	
  0x1ed9	int3   	
  0x1eda	int3   	
  === BLOCK LINK ===
    0x1edb
=== CODE BLOCK END ===

=== CODE BLOCK ADDRESS 0x1edb ===
  0x1edb	int3   	
  0x1edc	dec    	esp
  0x1edd	mov    	ebx, esp
  0x1edf	dec    	ecx
  0x1ee0	mov    	dword ptr [ebx + 8], ebx
  === BLOCK LINK ===
    0x1ee3
=== CODE BLOCK END ===

=== CODE BLOCK ADDRESS 0x1ee3 ===
  0x1ee3	dec    	ecx
  0x1ee4	mov    	dword ptr [ebx + 0x10], ebp
  0x1ee7	dec    	ecx
  0x1ee8	mov    	dword ptr [ebx + 0x18], esi
  0x1eeb	dec    	ecx
  === BLOCK LINK ===
    0x1eec
=== CODE BLOCK END ===

=== CODE BLOCK ADDRESS 0x1eec ===
  0x1eec	mov    	dword ptr [ebx + 0x20], edi
  0x1eef	inc    	ecx
  0x1ef0	push   	esi
  0x1ef1	dec    	eax
  0x1ef2	sub    	esp, 0x60
  === BLOCK LINK ===
    0x1ef5
=== CODE BLOCK END ===

=== CODE BLOCK ADDRESS 0x1ef5 ===
  0x1ef5	dec    	eax
  0x1ef6	mov    	eax, dword ptr [0x614c]
  0x1efc	dec    	eax
  0x1efd	xor    	eax, esp
  0x1eff	dec    	eax
  === BLOCK LINK ===
    0x1f00
=== CODE BLOCK END ===

=== CODE BLOCK ADDRESS 0x1f00 ===
  0x1f00	mov    	dword ptr [esp + 0x50], eax
  0x1f04	cmp    	dword ptr [0x60f5], 5
  0x1f0b	jbe    	0x1f5c
  === BLOCK LINK ===
    0x1f0d
=== CODE BLOCK END ===

=== CODE BLOCK ADDRESS 0x1f0d ===
  0x1f0d	dec    	eax
  0x1f0e	mov    	edx, 0
  0x1f13	add    	byte ptr [eax], ah
  0x1f15	add    	byte ptr [eax], al
  0x1f17	dec    	eax
  === BLOCK LINK ===
    0x1f18
=== CODE BLOCK END ===

=== CODE BLOCK ADDRESS 0x1f18 ===
  0x1f18	test   	dword ptr [0x60f2], edx
  0x1f1e	je     	0x1f5c
  === BLOCK LINK ===
    0x1f20
=== CODE BLOCK END ===

=== CODE BLOCK ADDRESS 0x1f20 ===
  0x1f20	dec    	eax
  0x1f21	mov    	eax, dword ptr [0x60f1]
  0x1f27	dec    	eax
  0x1f28	and    	eax, edx
  0x1f2a	dec    	eax
  === BLOCK LINK ===
    0x1f2b
=== CODE BLOCK END ===

=== CODE BLOCK ADDRESS 0x1f2b ===
  0x1f2b	cmp    	eax, dword ptr [0x60e7]
  0x1f31	jne    	0x1f5c
  === BLOCK LINK ===
    0x1f33
=== CODE BLOCK END ===

=== CODE BLOCK ADDRESS 0x1f33 ===
  0x1f33	dec    	ecx
  0x1f34	lea    	eax, [ebx - 0x38]
  0x1f37	inc    	ebp
  0x1f38	xor    	ecx, ecx
  0x1f3a	dec    	ecx
  === BLOCK LINK ===
    0x1f3b
=== CODE BLOCK END ===

=== CODE BLOCK ADDRESS 0x1f3b ===
  0x1f3b	mov    	dword ptr [ebx - 0x40], eax
  0x1f3e	dec    	eax
  0x1f3f	lea    	edx, [0x3bec]
  0x1f45	inc    	ebp
  0x1f46	xor    	eax, eax
  === BLOCK LINK ===
    0x1f48
=== CODE BLOCK END ===

=== CODE BLOCK ADDRESS 0x1f48 ===
  0x1f48	mov    	dword ptr [esp + 0x20], 2
  0x1f50	dec    	eax
  0x1f51	lea    	ecx, [0x60a9]
  0x1f57	call   	0x1090
  === BLOCK LINK ===
    0x1f5c
=== CODE BLOCK END ===

=== CODE BLOCK ADDRESS 0x1f5c ===
  0x1f5c	inc    	ebp
  0x1f5d	xor    	eax, eax
  0x1f5f	xor    	edx, edx
  0x1f61	mov    	ecx, 0x100
  0x1f66	dec    	eax
  === BLOCK LINK ===
    0x1f67
=== CODE BLOCK END ===

=== CODE BLOCK ADDRESS 0x1f67 ===
  0x1f67	call   	dword ptr [0x32fb]
  === BLOCK LINK ===
    0x1f6d
=== CODE BLOCK END ===

=== CODE BLOCK ADDRESS 0x1f6d ===
  0x1f6d	nop    	dword ptr [eax + eax]
  0x1f72	inc    	ebp
  0x1f73	xor    	esi, esi
  0x1f75	mov    	edi, 0x4b0
  0x1f7a	dec    	eax
  === BLOCK LINK ===
    0x1f7b
=== CODE BLOCK END ===

=== CODE BLOCK ADDRESS 0x1f7b ===
  0x1f7b	mov    	ecx, dword ptr [0x66b7]
  0x1f81	mov    	edx, edi
  0x1f83	call   	0x33c8
  === BLOCK LINK ===
    0x1f88
=== CODE BLOCK END ===

=== CODE BLOCK ADDRESS 0x1f88 ===
  0x1f88	dec    	eax
  0x1f89	mov    	esi, eax
  0x1f8b	dec    	eax
  0x1f8c	test   	eax, eax
  0x1f8e	je     	0x203d
  === BLOCK LINK ===
    0x1f94
=== CODE BLOCK END ===

=== CODE BLOCK ADDRESS 0x1f94 ===
  0x1f94	cmp    	edi, 0x4b0
  0x1f9a	jne    	0x2021
  === BLOCK LINK ===
    0x1fa0
=== CODE BLOCK END ===

=== CODE BLOCK ADDRESS 0x1fa0 ===
  0x1fa0	dec    	eax
  0x1fa1	mov    	ecx, dword ptr [0x6699]
  0x1fa7	dec    	eax
  0x1fa8	call   	dword ptr [0x33a2]
  === BLOCK LINK ===
    0x1fae
=== CODE BLOCK END ===

=== CODE BLOCK ADDRESS 0x1fae ===
  0x1fae	nop    	dword ptr [eax + eax]
  0x1fb3	dec    	eax
  0x1fb4	mov    	ecx, esi
  0x1fb6	mov    	ebx, eax
  0x1fb8	dec    	eax
  === BLOCK LINK ===
    0x1fb9
=== CODE BLOCK END ===

=== CODE BLOCK ADDRESS 0x1fb9 ===
  0x1fb9	call   	dword ptr [0x3391]
  === BLOCK LINK ===
    0x1fbf
=== CODE BLOCK END ===

=== CODE BLOCK ADDRESS 0x1fbf ===
  0x1fbf	nop    	dword ptr [eax + eax]
  0x1fc4	add    	ebx, eax
  0x1fc6	lea    	ecx, [ebx*2 + 4]
  0x1fcd	mov    	ebp, ecx
  0x1fcf	mov    	edx, ecx
  === BLOCK LINK ===
    0x1fd1
=== CODE BLOCK END ===

=== CODE BLOCK ADDRESS 0x1fd1 ===
  0x1fd1	xor    	ecx, ecx
  0x1fd3	dec    	eax
  0x1fd4	call   	dword ptr [0x3266]
  === BLOCK LINK ===
    0x1fda
=== CODE BLOCK END ===

=== CODE BLOCK ADDRESS 0x1fda ===
  0x1fda	nop    	dword ptr [eax + eax]
  0x1fdf	dec    	eax
  0x1fe0	mov    	ebx, eax
  0x1fe2	dec    	eax
  0x1fe3	test   	eax, eax
  === BLOCK LINK ===
    0x1fe5
=== CODE BLOCK END ===

=== CODE BLOCK ADDRESS 0x1fe5 ===
  0x1fe5	je     	0x20ab
  === BLOCK LINK ===
    0x1feb
=== CODE BLOCK END ===

=== CODE BLOCK ADDRESS 0x1feb ===
  0x1feb	dec    	esp
  0x1fec	mov    	ecx, dword ptr [0x664e]
  0x1ff2	dec    	esp
  0x1ff3	mov    	eax, esi
  0x1ff5	mov    	edx, ebp
  === BLOCK LINK ===
    0x1ff7
=== CODE BLOCK END ===

=== CODE BLOCK ADDRESS 0x1ff7 ===
  0x1ff7	inc    	sp
  0x1ff9	mov    	dword ptr [eax], esi
  0x1ffb	dec    	eax
  0x1ffc	mov    	ecx, eax
  0x1ffe	call   	0x1424
  === BLOCK LINK ===
    0x2003
=== CODE BLOCK END ===

=== CODE BLOCK ADDRESS 0x2003 ===
  0x2003	mov    	edx, 0xfffffff5
  0x2008	dec    	eax
  0x2009	mov    	ecx, ebx
  0x200b	call   	0x3740
  === BLOCK LINK ===
    0x2010
=== CODE BLOCK END ===

=== CODE BLOCK ADDRESS 0x2010 ===
  0x2010	dec    	eax
  0x2011	mov    	ecx, ebx
  0x2013	dec    	eax
  0x2014	call   	dword ptr [0x321e]
  === BLOCK LINK ===
    0x201a
=== CODE BLOCK END ===

=== CODE BLOCK ADDRESS 0x201a ===
  0x201a	nop    	dword ptr [eax + eax]
  0x201f	jmp    	0x202e
  === BLOCK LINK ===
    0x2021
=== CODE BLOCK END ===

=== CODE BLOCK ADDRESS 0x2021 ===
  0x2021	mov    	edx, 0xfffffff5
  0x2026	dec    	eax
  0x2027	mov    	ecx, esi
  0x2029	call   	0x3740
  === BLOCK LINK ===
    0x202e
=== CODE BLOCK END ===

=== CODE BLOCK ADDRESS 0x202e ===
  0x202e	dec    	eax
  0x202f	mov    	ecx, esi
  0x2031	dec    	eax
  0x2032	call   	dword ptr [0x3200]
  === BLOCK LINK ===
    0x2038
=== CODE BLOCK END ===

=== CODE BLOCK ADDRESS 0x2038 ===
  0x2038	nop    	dword ptr [eax + eax]
  0x203d	inc    	edi
  0x203f	cmp    	edi, 0x4de
  0x2045	jb     	0x1f7a
  === BLOCK LINK ===
    0x204b
=== CODE BLOCK END ===

=== CODE BLOCK ADDRESS 0x204b ===
  0x204b	call   	0x422c
  === BLOCK LINK ===
    0x2050
=== CODE BLOCK END ===

=== CODE BLOCK ADDRESS 0x2050 ===
  0x2050	test   	al, al
  0x2052	je     	0x2082
  === BLOCK LINK ===
    0x2054
=== CODE BLOCK END ===

=== CODE BLOCK ADDRESS 0x2054 ===
  0x2054	dec    	eax
  0x2055	call   	dword ptr [0x7fbd]
  === BLOCK LINK ===
    0x205b
=== CODE BLOCK END ===

=== CODE BLOCK ADDRESS 0x205b ===
  0x205b	nop    	dword ptr [eax + eax]
  0x2060	test   	eax, eax
  0x2062	jns    	0x2082
  === BLOCK LINK ===
    0x2064
=== CODE BLOCK END ===

=== CODE BLOCK ADDRESS 0x2064 ===
  0x2064	dec    	eax
  0x2065	mov    	ecx, dword ptr [0x65cd]
  0x206b	mov    	edx, 0x21
  0x2070	call   	0x33c8
  === BLOCK LINK ===
    0x2075
=== CODE BLOCK END ===

=== CODE BLOCK ADDRESS 0x2075 ===
  0x2075	mov    	edx, 0xfffffff5
  0x207a	dec    	eax
  0x207b	mov    	ecx, eax
  0x207d	call   	0x3740
  === BLOCK LINK ===
    0x2082
=== CODE BLOCK END ===

=== CODE BLOCK ADDRESS 0x2082 ===
  0x2082	dec    	eax
  0x2083	mov    	ecx, dword ptr [esp + 0x50]
  0x2087	dec    	eax
  0x2088	xor    	ecx, esp
  0x208a	call   	0x3c20
  === BLOCK LINK ===
    0x208f
=== CODE BLOCK END ===

=== CODE BLOCK ADDRESS 0x208f ===
  0x208f	dec    	esp
  0x2090	lea    	ebx, [esp + 0x60]
  0x2094	dec    	ecx
  0x2095	mov    	ebx, dword ptr [ebx + 0x10]
  0x2098	dec    	ecx
  === BLOCK LINK ===
    0x2099
=== CODE BLOCK END ===

=== CODE BLOCK ADDRESS 0x2099 ===
  0x2099	mov    	ebp, dword ptr [ebx + 0x18]
  0x209c	dec    	ecx
  0x209d	mov    	esi, dword ptr [ebx + 0x20]
  0x20a0	dec    	ecx
  0x20a1	mov    	edi, dword ptr [ebx + 0x28]
  === BLOCK LINK ===
    0x20a4
=== CODE BLOCK END ===

=== CODE BLOCK ADDRESS 0x20a4 ===
  0x20a4	dec    	ecx
  0x20a5	mov    	esp, ebx
  0x20a7	inc    	ecx
  0x20a8	pop    	esi
  0x20a9	ret    	
  === BLOCK LINK ===
    0x20aa
=== CODE BLOCK END ===

=== CODE BLOCK ADDRESS 0x3c20 ===
=== CODE BLOCK END ===

=== CODE BLOCK ADDRESS 0x20aa ===
  0x20aa	int3   	
  0x20ab	dec    	eax
  0x20ac	mov    	ecx, esi
  0x20ae	dec    	eax
  0x20af	call   	dword ptr [0x3183]
  === BLOCK LINK ===
    0x20b5
=== CODE BLOCK END ===

=== CODE BLOCK ADDRESS 0x20b5 ===
  0x20b5	nop    	dword ptr [eax + eax]
  0x20ba	dec    	eax
  0x20bb	call   	dword ptr [0x3127]
  === BLOCK LINK ===
    0x20c1
=== CODE BLOCK END ===

=== CODE BLOCK ADDRESS 0x20c1 ===
  0x20c1	nop    	dword ptr [eax + eax]
  0x20c6	mov    	ecx, eax
  0x20c8	xor    	edx, edx
  0x20ca	call   	0x34a4
  === BLOCK LINK ===
    0x20cf
=== CODE BLOCK END ===

=== CODE BLOCK ADDRESS 0x20cf ===
  0x20cf	jmp    	0x2082
  === BLOCK LINK ===
    0x20d1
=== CODE BLOCK END ===

=== CODE BLOCK ADDRESS 0x20d1 ===
  0x20d1	int3   	
  0x20d2	int3   	
  0x20d3	int3   	
  0x20d4	int3   	
  0x20d5	int3   	
  === BLOCK LINK ===
    0x20d6
=== CODE BLOCK END ===

=== CODE BLOCK ADDRESS 0x20d6 ===
  0x20d6	int3   	
  0x20d7	int3   	
  0x20d8	dec    	eax
  0x20d9	mov    	dword ptr [esp + 8], ebx
  0x20dd	push   	edi
  === BLOCK LINK ===
    0x20de
=== CODE BLOCK END ===

=== CODE BLOCK ADDRESS 0x20de ===
  0x20de	dec    	eax
  0x20df	sub    	esp, 0x90
  0x20e5	dec    	eax
  0x20e6	mov    	eax, dword ptr [0x5f5c]
  0x20ec	dec    	eax
  === BLOCK LINK ===
    0x20ed
=== CODE BLOCK END ===

=== CODE BLOCK ADDRESS 0x20ed ===
  0x20ed	xor    	eax, esp
  0x20ef	dec    	eax
  0x20f0	mov    	dword ptr [esp + 0x80], eax
  0x20f7	mov    	edi, ecx
  0x20f9	mov    	dword ptr [esp + 0x20], 0x4c
  === BLOCK LINK ===
    0x2101
=== CODE BLOCK END ===

=== CODE BLOCK ADDRESS 0x2101 ===
  0x2101	xor    	ebx, ebx
  0x2103	dec    	esp
  0x2104	lea    	ecx, [esp + 0x30]
  0x2108	inc    	ebp
  0x2109	xor    	eax, eax
  === BLOCK LINK ===
    0x210b
=== CODE BLOCK END ===

=== CODE BLOCK ADDRESS 0x210b ===
  0x210b	xor    	edx, edx
  0x210d	lea    	ecx, [ebx + 4]
  0x2110	dec    	eax
  0x2111	call   	dword ptr [0x3329]
  === BLOCK LINK ===
    0x2117
=== CODE BLOCK END ===

=== CODE BLOCK ADDRESS 0x2117 ===
  0x2117	nop    	dword ptr [eax + eax]
  0x211c	test   	edi, edi
  0x211e	je     	0x2133
  === BLOCK LINK ===
    0x2120
=== CODE BLOCK END ===

=== CODE BLOCK ADDRESS 0x2120 ===
  0x2120	cmp    	edi, 1
  0x2123	jne    	0x2143
  === BLOCK LINK ===
    0x2125
=== CODE BLOCK END ===

=== CODE BLOCK ADDRESS 0x2125 ===
  0x2125	test   	eax, eax
  0x2127	js     	0x2143
  === BLOCK LINK ===
    0x2129
=== CODE BLOCK END ===

=== CODE BLOCK ADDRESS 0x2129 ===
  0x2129	cmp    	byte ptr [esp + 0x37], bl
  0x212d	je     	0x2143
  === BLOCK LINK ===
    0x212f
=== CODE BLOCK END ===

=== CODE BLOCK ADDRESS 0x212f ===
  0x212f	mov    	ebx, edi
  0x2131	jmp    	0x2143
  === BLOCK LINK ===
    0x2133
=== CODE BLOCK END ===

=== CODE BLOCK ADDRESS 0x2133 ===
  0x2133	test   	eax, eax
  0x2135	js     	0x2143
  === BLOCK LINK ===
    0x2137
=== CODE BLOCK END ===

=== CODE BLOCK ADDRESS 0x2137 ===
  0x2137	cmp    	byte ptr [esp + 0x38], bl
  0x213b	mov    	eax, 1
  0x2140	cmovne  	ebx, eax
  0x2143	mov    	eax, ebx
  0x2145	dec    	eax
  === BLOCK LINK ===
    0x2146
=== CODE BLOCK END ===

=== CODE BLOCK ADDRESS 0x2146 ===
  0x2146	mov    	ecx, dword ptr [esp + 0x80]
  0x214d	dec    	eax
  0x214e	xor    	ecx, esp
  0x2150	call   	0x3c20
  === BLOCK LINK ===
    0x2155
=== CODE BLOCK END ===

=== CODE BLOCK ADDRESS 0x2155 ===
  0x2155	dec    	eax
  0x2156	mov    	ebx, dword ptr [esp + 0xa0]
  0x215d	dec    	eax
  0x215e	add    	esp, 0x90
  0x2164	pop    	edi
  === BLOCK LINK ===
    0x2165
=== CODE BLOCK END ===

=== CODE BLOCK ADDRESS 0x2165 ===
  0x2165	ret    	
  0x2166	int3   	
  0x2167	int3   	
  0x2168	int3   	
  0x2169	int3   	
  === BLOCK LINK ===
    0x216a
=== CODE BLOCK END ===

=== CODE BLOCK ADDRESS 0x216a ===
  0x216a	int3   	
  0x216b	int3   	
  0x216c	int3   	
  0x216d	int3   	
  0x216e	int3   	
  === BLOCK LINK ===
    0x216f
=== CODE BLOCK END ===

=== CODE BLOCK ADDRESS 0x216f ===
  0x216f	int3   	
  0x2170	dec    	eax
  0x2171	mov    	dword ptr [esp + 8], ebx
  0x2175	push   	edi
  0x2176	dec    	eax
  === BLOCK LINK ===
    0x2177
=== CODE BLOCK END ===

=== CODE BLOCK ADDRESS 0x2177 ===
  0x2177	sub    	esp, 0x20
  0x217a	mov    	edi, ecx
  0x217c	dec    	esp
  0x217d	lea    	eax, [esp + 0x38]
  0x2181	xor    	ebx, ebx
  === BLOCK LINK ===
    0x2183
=== CODE BLOCK END ===

=== CODE BLOCK ADDRESS 0x2183 ===
  0x2183	dec    	eax
  0x2184	lea    	edx, [0x3536]
  0x218a	dec    	eax
  0x218b	lea    	ecx, [0x357f]
  0x2191	inc    	esp
  === BLOCK LINK ===
    0x2192
=== CODE BLOCK END ===

=== CODE BLOCK ADDRESS 0x2192 ===
  0x2192	lea    	ecx, [ebx + 8]
  0x2195	dec    	eax
  0x2196	call   	dword ptr [0x307c]
  === BLOCK LINK ===
    0x219c
=== CODE BLOCK END ===

=== CODE BLOCK ADDRESS 0x219c ===
  0x219c	nop    	dword ptr [eax + eax]
  0x21a1	test   	eax, eax
  0x21a3	jne    	0x21be
  === BLOCK LINK ===
    0x21a5
=== CODE BLOCK END ===

=== CODE BLOCK ADDRESS 0x21a5 ===
  0x21a5	dec    	eax
  0x21a6	call   	dword ptr [0x303c]
  === BLOCK LINK ===
    0x21ac
=== CODE BLOCK END ===

=== CODE BLOCK ADDRESS 0x21ac ===
  0x21ac	nop    	dword ptr [eax + eax]
  0x21b1	mov    	ebx, eax
  0x21b3	cmp    	eax, 0xcb
  0x21b8	jne    	0x220f
  === BLOCK LINK ===
    0x21ba
=== CODE BLOCK END ===

=== CODE BLOCK ADDRESS 0x21ba ===
  0x21ba	xor    	ecx, ecx
  0x21bc	jmp    	0x21c3
  === BLOCK LINK ===
    0x21be
=== CODE BLOCK END ===

=== CODE BLOCK ADDRESS 0x21be ===
  0x21be	dec    	eax
  0x21bf	mov    	ecx, dword ptr [esp + 0x38]
  0x21c3	test   	edi, edi
  0x21c5	je     	0x21cd
  === BLOCK LINK ===
    0x21c7
=== CODE BLOCK END ===

=== CODE BLOCK ADDRESS 0x21c7 ===
  0x21c7	dec    	eax
  0x21c8	or     	ecx, 1
  0x21cb	jmp    	0x21d1
  === BLOCK LINK ===
    0x21cd
=== CODE BLOCK END ===

=== CODE BLOCK ADDRESS 0x21cd ===
  0x21cd	dec    	eax
  0x21ce	and    	ecx, 0xfffffffe
  0x21d1	dec    	eax
  0x21d2	mov    	dword ptr [esp + 0x38], ecx
  0x21d6	dec    	esp
  === BLOCK LINK ===
    0x21d7
=== CODE BLOCK END ===

=== CODE BLOCK ADDRESS 0x21d7 ===
  0x21d7	lea    	eax, [esp + 0x38]
  0x21db	dec    	eax
  0x21dc	lea    	ecx, [0x352e]
  0x21e2	inc    	ecx
  0x21e3	mov    	ecx, 8
  === BLOCK LINK ===
    0x21e8
=== CODE BLOCK END ===

=== CODE BLOCK ADDRESS 0x21e8 ===
  0x21e8	dec    	eax
  0x21e9	lea    	edx, [0x34d1]
  0x21ef	dec    	eax
  0x21f0	call   	dword ptr [0x301a]
  === BLOCK LINK ===
    0x21f6
=== CODE BLOCK END ===

=== CODE BLOCK ADDRESS 0x21f6 ===
  0x21f6	nop    	dword ptr [eax + eax]
  0x21fb	test   	eax, eax
  0x21fd	jne    	0x220d
  === BLOCK LINK ===
    0x21ff
=== CODE BLOCK END ===

=== CODE BLOCK ADDRESS 0x21ff ===
  0x21ff	dec    	eax
  0x2200	call   	dword ptr [0x2fe2]
  === BLOCK LINK ===
    0x2206
=== CODE BLOCK END ===

=== CODE BLOCK ADDRESS 0x2206 ===
  0x2206	nop    	dword ptr [eax + eax]
  0x220b	jmp    	0x220f
  === BLOCK LINK ===
    0x220d
=== CODE BLOCK END ===

=== CODE BLOCK ADDRESS 0x220d ===
  0x220d	mov    	eax, ebx
  0x220f	dec    	eax
  0x2210	mov    	ebx, dword ptr [esp + 0x30]
  0x2214	dec    	eax
  0x2215	add    	esp, 0x20
  === BLOCK LINK ===
    0x2218
=== CODE BLOCK END ===

=== CODE BLOCK ADDRESS 0x2218 ===
  0x2218	pop    	edi
  0x2219	ret    	
  0x221a	int3   	
  0x221b	int3   	
  0x221c	int3   	
  === BLOCK LINK ===
    0x221d
=== CODE BLOCK END ===

=== CODE BLOCK ADDRESS 0x221d ===
  0x221d	int3   	
  0x221e	int3   	
  0x221f	int3   	
  0x2220	int3   	
  0x2221	int3   	
  === BLOCK LINK ===
    0x2222
=== CODE BLOCK END ===

=== CODE BLOCK ADDRESS 0x2222 ===
  0x2222	int3   	
  0x2223	int3   	
  0x2224	dec    	eax
  0x2225	mov    	dword ptr [esp + 0x18], ebx
  0x2229	push   	ebp
  === BLOCK LINK ===
    0x222a
=== CODE BLOCK END ===

=== CODE BLOCK ADDRESS 0x222a ===
  0x222a	push   	esi
  0x222b	push   	edi
  0x222c	inc    	ecx
  0x222d	push   	esi
  0x222e	inc    	ecx
  === BLOCK LINK ===
    0x222f
=== CODE BLOCK END ===

=== CODE BLOCK ADDRESS 0x222f ===
  0x222f	push   	edi
  0x2230	dec    	eax
  0x2231	lea    	ebp, [esp - 0x50]
  0x2235	dec    	eax
  0x2236	sub    	esp, 0x170
  === BLOCK LINK ===
    0x223c
=== CODE BLOCK END ===

=== CODE BLOCK ADDRESS 0x223c ===
  0x223c	dec    	eax
  0x223d	mov    	eax, dword ptr [0x5e05]
  0x2243	dec    	eax
  0x2244	xor    	eax, esp
  0x2246	dec    	eax
  === BLOCK LINK ===
    0x2247
=== CODE BLOCK END ===

=== CODE BLOCK ADDRESS 0x2247 ===
  0x2247	mov    	dword ptr [ebp + 0x40], eax
  0x224a	inc    	ebp
  0x224b	xor    	esi, esi
  0x224d	dec    	eax
  0x224e	mov    	edi, edx
  === BLOCK LINK ===
    0x2250
=== CODE BLOCK END ===

=== CODE BLOCK ADDRESS 0x2250 ===
  0x2250	mov    	esi, ecx
  0x2252	inc    	esp
  0x2253	mov    	dword ptr [ebp - 0x7c], esi
  0x2256	inc    	ebp
  0x2257	xor    	ecx, ecx
  === BLOCK LINK ===
    0x2259
=== CODE BLOCK END ===

=== CODE BLOCK ADDRESS 0x2259 ===
  0x2259	inc    	ebp
  0x225a	xor    	eax, eax
  0x225c	xor    	ecx, ecx
  0x225e	inc    	ecx
  0x225f	lea    	ebx, [esi + 1]
  === BLOCK LINK ===
    0x2262
=== CODE BLOCK END ===

=== CODE BLOCK ADDRESS 0x2262 ===
  0x2262	mov    	edx, ebx
  0x2264	dec    	eax
  0x2265	call   	dword ptr [0x2fbd]
  === BLOCK LINK ===
    0x226b
=== CODE BLOCK END ===

=== CODE BLOCK ADDRESS 0x226b ===
  0x226b	nop    	dword ptr [eax + eax]
  0x2270	dec    	eax
  0x2271	mov    	eax, dword ptr [0x5d91]
  0x2277	dec    	esp
  0x2278	lea    	ecx, [0x5da2]
  === BLOCK LINK ===
    0x227e
=== CODE BLOCK END ===

=== CODE BLOCK ADDRESS 0x227e ===
  0x227e	xorps  	xmm1, xmm1
  0x2281	dec    	esp
  0x2282	lea    	eax, [0x5d78]
  0x2288	dec    	eax
  0x2289	lea    	edx, [0xffffed81]
  === BLOCK LINK ===
    0x228f
=== CODE BLOCK END ===

=== CODE BLOCK ADDRESS 0x228f ===
  0x228f	dec    	eax
  0x2290	lea    	ecx, [ebp + 0x30]
  0x2293	movups  	xmm0, xmmword ptr [eax - 0x10]
  0x2297	movdqu  	xmmword ptr [0x5d89], xmm1
  0x229f	movdqu  	xmmword ptr [ebp + 0x30], xmm0
  === BLOCK LINK ===
    0x22a4
=== CODE BLOCK END ===

=== CODE BLOCK ADDRESS 0x22a4 ===
  0x22a4	dec    	eax
  0x22a5	call   	dword ptr [0x30e5]
  === BLOCK LINK ===
    0x22ab
=== CODE BLOCK END ===

=== CODE BLOCK ADDRESS 0x22ab ===
  0x22ab	nop    	dword ptr [eax + eax]
  0x22b0	inc    	ebp
  0x22b1	lea    	edi, [esi + 2]
  0x22b4	test   	eax, eax
  0x22b6	jne    	0x22d9
  === BLOCK LINK ===
    0x22b8
=== CODE BLOCK END ===

=== CODE BLOCK ADDRESS 0x22b8 ===
  0x22b8	dec    	esp
  0x22b9	mov    	eax, dword ptr [0x5d49]
  0x22bf	inc    	ecx
  0x22c0	mov    	edx, edi
  0x22c2	dec    	eax
  === BLOCK LINK ===
    0x22c3
=== CODE BLOCK END ===

=== CODE BLOCK ADDRESS 0x22c3 ===
  0x22c3	mov    	ecx, dword ptr [0x5d57]
  0x22c9	inc    	ebp
  0x22ca	movzx  	ecx, word ptr [eax]
  0x22cd	dec    	eax
  0x22ce	call   	dword ptr [0x30b4]
  === BLOCK LINK ===
    0x22d4
=== CODE BLOCK END ===

=== CODE BLOCK ADDRESS 0x22d4 ===
  0x22d4	nop    	dword ptr [eax + eax]
  0x22d9	inc    	ecx
  0x22da	mov    	eax, 0x104
  0x22df	dec    	eax
  0x22e0	lea    	edx, [0x636a]
  === BLOCK LINK ===
    0x22e6
=== CODE BLOCK END ===

=== CODE BLOCK ADDRESS 0x22e6 ===
  0x22e6	dec    	eax
  0x22e7	lea    	ecx, [0x370b]
  0x22ed	dec    	eax
  0x22ee	call   	dword ptr [0x2f94]
  === BLOCK LINK ===
    0x22f4
=== CODE BLOCK END ===

=== CODE BLOCK ADDRESS 0x22f4 ===
  0x22f4	nop    	dword ptr [eax + eax]
  0x22f9	test   	eax, eax
  0x22fb	je     	0x23a5
  === BLOCK LINK ===
    0x2301
=== CODE BLOCK END ===

=== CODE BLOCK ADDRESS 0x2301 ===
  0x2301	inc    	esp
  0x2302	mov    	dword ptr [ebp - 0x80], esi
  0x2305	xor    	ecx, ecx
  0x2307	dec    	eax
  0x2308	call   	dword ptr [0x2f4a]
  === BLOCK LINK ===
    0x230e
=== CODE BLOCK END ===

=== CODE BLOCK ADDRESS 0x230e ===
  0x230e	nop    	dword ptr [eax + eax]
  0x2313	dec    	eax
  0x2314	mov    	dword ptr [0x631e], eax
  0x231a	dec    	eax
  0x231b	test   	eax, eax
  === BLOCK LINK ===
    0x231d
=== CODE BLOCK END ===

=== CODE BLOCK ADDRESS 0x231d ===
  0x231d	jne    	0x2419
  === BLOCK LINK ===
    0x2323
=== CODE BLOCK END ===

=== CODE BLOCK ADDRESS 0x2323 ===
  0x2323	dec    	eax
  0x2324	call   	dword ptr [0x2ebe]
  === BLOCK LINK ===
    0x232a
=== CODE BLOCK END ===

=== CODE BLOCK ADDRESS 0x232a ===
  0x232a	nop    	dword ptr [eax + eax]
  0x232f	mov    	ecx, eax
  0x2331	mov    	dword ptr [ebp - 0x80], eax
  0x2334	dec    	eax
  0x2335	lea    	edx, [0x6315]
  === BLOCK LINK ===
    0x233b
=== CODE BLOCK END ===

=== CODE BLOCK ADDRESS 0x233b ===
  0x233b	call   	0x34a4
  === BLOCK LINK ===
    0x2340
=== CODE BLOCK END ===

=== CODE BLOCK ADDRESS 0x2340 ===
  0x2340	cmp    	dword ptr [0x5cb9], 5
  0x2347	jbe    	0x28a2
  === BLOCK LINK ===
    0x234d
=== CODE BLOCK END ===

=== CODE BLOCK ADDRESS 0x234d ===
  0x234d	dec    	eax
  0x234e	mov    	edi, 0
  0x2353	add    	byte ptr [eax], ah
  0x2355	add    	byte ptr [eax], al
  0x2357	dec    	eax
  === BLOCK LINK ===
    0x2358
=== CODE BLOCK END ===

=== CODE BLOCK ADDRESS 0x2358 ===
  0x2358	test   	dword ptr [0x5cb2], edi
  0x235e	je     	0x28a2
  === BLOCK LINK ===
    0x2364
=== CODE BLOCK END ===

=== CODE BLOCK ADDRESS 0x2364 ===
  0x2364	dec    	eax
  0x2365	mov    	eax, dword ptr [0x5cad]
  0x236b	dec    	eax
  0x236c	and    	eax, edi
  0x236e	dec    	eax
  === BLOCK LINK ===
    0x236f
=== CODE BLOCK END ===

=== CODE BLOCK ADDRESS 0x236f ===
  0x236f	cmp    	eax, dword ptr [0x5ca3]
  0x2375	jne    	0x28a2
  === BLOCK LINK ===
    0x237b
=== CODE BLOCK END ===

=== CODE BLOCK ADDRESS 0x237b ===
  0x237b	mov    	eax, dword ptr [ebp - 0x80]
  0x237e	dec    	eax
  0x237f	lea    	edx, [0x37ca]
  0x2385	mov    	dword ptr [ebp - 0x44], eax
  0x2388	dec    	eax
  === BLOCK LINK ===
    0x2389
=== CODE BLOCK END ===

=== CODE BLOCK ADDRESS 0x2389 ===
  0x2389	lea    	eax, [0x33b9]
  0x238f	dec    	eax
  0x2390	mov    	dword ptr [ebp + 0x30], eax
  0x2393	dec    	eax
  0x2394	lea    	eax, [ebp - 0x44]
  === BLOCK LINK ===
    0x2397
=== CODE BLOCK END ===

=== CODE BLOCK ADDRESS 0x2397 ===
  0x2397	dec    	eax
  0x2398	mov    	dword ptr [esp + 0x28], eax
  0x239c	dec    	eax
  0x239d	lea    	eax, [ebp + 0x30]
  0x23a0	jmp    	0x3194
  === BLOCK LINK ===
    0x23a5
=== CODE BLOCK END ===

=== CODE BLOCK ADDRESS 0x23a5 ===
  0x23a5	dec    	eax
  0x23a6	call   	dword ptr [0x2e3c]
  === BLOCK LINK ===
    0x23ac
=== CODE BLOCK END ===

=== CODE BLOCK ADDRESS 0x23ac ===
  0x23ac	nop    	dword ptr [eax + eax]
  0x23b1	mov    	dword ptr [ebp - 0x80], eax
  0x23b4	test   	eax, eax
  0x23b6	je     	0x2305
  === BLOCK LINK ===
    0x23bc
=== CODE BLOCK END ===

=== CODE BLOCK ADDRESS 0x23bc ===
  0x23bc	xor    	edx, edx
  0x23be	mov    	ecx, eax
  0x23c0	call   	0x34a4
  === BLOCK LINK ===
    0x23c5
=== CODE BLOCK END ===

=== CODE BLOCK ADDRESS 0x23c5 ===
  0x23c5	cmp    	dword ptr [0x5c34], 5
  0x23cc	jbe    	0x28a2
  === BLOCK LINK ===
    0x23d2
=== CODE BLOCK END ===

=== CODE BLOCK ADDRESS 0x23d2 ===
  0x23d2	dec    	eax
  0x23d3	mov    	edi, 0
  0x23d8	add    	byte ptr [eax], ah
  0x23da	add    	byte ptr [eax], al
  0x23dc	dec    	eax
  === BLOCK LINK ===
    0x23dd
=== CODE BLOCK END ===

=== CODE BLOCK ADDRESS 0x23dd ===
  0x23dd	test   	dword ptr [0x5c2d], edi
  0x23e3	je     	0x28a2
  === BLOCK LINK ===
    0x23e9
=== CODE BLOCK END ===

=== CODE BLOCK ADDRESS 0x23e9 ===
  0x23e9	dec    	eax
  0x23ea	mov    	eax, dword ptr [0x5c28]
  0x23f0	dec    	eax
  0x23f1	and    	eax, edi
  0x23f3	dec    	eax
  === BLOCK LINK ===
    0x23f4
=== CODE BLOCK END ===

=== CODE BLOCK ADDRESS 0x23f4 ===
  0x23f4	cmp    	eax, dword ptr [0x5c1e]
  0x23fa	jne    	0x28a2
  === BLOCK LINK ===
    0x2400
=== CODE BLOCK END ===

=== CODE BLOCK ADDRESS 0x2400 ===
  0x2400	mov    	eax, dword ptr [ebp - 0x80]
  0x2403	dec    	eax
  0x2404	lea    	edx, [0x3745]
  0x240a	mov    	dword ptr [ebp - 0x44], eax
  0x240d	dec    	eax
  === BLOCK LINK ===
    0x240e
=== CODE BLOCK END ===

=== CODE BLOCK ADDRESS 0x240e ===
  0x240e	lea    	eax, [0x331c]
  0x2414	jmp    	0x238f
  === BLOCK LINK ===
    0x2419
=== CODE BLOCK END ===

=== CODE BLOCK ADDRESS 0x2419 ===
  0x2419	dec    	eax
  0x241a	mov    	eax, dword ptr [edi]
  0x241c	dec    	eax
  0x241d	mov    	dword ptr [0x621d], eax
  0x2423	call   	0x3698
  === BLOCK LINK ===
    0x2428
=== CODE BLOCK END ===

=== CODE BLOCK ADDRESS 0x2428 ===
  0x2428	cmp    	esi, ebx
  0x242a	jne    	0x2439
  === BLOCK LINK ===
    0x242c
=== CODE BLOCK END ===

=== CODE BLOCK ADDRESS 0x242c ===
  0x242c	call   	0x1edc
  === BLOCK LINK ===
    0x2431
=== CODE BLOCK END ===

=== CODE BLOCK ADDRESS 0x2431 ===
  0x2431	inc    	ecx
  0x2432	mov    	ebx, esi
  0x2434	jmp    	0x31f7
  === BLOCK LINK ===
    0x2439
=== CODE BLOCK END ===

=== CODE BLOCK ADDRESS 0x2439 ===
  0x2439	dec    	eax
  0x243a	mov    	ecx, dword ptr [edi + 8]
  0x243d	dec    	eax
  0x243e	lea    	edx, [0x3314]
  0x2444	dec    	ebp
  === BLOCK LINK ===
    0x2445
=== CODE BLOCK END ===

=== CODE BLOCK ADDRESS 0x2445 ===
  0x2445	mov    	eax, edi
  0x2447	dec    	eax
  0x2448	call   	dword ptr [0x2f62]
  === BLOCK LINK ===
    0x244e
=== CODE BLOCK END ===

=== CODE BLOCK ADDRESS 0x244e ===
  0x244e	nop    	dword ptr [eax + eax]
  0x2453	test   	eax, eax
  0x2455	je     	0x31a3
  === BLOCK LINK ===
    0x245b
=== CODE BLOCK END ===

=== CODE BLOCK ADDRESS 0x245b ===
  0x245b	dec    	eax
  0x245c	mov    	ecx, dword ptr [edi + 8]
  0x245f	dec    	eax
  0x2460	lea    	edx, [0x32fa]
  0x2466	dec    	ebp
  === BLOCK LINK ===
    0x2467
=== CODE BLOCK END ===

=== CODE BLOCK ADDRESS 0x2467 ===
  0x2467	mov    	eax, edi
  0x2469	dec    	eax
  0x246a	call   	dword ptr [0x2f40]
  === BLOCK LINK ===
    0x2470
=== CODE BLOCK END ===

=== CODE BLOCK ADDRESS 0x2470 ===
  0x2470	nop    	dword ptr [eax + eax]
  0x2475	test   	eax, eax
  0x2477	je     	0x31a3
  === BLOCK LINK ===
    0x247d
=== CODE BLOCK END ===

=== CODE BLOCK ADDRESS 0x247d ===
  0x247d	dec    	eax
  0x247e	mov    	ecx, dword ptr [edi + 8]
  0x2481	dec    	eax
  0x2482	lea    	edx, [0x32e0]
  0x2488	dec    	ebp
  === BLOCK LINK ===
    0x2489
=== CODE BLOCK END ===

=== CODE BLOCK ADDRESS 0x2489 ===
  0x2489	mov    	eax, edi
  0x248b	dec    	eax
  0x248c	call   	dword ptr [0x2f1e]
  === BLOCK LINK ===
    0x2492
=== CODE BLOCK END ===

=== CODE BLOCK ADDRESS 0x2492 ===
  0x2492	nop    	dword ptr [eax + eax]
  0x2497	test   	eax, eax
  0x2499	je     	0x31a3
  === BLOCK LINK ===
    0x249f
=== CODE BLOCK END ===

=== CODE BLOCK ADDRESS 0x249f ===
  0x249f	dec    	eax
  0x24a0	mov    	ecx, dword ptr [edi + 8]
  0x24a3	dec    	eax
  0x24a4	lea    	edx, [0x32c6]
  0x24aa	dec    	ebp
  === BLOCK LINK ===
    0x24ab
=== CODE BLOCK END ===

=== CODE BLOCK ADDRESS 0x24ab ===
  0x24ab	mov    	eax, edi
  0x24ad	dec    	eax
  0x24ae	call   	dword ptr [0x2efc]
  === BLOCK LINK ===
    0x24b4
=== CODE BLOCK END ===

=== CODE BLOCK ADDRESS 0x24b4 ===
  0x24b4	nop    	dword ptr [eax + eax]
  0x24b9	test   	eax, eax
  0x24bb	je     	0x31a3
  === BLOCK LINK ===
    0x24c1
=== CODE BLOCK END ===

=== CODE BLOCK ADDRESS 0x24c1 ===
  0x24c1	dec    	eax
  0x24c2	mov    	ecx, dword ptr [edi + 8]
  0x24c5	dec    	eax
  0x24c6	lea    	edx, [0x32ac]
  0x24cc	dec    	ebp
  === BLOCK LINK ===
    0x24cd
=== CODE BLOCK END ===

=== CODE BLOCK ADDRESS 0x24cd ===
  0x24cd	mov    	eax, edi
  0x24cf	dec    	eax
  0x24d0	call   	dword ptr [0x2eda]
  === BLOCK LINK ===
    0x24d6
=== CODE BLOCK END ===

=== CODE BLOCK ADDRESS 0x24d6 ===
  0x24d6	nop    	dword ptr [eax + eax]
  0x24db	test   	eax, eax
  0x24dd	je     	0x2f61
  === BLOCK LINK ===
    0x24e3
=== CODE BLOCK END ===

=== CODE BLOCK ADDRESS 0x24e3 ===
  0x24e3	dec    	eax
  0x24e4	mov    	ecx, dword ptr [edi + 8]
  0x24e7	dec    	eax
  0x24e8	lea    	edx, [0x32a2]
  0x24ee	dec    	ebp
  === BLOCK LINK ===
    0x24ef
=== CODE BLOCK END ===

=== CODE BLOCK ADDRESS 0x24ef ===
  0x24ef	mov    	eax, edi
  0x24f1	dec    	eax
  0x24f2	call   	dword ptr [0x2eb8]
  === BLOCK LINK ===
    0x24f8
=== CODE BLOCK END ===

=== CODE BLOCK ADDRESS 0x24f8 ===
  0x24f8	nop    	dword ptr [eax + eax]
  0x24fd	test   	eax, eax
  0x24ff	je     	0x2f61
  === BLOCK LINK ===
    0x2505
=== CODE BLOCK END ===

=== CODE BLOCK ADDRESS 0x2505 ===
  0x2505	dec    	eax
  0x2506	mov    	ecx, dword ptr [edi + 8]
  0x2509	dec    	eax
  0x250a	lea    	edx, [0x3298]
  0x2510	dec    	ebp
  === BLOCK LINK ===
    0x2511
=== CODE BLOCK END ===

=== CODE BLOCK ADDRESS 0x2511 ===
  0x2511	mov    	eax, edi
  0x2513	dec    	eax
  0x2514	call   	dword ptr [0x2e96]
  === BLOCK LINK ===
    0x251a
=== CODE BLOCK END ===

=== CODE BLOCK ADDRESS 0x251a ===
  0x251a	nop    	dword ptr [eax + eax]
  0x251f	test   	eax, eax
  0x2521	je     	0x2f61
  === BLOCK LINK ===
    0x2527
=== CODE BLOCK END ===

=== CODE BLOCK ADDRESS 0x2527 ===
  0x2527	dec    	eax
  0x2528	mov    	ecx, dword ptr [edi + 8]
  0x252b	dec    	eax
  0x252c	lea    	edx, [0x328e]
  0x2532	dec    	ebp
  === BLOCK LINK ===
    0x2533
=== CODE BLOCK END ===

=== CODE BLOCK ADDRESS 0x2533 ===
  0x2533	mov    	eax, edi
  0x2535	dec    	eax
  0x2536	call   	dword ptr [0x2e74]
  === BLOCK LINK ===
    0x253c
=== CODE BLOCK END ===

=== CODE BLOCK ADDRESS 0x253c ===
  0x253c	nop    	dword ptr [eax + eax]
  0x2541	test   	eax, eax
  0x2543	je     	0x2f61
  === BLOCK LINK ===
    0x2549
=== CODE BLOCK END ===

=== CODE BLOCK ADDRESS 0x2549 ===
  0x2549	dec    	eax
  0x254a	lea    	eax, [ebp - 0x7c]
  0x254d	dec    	eax
  0x254e	mov    	edx, edi
  0x2550	dec    	eax
  === BLOCK LINK ===
    0x2551
=== CODE BLOCK END ===

=== CODE BLOCK ADDRESS 0x2551 ===
  0x2551	mov    	dword ptr [esp + 0x98], eax
  0x2558	dec    	esp
  0x2559	lea    	ecx, [ebp - 0x58]
  0x255c	dec    	eax
  0x255d	lea    	eax, [ebp - 0x40]
  === BLOCK LINK ===
    0x2560
=== CODE BLOCK END ===

=== CODE BLOCK ADDRESS 0x2560 ===
  0x2560	mov    	ecx, esi
  0x2562	dec    	eax
  0x2563	mov    	dword ptr [esp + 0x90], eax
  0x256a	dec    	esp
  0x256b	lea    	eax, [ebp - 0x2c]
  === BLOCK LINK ===
    0x256e
=== CODE BLOCK END ===

=== CODE BLOCK ADDRESS 0x256e ===
  0x256e	dec    	eax
  0x256f	lea    	eax, [ebp - 0x38]
  0x2572	dec    	eax
  0x2573	mov    	dword ptr [esp + 0x88], eax
  0x257a	dec    	eax
  === BLOCK LINK ===
    0x257b
=== CODE BLOCK END ===

=== CODE BLOCK ADDRESS 0x257b ===
  0x257b	lea    	eax, [ebp - 0x50]
  0x257e	dec    	eax
  0x257f	mov    	dword ptr [esp + 0x80], eax
  0x2586	dec    	eax
  0x2587	lea    	eax, [ebp + 0x24]
  === BLOCK LINK ===
    0x258a
=== CODE BLOCK END ===

=== CODE BLOCK ADDRESS 0x258a ===
  0x258a	dec    	eax
  0x258b	mov    	dword ptr [esp + 0x78], eax
  0x258f	dec    	eax
  0x2590	lea    	eax, [ebp - 0x28]
  0x2593	dec    	eax
  === BLOCK LINK ===
    0x2594
=== CODE BLOCK END ===

=== CODE BLOCK ADDRESS 0x2594 ===
  0x2594	mov    	dword ptr [esp + 0x70], eax
  0x2598	dec    	eax
  0x2599	lea    	eax, [ebp + 0x1c]
  0x259c	dec    	eax
  0x259d	mov    	dword ptr [esp + 0x68], eax
  === BLOCK LINK ===
    0x25a1
=== CODE BLOCK END ===

=== CODE BLOCK ADDRESS 0x25a1 ===
  0x25a1	dec    	eax
  0x25a2	lea    	eax, [ebp - 0x1c]
  0x25a5	dec    	eax
  0x25a6	mov    	dword ptr [esp + 0x60], eax
  0x25aa	dec    	eax
  === BLOCK LINK ===
    0x25ab
=== CODE BLOCK END ===

=== CODE BLOCK ADDRESS 0x25ab ===
  0x25ab	lea    	eax, [ebp + 0x20]
  0x25ae	dec    	eax
  0x25af	mov    	dword ptr [esp + 0x58], eax
  0x25b3	dec    	eax
  0x25b4	lea    	eax, [ebp - 8]
  === BLOCK LINK ===
    0x25b7
=== CODE BLOCK END ===

=== CODE BLOCK ADDRESS 0x25b7 ===
  0x25b7	dec    	eax
  0x25b8	mov    	dword ptr [esp + 0x50], eax
  0x25bc	dec    	eax
  0x25bd	lea    	eax, [ebp - 0xc]
  0x25c0	dec    	eax
  === BLOCK LINK ===
    0x25c1
=== CODE BLOCK END ===

=== CODE BLOCK ADDRESS 0x25c1 ===
  0x25c1	mov    	dword ptr [esp + 0x48], eax
  0x25c5	dec    	eax
  0x25c6	lea    	eax, [ebp - 0x48]
  0x25c9	dec    	eax
  0x25ca	mov    	dword ptr [esp + 0x40], eax
  === BLOCK LINK ===
    0x25ce
=== CODE BLOCK END ===

=== CODE BLOCK ADDRESS 0x25ce ===
  0x25ce	dec    	eax
  0x25cf	lea    	eax, [ebp - 0x20]
  0x25d2	dec    	eax
  0x25d3	mov    	dword ptr [esp + 0x38], eax
  0x25d7	dec    	eax
  === BLOCK LINK ===
    0x25d8
=== CODE BLOCK END ===

=== CODE BLOCK ADDRESS 0x25d8 ===
  0x25d8	lea    	eax, [ebp - 0x30]
  0x25db	dec    	eax
  0x25dc	mov    	dword ptr [esp + 0x30], eax
  0x25e0	dec    	eax
  0x25e1	lea    	eax, [ebp - 0x24]
  === BLOCK LINK ===
    0x25e4
=== CODE BLOCK END ===

=== CODE BLOCK ADDRESS 0x25e4 ===
  0x25e4	dec    	eax
  0x25e5	mov    	dword ptr [esp + 0x28], eax
  0x25e9	dec    	eax
  0x25ea	lea    	eax, [ebp - 0x10]
  0x25ed	dec    	eax
  === BLOCK LINK ===
    0x25ee
=== CODE BLOCK END ===

=== CODE BLOCK ADDRESS 0x25ee ===
  0x25ee	mov    	dword ptr [esp + 0x20], eax
  0x25f2	call   	0x1644
  === BLOCK LINK ===
    0x25f7
=== CODE BLOCK END ===

=== CODE BLOCK ADDRESS 0x25f7 ===
  0x25f7	test   	eax, eax
  0x25f9	jne    	0x2605
  === BLOCK LINK ===
    0x25fb
=== CODE BLOCK END ===

=== CODE BLOCK ADDRESS 0x25fb ===
  0x25fb	call   	0x1edc
  === BLOCK LINK ===
    0x2600
=== CODE BLOCK END ===

=== CODE BLOCK ADDRESS 0x2600 ===
  0x2600	jmp    	0x31f7
  === BLOCK LINK ===
    0x2605
=== CODE BLOCK END ===

=== CODE BLOCK ADDRESS 0x2605 ===
  0x2605	call   	0x422c
  === BLOCK LINK ===
    0x260a
=== CODE BLOCK END ===

=== CODE BLOCK ADDRESS 0x260a ===
  0x260a	test   	al, al
  0x260c	je     	0x263f
  === BLOCK LINK ===
    0x260e
=== CODE BLOCK END ===

=== CODE BLOCK ADDRESS 0x260e ===
  0x260e	mov    	edx, dword ptr [ebp - 0x48]
  0x2611	mov    	ecx, dword ptr [ebp - 0x7c]
  0x2614	dec    	eax
  0x2615	call   	dword ptr [0x7a0d]
  === BLOCK LINK ===
    0x261b
=== CODE BLOCK END ===

=== CODE BLOCK ADDRESS 0x261b ===
  0x261b	nop    	dword ptr [eax + eax]
  0x2620	test   	eax, eax
  0x2622	je     	0x263f
  === BLOCK LINK ===
    0x2624
=== CODE BLOCK END ===

=== CODE BLOCK ADDRESS 0x2624 ===
  0x2624	inc    	esp
  0x2625	mov    	eax, dword ptr [ebp - 0x48]
  0x2628	mov    	edx, dword ptr [ebp - 0x7c]
  0x262b	inc    	ebp
  0x262c	test   	eax, eax
  === BLOCK LINK ===
    0x262e
=== CODE BLOCK END ===

=== CODE BLOCK ADDRESS 0x262e ===
  0x262e	je     	0x2639
  === BLOCK LINK ===
    0x2630
=== CODE BLOCK END ===

=== CODE BLOCK ADDRESS 0x2630 ===
  0x2630	bts    	edx, 0x19
  0x2634	mov    	dword ptr [ebp - 0x7c], edx
  0x2637	jmp    	0x2646
  === BLOCK LINK ===
    0x2639
=== CODE BLOCK END ===

=== CODE BLOCK ADDRESS 0x2639 ===
  0x2639	bts    	edx, 0x18
  0x263d	jmp    	0x2634
  === BLOCK LINK ===
    0x263f
=== CODE BLOCK END ===

=== CODE BLOCK ADDRESS 0x263f ===
  0x263f	mov    	edx, dword ptr [ebp - 0x7c]
  0x2642	inc    	esp
  0x2643	mov    	eax, dword ptr [ebp - 0x48]
  0x2646	dec    	esp
  0x2647	cmp    	dword ptr [ebp - 0x50], esi
  === BLOCK LINK ===
    0x264a
=== CODE BLOCK END ===

=== CODE BLOCK ADDRESS 0x264a ===
  0x264a	inc    	ebp
  0x264b	mov    	ecx, esi
  0x264d	inc    	ebp
  0x264e	mov    	edx, esi
  0x2650	dec    	eax
  === BLOCK LINK ===
    0x2651
=== CODE BLOCK END ===

=== CODE BLOCK ADDRESS 0x2651 ===
  0x2651	mov    	edi, 0
  0x2656	add    	byte ptr [eax], ah
  0x2658	add    	byte ptr [eax], al
  0x265a	inc    	ecx
  0x265b	setne  	cl
  === BLOCK LINK ===
    0x265e
=== CODE BLOCK END ===

=== CODE BLOCK ADDRESS 0x265e ===
  0x265e	dec    	esp
  0x265f	cmp    	dword ptr [ebp - 0x38], esi
  0x2662	inc    	ecx
  0x2663	setne  	dl
  0x2666	cmp    	dword ptr [0x5993], 5
  === BLOCK LINK ===
    0x266d
=== CODE BLOCK END ===

=== CODE BLOCK ADDRESS 0x266d ===
  0x266d	jbe    	0x2772
  === BLOCK LINK ===
    0x2673
=== CODE BLOCK END ===

=== CODE BLOCK ADDRESS 0x2673 ===
  0x2673	dec    	eax
  0x2674	test   	dword ptr [0x5996], edi
  0x267a	je     	0x2772
  === BLOCK LINK ===
    0x2680
=== CODE BLOCK END ===

=== CODE BLOCK ADDRESS 0x2680 ===
  0x2680	dec    	eax
  0x2681	mov    	eax, dword ptr [0x5991]
  0x2687	dec    	eax
  0x2688	and    	eax, edi
  0x268a	dec    	eax
  === BLOCK LINK ===
    0x268b
=== CODE BLOCK END ===

=== CODE BLOCK ADDRESS 0x268b ===
  0x268b	cmp    	eax, dword ptr [0x5987]
  0x2691	jne    	0x2772
  === BLOCK LINK ===
    0x2697
=== CODE BLOCK END ===

=== CODE BLOCK ADDRESS 0x2697 ===
  0x2697	mov    	eax, dword ptr [ebp - 0x40]
  0x269a	mov    	dword ptr [ebp + 0x18], eax
  0x269d	mov    	eax, dword ptr [ebp - 0x1c]
  0x26a0	mov    	dword ptr [ebp], eax
  0x26a3	mov    	eax, dword ptr [ebp - 8]
  === BLOCK LINK ===
    0x26a6
=== CODE BLOCK END ===

=== CODE BLOCK ADDRESS 0x26a6 ===
  0x26a6	mov    	dword ptr [ebp + 4], eax
  0x26a9	mov    	eax, dword ptr [ebp - 0xc]
  0x26ac	mov    	dword ptr [ebp + 8], eax
  0x26af	mov    	eax, dword ptr [ebp - 0x20]
  0x26b2	mov    	dword ptr [ebp + 0x10], eax
  === BLOCK LINK ===
    0x26b5
=== CODE BLOCK END ===

=== CODE BLOCK ADDRESS 0x26b5 ===
  0x26b5	mov    	eax, dword ptr [ebp - 0x30]
  0x26b8	mov    	dword ptr [ebp - 0x18], eax
  0x26bb	mov    	eax, dword ptr [ebp - 0x24]
  0x26be	mov    	dword ptr [ebp - 0x68], eax
  0x26c1	mov    	eax, dword ptr [ebp - 0x10]
  === BLOCK LINK ===
    0x26c4
=== CODE BLOCK END ===

=== CODE BLOCK ADDRESS 0x26c4 ===
  0x26c4	mov    	dword ptr [ebp - 0x60], eax
  0x26c7	mov    	eax, dword ptr [ebp - 0x58]
  0x26ca	mov    	dword ptr [ebp - 0x78], eax
  0x26cd	mov    	eax, dword ptr [ebp - 0x2c]
  0x26d0	mov    	dword ptr [ebp + 0x30], eax
  === BLOCK LINK ===
    0x26d3
=== CODE BLOCK END ===

=== CODE BLOCK ADDRESS 0x26d3 ===
  0x26d3	dec    	eax
  0x26d4	lea    	eax, [ebp - 0x44]
  0x26d7	dec    	eax
  0x26d8	mov    	dword ptr [esp + 0x88], eax
  0x26df	dec    	eax
  === BLOCK LINK ===
    0x26e0
=== CODE BLOCK END ===

=== CODE BLOCK ADDRESS 0x26e0 ===
  0x26e0	lea    	eax, [ebp + 0x18]
  0x26e3	dec    	eax
  0x26e4	mov    	dword ptr [esp + 0x80], eax
  0x26eb	dec    	eax
  0x26ec	lea    	eax, [ebp + 0x28]
  === BLOCK LINK ===
    0x26ef
=== CODE BLOCK END ===

=== CODE BLOCK ADDRESS 0x26ef ===
  0x26ef	dec    	eax
  0x26f0	mov    	dword ptr [esp + 0x78], eax
  0x26f4	dec    	eax
  0x26f5	lea    	eax, [ebp - 4]
  0x26f8	dec    	eax
  === BLOCK LINK ===
    0x26f9
=== CODE BLOCK END ===

=== CODE BLOCK ADDRESS 0x26f9 ===
  0x26f9	mov    	dword ptr [esp + 0x70], eax
  0x26fd	dec    	eax
  0x26fe	lea    	eax, [ebp]
  0x2701	dec    	eax
  0x2702	mov    	dword ptr [esp + 0x68], eax
  === BLOCK LINK ===
    0x2706
=== CODE BLOCK END ===

=== CODE BLOCK ADDRESS 0x2706 ===
  0x2706	dec    	eax
  0x2707	lea    	eax, [ebp + 4]
  0x270a	dec    	eax
  0x270b	mov    	dword ptr [esp + 0x60], eax
  0x270f	dec    	eax
  === BLOCK LINK ===
    0x2710
=== CODE BLOCK END ===

=== CODE BLOCK ADDRESS 0x2710 ===
  0x2710	lea    	eax, [ebp + 8]
  0x2713	dec    	eax
  0x2714	mov    	dword ptr [esp + 0x58], eax
  0x2718	dec    	eax
  0x2719	lea    	eax, [ebp + 0xc]
  === BLOCK LINK ===
    0x271c
=== CODE BLOCK END ===

=== CODE BLOCK ADDRESS 0x271c ===
  0x271c	dec    	eax
  0x271d	mov    	dword ptr [esp + 0x50], eax
  0x2721	dec    	eax
  0x2722	lea    	eax, [ebp + 0x10]
  0x2725	dec    	eax
  === BLOCK LINK ===
    0x2726
=== CODE BLOCK END ===

=== CODE BLOCK ADDRESS 0x2726 ===
  0x2726	mov    	dword ptr [esp + 0x48], eax
  0x272a	dec    	eax
  0x272b	lea    	eax, [ebp - 0x18]
  0x272e	dec    	eax
  0x272f	mov    	dword ptr [esp + 0x40], eax
  === BLOCK LINK ===
    0x2733
=== CODE BLOCK END ===

=== CODE BLOCK ADDRESS 0x2733 ===
  0x2733	dec    	eax
  0x2734	lea    	eax, [ebp - 0x68]
  0x2737	dec    	eax
  0x2738	mov    	dword ptr [esp + 0x38], eax
  0x273c	dec    	eax
  === BLOCK LINK ===
    0x273d
=== CODE BLOCK END ===

=== CODE BLOCK ADDRESS 0x273d ===
  0x273d	lea    	eax, [ebp - 0x60]
  0x2740	dec    	eax
  0x2741	mov    	dword ptr [esp + 0x30], eax
  0x2745	dec    	eax
  0x2746	lea    	eax, [ebp - 0x78]
  === BLOCK LINK ===
    0x2749
=== CODE BLOCK END ===

=== CODE BLOCK ADDRESS 0x2749 ===
  0x2749	dec    	eax
  0x274a	mov    	dword ptr [esp + 0x28], eax
  0x274e	dec    	eax
  0x274f	lea    	eax, [ebp + 0x30]
  0x2752	mov    	dword ptr [ebp - 0x44], edx
  === BLOCK LINK ===
    0x2755
=== CODE BLOCK END ===

=== CODE BLOCK ADDRESS 0x2755 ===
  0x2755	dec    	eax
  0x2756	lea    	edx, [0x341a]
  0x275c	dec    	eax
  0x275d	mov    	dword ptr [esp + 0x20], eax
  0x2761	inc    	esp
  === BLOCK LINK ===
    0x2762
=== CODE BLOCK END ===

=== CODE BLOCK ADDRESS 0x2762 ===
  0x2762	mov    	dword ptr [ebp + 0x28], edx
  0x2765	inc    	esp
  0x2766	mov    	dword ptr [ebp - 4], ecx
  0x2769	inc    	esp
  0x276a	mov    	dword ptr [ebp + 0xc], eax
  === BLOCK LINK ===
    0x276d
=== CODE BLOCK END ===

=== CODE BLOCK ADDRESS 0x276d ===
  0x276d	call   	0x11d4
  === BLOCK LINK ===
    0x2772
=== CODE BLOCK END ===

=== CODE BLOCK ADDRESS 0x2772 ===
  0x2772	call   	0x422c
  === BLOCK LINK ===
    0x2777
=== CODE BLOCK END ===

=== CODE BLOCK ADDRESS 0x2777 ===
  0x2777	test   	al, al
  0x2779	je     	0x27b6
  === BLOCK LINK ===
    0x277b
=== CODE BLOCK END ===

=== CODE BLOCK ADDRESS 0x277b ===
  0x277b	mov    	edx, dword ptr [ebp - 0x48]
  0x277e	mov    	ecx, dword ptr [ebp - 0x7c]
  0x2781	dec    	eax
  0x2782	call   	dword ptr [0x78a0]
  === BLOCK LINK ===
    0x2788
=== CODE BLOCK END ===

=== CODE BLOCK ADDRESS 0x2788 ===
  0x2788	nop    	dword ptr [eax + eax]
  0x278d	test   	eax, eax
  0x278f	je     	0x27b6
  === BLOCK LINK ===
    0x2791
=== CODE BLOCK END ===

=== CODE BLOCK ADDRESS 0x2791 ===
  0x2791	dec    	eax
  0x2792	mov    	edx, dword ptr [ebp - 0x38]
  0x2795	dec    	eax
  0x2796	test   	edx, edx
  0x2798	je     	0x27ad
  === BLOCK LINK ===
    0x279a
=== CODE BLOCK END ===

=== CODE BLOCK ADDRESS 0x279a ===
  0x279a	dec    	eax
  0x279b	or     	eax, 0xffffffff
  0x279e	dec    	eax
  0x279f	inc    	eax
  0x27a1	inc    	sp
  === BLOCK LINK ===
    0x27a3
=== CODE BLOCK END ===

=== CODE BLOCK ADDRESS 0x27a3 ===
  0x27a3	cmp    	dword ptr [edx + eax*2], esi
  0x27a6	jne    	0x279e
  === BLOCK LINK ===
    0x27a8
=== CODE BLOCK END ===

=== CODE BLOCK ADDRESS 0x27a8 ===
  0x27a8	dec    	eax
  0x27a9	test   	eax, eax
  0x27ab	jne    	0x27ba
  === BLOCK LINK ===
    0x27ad
=== CODE BLOCK END ===

=== CODE BLOCK ADDRESS 0x27ad ===
  0x27ad	dec    	ecx
  0x27ae	mov    	edx, esi
  0x27b0	dec    	eax
  0x27b1	mov    	dword ptr [ebp - 0x38], edx
  0x27b4	jmp    	0x27ba
  === BLOCK LINK ===
    0x27b6
=== CODE BLOCK END ===

=== CODE BLOCK ADDRESS 0x27b6 ===
  0x27b6	dec    	eax
  0x27b7	mov    	edx, dword ptr [ebp - 0x38]
  0x27ba	mov    	esi, 0x13
  0x27bf	inc    	esp
  0x27c0	cmp    	dword ptr [ebp - 0x2c], esi
  === BLOCK LINK ===
    0x27c3
=== CODE BLOCK END ===

=== CODE BLOCK ADDRESS 0x27c3 ===
  0x27c3	jne    	0x2817
  === BLOCK LINK ===
    0x27c5
=== CODE BLOCK END ===

=== CODE BLOCK ADDRESS 0x27c5 ===
  0x27c5	inc    	esp
  0x27c6	cmp    	dword ptr [ebp - 0x28], esi
  0x27c9	je     	0x27e3
  === BLOCK LINK ===
    0x27cb
=== CODE BLOCK END ===

=== CODE BLOCK ADDRESS 0x27cb ===
  0x27cb	dec    	esp
  0x27cc	lea    	ecx, [ebp - 0x70]
  0x27cf	inc    	ebp
  0x27d0	xor    	eax, eax
  0x27d2	mov    	dl, bl
  === BLOCK LINK ===
    0x27d4
=== CODE BLOCK END ===

=== CODE BLOCK ADDRESS 0x27d4 ===
  0x27d4	lea    	ecx, [esi + 3]
  0x27d7	dec    	eax
  0x27d8	call   	dword ptr [0x2c6a]
  === BLOCK LINK ===
    0x27de
=== CODE BLOCK END ===

=== CODE BLOCK ADDRESS 0x27de ===
  0x27de	nop    	dword ptr [eax + eax]
  0x27e3	dec    	esp
  0x27e4	lea    	ecx, [ebp - 0x70]
  0x27e7	inc    	ebp
  0x27e8	xor    	eax, eax
  === BLOCK LINK ===
    0x27ea
=== CODE BLOCK END ===

=== CODE BLOCK ADDRESS 0x27ea ===
  0x27ea	mov    	dl, bl
  0x27ec	mov    	ecx, esi
  0x27ee	dec    	eax
  0x27ef	call   	dword ptr [0x2c53]
  === BLOCK LINK ===
    0x27f5
=== CODE BLOCK END ===

=== CODE BLOCK ADDRESS 0x27f5 ===
  0x27f5	nop    	dword ptr [eax + eax]
  0x27fa	inc    	ebp
  0x27fb	xor    	eax, eax
  0x27fd	dec    	esp
  0x27fe	lea    	ecx, [ebp - 0x70]
  === BLOCK LINK ===
    0x2801
=== CODE BLOCK END ===

=== CODE BLOCK ADDRESS 0x2801 ===
  0x2801	mov    	dl, bl
  0x2803	inc    	ecx
  0x2804	lea    	ecx, [eax + 0x18]
  0x2807	dec    	eax
  0x2808	call   	dword ptr [0x2c3a]
  === BLOCK LINK ===
    0x280e
=== CODE BLOCK END ===

=== CODE BLOCK ADDRESS 0x280e ===
  0x280e	nop    	dword ptr [eax + eax]
  0x2813	dec    	eax
  0x2814	mov    	edx, dword ptr [ebp - 0x38]
  0x2817	inc    	esp
  0x2818	cmp    	dword ptr [ebp - 0x28], esi
  === BLOCK LINK ===
    0x281b
=== CODE BLOCK END ===

=== CODE BLOCK ADDRESS 0x281b ===
  0x281b	je     	0x28ae
  === BLOCK LINK ===
    0x2821
=== CODE BLOCK END ===

=== CODE BLOCK ADDRESS 0x2821 ===
  0x2821	inc    	ecx
  0x2822	mov    	ecx, 8
  0x2827	dec    	esp
  0x2828	lea    	eax, [ebp + 0x30]
  0x282b	dec    	eax
  === BLOCK LINK ===
    0x282c
=== CODE BLOCK END ===

=== CODE BLOCK ADDRESS 0x282c ===
  0x282c	lea    	edx, [0x2e8e]
  0x2832	dec    	eax
  0x2833	lea    	ecx, [0x3077]
  0x2839	dec    	eax
  0x283a	call   	dword ptr [0x29d8]
  === BLOCK LINK ===
    0x2840
=== CODE BLOCK END ===

=== CODE BLOCK ADDRESS 0x2840 ===
  0x2840	nop    	dword ptr [eax + eax]
  0x2845	test   	eax, eax
  0x2847	jne    	0x285e
  === BLOCK LINK ===
    0x2849
=== CODE BLOCK END ===

=== CODE BLOCK ADDRESS 0x2849 ===
  0x2849	dec    	eax
  0x284a	call   	dword ptr [0x2998]
  === BLOCK LINK ===
    0x2850
=== CODE BLOCK END ===

=== CODE BLOCK ADDRESS 0x2850 ===
  0x2850	nop    	dword ptr [eax + eax]
  0x2855	mov    	dword ptr [ebp - 0x80], eax
  0x2858	cmp    	eax, ebx
  0x285a	jne    	0x2899
  === BLOCK LINK ===
    0x285c
=== CODE BLOCK END ===

=== CODE BLOCK ADDRESS 0x285c ===
  0x285c	jmp    	0x286b
  === BLOCK LINK ===
    0x285e
=== CODE BLOCK END ===

=== CODE BLOCK ADDRESS 0x285e ===
  0x285e	test   	byte ptr [ebp + 0x30], bl
  0x2861	jne    	0x2883
  === BLOCK LINK ===
    0x2863
=== CODE BLOCK END ===

=== CODE BLOCK ADDRESS 0x2863 ===
  0x2863	mov    	ebx, 0x32
  0x2868	mov    	dword ptr [ebp - 0x80], ebx
  0x286b	dec    	eax
  0x286c	mov    	ecx, dword ptr [0x5dc6]
  0x2872	inc    	ebp
  === BLOCK LINK ===
    0x2873
=== CODE BLOCK END ===

=== CODE BLOCK ADDRESS 0x2873 ===
  0x2873	xor    	eax, eax
  0x2875	inc    	esp
  0x2876	mov    	ecx, ebx
  0x2878	inc    	ecx
  0x2879	lea    	edx, [eax + 0x12]
  === BLOCK LINK ===
    0x287c
=== CODE BLOCK END ===

=== CODE BLOCK ADDRESS 0x287c ===
  0x287c	call   	0x3244
  === BLOCK LINK ===
    0x2881
=== CODE BLOCK END ===

=== CODE BLOCK ADDRESS 0x2881 ===
  0x2881	jmp    	0x28a2
  === BLOCK LINK ===
    0x2883
=== CODE BLOCK END ===

=== CODE BLOCK ADDRESS 0x2883 ===
  0x2883	inc    	esp
  0x2884	cmp    	dword ptr [ebp - 0x30], esi
  0x2887	inc    	ecx
  0x2888	mov    	ecx, esi
  0x288a	sete   	cl
  === BLOCK LINK ===
    0x288d
=== CODE BLOCK END ===

=== CODE BLOCK ADDRESS 0x288d ===
  0x288d	call   	0x2170
  === BLOCK LINK ===
    0x2892
=== CODE BLOCK END ===

=== CODE BLOCK ADDRESS 0x2892 ===
  0x2892	mov    	dword ptr [ebp - 0x80], eax
  0x2895	test   	eax, eax
  0x2897	je     	0x28aa
  === BLOCK LINK ===
    0x2899
=== CODE BLOCK END ===

=== CODE BLOCK ADDRESS 0x2899 ===
  0x2899	xor    	edx, edx
  0x289b	mov    	ecx, eax
  0x289d	call   	0x34a4
  === BLOCK LINK ===
    0x28a2
=== CODE BLOCK END ===

=== CODE BLOCK ADDRESS 0x28a2 ===
  0x28a2	mov    	ebx, dword ptr [ebp - 0x80]
  0x28a5	jmp    	0x31f7
  === BLOCK LINK ===
    0x28aa
=== CODE BLOCK END ===

=== CODE BLOCK ADDRESS 0x28aa ===
  0x28aa	dec    	eax
  0x28ab	mov    	edx, dword ptr [ebp - 0x38]
  0x28ae	inc    	esp
  0x28af	cmp    	dword ptr [ebp - 0x30], esi
  0x28b2	je     	0x293f
  === BLOCK LINK ===
    0x28b8
=== CODE BLOCK END ===

=== CODE BLOCK ADDRESS 0x28b8 ===
  0x28b8	dec    	eax
  0x28b9	mov    	ecx, dword ptr [ebp - 0x50]
  0x28bc	dec    	eax
  0x28bd	call   	dword ptr [0x2a4d]
  === BLOCK LINK ===
    0x28c3
=== CODE BLOCK END ===

=== CODE BLOCK ADDRESS 0x28c3 ===
  0x28c3	nop    	dword ptr [eax + eax]
  0x28c8	test   	eax, eax
  0x28ca	jne    	0x2f27
  === BLOCK LINK ===
    0x28d0
=== CODE BLOCK END ===

=== CODE BLOCK ADDRESS 0x28d0 ===
  0x28d0	dec    	eax
  0x28d1	call   	dword ptr [0x2911]
  === BLOCK LINK ===
    0x28d7
=== CODE BLOCK END ===

=== CODE BLOCK ADDRESS 0x28d7 ===
  0x28d7	nop    	dword ptr [eax + eax]
  0x28dc	dec    	eax
  0x28dd	mov    	edx, dword ptr [ebp - 0x50]
  0x28e0	mov    	ecx, eax
  0x28e2	mov    	dword ptr [ebp - 0x80], eax
  === BLOCK LINK ===
    0x28e5
=== CODE BLOCK END ===

=== CODE BLOCK ADDRESS 0x28e5 ===
  0x28e5	call   	0x34a4
  === BLOCK LINK ===
    0x28ea
=== CODE BLOCK END ===

=== CODE BLOCK ADDRESS 0x28ea ===
  0x28ea	cmp    	dword ptr [0x570f], 5
  0x28f1	jbe    	0x2f27
  === BLOCK LINK ===
    0x28f7
=== CODE BLOCK END ===

=== CODE BLOCK ADDRESS 0x28f7 ===
  0x28f7	dec    	eax
  0x28f8	test   	dword ptr [0x5712], edi
  0x28fe	je     	0x2f27
  === BLOCK LINK ===
    0x2904
=== CODE BLOCK END ===

=== CODE BLOCK ADDRESS 0x2904 ===
  0x2904	dec    	eax
  0x2905	mov    	eax, dword ptr [0x570d]
  0x290b	dec    	eax
  0x290c	and    	eax, edi
  0x290e	dec    	eax
  === BLOCK LINK ===
    0x290f
=== CODE BLOCK END ===

=== CODE BLOCK ADDRESS 0x290f ===
  0x290f	cmp    	eax, dword ptr [0x5703]
  0x2915	jne    	0x2f27
  === BLOCK LINK ===
    0x291b
=== CODE BLOCK END ===

=== CODE BLOCK ADDRESS 0x291b ===
  0x291b	dec    	eax
  0x291c	lea    	eax, [0x2fbe]
  0x2922	dec    	eax
  0x2923	mov    	dword ptr [ebp - 0x60], eax
  0x2926	dec    	eax
  === BLOCK LINK ===
    0x2927
=== CODE BLOCK END ===

=== CODE BLOCK ADDRESS 0x2927 ===
  0x2927	lea    	edx, [0x31c0]
  0x292d	mov    	eax, dword ptr [ebp - 0x80]
  0x2930	mov    	dword ptr [ebp - 0x78], eax
  0x2933	dec    	eax
  0x2934	lea    	eax, [0x2fae]
  === BLOCK LINK ===
    0x293a
=== CODE BLOCK END ===

=== CODE BLOCK ADDRESS 0x293a ===
  0x293a	jmp    	0x2ef6
  === BLOCK LINK ===
    0x293f
=== CODE BLOCK END ===

=== CODE BLOCK ADDRESS 0x293f ===
  0x293f	inc    	esp
  0x2940	cmp    	dword ptr [ebp - 0x2c], esi
  0x2943	je     	0x2a01
  === BLOCK LINK ===
    0x2949
=== CODE BLOCK END ===

=== CODE BLOCK ADDRESS 0x2949 ===
  0x2949	mov    	eax, dword ptr [ebp - 0x58]
  0x294c	neg    	eax
  0x294e	sbb    	esi, esi
  0x2950	and    	esi, 0xfffffff4
  0x2953	add    	esi, 0x10
  === BLOCK LINK ===
    0x2956
=== CODE BLOCK END ===

=== CODE BLOCK ADDRESS 0x2956 ===
  0x2956	call   	0x41c4
  === BLOCK LINK ===
    0x295b
=== CODE BLOCK END ===

=== CODE BLOCK ADDRESS 0x295b ===
  0x295b	test   	al, al
  0x295d	jne    	0x2969
  === BLOCK LINK ===
    0x295f
=== CODE BLOCK END ===

=== CODE BLOCK ADDRESS 0x295f ===
  0x295f	mov    	ebx, 0x32
  0x2964	mov    	dword ptr [ebp - 0x80], ebx
  0x2967	jmp    	0x299b
  === BLOCK LINK ===
    0x2969
=== CODE BLOCK END ===

=== CODE BLOCK ADDRESS 0x2969 ===
  0x2969	xor    	edx, edx
  0x296b	mov    	ecx, esi
  0x296d	dec    	eax
  0x296e	call   	dword ptr [0x768c]
  === BLOCK LINK ===
    0x2974
=== CODE BLOCK END ===

=== CODE BLOCK ADDRESS 0x2974 ===
  0x2974	nop    	dword ptr [eax + eax]
  0x2979	test   	eax, eax
  0x297b	jne    	0x298d
  === BLOCK LINK ===
    0x297d
=== CODE BLOCK END ===

=== CODE BLOCK ADDRESS 0x297d ===
  0x297d	dec    	eax
  0x297e	call   	dword ptr [0x2864]
  === BLOCK LINK ===
    0x2984
=== CODE BLOCK END ===

=== CODE BLOCK ADDRESS 0x2984 ===
  0x2984	nop    	dword ptr [eax + eax]
  0x2989	mov    	ebx, eax
  0x298b	jmp    	0x2990
  === BLOCK LINK ===
    0x298d
=== CODE BLOCK END ===

=== CODE BLOCK ADDRESS 0x298d ===
  0x298d	inc    	ecx
  0x298e	mov    	ebx, esi
  0x2990	mov    	dword ptr [ebp - 0x80], ebx
  0x2993	test   	ebx, ebx
  0x2995	je     	0x2f32
  === BLOCK LINK ===
    0x299b
=== CODE BLOCK END ===

=== CODE BLOCK ADDRESS 0x299b ===
  0x299b	dec    	eax
  0x299c	lea    	edx, [0x5cae]
  0x29a2	mov    	ecx, ebx
  0x29a4	call   	0x34a4
  === BLOCK LINK ===
    0x29a9
=== CODE BLOCK END ===

=== CODE BLOCK ADDRESS 0x29a9 ===
  0x29a9	cmp    	dword ptr [0x5650], 5
  0x29b0	jbe    	0x2f27
  === BLOCK LINK ===
    0x29b6
=== CODE BLOCK END ===

=== CODE BLOCK ADDRESS 0x29b6 ===
  0x29b6	dec    	eax
  0x29b7	test   	dword ptr [0x5653], edi
  0x29bd	je     	0x2f27
  === BLOCK LINK ===
    0x29c3
=== CODE BLOCK END ===

=== CODE BLOCK ADDRESS 0x29c3 ===
  0x29c3	dec    	eax
  0x29c4	mov    	eax, dword ptr [0x564e]
  0x29ca	dec    	eax
  0x29cb	and    	eax, edi
  0x29cd	dec    	eax
  === BLOCK LINK ===
    0x29ce
=== CODE BLOCK END ===

=== CODE BLOCK ADDRESS 0x29ce ===
  0x29ce	cmp    	eax, dword ptr [0x5644]
  0x29d4	jne    	0x2f27
  === BLOCK LINK ===
    0x29da
=== CODE BLOCK END ===

=== CODE BLOCK ADDRESS 0x29da ===
  0x29da	dec    	eax
  0x29db	lea    	eax, [0x2eff]
  0x29e1	mov    	dword ptr [ebp + 0x30], esi
  0x29e4	dec    	eax
  0x29e5	mov    	dword ptr [ebp - 0x60], eax
  === BLOCK LINK ===
    0x29e8
=== CODE BLOCK END ===

=== CODE BLOCK ADDRESS 0x29e8 ===
  0x29e8	dec    	eax
  0x29e9	lea    	edx, [0x30ba]
  0x29ef	mov    	eax, dword ptr [ebp - 0x80]
  0x29f2	mov    	dword ptr [ebp - 0x78], eax
  0x29f5	dec    	eax
  === BLOCK LINK ===
    0x29f6
=== CODE BLOCK END ===

=== CODE BLOCK ADDRESS 0x29f6 ===
  0x29f6	lea    	eax, [0x2f04]
  0x29fc	jmp    	0x2efa
  === BLOCK LINK ===
    0x2a01
=== CODE BLOCK END ===

=== CODE BLOCK ADDRESS 0x2a01 ===
  0x2a01	inc    	esp
  0x2a02	cmp    	dword ptr [ebp - 0x24], esi
  0x2a05	je     	0x2b2a
  === BLOCK LINK ===
    0x2a0b
=== CODE BLOCK END ===

=== CODE BLOCK ADDRESS 0x2a0b ===
  0x2a0b	xor    	ecx, ecx
  0x2a0d	call   	0x20d8
  === BLOCK LINK ===
    0x2a12
=== CODE BLOCK END ===

=== CODE BLOCK ADDRESS 0x2a12 ===
  0x2a12	test   	eax, eax
  0x2a14	jne    	0x2a8b
  === BLOCK LINK ===
    0x2a16
=== CODE BLOCK END ===

=== CODE BLOCK ADDRESS 0x2a16 ===
  0x2a16	dec    	eax
  0x2a17	call   	dword ptr [0x27cb]
  === BLOCK LINK ===
    0x2a1d
=== CODE BLOCK END ===

=== CODE BLOCK ADDRESS 0x2a1d ===
  0x2a1d	nop    	dword ptr [eax + eax]
  0x2a22	dec    	esp
  0x2a23	mov    	eax, dword ptr [ebp - 0x50]
  0x2a26	mov    	edx, esi
  0x2a28	dec    	eax
  === BLOCK LINK ===
    0x2a29
=== CODE BLOCK END ===

=== CODE BLOCK ADDRESS 0x2a29 ===
  0x2a29	mov    	ecx, dword ptr [0x5c09]
  0x2a2f	inc    	esp
  0x2a30	mov    	ecx, eax
  0x2a32	mov    	ebx, eax
  0x2a34	call   	0x3244
  === BLOCK LINK ===
    0x2a39
=== CODE BLOCK END ===

=== CODE BLOCK ADDRESS 0x2a39 ===
  0x2a39	cmp    	dword ptr [0x55c0], 5
  0x2a40	jbe    	0x2f27
  === BLOCK LINK ===
    0x2a46
=== CODE BLOCK END ===

=== CODE BLOCK ADDRESS 0x2a46 ===
  0x2a46	dec    	eax
  0x2a47	test   	dword ptr [0x55c3], edi
  0x2a4d	je     	0x2f27
  === BLOCK LINK ===
    0x2a53
=== CODE BLOCK END ===

=== CODE BLOCK ADDRESS 0x2a53 ===
  0x2a53	dec    	eax
  0x2a54	mov    	eax, dword ptr [0x55be]
  0x2a5a	dec    	eax
  0x2a5b	and    	eax, edi
  0x2a5d	dec    	eax
  === BLOCK LINK ===
    0x2a5e
=== CODE BLOCK END ===

=== CODE BLOCK ADDRESS 0x2a5e ===
  0x2a5e	cmp    	eax, dword ptr [0x55b4]
  0x2a64	jne    	0x2f27
  === BLOCK LINK ===
    0x2a6a
=== CODE BLOCK END ===

=== CODE BLOCK ADDRESS 0x2a6a ===
  0x2a6a	dec    	eax
  0x2a6b	lea    	eax, [0x2e9f]
  0x2a71	mov    	dword ptr [ebp - 0x78], ebx
  0x2a74	dec    	eax
  0x2a75	mov    	dword ptr [ebp - 0x60], eax
  === BLOCK LINK ===
    0x2a78
=== CODE BLOCK END ===

=== CODE BLOCK ADDRESS 0x2a78 ===
  0x2a78	dec    	eax
  0x2a79	lea    	edx, [0x306e]
  0x2a7f	dec    	eax
  0x2a80	lea    	eax, [0x2ea2]
  0x2a86	jmp    	0x2ef6
  === BLOCK LINK ===
    0x2a8b
=== CODE BLOCK END ===

=== CODE BLOCK ADDRESS 0x2a8b ===
  0x2a8b	mov    	eax, dword ptr [ebp - 0x58]
  0x2a8e	inc    	ecx
  0x2a8f	mov    	edx, edi
  0x2a91	neg    	eax
  0x2a93	inc    	ebp
  === BLOCK LINK ===
    0x2a94
=== CODE BLOCK END ===

=== CODE BLOCK ADDRESS 0x2a94 ===
  0x2a94	sbb    	eax, eax
  0x2a96	inc    	ebp
  0x2a97	xor    	ecx, ecx
  0x2a99	inc    	ecx
  0x2a9a	btr    	eax, 0x1f
  === BLOCK LINK ===
    0x2a9e
=== CODE BLOCK END ===

=== CODE BLOCK ADDRESS 0x2a9e ===
  0x2a9e	inc    	esp
  0x2a9f	add    	eax, ebx
  0x2aa1	inc    	ecx
  0x2aa2	lea    	ecx, [ecx + 3]
  0x2aa5	dec    	eax
  === BLOCK LINK ===
    0x2aa6
=== CODE BLOCK END ===

=== CODE BLOCK ADDRESS 0x2aa6 ===
  0x2aa6	call   	dword ptr [0x298c]
  === BLOCK LINK ===
    0x2aac
=== CODE BLOCK END ===

=== CODE BLOCK ADDRESS 0x2aac ===
  0x2aac	nop    	dword ptr [eax + eax]
  0x2ab1	test   	eax, eax
  0x2ab3	jns    	0x2f27
  === BLOCK LINK ===
    0x2ab9
=== CODE BLOCK END ===

=== CODE BLOCK ADDRESS 0x2ab9 ===
  0x2ab9	mov    	ecx, eax
  0x2abb	dec    	eax
  0x2abc	call   	dword ptr [0x296e]
  === BLOCK LINK ===
    0x2ac2
=== CODE BLOCK END ===

=== CODE BLOCK ADDRESS 0x2ac2 ===
  0x2ac2	nop    	dword ptr [eax + eax]
  0x2ac7	dec    	eax
  0x2ac8	mov    	edx, dword ptr [ebp - 0x50]
  0x2acb	mov    	ecx, eax
  0x2acd	mov    	dword ptr [ebp - 0x80], eax
  === BLOCK LINK ===
    0x2ad0
=== CODE BLOCK END ===

=== CODE BLOCK ADDRESS 0x2ad0 ===
  0x2ad0	call   	0x34a4
  === BLOCK LINK ===
    0x2ad5
=== CODE BLOCK END ===

=== CODE BLOCK ADDRESS 0x2ad5 ===
  0x2ad5	cmp    	dword ptr [0x5524], 5
  0x2adc	jbe    	0x2f27
  === BLOCK LINK ===
    0x2ae2
=== CODE BLOCK END ===

=== CODE BLOCK ADDRESS 0x2ae2 ===
  0x2ae2	dec    	eax
  0x2ae3	test   	dword ptr [0x5527], edi
  0x2ae9	je     	0x2f27
  === BLOCK LINK ===
    0x2aef
=== CODE BLOCK END ===

=== CODE BLOCK ADDRESS 0x2aef ===
  0x2aef	dec    	eax
  0x2af0	mov    	eax, dword ptr [0x5522]
  0x2af6	dec    	eax
  0x2af7	and    	eax, edi
  0x2af9	dec    	eax
  === BLOCK LINK ===
    0x2afa
=== CODE BLOCK END ===

=== CODE BLOCK ADDRESS 0x2afa ===
  0x2afa	cmp    	eax, dword ptr [0x5518]
  0x2b00	jne    	0x2f27
  === BLOCK LINK ===
    0x2b06
=== CODE BLOCK END ===

=== CODE BLOCK ADDRESS 0x2b06 ===
  0x2b06	dec    	eax
  0x2b07	lea    	eax, [0x2dd3]
  0x2b0d	dec    	eax
  0x2b0e	mov    	dword ptr [ebp - 0x60], eax
  0x2b11	dec    	eax
  === BLOCK LINK ===
    0x2b12
=== CODE BLOCK END ===

=== CODE BLOCK ADDRESS 0x2b12 ===
  0x2b12	lea    	edx, [0x2fd5]
  0x2b18	mov    	eax, dword ptr [ebp - 0x80]
  0x2b1b	mov    	dword ptr [ebp - 0x78], eax
  0x2b1e	dec    	eax
  0x2b1f	lea    	eax, [0x2e1b]
  === BLOCK LINK ===
    0x2b25
=== CODE BLOCK END ===

=== CODE BLOCK ADDRESS 0x2b25 ===
  0x2b25	jmp    	0x2ef6
  === BLOCK LINK ===
    0x2b2a
=== CODE BLOCK END ===

=== CODE BLOCK ADDRESS 0x2b2a ===
  0x2b2a	inc    	esp
  0x2b2b	cmp    	dword ptr [ebp - 0x20], esi
  0x2b2e	je     	0x2d06
  === BLOCK LINK ===
    0x2b34
=== CODE BLOCK END ===

=== CODE BLOCK ADDRESS 0x2b34 ===
  0x2b34	call   	0x41c4
  === BLOCK LINK ===
    0x2b39
=== CODE BLOCK END ===

=== CODE BLOCK ADDRESS 0x2b39 ===
  0x2b39	test   	al, al
  0x2b3b	je     	0x2c68
  === BLOCK LINK ===
    0x2b41
=== CODE BLOCK END ===

=== CODE BLOCK ADDRESS 0x2b41 ===
  0x2b41	mov    	ecx, ebx
  0x2b43	call   	0x20d8
  === BLOCK LINK ===
    0x2b48
=== CODE BLOCK END ===

=== CODE BLOCK ADDRESS 0x2b48 ===
  0x2b48	mov    	edx, dword ptr [ebp - 0x7c]
  0x2b4b	test   	eax, eax
  0x2b4d	je     	0x2be3
  === BLOCK LINK ===
    0x2b53
=== CODE BLOCK END ===

=== CODE BLOCK ADDRESS 0x2b53 ===
  0x2b53	mov    	eax, dword ptr [ebp - 0x58]
  0x2b56	neg    	eax
  0x2b58	sbb    	ecx, ecx
  0x2b5a	and    	ecx, 4
  0x2b5d	add    	ecx, 8
  === BLOCK LINK ===
    0x2b60
=== CODE BLOCK END ===

=== CODE BLOCK ADDRESS 0x2b60 ===
  0x2b60	dec    	eax
  0x2b61	call   	dword ptr [0x7499]
  === BLOCK LINK ===
    0x2b67
=== CODE BLOCK END ===

=== CODE BLOCK ADDRESS 0x2b67 ===
  0x2b67	nop    	dword ptr [eax + eax]
  0x2b6c	test   	eax, eax
  0x2b6e	jne    	0x2f27
  === BLOCK LINK ===
    0x2b74
=== CODE BLOCK END ===

=== CODE BLOCK ADDRESS 0x2b74 ===
  0x2b74	dec    	eax
  0x2b75	call   	dword ptr [0x266d]
  === BLOCK LINK ===
    0x2b7b
=== CODE BLOCK END ===

=== CODE BLOCK ADDRESS 0x2b7b ===
  0x2b7b	nop    	dword ptr [eax + eax]
  0x2b80	dec    	eax
  0x2b81	mov    	edx, dword ptr [ebp - 0x50]
  0x2b84	mov    	ecx, eax
  0x2b86	mov    	dword ptr [ebp - 0x80], eax
  === BLOCK LINK ===
    0x2b89
=== CODE BLOCK END ===

=== CODE BLOCK ADDRESS 0x2b89 ===
  0x2b89	call   	0x34a4
  === BLOCK LINK ===
    0x2b8e
=== CODE BLOCK END ===

=== CODE BLOCK ADDRESS 0x2b8e ===
  0x2b8e	cmp    	dword ptr [0x546b], 5
  0x2b95	jbe    	0x2f27
  === BLOCK LINK ===
    0x2b9b
=== CODE BLOCK END ===

=== CODE BLOCK ADDRESS 0x2b9b ===
  0x2b9b	dec    	eax
  0x2b9c	test   	dword ptr [0x546e], edi
  0x2ba2	je     	0x2f27
  === BLOCK LINK ===
    0x2ba8
=== CODE BLOCK END ===

=== CODE BLOCK ADDRESS 0x2ba8 ===
  0x2ba8	dec    	eax
  0x2ba9	mov    	eax, dword ptr [0x5469]
  0x2baf	dec    	eax
  0x2bb0	and    	eax, edi
  0x2bb2	dec    	eax
  === BLOCK LINK ===
    0x2bb3
=== CODE BLOCK END ===

=== CODE BLOCK ADDRESS 0x2bb3 ===
  0x2bb3	cmp    	eax, dword ptr [0x545f]
  0x2bb9	jne    	0x2f27
  === BLOCK LINK ===
    0x2bbf
=== CODE BLOCK END ===

=== CODE BLOCK ADDRESS 0x2bbf ===
  0x2bbf	dec    	eax
  0x2bc0	lea    	eax, [0x2d1a]
  0x2bc6	dec    	eax
  0x2bc7	mov    	dword ptr [ebp - 0x60], eax
  0x2bca	dec    	eax
  === BLOCK LINK ===
    0x2bcb
=== CODE BLOCK END ===

=== CODE BLOCK ADDRESS 0x2bcb ===
  0x2bcb	lea    	edx, [0x2f1c]
  0x2bd1	mov    	eax, dword ptr [ebp - 0x80]
  0x2bd4	mov    	dword ptr [ebp - 0x78], eax
  0x2bd7	dec    	eax
  0x2bd8	lea    	eax, [0x2d22]
  === BLOCK LINK ===
    0x2bde
=== CODE BLOCK END ===

=== CODE BLOCK ADDRESS 0x2bde ===
  0x2bde	jmp    	0x2ef6
  === BLOCK LINK ===
    0x2be3
=== CODE BLOCK END ===

=== CODE BLOCK ADDRESS 0x2be3 ===
  0x2be3	mov    	ecx, ebx
  0x2be5	dec    	eax
  0x2be6	call   	dword ptr [0x7414]
  === BLOCK LINK ===
    0x2bec
=== CODE BLOCK END ===

=== CODE BLOCK ADDRESS 0x2bec ===
  0x2bec	nop    	dword ptr [eax + eax]
  0x2bf1	test   	eax, eax
  0x2bf3	jne    	0x2f27
  === BLOCK LINK ===
    0x2bf9
=== CODE BLOCK END ===

=== CODE BLOCK ADDRESS 0x2bf9 ===
  0x2bf9	dec    	eax
  0x2bfa	call   	dword ptr [0x25e8]
  === BLOCK LINK ===
    0x2c00
=== CODE BLOCK END ===

=== CODE BLOCK ADDRESS 0x2c00 ===
  0x2c00	nop    	dword ptr [eax + eax]
  0x2c05	dec    	eax
  0x2c06	mov    	edx, dword ptr [ebp - 0x50]
  0x2c09	mov    	ecx, eax
  0x2c0b	mov    	dword ptr [ebp - 0x80], eax
  === BLOCK LINK ===
    0x2c0e
=== CODE BLOCK END ===

=== CODE BLOCK ADDRESS 0x2c0e ===
  0x2c0e	call   	0x34a4
  === BLOCK LINK ===
    0x2c13
=== CODE BLOCK END ===

=== CODE BLOCK ADDRESS 0x2c13 ===
  0x2c13	cmp    	dword ptr [0x53e6], 5
  0x2c1a	jbe    	0x2f27
  === BLOCK LINK ===
    0x2c20
=== CODE BLOCK END ===

=== CODE BLOCK ADDRESS 0x2c20 ===
  0x2c20	dec    	eax
  0x2c21	test   	dword ptr [0x53e9], edi
  0x2c27	je     	0x2f27
  === BLOCK LINK ===
    0x2c2d
=== CODE BLOCK END ===

=== CODE BLOCK ADDRESS 0x2c2d ===
  0x2c2d	dec    	eax
  0x2c2e	mov    	eax, dword ptr [0x53e4]
  0x2c34	dec    	eax
  0x2c35	and    	eax, edi
  0x2c37	dec    	eax
  === BLOCK LINK ===
    0x2c38
=== CODE BLOCK END ===

=== CODE BLOCK ADDRESS 0x2c38 ===
  0x2c38	cmp    	eax, dword ptr [0x53da]
  0x2c3e	jne    	0x2f27
  === BLOCK LINK ===
    0x2c44
=== CODE BLOCK END ===

=== CODE BLOCK ADDRESS 0x2c44 ===
  0x2c44	dec    	eax
  0x2c45	lea    	eax, [0x2c95]
  0x2c4b	dec    	eax
  0x2c4c	mov    	dword ptr [ebp - 0x60], eax
  0x2c4f	dec    	eax
  === BLOCK LINK ===
    0x2c50
=== CODE BLOCK END ===

=== CODE BLOCK ADDRESS 0x2c50 ===
  0x2c50	lea    	edx, [0x2e97]
  0x2c56	mov    	eax, dword ptr [ebp - 0x80]
  0x2c59	mov    	dword ptr [ebp - 0x78], eax
  0x2c5c	dec    	eax
  0x2c5d	lea    	eax, [0x2c9d]
  === BLOCK LINK ===
    0x2c63
=== CODE BLOCK END ===

=== CODE BLOCK ADDRESS 0x2c63 ===
  0x2c63	jmp    	0x2ef6
  === BLOCK LINK ===
    0x2c68
=== CODE BLOCK END ===

=== CODE BLOCK ADDRESS 0x2c68 ===
  0x2c68	mov    	eax, dword ptr [ebp - 0x58]
  0x2c6b	inc    	esp
  0x2c6c	mov    	eax, dword ptr [ebp - 0x40]
  0x2c6f	neg    	eax
  0x2c71	mov    	eax, dword ptr [ebp - 0x7c]
  === BLOCK LINK ===
    0x2c74
=== CODE BLOCK END ===

=== CODE BLOCK ADDRESS 0x2c74 ===
  0x2c74	dec    	eax
  0x2c75	mov    	edx, dword ptr [ebp - 0x38]
  0x2c78	sbb    	esi, esi
  0x2c7a	dec    	eax
  0x2c7b	mov    	ecx, dword ptr [ebp - 0x50]
  === BLOCK LINK ===
    0x2c7e
=== CODE BLOCK END ===

=== CODE BLOCK ADDRESS 0x2c7e ===
  0x2c7e	neg    	esi
  0x2c80	add    	esi, 8
  0x2c83	mov    	dword ptr [esp + 0x20], eax
  0x2c87	inc    	esp
  0x2c88	mov    	ecx, esi
  === BLOCK LINK ===
    0x2c8a
=== CODE BLOCK END ===

=== CODE BLOCK ADDRESS 0x2c8a ===
  0x2c8a	dec    	eax
  0x2c8b	call   	dword ptr [0x2697]
  === BLOCK LINK ===
    0x2c91
=== CODE BLOCK END ===

=== CODE BLOCK ADDRESS 0x2c91 ===
  0x2c91	nop    	dword ptr [eax + eax]
  0x2c96	mov    	dword ptr [ebp - 0x80], eax
  0x2c99	mov    	ebx, eax
  0x2c9b	test   	eax, eax
  0x2c9d	je     	0x2f32
  === BLOCK LINK ===
    0x2ca3
=== CODE BLOCK END ===

=== CODE BLOCK ADDRESS 0x2ca3 ===
  0x2ca3	dec    	eax
  0x2ca4	mov    	edx, dword ptr [ebp - 0x50]
  0x2ca7	mov    	ecx, eax
  0x2ca9	call   	0x34a4
  === BLOCK LINK ===
    0x2cae
=== CODE BLOCK END ===

=== CODE BLOCK ADDRESS 0x2cae ===
  0x2cae	cmp    	dword ptr [0x534b], 5
  0x2cb5	jbe    	0x2f27
  === BLOCK LINK ===
    0x2cbb
=== CODE BLOCK END ===

=== CODE BLOCK ADDRESS 0x2cbb ===
  0x2cbb	dec    	eax
  0x2cbc	test   	dword ptr [0x534e], edi
  0x2cc2	je     	0x2f27
  === BLOCK LINK ===
    0x2cc8
=== CODE BLOCK END ===

=== CODE BLOCK ADDRESS 0x2cc8 ===
  0x2cc8	dec    	eax
  0x2cc9	mov    	eax, dword ptr [0x5349]
  0x2ccf	dec    	eax
  0x2cd0	and    	eax, edi
  0x2cd2	dec    	eax
  === BLOCK LINK ===
    0x2cd3
=== CODE BLOCK END ===

=== CODE BLOCK ADDRESS 0x2cd3 ===
  0x2cd3	cmp    	eax, dword ptr [0x533f]
  0x2cd9	jne    	0x2f27
  === BLOCK LINK ===
    0x2cdf
=== CODE BLOCK END ===

=== CODE BLOCK ADDRESS 0x2cdf ===
  0x2cdf	dec    	eax
  0x2ce0	lea    	eax, [0x2bfa]
  0x2ce6	mov    	dword ptr [ebp + 0x30], esi
  0x2ce9	dec    	eax
  0x2cea	mov    	dword ptr [ebp - 0x60], eax
  === BLOCK LINK ===
    0x2ced
=== CODE BLOCK END ===

=== CODE BLOCK ADDRESS 0x2ced ===
  0x2ced	dec    	eax
  0x2cee	lea    	edx, [0x2db5]
  0x2cf4	mov    	eax, dword ptr [ebp - 0x80]
  0x2cf7	mov    	dword ptr [ebp - 0x78], eax
  0x2cfa	dec    	eax
  === BLOCK LINK ===
    0x2cfb
=== CODE BLOCK END ===

=== CODE BLOCK ADDRESS 0x2cfb ===
  0x2cfb	lea    	eax, [0x2c57]
  0x2d01	jmp    	0x2efa
  === BLOCK LINK ===
    0x2d06
=== CODE BLOCK END ===

=== CODE BLOCK ADDRESS 0x2d06 ===
  0x2d06	inc    	esp
  0x2d07	cmp    	dword ptr [ebp - 0x48], esi
  0x2d0a	je     	0x2d4a
  === BLOCK LINK ===
    0x2d0c
=== CODE BLOCK END ===

=== CODE BLOCK ADDRESS 0x2d0c ===
  0x2d0c	call   	0x422c
  === BLOCK LINK ===
    0x2d11
=== CODE BLOCK END ===

=== CODE BLOCK ADDRESS 0x2d11 ===
  0x2d11	test   	al, al
  0x2d13	je     	0x3062
  === BLOCK LINK ===
    0x2d19
=== CODE BLOCK END ===

=== CODE BLOCK ADDRESS 0x2d19 ===
  0x2d19	dec    	eax
  0x2d1a	mov    	ecx, dword ptr [ebp - 0x50]
  0x2d1d	dec    	eax
  0x2d1e	lea    	eax, [ebp - 0x80]
  0x2d21	dec    	eax
  === BLOCK LINK ===
    0x2d22
=== CODE BLOCK END ===

=== CODE BLOCK ADDRESS 0x2d22 ===
  0x2d22	mov    	dword ptr [esp + 0x28], eax
  0x2d26	dec    	eax
  0x2d27	lea    	edx, [ebp - 0x7c]
  0x2d2a	dec    	eax
  0x2d2b	mov    	eax, dword ptr [ebp - 0x38]
  === BLOCK LINK ===
    0x2d2e
=== CODE BLOCK END ===

=== CODE BLOCK ADDRESS 0x2d2e ===
  0x2d2e	inc    	ebp
  0x2d2f	xor    	ecx, ecx
  0x2d31	inc    	ebp
  0x2d32	xor    	eax, eax
  0x2d34	dec    	eax
  === BLOCK LINK ===
    0x2d35
=== CODE BLOCK END ===

=== CODE BLOCK ADDRESS 0x2d35 ===
  0x2d35	mov    	dword ptr [esp + 0x20], eax
  0x2d39	dec    	eax
  0x2d3a	call   	dword ptr [0x72d0]
  === BLOCK LINK ===
    0x2d40
=== CODE BLOCK END ===

=== CODE BLOCK ADDRESS 0x2d40 ===
  0x2d40	nop    	dword ptr [eax + eax]
  0x2d45	jmp    	0x2f27
  === BLOCK LINK ===
    0x2d4a
=== CODE BLOCK END ===

=== CODE BLOCK ADDRESS 0x2d4a ===
  0x2d4a	inc    	esp
  0x2d4b	mov    	eax, dword ptr [ebp - 0xc]
  0x2d4e	inc    	esp
  0x2d4f	mov    	ebx, dword ptr [ebp + 0x1c]
  0x2d52	inc    	esp
  === BLOCK LINK ===
    0x2d53
=== CODE BLOCK END ===

=== CODE BLOCK ADDRESS 0x2d53 ===
  0x2d53	mov    	edx, dword ptr [ebp - 0x1c]
  0x2d56	mov    	ecx, dword ptr [ebp + 0x20]
  0x2d59	mov    	eax, dword ptr [ebp - 8]
  0x2d5c	inc    	ebp
  0x2d5d	test   	eax, eax
  === BLOCK LINK ===
    0x2d5f
=== CODE BLOCK END ===

=== CODE BLOCK ADDRESS 0x2d5f ===
  0x2d5f	jne    	0x2e33
  === BLOCK LINK ===
    0x2d65
=== CODE BLOCK END ===

=== CODE BLOCK ADDRESS 0x2d65 ===
  0x2d65	test   	eax, eax
  0x2d67	jne    	0x2e2e
  === BLOCK LINK ===
    0x2d6d
=== CODE BLOCK END ===

=== CODE BLOCK ADDRESS 0x2d6d ===
  0x2d6d	inc    	ebp
  0x2d6e	test   	edx, edx
  0x2d70	jne    	0x2e2e
  === BLOCK LINK ===
    0x2d76
=== CODE BLOCK END ===

=== CODE BLOCK ADDRESS 0x2d76 ===
  0x2d76	test   	ecx, ecx
  0x2d78	jne    	0x2e2e
  === BLOCK LINK ===
    0x2d7e
=== CODE BLOCK END ===

=== CODE BLOCK ADDRESS 0x2d7e ===
  0x2d7e	inc    	ebp
  0x2d7f	test   	ebx, ebx
  0x2d81	jne    	0x2e2e
  === BLOCK LINK ===
    0x2d87
=== CODE BLOCK END ===

=== CODE BLOCK ADDRESS 0x2d87 ===
  0x2d87	mov    	eax, dword ptr [ebp - 0x7c]
  0x2d8a	inc    	esp
  0x2d8b	mov    	ecx, dword ptr [ebp - 0x58]
  0x2d8e	inc    	esp
  0x2d8f	mov    	eax, dword ptr [ebp - 0x40]
  === BLOCK LINK ===
    0x2d92
=== CODE BLOCK END ===

=== CODE BLOCK ADDRESS 0x2d92 ===
  0x2d92	dec    	eax
  0x2d93	mov    	ecx, dword ptr [ebp - 0x50]
  0x2d96	mov    	dword ptr [esp + 0x28], eax
  0x2d9a	mov    	eax, dword ptr [ebp - 0x10]
  0x2d9d	mov    	dword ptr [esp + 0x20], eax
  === BLOCK LINK ===
    0x2da1
=== CODE BLOCK END ===

=== CODE BLOCK ADDRESS 0x2da1 ===
  0x2da1	dec    	eax
  0x2da2	call   	dword ptr [0x2570]
  === BLOCK LINK ===
    0x2da8
=== CODE BLOCK END ===

=== CODE BLOCK ADDRESS 0x2da8 ===
  0x2da8	nop    	dword ptr [eax + eax]
  0x2dad	test   	eax, eax
  0x2daf	jne    	0x2f27
  === BLOCK LINK ===
    0x2db5
=== CODE BLOCK END ===

=== CODE BLOCK ADDRESS 0x2db5 ===
  0x2db5	dec    	eax
  0x2db6	call   	dword ptr [0x242c]
  === BLOCK LINK ===
    0x2dbc
=== CODE BLOCK END ===

=== CODE BLOCK ADDRESS 0x2dbc ===
  0x2dbc	nop    	dword ptr [eax + eax]
  0x2dc1	mov    	dword ptr [ebp - 0x80], eax
  0x2dc4	mov    	ebx, eax
  0x2dc6	test   	eax, eax
  0x2dc8	je     	0x2f32
  === BLOCK LINK ===
    0x2dce
=== CODE BLOCK END ===

=== CODE BLOCK ADDRESS 0x2dce ===
  0x2dce	dec    	eax
  0x2dcf	mov    	edx, dword ptr [ebp - 0x50]
  0x2dd2	mov    	ecx, eax
  0x2dd4	call   	0x34a4
  === BLOCK LINK ===
    0x2dd9
=== CODE BLOCK END ===

=== CODE BLOCK ADDRESS 0x2dd9 ===
  0x2dd9	cmp    	dword ptr [0x5220], 5
  0x2de0	jbe    	0x2f27
  === BLOCK LINK ===
    0x2de6
=== CODE BLOCK END ===

=== CODE BLOCK ADDRESS 0x2de6 ===
  0x2de6	dec    	eax
  0x2de7	test   	dword ptr [0x5223], edi
  0x2ded	je     	0x2f27
  === BLOCK LINK ===
    0x2df3
=== CODE BLOCK END ===

=== CODE BLOCK ADDRESS 0x2df3 ===
  0x2df3	dec    	eax
  0x2df4	mov    	eax, dword ptr [0x521e]
  0x2dfa	dec    	eax
  0x2dfb	and    	eax, edi
  0x2dfd	dec    	eax
  === BLOCK LINK ===
    0x2dfe
=== CODE BLOCK END ===

=== CODE BLOCK ADDRESS 0x2dfe ===
  0x2dfe	cmp    	eax, dword ptr [0x5214]
  0x2e04	jne    	0x2f27
  === BLOCK LINK ===
    0x2e0a
=== CODE BLOCK END ===

=== CODE BLOCK ADDRESS 0x2e0a ===
  0x2e0a	dec    	eax
  0x2e0b	lea    	eax, [0x2acf]
  0x2e11	dec    	eax
  0x2e12	mov    	dword ptr [ebp - 0x60], eax
  0x2e15	dec    	eax
  === BLOCK LINK ===
    0x2e16
=== CODE BLOCK END ===

=== CODE BLOCK ADDRESS 0x2e16 ===
  0x2e16	lea    	edx, [0x2cd1]
  0x2e1c	mov    	eax, dword ptr [ebp - 0x80]
  0x2e1f	mov    	dword ptr [ebp - 0x78], eax
  0x2e22	dec    	eax
  0x2e23	lea    	eax, [0x2b47]
  === BLOCK LINK ===
    0x2e29
=== CODE BLOCK END ===

=== CODE BLOCK ADDRESS 0x2e29 ===
  0x2e29	jmp    	0x2ef6
  === BLOCK LINK ===
    0x2e2e
=== CODE BLOCK END ===

=== CODE BLOCK ADDRESS 0x2e2e ===
  0x2e2e	inc    	ebp
  0x2e2f	test   	eax, eax
  0x2e31	je     	0x2e3b
  === BLOCK LINK ===
    0x2e33
=== CODE BLOCK END ===

=== CODE BLOCK ADDRESS 0x2e33 ===
  0x2e33	inc    	ecx
  0x2e34	mov    	ecx, 0x2084
  0x2e39	jmp    	0x2e62
  === BLOCK LINK ===
    0x2e3b
=== CODE BLOCK END ===

=== CODE BLOCK ADDRESS 0x2e3b ===
  0x2e3b	test   	eax, eax
  0x2e3d	je     	0x2e47
  === BLOCK LINK ===
    0x2e3f
=== CODE BLOCK END ===

=== CODE BLOCK ADDRESS 0x2e3f ===
  0x2e3f	inc    	ecx
  0x2e40	mov    	ecx, 0x2088
  0x2e45	jmp    	0x2e62
  === BLOCK LINK ===
    0x2e47
=== CODE BLOCK END ===

=== CODE BLOCK ADDRESS 0x2e47 ===
  0x2e47	test   	ecx, ecx
  0x2e49	je     	0x2e53
  === BLOCK LINK ===
    0x2e4b
=== CODE BLOCK END ===

=== CODE BLOCK ADDRESS 0x2e4b ===
  0x2e4b	inc    	ecx
  0x2e4c	mov    	ecx, 0x404
  0x2e51	jmp    	0x2e62
  === BLOCK LINK ===
    0x2e53
=== CODE BLOCK END ===

=== CODE BLOCK ADDRESS 0x2e53 ===
  0x2e53	inc    	ebp
  0x2e54	test   	edx, edx
  0x2e56	inc    	ebp
  0x2e57	mov    	ecx, esi
  0x2e59	mov    	eax, 0x209
  === BLOCK LINK ===
    0x2e5e
=== CODE BLOCK END ===

=== CODE BLOCK ADDRESS 0x2e5e ===
  0x2e5e	inc    	esp
  0x2e5f	cmovne  	ecx, eax
  0x2e62	inc    	ebp
  0x2e63	test   	ebx, ebx
  0x2e65	je     	0x2e6e
  === BLOCK LINK ===
    0x2e67
=== CODE BLOCK END ===

=== CODE BLOCK ADDRESS 0x2e67 ===
  0x2e67	inc    	ecx
  0x2e68	or     	ecx, 0x804
  0x2e6e	dec    	eax
  0x2e6f	mov    	ecx, dword ptr [ebp - 0x50]
  0x2e72	inc    	esp
  === BLOCK LINK ===
    0x2e73
=== CODE BLOCK END ===

=== CODE BLOCK ADDRESS 0x2e73 ===
  0x2e73	cmp    	dword ptr [ebp - 0x58], esi
  0x2e76	je     	0x2e83
  === BLOCK LINK ===
    0x2e78
=== CODE BLOCK END ===

=== CODE BLOCK ADDRESS 0x2e78 ===
  0x2e78	inc    	esp
  0x2e79	or     	ecx, ebx
  0x2e7b	dec    	eax
  0x2e7c	test   	ecx, ecx
  0x2e7e	jne    	0x2e83
  === BLOCK LINK ===
    0x2e80
=== CODE BLOCK END ===

=== CODE BLOCK ADDRESS 0x2e80 ===
  0x2e80	inc    	ebp
  0x2e81	or     	ecx, edi
  0x2e83	mov    	eax, dword ptr [ebp - 0x7c]
  0x2e86	inc    	esp
  0x2e87	mov    	eax, dword ptr [ebp - 0x40]
  === BLOCK LINK ===
    0x2e8a
=== CODE BLOCK END ===

=== CODE BLOCK ADDRESS 0x2e8a ===
  0x2e8a	mov    	dword ptr [esp + 0x20], eax
  0x2e8e	dec    	eax
  0x2e8f	call   	dword ptr [0x2493]
  === BLOCK LINK ===
    0x2e95
=== CODE BLOCK END ===

=== CODE BLOCK ADDRESS 0x2e95 ===
  0x2e95	nop    	dword ptr [eax + eax]
  0x2e9a	mov    	dword ptr [ebp - 0x80], eax
  0x2e9d	mov    	ebx, eax
  0x2e9f	test   	eax, eax
  0x2ea1	je     	0x2f32
  === BLOCK LINK ===
    0x2ea7
=== CODE BLOCK END ===

=== CODE BLOCK ADDRESS 0x2ea7 ===
  0x2ea7	dec    	eax
  0x2ea8	mov    	edx, dword ptr [ebp - 0x50]
  0x2eab	mov    	ecx, eax
  0x2ead	call   	0x34a4
  === BLOCK LINK ===
    0x2eb2
=== CODE BLOCK END ===

=== CODE BLOCK ADDRESS 0x2eb2 ===
  0x2eb2	cmp    	dword ptr [0x5147], 5
  0x2eb9	jbe    	0x2f27
  === BLOCK LINK ===
    0x2ebb
=== CODE BLOCK END ===

=== CODE BLOCK ADDRESS 0x2ebb ===
  0x2ebb	dec    	eax
  0x2ebc	test   	dword ptr [0x514e], edi
  0x2ec2	je     	0x2f27
  === BLOCK LINK ===
    0x2ec4
=== CODE BLOCK END ===

=== CODE BLOCK ADDRESS 0x2ec4 ===
  0x2ec4	dec    	eax
  0x2ec5	mov    	eax, dword ptr [0x514d]
  0x2ecb	dec    	eax
  0x2ecc	and    	eax, edi
  0x2ece	dec    	eax
  === BLOCK LINK ===
    0x2ecf
=== CODE BLOCK END ===

=== CODE BLOCK ADDRESS 0x2ecf ===
  0x2ecf	cmp    	eax, dword ptr [0x5143]
  0x2ed5	jne    	0x2f27
  === BLOCK LINK ===
    0x2ed7
=== CODE BLOCK END ===

=== CODE BLOCK ADDRESS 0x2ed7 ===
  0x2ed7	dec    	eax
  0x2ed8	lea    	eax, [0x2a02]
  0x2ede	dec    	eax
  0x2edf	mov    	dword ptr [ebp - 0x60], eax
  0x2ee2	dec    	eax
  === BLOCK LINK ===
    0x2ee3
=== CODE BLOCK END ===

=== CODE BLOCK ADDRESS 0x2ee3 ===
  0x2ee3	lea    	edx, [0x2c04]
  0x2ee9	mov    	eax, dword ptr [ebp - 0x80]
  0x2eec	mov    	dword ptr [ebp - 0x78], eax
  0x2eef	dec    	eax
  0x2ef0	lea    	eax, [0x2a62]
  === BLOCK LINK ===
    0x2ef6
=== CODE BLOCK END ===

=== CODE BLOCK ADDRESS 0x2ef6 ===
  0x2ef6	inc    	esp
  0x2ef7	mov    	dword ptr [ebp + 0x30], esi
  0x2efa	dec    	eax
  0x2efb	mov    	dword ptr [ebp - 0x68], eax
  0x2efe	dec    	eax
  === BLOCK LINK ===
    0x2eff
=== CODE BLOCK END ===

=== CODE BLOCK ADDRESS 0x2eff ===
  0x2eff	lea    	eax, [ebp - 0x60]
  0x2f02	dec    	eax
  0x2f03	mov    	dword ptr [esp + 0x38], eax
  0x2f07	dec    	eax
  0x2f08	lea    	eax, [ebp + 0x30]
  === BLOCK LINK ===
    0x2f0b
=== CODE BLOCK END ===

=== CODE BLOCK ADDRESS 0x2f0b ===
  0x2f0b	dec    	eax
  0x2f0c	mov    	dword ptr [esp + 0x30], eax
  0x2f10	dec    	eax
  0x2f11	lea    	eax, [ebp - 0x78]
  0x2f14	dec    	eax
  === BLOCK LINK ===
    0x2f15
=== CODE BLOCK END ===

=== CODE BLOCK ADDRESS 0x2f15 ===
  0x2f15	mov    	dword ptr [esp + 0x28], eax
  0x2f19	dec    	eax
  0x2f1a	lea    	eax, [ebp - 0x68]
  0x2f1d	dec    	eax
  0x2f1e	mov    	dword ptr [esp + 0x20], eax
  === BLOCK LINK ===
    0x2f22
=== CODE BLOCK END ===

=== CODE BLOCK ADDRESS 0x2f22 ===
  0x2f22	call   	0x133c
  === BLOCK LINK ===
    0x2f27
=== CODE BLOCK END ===

=== CODE BLOCK ADDRESS 0x2f27 ===
  0x2f27	mov    	ebx, dword ptr [ebp - 0x80]
  0x2f2a	test   	ebx, ebx
  0x2f2c	jne    	0x31f7
  === BLOCK LINK ===
    0x2f32
=== CODE BLOCK END ===

=== CODE BLOCK ADDRESS 0x2f32 ===
  0x2f32	inc    	esp
  0x2f33	cmp    	dword ptr [ebp + 0x24], esi
  0x2f36	je     	0x31f7
  === BLOCK LINK ===
    0x2f3c
=== CODE BLOCK END ===

=== CODE BLOCK ADDRESS 0x2f3c ===
  0x2f3c	mov    	edx, 0xfffffff5
  0x2f41	dec    	eax
  0x2f42	lea    	ecx, [0x2a48]
  0x2f48	call   	0x3740
  === BLOCK LINK ===
    0x2f4d
=== CODE BLOCK END ===

=== CODE BLOCK ADDRESS 0x2f4d ===
  0x2f4d	or     	ecx, 0xffffffff
  0x2f50	dec    	eax
  0x2f51	call   	dword ptr [0x2409]
  === BLOCK LINK ===
    0x2f57
=== CODE BLOCK END ===

=== CODE BLOCK ADDRESS 0x2f57 ===
  0x2f57	nop    	dword ptr [eax + eax]
  0x2f5c	jmp    	0x28a2
  === BLOCK LINK ===
    0x2f61
=== CODE BLOCK END ===

=== CODE BLOCK ADDRESS 0x2f61 ===
  0x2f61	dec    	eax
  0x2f62	lea    	eax, [ebp - 0x18]
  0x2f65	inc    	ecx
  0x2f66	mov    	ecx, 0x20119
  0x2f6b	inc    	ebp
  === BLOCK LINK ===
    0x2f6c
=== CODE BLOCK END ===

=== CODE BLOCK ADDRESS 0x2f6c ===
  0x2f6c	xor    	eax, eax
  0x2f6e	dec    	eax
  0x2f6f	mov    	dword ptr [esp + 0x20], eax
  0x2f73	dec    	eax
  0x2f74	lea    	edx, [0x2866]
  === BLOCK LINK ===
    0x2f7a
=== CODE BLOCK END ===

=== CODE BLOCK ADDRESS 0x2f7a ===
  0x2f7a	dec    	eax
  0x2f7b	mov    	ecx, 0x80000002
  0x2f81	dec    	eax
  0x2f82	call   	dword ptr [0x2358]
  === BLOCK LINK ===
    0x2f88
=== CODE BLOCK END ===

=== CODE BLOCK ADDRESS 0x2f88 ===
  0x2f88	nop    	dword ptr [eax + eax]
  0x2f8d	mov    	dword ptr [ebp - 0x80], eax
  0x2f90	mov    	ebx, eax
  0x2f92	test   	eax, eax
  0x2f94	jne    	0x3137
  === BLOCK LINK ===
    0x2f9a
=== CODE BLOCK END ===

=== CODE BLOCK ADDRESS 0x2f9a ===
  0x2f9a	dec    	eax
  0x2f9b	mov    	ecx, dword ptr [ebp - 0x18]
  0x2f9e	dec    	eax
  0x2f9f	lea    	eax, [ebp + 0x30]
  0x2fa2	dec    	eax
  === BLOCK LINK ===
    0x2fa3
=== CODE BLOCK END ===

=== CODE BLOCK ADDRESS 0x2fa3 ===
  0x2fa3	mov    	dword ptr [esp + 0x28], eax
  0x2fa7	dec    	esp
  0x2fa8	lea    	ecx, [ebp - 0x68]
  0x2fab	dec    	eax
  0x2fac	lea    	eax, [ebp - 0x60]
  === BLOCK LINK ===
    0x2faf
=== CODE BLOCK END ===

=== CODE BLOCK ADDRESS 0x2faf ===
  0x2faf	mov    	dword ptr [ebp + 0x30], 4
  0x2fb6	inc    	ebp
  0x2fb7	xor    	eax, eax
  0x2fb9	dec    	eax
  0x2fba	mov    	dword ptr [esp + 0x20], eax
  === BLOCK LINK ===
    0x2fbe
=== CODE BLOCK END ===

=== CODE BLOCK ADDRESS 0x2fbe ===
  0x2fbe	dec    	eax
  0x2fbf	lea    	edx, [0x288b]
  0x2fc5	dec    	eax
  0x2fc6	call   	dword ptr [0x2304]
  === BLOCK LINK ===
    0x2fcc
=== CODE BLOCK END ===

=== CODE BLOCK ADDRESS 0x2fcc ===
  0x2fcc	nop    	dword ptr [eax + eax]
  0x2fd1	dec    	eax
  0x2fd2	mov    	ecx, dword ptr [ebp - 0x18]
  0x2fd5	mov    	dword ptr [ebp - 0x80], eax
  0x2fd8	test   	eax, eax
  === BLOCK LINK ===
    0x2fda
=== CODE BLOCK END ===

=== CODE BLOCK ADDRESS 0x2fda ===
  0x2fda	je     	0x304d
  === BLOCK LINK ===
    0x2fdc
=== CODE BLOCK END ===

=== CODE BLOCK ADDRESS 0x2fdc ===
  0x2fdc	dec    	eax
  0x2fdd	call   	dword ptr [0x22f5]
  === BLOCK LINK ===
    0x2fe3
=== CODE BLOCK END ===

=== CODE BLOCK ADDRESS 0x2fe3 ===
  0x2fe3	nop    	dword ptr [eax + eax]
  0x2fe8	cmp    	dword ptr [0x5011], 5
  0x2fef	jbe    	0x28a2
  === BLOCK LINK ===
    0x2ff5
=== CODE BLOCK END ===

=== CODE BLOCK ADDRESS 0x2ff5 ===
  0x2ff5	dec    	eax
  0x2ff6	mov    	edi, 0
  0x2ffb	add    	byte ptr [eax], ah
  0x2ffd	add    	byte ptr [eax], al
  0x2fff	dec    	eax
  === BLOCK LINK ===
    0x3000
=== CODE BLOCK END ===

=== CODE BLOCK ADDRESS 0x3000 ===
  0x3000	test   	dword ptr [0x500a], edi
  0x3006	je     	0x28a2
  === BLOCK LINK ===
    0x300c
=== CODE BLOCK END ===

=== CODE BLOCK ADDRESS 0x300c ===
  0x300c	dec    	eax
  0x300d	mov    	eax, dword ptr [0x5005]
  0x3013	dec    	eax
  0x3014	and    	eax, edi
  0x3016	dec    	eax
  === BLOCK LINK ===
    0x3017
=== CODE BLOCK END ===

=== CODE BLOCK ADDRESS 0x3017 ===
  0x3017	cmp    	eax, dword ptr [0x4ffb]
  0x301d	jne    	0x28a2
  === BLOCK LINK ===
    0x3023
=== CODE BLOCK END ===

=== CODE BLOCK ADDRESS 0x3023 ===
  0x3023	mov    	eax, dword ptr [ebp - 0x80]
  0x3026	dec    	eax
  0x3027	lea    	edx, [0x2b22]
  0x302d	mov    	dword ptr [ebp - 0x78], eax
  0x3030	dec    	eax
  === BLOCK LINK ===
    0x3031
=== CODE BLOCK END ===

=== CODE BLOCK ADDRESS 0x3031 ===
  0x3031	lea    	eax, [0x2839]
  0x3037	dec    	eax
  0x3038	mov    	dword ptr [ebp + 0x10], eax
  0x303b	dec    	eax
  0x303c	lea    	eax, [ebp - 0x78]
  === BLOCK LINK ===
    0x303f
=== CODE BLOCK END ===

=== CODE BLOCK ADDRESS 0x303f ===
  0x303f	dec    	eax
  0x3040	mov    	dword ptr [esp + 0x28], eax
  0x3044	dec    	eax
  0x3045	lea    	eax, [ebp + 0x10]
  0x3048	jmp    	0x3194
  === BLOCK LINK ===
    0x304d
=== CODE BLOCK END ===

=== CODE BLOCK ADDRESS 0x304d ===
  0x304d	dec    	eax
  0x304e	call   	dword ptr [0x2284]
  === BLOCK LINK ===
    0x3054
=== CODE BLOCK END ===

=== CODE BLOCK ADDRESS 0x3054 ===
  0x3054	nop    	dword ptr [eax + eax]
  0x3059	call   	0x422c
  === BLOCK LINK ===
    0x305e
=== CODE BLOCK END ===

=== CODE BLOCK ADDRESS 0x305e ===
  0x305e	test   	al, al
  0x3060	jne    	0x308a
  === BLOCK LINK ===
    0x3062
=== CODE BLOCK END ===

=== CODE BLOCK ADDRESS 0x3062 ===
  0x3062	dec    	eax
  0x3063	mov    	ecx, dword ptr [0x55cf]
  0x3069	mov    	edx, 9
  0x306e	call   	0x33c8
  === BLOCK LINK ===
    0x3073
=== CODE BLOCK END ===

=== CODE BLOCK ADDRESS 0x3073 ===
  0x3073	mov    	edx, 0xfffffff5
  0x3078	dec    	eax
  0x3079	mov    	ecx, eax
  0x307b	call   	0x3740
  === BLOCK LINK ===
    0x3080
=== CODE BLOCK END ===

=== CODE BLOCK ADDRESS 0x3080 ===
  0x3080	mov    	ebx, 0x32
  0x3085	jmp    	0x31f7
  === BLOCK LINK ===
    0x308a
=== CODE BLOCK END ===

=== CODE BLOCK ADDRESS 0x308a ===
  0x308a	dec    	eax
  0x308b	call   	dword ptr [0x6f8f]
  === BLOCK LINK ===
    0x3091
=== CODE BLOCK END ===

=== CODE BLOCK ADDRESS 0x3091 ===
  0x3091	nop    	dword ptr [eax + eax]
  0x3096	mov    	ebx, eax
  0x3098	test   	eax, eax
  0x309a	jns    	0x31e0
  === BLOCK LINK ===
    0x30a0
=== CODE BLOCK END ===

=== CODE BLOCK ADDRESS 0x30a0 ===
  0x30a0	dec    	eax
  0x30a1	mov    	ecx, dword ptr [0x5591]
  0x30a7	mov    	edx, 0x22
  0x30ac	call   	0x33c8
  === BLOCK LINK ===
    0x30b1
=== CODE BLOCK END ===

=== CODE BLOCK ADDRESS 0x30b1 ===
  0x30b1	mov    	edx, 0xfffffff5
  0x30b6	dec    	eax
  0x30b7	mov    	ecx, eax
  0x30b9	call   	0x3740
  === BLOCK LINK ===
    0x30be
=== CODE BLOCK END ===

=== CODE BLOCK ADDRESS 0x30be ===
  0x30be	mov    	ecx, dword ptr [ebp - 0x80]
  0x30c1	xor    	edx, edx
  0x30c3	call   	0x34a4
  === BLOCK LINK ===
    0x30c8
=== CODE BLOCK END ===

=== CODE BLOCK ADDRESS 0x30c8 ===
  0x30c8	cmp    	dword ptr [0x4f31], 5
  0x30cf	jbe    	0x31e0
  === BLOCK LINK ===
    0x30d5
=== CODE BLOCK END ===

=== CODE BLOCK ADDRESS 0x30d5 ===
  0x30d5	dec    	eax
  0x30d6	mov    	edi, 0
  0x30db	add    	byte ptr [eax], ah
  0x30dd	add    	byte ptr [eax], al
  0x30df	dec    	eax
  === BLOCK LINK ===
    0x30e0
=== CODE BLOCK END ===

=== CODE BLOCK ADDRESS 0x30e0 ===
  0x30e0	test   	dword ptr [0x4f2a], edi
  0x30e6	je     	0x31e0
  === BLOCK LINK ===
    0x30ec
=== CODE BLOCK END ===

=== CODE BLOCK ADDRESS 0x30ec ===
  0x30ec	dec    	eax
  0x30ed	mov    	eax, dword ptr [0x4f25]
  0x30f3	dec    	eax
  0x30f4	and    	eax, edi
  0x30f6	dec    	eax
  === BLOCK LINK ===
    0x30f7
=== CODE BLOCK END ===

=== CODE BLOCK ADDRESS 0x30f7 ===
  0x30f7	cmp    	eax, dword ptr [0x4f1b]
  0x30fd	jne    	0x31e0
  === BLOCK LINK ===
    0x3103
=== CODE BLOCK END ===

=== CODE BLOCK ADDRESS 0x3103 ===
  0x3103	mov    	eax, dword ptr [ebp - 0x80]
  0x3106	dec    	eax
  0x3107	lea    	edx, [0x2a42]
  0x310d	mov    	dword ptr [ebp + 0x30], eax
  0x3110	dec    	eax
  === BLOCK LINK ===
    0x3111
=== CODE BLOCK END ===

=== CODE BLOCK ADDRESS 0x3111 ===
  0x3111	lea    	eax, [0x2781]
  0x3117	dec    	eax
  0x3118	mov    	dword ptr [ebp - 0x78], eax
  0x311b	dec    	eax
  0x311c	lea    	eax, [ebp + 0x30]
  === BLOCK LINK ===
    0x311f
=== CODE BLOCK END ===

=== CODE BLOCK ADDRESS 0x311f ===
  0x311f	dec    	eax
  0x3120	mov    	dword ptr [esp + 0x28], eax
  0x3124	dec    	eax
  0x3125	lea    	eax, [ebp - 0x78]
  0x3128	dec    	eax
  === BLOCK LINK ===
    0x3129
=== CODE BLOCK END ===

=== CODE BLOCK ADDRESS 0x3129 ===
  0x3129	mov    	dword ptr [esp + 0x20], eax
  0x312d	call   	0x112c
  === BLOCK LINK ===
    0x3132
=== CODE BLOCK END ===

=== CODE BLOCK ADDRESS 0x3132 ===
  0x3132	jmp    	0x31e0
  === BLOCK LINK ===
    0x3137
=== CODE BLOCK END ===

=== CODE BLOCK ADDRESS 0x3137 ===
  0x3137	cmp    	dword ptr [0x4ec2], 5
  0x313e	jbe    	0x31f7
  === BLOCK LINK ===
    0x3144
=== CODE BLOCK END ===

=== CODE BLOCK ADDRESS 0x3144 ===
  0x3144	dec    	eax
  0x3145	mov    	edi, 0
  0x314a	add    	byte ptr [eax], ah
  0x314c	add    	byte ptr [eax], al
  0x314e	dec    	eax
  === BLOCK LINK ===
    0x314f
=== CODE BLOCK END ===

=== CODE BLOCK ADDRESS 0x314f ===
  0x314f	test   	dword ptr [0x4ebb], edi
  0x3155	je     	0x31f7
  === BLOCK LINK ===
    0x315b
=== CODE BLOCK END ===

=== CODE BLOCK ADDRESS 0x315b ===
  0x315b	dec    	eax
  0x315c	mov    	eax, dword ptr [0x4eb6]
  0x3162	dec    	eax
  0x3163	and    	eax, edi
  0x3165	dec    	eax
  === BLOCK LINK ===
    0x3166
=== CODE BLOCK END ===

=== CODE BLOCK ADDRESS 0x3166 ===
  0x3166	cmp    	eax, dword ptr [0x4eac]
  0x316c	jne    	0x31f7
  === BLOCK LINK ===
    0x3172
=== CODE BLOCK END ===

=== CODE BLOCK ADDRESS 0x3172 ===
  0x3172	dec    	eax
  0x3173	lea    	eax, [0x270f]
  0x3179	mov    	dword ptr [ebp + 0x30], ebx
  0x317c	dec    	eax
  0x317d	mov    	dword ptr [ebp - 0x78], eax
  === BLOCK LINK ===
    0x3180
=== CODE BLOCK END ===

=== CODE BLOCK ADDRESS 0x3180 ===
  0x3180	dec    	eax
  0x3181	lea    	edx, [0x29c8]
  0x3187	dec    	eax
  0x3188	lea    	eax, [ebp + 0x30]
  0x318b	dec    	eax
  === BLOCK LINK ===
    0x318c
=== CODE BLOCK END ===

=== CODE BLOCK ADDRESS 0x318c ===
  0x318c	mov    	dword ptr [esp + 0x28], eax
  0x3190	dec    	eax
  0x3191	lea    	eax, [ebp - 0x78]
  0x3194	dec    	eax
  0x3195	mov    	dword ptr [esp + 0x20], eax
  === BLOCK LINK ===
    0x3199
=== CODE BLOCK END ===

=== CODE BLOCK ADDRESS 0x3199 ===
  0x3199	call   	0x112c
  === BLOCK LINK ===
    0x319e
=== CODE BLOCK END ===

=== CODE BLOCK ADDRESS 0x319e ===
  0x319e	jmp    	0x28a2
  === BLOCK LINK ===
    0x31a3
=== CODE BLOCK END ===

=== CODE BLOCK ADDRESS 0x31a3 ===
  0x31a3	call   	0x422c
  === BLOCK LINK ===
    0x31a8
=== CODE BLOCK END ===

=== CODE BLOCK ADDRESS 0x31a8 ===
  0x31a8	test   	al, al
  0x31aa	je     	0x3062
  === BLOCK LINK ===
    0x31b0
=== CODE BLOCK END ===

=== CODE BLOCK ADDRESS 0x31b0 ===
  0x31b0	dec    	eax
  0x31b1	call   	dword ptr [0x6e79]
  === BLOCK LINK ===
    0x31b7
=== CODE BLOCK END ===

=== CODE BLOCK ADDRESS 0x31b7 ===
  0x31b7	nop    	dword ptr [eax + eax]
  0x31bc	mov    	ebx, eax
  0x31be	test   	eax, eax
  0x31c0	jns    	0x31e0
  === BLOCK LINK ===
    0x31c2
=== CODE BLOCK END ===

=== CODE BLOCK ADDRESS 0x31c2 ===
  0x31c2	dec    	eax
  0x31c3	mov    	ecx, dword ptr [0x546f]
  0x31c9	mov    	edx, 0x22
  0x31ce	call   	0x33c8
  === BLOCK LINK ===
    0x31d3
=== CODE BLOCK END ===

=== CODE BLOCK ADDRESS 0x31d3 ===
  0x31d3	mov    	edx, 0xfffffff5
  0x31d8	dec    	eax
  0x31d9	mov    	ecx, eax
  0x31db	call   	0x3740
  === BLOCK LINK ===
    0x31e0
=== CODE BLOCK END ===

=== CODE BLOCK ADDRESS 0x31e0 ===
  0x31e0	mov    	ecx, ebx
  0x31e2	movzx  	eax, bx
  0x31e5	and    	ecx, 0x1fff0000
  0x31eb	cmp    	ecx, 0x70000
  0x31f1	cmove  	ebx, eax
  === BLOCK LINK ===
    0x31f4
=== CODE BLOCK END ===

=== CODE BLOCK ADDRESS 0x31f4 ===
  0x31f4	mov    	dword ptr [ebp - 0x80], ebx
  0x31f7	dec    	eax
  0x31f8	mov    	ecx, dword ptr [0x4e22]
  0x31fe	dec    	esp
  0x31ff	mov    	dword ptr [0x4e1b], esi
  === BLOCK LINK ===
    0x3205
=== CODE BLOCK END ===

=== CODE BLOCK ADDRESS 0x3205 ===
  0x3205	inc    	esp
  0x3206	mov    	dword ptr [0x4df4], esi
  0x320c	dec    	eax
  0x320d	call   	dword ptr [0x2185]
  === BLOCK LINK ===
    0x3213
=== CODE BLOCK END ===

=== CODE BLOCK ADDRESS 0x3213 ===
  0x3213	nop    	dword ptr [eax + eax]
  0x3218	mov    	eax, ebx
  0x321a	dec    	eax
  0x321b	mov    	ecx, dword ptr [ebp + 0x40]
  0x321e	dec    	eax
  === BLOCK LINK ===
    0x321f
=== CODE BLOCK END ===

=== CODE BLOCK ADDRESS 0x321f ===
  0x321f	xor    	ecx, esp
  0x3221	call   	0x3c20
  === BLOCK LINK ===
    0x3226
=== CODE BLOCK END ===

=== CODE BLOCK ADDRESS 0x3226 ===
  0x3226	dec    	eax
  0x3227	mov    	ebx, dword ptr [esp + 0x1b0]
  0x322e	dec    	eax
  0x322f	add    	esp, 0x170
  0x3235	inc    	ecx
  === BLOCK LINK ===
    0x3236
=== CODE BLOCK END ===

=== CODE BLOCK ADDRESS 0x3236 ===
  0x3236	pop    	edi
  0x3237	inc    	ecx
  0x3238	pop    	esi
  0x3239	pop    	edi
  0x323a	pop    	esi
  === BLOCK LINK ===
    0x323b
=== CODE BLOCK END ===

=== CODE BLOCK ADDRESS 0x323b ===
  0x323b	pop    	ebp
  0x323c	ret    	
  0x323d	int3   	
  0x323e	int3   	
  0x323f	int3   	
  === BLOCK LINK ===
    0x3240
=== CODE BLOCK END ===

=== CODE BLOCK ADDRESS 0x3240 ===
  0x3240	int3   	
  0x3241	int3   	
  0x3242	int3   	
  0x3243	int3   	
  0x3244	dec    	eax
  === BLOCK LINK ===
    0x3245
=== CODE BLOCK END ===

=== CODE BLOCK ADDRESS 0x3245 ===
  0x3245	mov    	dword ptr [esp + 8], ebx
  0x3249	dec    	eax
  0x324a	mov    	dword ptr [esp + 0x10], ebp
  0x324e	dec    	eax
  0x324f	mov    	dword ptr [esp + 0x18], esi
  === BLOCK LINK ===
    0x3253
=== CODE BLOCK END ===

=== CODE BLOCK ADDRESS 0x3253 ===
  0x3253	push   	edi
  0x3254	inc    	ecx
  0x3255	push   	esi
  0x3256	inc    	ecx
  0x3257	push   	edi
  === BLOCK LINK ===
    0x3258
=== CODE BLOCK END ===

=== CODE BLOCK ADDRESS 0x3258 ===
  0x3258	dec    	eax
  0x3259	sub    	esp, 0x30
  0x325c	inc    	ecx
  0x325d	mov    	ebp, ecx
  0x325f	dec    	ecx
  === BLOCK LINK ===
    0x3260
=== CODE BLOCK END ===

=== CODE BLOCK ADDRESS 0x3260 ===
  0x3260	mov    	esi, eax
  0x3262	call   	0x33c8
  === BLOCK LINK ===
    0x3267
=== CODE BLOCK END ===

=== CODE BLOCK ADDRESS 0x3267 ===
  0x3267	inc    	ebp
  0x3268	xor    	eax, eax
  0x326a	xor    	edx, edx
  0x326c	mov    	ecx, 0x100
  0x3271	dec    	eax
  === BLOCK LINK ===
    0x3272
=== CODE BLOCK END ===

=== CODE BLOCK ADDRESS 0x3272 ===
  0x3272	mov    	edi, eax
  0x3274	dec    	eax
  0x3275	call   	dword ptr [0x1fed]
  === BLOCK LINK ===
    0x327b
=== CODE BLOCK END ===

=== CODE BLOCK ADDRESS 0x327b ===
  0x327b	nop    	dword ptr [eax + eax]
  0x3280	inc    	ebp
  0x3281	xor    	edi, edi
  0x3283	dec    	eax
  0x3284	test   	edi, edi
  === BLOCK LINK ===
    0x3286
=== CODE BLOCK END ===

=== CODE BLOCK ADDRESS 0x3286 ===
  0x3286	je     	0x33a5
  === BLOCK LINK ===
    0x328c
=== CODE BLOCK END ===

=== CODE BLOCK ADDRESS 0x328c ===
  0x328c	dec    	eax
  0x328d	or     	ecx, 0xffffffff
  0x3290	dec    	eax
  0x3291	test   	esi, esi
  0x3293	je     	0x3320
  === BLOCK LINK ===
    0x3299
=== CODE BLOCK END ===

=== CODE BLOCK ADDRESS 0x3299 ===
  0x3299	dec    	eax
  0x329a	mov    	eax, ecx
  0x329c	dec    	eax
  0x329d	inc    	eax
  0x329f	inc    	sp
  === BLOCK LINK ===
    0x32a1
=== CODE BLOCK END ===

=== CODE BLOCK ADDRESS 0x32a1 ===
  0x32a1	cmp    	dword ptr [esi + eax*2], edi
  0x32a4	jne    	0x329c
  === BLOCK LINK ===
    0x32a6
=== CODE BLOCK END ===

=== CODE BLOCK ADDRESS 0x32a6 ===
  0x32a6	dec    	eax
  0x32a7	test   	eax, eax
  0x32a9	je     	0x3320
  === BLOCK LINK ===
    0x32ab
=== CODE BLOCK END ===

=== CODE BLOCK ADDRESS 0x32ab ===
  0x32ab	dec    	eax
  0x32ac	mov    	eax, ecx
  0x32ae	dec    	eax
  0x32af	inc    	eax
  0x32b1	inc    	sp
  === BLOCK LINK ===
    0x32b3
=== CODE BLOCK END ===

=== CODE BLOCK ADDRESS 0x32b3 ===
  0x32b3	cmp    	dword ptr [edi + eax*2], edi
  0x32b6	jne    	0x32ae
  === BLOCK LINK ===
    0x32b8
=== CODE BLOCK END ===

=== CODE BLOCK ADDRESS 0x32b8 ===
  0x32b8	dec    	eax
  0x32b9	inc    	ecx
  0x32bb	inc    	sp
  0x32bd	cmp    	dword ptr [esi + ecx*2], edi
  0x32c0	jne    	0x32b8
  === BLOCK LINK ===
    0x32c2
=== CODE BLOCK END ===

=== CODE BLOCK ADDRESS 0x32c2 ===
  0x32c2	dec    	eax
  0x32c3	add    	eax, ecx
  0x32c5	xor    	ecx, ecx
  0x32c7	dec    	esp
  0x32c8	lea    	esi, [eax*2 + 0x28]
  === BLOCK LINK ===
    0x32cf
=== CODE BLOCK END ===

=== CODE BLOCK ADDRESS 0x32cf ===
  0x32cf	dec    	ecx
  0x32d0	mov    	edx, esi
  0x32d2	dec    	eax
  0x32d3	call   	dword ptr [0x1f67]
  === BLOCK LINK ===
    0x32d9
=== CODE BLOCK END ===

=== CODE BLOCK ADDRESS 0x32d9 ===
  0x32d9	nop    	dword ptr [eax + eax]
  0x32de	dec    	eax
  0x32df	mov    	ebx, eax
  0x32e1	dec    	eax
  0x32e2	test   	eax, eax
  === BLOCK LINK ===
    0x32e4
=== CODE BLOCK END ===

=== CODE BLOCK ADDRESS 0x32e4 ===
  0x32e4	je     	0x3396
  === BLOCK LINK ===
    0x32ea
=== CODE BLOCK END ===

=== CODE BLOCK ADDRESS 0x32ea ===
  0x32ea	inc    	sp
  0x32ec	mov    	dword ptr [eax], edi
  0x32ee	dec    	esp
  0x32ef	mov    	ecx, esi
  0x32f1	dec    	ecx
  === BLOCK LINK ===
    0x32f2
=== CODE BLOCK END ===

=== CODE BLOCK ADDRESS 0x32f2 ===
  0x32f2	mov    	edx, esi
  0x32f4	dec    	eax
  0x32f5	mov    	ecx, eax
  0x32f7	test   	ebp, ebp
  0x32f9	je     	0x3312
  === BLOCK LINK ===
    0x32fb
=== CODE BLOCK END ===

=== CODE BLOCK ADDRESS 0x32fb ===
  0x32fb	mov    	dword ptr [esp + 0x28], ebp
  0x32ff	dec    	esp
  0x3300	lea    	eax, [0x26b2]
  0x3306	dec    	eax
  0x3307	mov    	dword ptr [esp + 0x20], edi
  === BLOCK LINK ===
    0x330b
=== CODE BLOCK END ===

=== CODE BLOCK ADDRESS 0x330b ===
  0x330b	call   	0x1424
  === BLOCK LINK ===
    0x3310
=== CODE BLOCK END ===

=== CODE BLOCK ADDRESS 0x3310 ===
  0x3310	jmp    	0x337a
  === BLOCK LINK ===
    0x3312
=== CODE BLOCK END ===

=== CODE BLOCK ADDRESS 0x3312 ===
  0x3312	dec    	eax
  0x3313	mov    	dword ptr [esp + 0x20], edi
  0x3317	dec    	esp
  0x3318	lea    	eax, [0x26b2]
  0x331e	jmp    	0x3367
  === BLOCK LINK ===
    0x3320
=== CODE BLOCK END ===

=== CODE BLOCK ADDRESS 0x3320 ===
  0x3320	dec    	eax
  0x3321	inc    	ecx
  0x3323	inc    	sp
  0x3325	cmp    	dword ptr [edi + ecx*2], edi
  0x3328	jne    	0x3320
  === BLOCK LINK ===
    0x332a
=== CODE BLOCK END ===

=== CODE BLOCK ADDRESS 0x332a ===
  0x332a	dec    	eax
  0x332b	lea    	esi, [ecx*2 + 0x28]
  0x3332	xor    	ecx, ecx
  0x3334	dec    	eax
  0x3335	mov    	edx, esi
  === BLOCK LINK ===
    0x3337
=== CODE BLOCK END ===

=== CODE BLOCK ADDRESS 0x3337 ===
  0x3337	dec    	eax
  0x3338	call   	dword ptr [0x1f02]
  === BLOCK LINK ===
    0x333e
=== CODE BLOCK END ===

=== CODE BLOCK ADDRESS 0x333e ===
  0x333e	nop    	dword ptr [eax + eax]
  0x3343	dec    	eax
  0x3344	mov    	ebx, eax
  0x3346	dec    	eax
  0x3347	test   	eax, eax
  === BLOCK LINK ===
    0x3349
=== CODE BLOCK END ===

=== CODE BLOCK ADDRESS 0x3349 ===
  0x3349	je     	0x3396
  === BLOCK LINK ===
    0x334b
=== CODE BLOCK END ===

=== CODE BLOCK ADDRESS 0x334b ===
  0x334b	inc    	sp
  0x334d	mov    	dword ptr [eax], edi
  0x334f	dec    	esp
  0x3350	mov    	ecx, edi
  0x3352	dec    	eax
  === BLOCK LINK ===
    0x3353
=== CODE BLOCK END ===

=== CODE BLOCK ADDRESS 0x3353 ===
  0x3353	mov    	edx, esi
  0x3355	dec    	eax
  0x3356	mov    	ecx, eax
  0x3358	test   	ebp, ebp
  0x335a	je     	0x336e
  === BLOCK LINK ===
    0x335c
=== CODE BLOCK END ===

=== CODE BLOCK ADDRESS 0x335c ===
  0x335c	mov    	dword ptr [esp + 0x20], ebp
  0x3360	dec    	esp
  0x3361	lea    	eax, [0x2679]
  0x3367	call   	0x1424
  === BLOCK LINK ===
    0x336c
=== CODE BLOCK END ===

=== CODE BLOCK ADDRESS 0x336c ===
  0x336c	jmp    	0x337a
  === BLOCK LINK ===
    0x336e
=== CODE BLOCK END ===

=== CODE BLOCK ADDRESS 0x336e ===
  0x336e	dec    	esp
  0x336f	lea    	eax, [0x267b]
  0x3375	call   	0x1424
  === BLOCK LINK ===
    0x337a
=== CODE BLOCK END ===

=== CODE BLOCK ADDRESS 0x337a ===
  0x337a	mov    	edx, 0xfffffff4
  0x337f	dec    	eax
  0x3380	mov    	ecx, ebx
  0x3382	call   	0x3740
  === BLOCK LINK ===
    0x3387
=== CODE BLOCK END ===

=== CODE BLOCK ADDRESS 0x3387 ===
  0x3387	dec    	eax
  0x3388	mov    	ecx, ebx
  0x338a	dec    	eax
  0x338b	call   	dword ptr [0x1ea7]
  === BLOCK LINK ===
    0x3391
=== CODE BLOCK END ===

=== CODE BLOCK ADDRESS 0x3391 ===
  0x3391	nop    	dword ptr [eax + eax]
  0x3396	dec    	eax
  0x3397	mov    	ecx, edi
  0x3399	dec    	eax
  0x339a	call   	dword ptr [0x1e98]
  === BLOCK LINK ===
    0x33a0
=== CODE BLOCK END ===

=== CODE BLOCK ADDRESS 0x33a0 ===
  0x33a0	nop    	dword ptr [eax + eax]
  0x33a5	dec    	eax
  0x33a6	mov    	ebx, dword ptr [esp + 0x50]
  0x33aa	dec    	eax
  0x33ab	mov    	ebp, dword ptr [esp + 0x58]
  === BLOCK LINK ===
    0x33af
=== CODE BLOCK END ===

=== CODE BLOCK ADDRESS 0x33af ===
  0x33af	dec    	eax
  0x33b0	mov    	esi, dword ptr [esp + 0x60]
  0x33b4	dec    	eax
  0x33b5	add    	esp, 0x30
  0x33b8	inc    	ecx
  === BLOCK LINK ===
    0x33b9
=== CODE BLOCK END ===

=== CODE BLOCK ADDRESS 0x33b9 ===
  0x33b9	pop    	edi
  0x33ba	inc    	ecx
  0x33bb	pop    	esi
  0x33bc	pop    	edi
  0x33bd	ret    	
  === BLOCK LINK ===
    0x33be
=== CODE BLOCK END ===

=== CODE BLOCK ADDRESS 0x1371 ===
  0x1371	dec    	eax
  0x1372	inc    	eax
  0x1374	inc    	esp
  === BLOCK LINK ===
    0x1375
=== CODE BLOCK END ===

=== CODE BLOCK ADDRESS 0x33be ===
  0x33be	int3   	
  0x33bf	int3   	
  0x33c0	int3   	
  0x33c1	int3   	
  0x33c2	int3   	
  === BLOCK LINK ===
    0x33c3
=== CODE BLOCK END ===

=== CODE BLOCK ADDRESS 0x33c3 ===
  0x33c3	int3   	
  0x33c4	int3   	
  0x33c5	int3   	
  0x33c6	int3   	
  0x33c7	int3   	
  === BLOCK LINK ===
    0x33c8
=== CODE BLOCK END ===

=== CODE BLOCK ADDRESS 0x33c8 ===
  0x33c8	dec    	eax
  0x33c9	mov    	eax, esp
  0x33cb	dec    	eax
  0x33cc	mov    	dword ptr [eax + 8], ebx
  0x33cf	dec    	eax
  === BLOCK LINK ===
    0x33d0
=== CODE BLOCK END ===

=== CODE BLOCK ADDRESS 0x33d0 ===
  0x33d0	mov    	dword ptr [eax + 0x10], ebp
  0x33d3	dec    	eax
  0x33d4	mov    	dword ptr [eax + 0x18], esi
  0x33d7	dec    	eax
  0x33d8	mov    	dword ptr [eax + 0x20], edi
  === BLOCK LINK ===
    0x33db
=== CODE BLOCK END ===

=== CODE BLOCK ADDRESS 0x33db ===
  0x33db	inc    	ecx
  0x33dc	push   	esi
  0x33dd	dec    	eax
  0x33de	sub    	esp, 0x20
  0x33e1	mov    	esi, edx
  === BLOCK LINK ===
    0x33e3
=== CODE BLOCK END ===

=== CODE BLOCK ADDRESS 0x33e3 ===
  0x33e3	dec    	eax
  0x33e4	mov    	ebp, ecx
  0x33e6	mov    	edx, 0x208
  0x33eb	xor    	ecx, ecx
  0x33ed	mov    	edi, 0x104
  === BLOCK LINK ===
    0x33f2
=== CODE BLOCK END ===

=== CODE BLOCK ADDRESS 0x33f2 ===
  0x33f2	dec    	eax
  0x33f3	call   	dword ptr [0x1e47]
  === BLOCK LINK ===
    0x33f9
=== CODE BLOCK END ===

=== CODE BLOCK ADDRESS 0x33f9 ===
  0x33f9	nop    	dword ptr [eax + eax]
  0x33fe	inc    	ebp
  0x33ff	xor    	esi, esi
  0x3401	dec    	eax
  0x3402	mov    	ebx, eax
  === BLOCK LINK ===
    0x3404
=== CODE BLOCK END ===

=== CODE BLOCK ADDRESS 0x3404 ===
  0x3404	dec    	eax
  0x3405	test   	eax, eax
  0x3407	je     	0x3480
  === BLOCK LINK ===
    0x3409
=== CODE BLOCK END ===

=== CODE BLOCK ADDRESS 0x3409 ===
  0x3409	inc    	esp
  0x340a	mov    	ecx, edi
  0x340c	dec    	esp
  0x340d	mov    	eax, eax
  0x340f	mov    	edx, esi
  === BLOCK LINK ===
    0x3411
=== CODE BLOCK END ===

=== CODE BLOCK ADDRESS 0x3411 ===
  0x3411	dec    	eax
  0x3412	mov    	ecx, ebp
  0x3414	dec    	eax
  0x3415	call   	dword ptr [0x1e35]
  === BLOCK LINK ===
    0x341b
=== CODE BLOCK END ===

=== CODE BLOCK ADDRESS 0x341b ===
  0x341b	nop    	dword ptr [eax + eax]
  0x3420	mov    	ecx, eax
  0x3422	cmp    	eax, 0x103
  0x3427	jne    	0x3474
  === BLOCK LINK ===
    0x3429
=== CODE BLOCK END ===

=== CODE BLOCK ADDRESS 0x3429 ===
  0x3429	dec    	eax
  0x342a	mov    	ecx, ebx
  0x342c	dec    	eax
  0x342d	call   	dword ptr [0x1e05]
  === BLOCK LINK ===
    0x3433
=== CODE BLOCK END ===

=== CODE BLOCK ADDRESS 0x3433 ===
  0x3433	nop    	dword ptr [eax + eax]
  0x3438	add    	edi, edi
  0x343a	xor    	ecx, ecx
  0x343c	mov    	edx, edi
  0x343e	dec    	eax
  === BLOCK LINK ===
    0x343f
=== CODE BLOCK END ===

=== CODE BLOCK ADDRESS 0x343f ===
  0x343f	add    	edx, edx
  0x3441	dec    	eax
  0x3442	call   	dword ptr [0x1df8]
  === BLOCK LINK ===
    0x3448
=== CODE BLOCK END ===

=== CODE BLOCK ADDRESS 0x3448 ===
  0x3448	nop    	dword ptr [eax + eax]
  0x344d	dec    	eax
  0x344e	mov    	ebx, eax
  0x3450	dec    	eax
  0x3451	test   	eax, eax
  === BLOCK LINK ===
    0x3453
=== CODE BLOCK END ===

=== CODE BLOCK ADDRESS 0x3453 ===
  0x3453	je     	0x3480
  === BLOCK LINK ===
    0x3455
=== CODE BLOCK END ===

=== CODE BLOCK ADDRESS 0x3455 ===
  0x3455	inc    	esp
  0x3456	mov    	ecx, edi
  0x3458	dec    	esp
  0x3459	mov    	eax, eax
  0x345b	mov    	edx, esi
  === BLOCK LINK ===
    0x345d
=== CODE BLOCK END ===

=== CODE BLOCK ADDRESS 0x345d ===
  0x345d	dec    	eax
  0x345e	mov    	ecx, ebp
  0x3460	dec    	eax
  0x3461	call   	dword ptr [0x1de9]
  === BLOCK LINK ===
    0x3467
=== CODE BLOCK END ===

=== CODE BLOCK ADDRESS 0x3467 ===
  0x3467	nop    	dword ptr [eax + eax]
  0x346c	mov    	ecx, eax
  0x346e	inc    	eax
  0x3470	cmp    	eax, edi
  0x3472	je     	0x3429
  === BLOCK LINK ===
    0x3474
=== CODE BLOCK END ===

=== CODE BLOCK ADDRESS 0x3474 ===
  0x3474	mov    	eax, ecx
  0x3476	inc    	sp
  0x3478	mov    	dword ptr [ebx + eax*2], esi
  0x347b	dec    	eax
  0x347c	mov    	eax, ebx
  === BLOCK LINK ===
    0x347e
=== CODE BLOCK END ===

=== CODE BLOCK ADDRESS 0x347e ===
  0x347e	jmp    	0x3482
  === BLOCK LINK ===
    0x3480
=== CODE BLOCK END ===

=== CODE BLOCK ADDRESS 0x3480 ===
  0x3480	xor    	eax, eax
  0x3482	dec    	eax
  0x3483	mov    	ebx, dword ptr [esp + 0x30]
  0x3487	dec    	eax
  0x3488	mov    	ebp, dword ptr [esp + 0x38]
  === BLOCK LINK ===
    0x348c
=== CODE BLOCK END ===

=== CODE BLOCK ADDRESS 0x348c ===
  0x348c	dec    	eax
  0x348d	mov    	esi, dword ptr [esp + 0x40]
  0x3491	dec    	eax
  0x3492	mov    	edi, dword ptr [esp + 0x48]
  0x3496	dec    	eax
  === BLOCK LINK ===
    0x3497
=== CODE BLOCK END ===

=== CODE BLOCK ADDRESS 0x3497 ===
  0x3497	add    	esp, 0x20
  0x349a	inc    	ecx
  0x349b	pop    	esi
  0x349c	ret    	
  0x349d	int3   	
  === BLOCK LINK ===
    0x349e
=== CODE BLOCK END ===

=== CODE BLOCK ADDRESS 0x138a ===
  0x138a	mov    	dword ptr [ebp + 0x1f], eax
  0x138d	dec    	eax
  === BLOCK LINK ===
    0x138e
=== CODE BLOCK END ===

=== CODE BLOCK ADDRESS 0x349e ===
  0x349e	int3   	
  0x349f	int3   	
  0x34a0	int3   	
  0x34a1	int3   	
  0x34a2	int3   	
  === BLOCK LINK ===
    0x34a3
=== CODE BLOCK END ===

=== CODE BLOCK ADDRESS 0x34a3 ===
  0x34a3	int3   	
  0x34a4	dec    	eax
  0x34a5	mov    	dword ptr [esp + 8], ebx
  0x34a9	dec    	eax
  0x34aa	mov    	dword ptr [esp + 0x10], ebp
  === BLOCK LINK ===
    0x34ae
=== CODE BLOCK END ===

=== CODE BLOCK ADDRESS 0x34ae ===
  0x34ae	push   	esi
  0x34af	push   	edi
  0x34b0	inc    	ecx
  0x34b1	push   	esi
  0x34b2	dec    	eax
  === BLOCK LINK ===
    0x34b3
=== CODE BLOCK END ===

=== CODE BLOCK ADDRESS 0x34b3 ===
  0x34b3	sub    	esp, 0x40
  0x34b6	dec    	eax
  0x34b7	mov    	edi, edx
  0x34b9	mov    	ebx, ecx
  0x34bb	inc    	ebp
  === BLOCK LINK ===
    0x34bc
=== CODE BLOCK END ===

=== CODE BLOCK ADDRESS 0x34bc ===
  0x34bc	xor    	esi, esi
  0x34be	xor    	edx, edx
  0x34c0	mov    	ecx, 0x100
  0x34c5	dec    	esp
  0x34c6	mov    	dword ptr [esp + 0x70], esi
  === BLOCK LINK ===
    0x34ca
=== CODE BLOCK END ===

=== CODE BLOCK ADDRESS 0x34ca ===
  0x34ca	inc    	ebp
  0x34cb	xor    	eax, eax
  0x34cd	dec    	eax
  0x34ce	call   	dword ptr [0x1d94]
  === BLOCK LINK ===
    0x34d4
=== CODE BLOCK END ===

=== CODE BLOCK ADDRESS 0x34d4 ===
  0x34d4	nop    	dword ptr [eax + eax]
  0x34d9	cmp    	ebx, 0x3e5
  0x34df	je     	0x367b
  === BLOCK LINK ===
    0x34e5
=== CODE BLOCK END ===

=== CODE BLOCK ADDRESS 0x34e5 ===
  0x34e5	test   	ebx, ebx
  0x34e7	je     	0x367b
  === BLOCK LINK ===
    0x34ed
=== CODE BLOCK END ===

=== CODE BLOCK ADDRESS 0x34ed ===
  0x34ed	xor    	ecx, ecx
  0x34ef	dec    	eax
  0x34f0	call   	dword ptr [0x1d62]
  === BLOCK LINK ===
    0x34f6
=== CODE BLOCK END ===

=== CODE BLOCK ADDRESS 0x34f6 ===
  0x34f6	nop    	dword ptr [eax + eax]
  0x34fb	inc    	ebp
  0x34fc	lea    	ecx, [esi + 0x15]
  0x34ff	inc    	ecx
  0x3500	cmp    	ebx, ecx
  === BLOCK LINK ===
    0x3502
=== CODE BLOCK END ===

=== CODE BLOCK ADDRESS 0x3502 ===
  0x3502	jne    	0x350d
  === BLOCK LINK ===
    0x3504
=== CODE BLOCK END ===

=== CODE BLOCK ADDRESS 0x3504 ===
  0x3504	inc    	ecx
  0x3505	lea    	edx, [esi + 0xa]
  0x3508	jmp    	0x3670
  === BLOCK LINK ===
    0x350d
=== CODE BLOCK END ===

=== CODE BLOCK ADDRESS 0x350d ===
  0x350d	cmp    	ebx, 0x35
  0x3510	je     	0x3668
  === BLOCK LINK ===
    0x3516
=== CODE BLOCK END ===

=== CODE BLOCK ADDRESS 0x3516 ===
  0x3516	cmp    	ebx, 0x2af9
  0x351c	je     	0x3668
  === BLOCK LINK ===
    0x3522
=== CODE BLOCK END ===

=== CODE BLOCK ADDRESS 0x3522 ===
  0x3522	dec    	esp
  0x3523	mov    	dword ptr [esp + 0x30], esi
  0x3527	dec    	eax
  0x3528	lea    	eax, [esp + 0x70]
  0x352c	inc    	esp
  === BLOCK LINK ===
    0x352d
=== CODE BLOCK END ===

=== CODE BLOCK ADDRESS 0x352d ===
  0x352d	mov    	dword ptr [esp + 0x28], esi
  0x3531	inc    	ecx
  0x3532	mov    	ecx, 0x400
  0x3537	inc    	esp
  0x3538	mov    	eax, ebx
  === BLOCK LINK ===
    0x353a
=== CODE BLOCK END ===

=== CODE BLOCK ADDRESS 0x353a ===
  0x353a	dec    	eax
  0x353b	mov    	dword ptr [esp + 0x20], eax
  0x353f	xor    	edx, edx
  0x3541	mov    	ecx, 0x1300
  0x3546	dec    	eax
  === BLOCK LINK ===
    0x3547
=== CODE BLOCK END ===

=== CODE BLOCK ADDRESS 0x3547 ===
  0x3547	call   	dword ptr [0x1d23]
  === BLOCK LINK ===
    0x354d
=== CODE BLOCK END ===

=== CODE BLOCK ADDRESS 0x354d ===
  0x354d	nop    	dword ptr [eax + eax]
  0x3552	dec    	eax
  0x3553	mov    	edx, dword ptr [esp + 0x70]
  0x3557	dec    	eax
  0x3558	test   	edx, edx
  === BLOCK LINK ===
    0x355a
=== CODE BLOCK END ===

=== CODE BLOCK ADDRESS 0x355a ===
  0x355a	je     	0x367b
  === BLOCK LINK ===
    0x3560
=== CODE BLOCK END ===

=== CODE BLOCK ADDRESS 0x3560 ===
  0x3560	dec    	eax
  0x3561	or     	eax, 0xffffffff
  0x3564	dec    	eax
  0x3565	mov    	ecx, eax
  0x3567	dec    	eax
  === BLOCK LINK ===
    0x3568
=== CODE BLOCK END ===

=== CODE BLOCK ADDRESS 0x3568 ===
  0x3568	inc    	ecx
  0x356a	inc    	sp
  0x356c	cmp    	dword ptr [edx + ecx*2], esi
  0x356f	jne    	0x3567
  === BLOCK LINK ===
    0x3571
=== CODE BLOCK END ===

=== CODE BLOCK ADDRESS 0x3571 ===
  0x3571	inc    	sp
  0x3573	mov    	dword ptr [edx + ecx*2 - 4], esi
  0x3577	dec    	eax
  0x3578	test   	edi, edi
  0x357a	je     	0x35f9
  === BLOCK LINK ===
    0x357c
=== CODE BLOCK END ===

=== CODE BLOCK ADDRESS 0x357c ===
  0x357c	dec    	eax
  0x357d	mov    	edx, eax
  0x357f	dec    	eax
  0x3580	inc    	edx
  0x3582	inc    	sp
  === BLOCK LINK ===
    0x3584
=== CODE BLOCK END ===

=== CODE BLOCK ADDRESS 0x3584 ===
  0x3584	cmp    	dword ptr [edi + edx*2], esi
  0x3587	jne    	0x357f
  === BLOCK LINK ===
    0x3589
=== CODE BLOCK END ===

=== CODE BLOCK ADDRESS 0x3589 ===
  0x3589	dec    	eax
  0x358a	test   	edx, edx
  0x358c	je     	0x35f9
  === BLOCK LINK ===
    0x358e
=== CODE BLOCK END ===

=== CODE BLOCK ADDRESS 0x358e ===
  0x358e	dec    	eax
  0x358f	inc    	eax
  0x3591	inc    	sp
  0x3593	cmp    	dword ptr [edi + eax*2], esi
  0x3596	jne    	0x358e
  === BLOCK LINK ===
    0x3598
=== CODE BLOCK END ===

=== CODE BLOCK ADDRESS 0x3598 ===
  0x3598	dec    	eax
  0x3599	add    	eax, ecx
  0x359b	xor    	ecx, ecx
  0x359d	dec    	eax
  0x359e	lea    	ebp, [eax*2 + 0x28]
  === BLOCK LINK ===
    0x35a5
=== CODE BLOCK END ===

=== CODE BLOCK ADDRESS 0x35a5 ===
  0x35a5	dec    	eax
  0x35a6	mov    	edx, ebp
  0x35a8	dec    	eax
  0x35a9	call   	dword ptr [0x1c91]
  === BLOCK LINK ===
    0x35af
=== CODE BLOCK END ===

=== CODE BLOCK ADDRESS 0x35af ===
  0x35af	nop    	dword ptr [eax + eax]
  0x35b4	dec    	eax
  0x35b5	mov    	esi, eax
  0x35b7	dec    	eax
  0x35b8	test   	eax, eax
  === BLOCK LINK ===
    0x35ba
=== CODE BLOCK END ===

=== CODE BLOCK ADDRESS 0x35ba ===
  0x35ba	je     	0x3655
  === BLOCK LINK ===
    0x35c0
=== CODE BLOCK END ===

=== CODE BLOCK ADDRESS 0x35c0 ===
  0x35c0	inc    	sp
  0x35c2	mov    	dword ptr [eax], esi
  0x35c4	dec    	esp
  0x35c5	lea    	eax, [0x23ed]
  0x35cb	dec    	eax
  === BLOCK LINK ===
    0x35cc
=== CODE BLOCK END ===

=== CODE BLOCK ADDRESS 0x35cc ===
  0x35cc	mov    	ecx, dword ptr [esp + 0x70]
  0x35d0	dec    	esp
  0x35d1	mov    	ecx, edi
  0x35d3	mov    	dword ptr [esp + 0x28], ebx
  0x35d7	dec    	eax
  === BLOCK LINK ===
    0x35d8
=== CODE BLOCK END ===

=== CODE BLOCK ADDRESS 0x35d8 ===
  0x35d8	mov    	edx, ebp
  0x35da	dec    	eax
  0x35db	mov    	dword ptr [esp + 0x20], ecx
  0x35df	dec    	eax
  0x35e0	mov    	ecx, eax
  === BLOCK LINK ===
    0x35e2
=== CODE BLOCK END ===

=== CODE BLOCK ADDRESS 0x35e2 ===
  0x35e2	call   	0x1424
  === BLOCK LINK ===
    0x35e7
=== CODE BLOCK END ===

=== CODE BLOCK ADDRESS 0x35e7 ===
  0x35e7	mov    	edx, 0xfffffff4
  0x35ec	dec    	eax
  0x35ed	mov    	ecx, esi
  0x35ef	call   	0x3740
  === BLOCK LINK ===
    0x35f4
=== CODE BLOCK END ===

=== CODE BLOCK ADDRESS 0x35f4 ===
  0x35f4	dec    	eax
  0x35f5	mov    	ecx, esi
  0x35f7	jmp    	0x3649
  === BLOCK LINK ===
    0x35f9
=== CODE BLOCK END ===

=== CODE BLOCK ADDRESS 0x35f9 ===
  0x35f9	dec    	eax
  0x35fa	lea    	esi, [ecx*2 + 0x28]
  0x3601	xor    	ecx, ecx
  0x3603	dec    	eax
  0x3604	mov    	edx, esi
  === BLOCK LINK ===
    0x3606
=== CODE BLOCK END ===

=== CODE BLOCK ADDRESS 0x3606 ===
  0x3606	dec    	eax
  0x3607	call   	dword ptr [0x1c33]
  === BLOCK LINK ===
    0x360d
=== CODE BLOCK END ===

=== CODE BLOCK ADDRESS 0x360d ===
  0x360d	nop    	dword ptr [eax + eax]
  0x3612	dec    	eax
  0x3613	mov    	edi, eax
  0x3615	dec    	eax
  0x3616	test   	eax, eax
  === BLOCK LINK ===
    0x3618
=== CODE BLOCK END ===

=== CODE BLOCK ADDRESS 0x3618 ===
  0x3618	je     	0x3655
  === BLOCK LINK ===
    0x361a
=== CODE BLOCK END ===

=== CODE BLOCK ADDRESS 0x361a ===
  0x361a	inc    	sp
  0x361c	mov    	dword ptr [eax], esi
  0x361e	dec    	esp
  0x361f	lea    	eax, [0x23bb]
  0x3625	dec    	esp
  === BLOCK LINK ===
    0x3626
=== CODE BLOCK END ===

=== CODE BLOCK ADDRESS 0x3626 ===
  0x3626	mov    	ecx, dword ptr [esp + 0x70]
  0x362a	dec    	eax
  0x362b	mov    	edx, esi
  0x362d	dec    	eax
  0x362e	mov    	ecx, eax
  === BLOCK LINK ===
    0x3630
=== CODE BLOCK END ===

=== CODE BLOCK ADDRESS 0x3630 ===
  0x3630	mov    	dword ptr [esp + 0x20], ebx
  0x3634	call   	0x1424
  === BLOCK LINK ===
    0x3639
=== CODE BLOCK END ===

=== CODE BLOCK ADDRESS 0x3639 ===
  0x3639	mov    	edx, 0xfffffff4
  0x363e	dec    	eax
  0x363f	mov    	ecx, edi
  0x3641	call   	0x3740
  === BLOCK LINK ===
    0x3646
=== CODE BLOCK END ===

=== CODE BLOCK ADDRESS 0x3646 ===
  0x3646	dec    	eax
  0x3647	mov    	ecx, edi
  0x3649	dec    	eax
  0x364a	call   	dword ptr [0x1be8]
  === BLOCK LINK ===
    0x3650
=== CODE BLOCK END ===

=== CODE BLOCK ADDRESS 0x3650 ===
  0x3650	nop    	dword ptr [eax + eax]
  0x3655	dec    	eax
  0x3656	mov    	ecx, dword ptr [esp + 0x70]
  0x365a	dec    	eax
  0x365b	call   	dword ptr [0x1bd7]
  === BLOCK LINK ===
    0x3661
=== CODE BLOCK END ===

=== CODE BLOCK ADDRESS 0x3661 ===
  0x3661	nop    	dword ptr [eax + eax]
  0x3666	jmp    	0x367b
  === BLOCK LINK ===
    0x3668
=== CODE BLOCK END ===

=== CODE BLOCK ADDRESS 0x3668 ===
  0x3668	inc    	esp
  0x3669	mov    	ecx, ebx
  0x366b	mov    	edx, 0xb
  0x3670	dec    	esp
  0x3671	mov    	eax, edi
  === BLOCK LINK ===
    0x3673
=== CODE BLOCK END ===

=== CODE BLOCK ADDRESS 0x3673 ===
  0x3673	dec    	eax
  0x3674	mov    	ecx, eax
  0x3676	call   	0x3244
  === BLOCK LINK ===
    0x367b
=== CODE BLOCK END ===

=== CODE BLOCK ADDRESS 0x367b ===
  0x367b	dec    	eax
  0x367c	mov    	ebx, dword ptr [esp + 0x60]
  0x3680	dec    	eax
  0x3681	mov    	ebp, dword ptr [esp + 0x68]
  0x3685	dec    	eax
  === BLOCK LINK ===
    0x3686
=== CODE BLOCK END ===

=== CODE BLOCK ADDRESS 0x3686 ===
  0x3686	add    	esp, 0x40
  0x3689	inc    	ecx
  0x368a	pop    	esi
  0x368b	pop    	edi
  0x368c	pop    	esi
  === BLOCK LINK ===
    0x368d
=== CODE BLOCK END ===

=== CODE BLOCK ADDRESS 0x368d ===
  0x368d	ret    	
  0x368e	int3   	
  0x368f	int3   	
  0x3690	int3   	
  0x3691	int3   	
  === BLOCK LINK ===
    0x3692
=== CODE BLOCK END ===

=== CODE BLOCK ADDRESS 0x3692 ===
  0x3692	int3   	
  0x3693	int3   	
  0x3694	int3   	
  0x3695	int3   	
  0x3696	int3   	
  === BLOCK LINK ===
    0x3697
=== CODE BLOCK END ===

=== CODE BLOCK ADDRESS 0x3697 ===
  0x3697	int3   	
  0x3698	dec    	eax
  0x3699	mov    	dword ptr [esp + 8], ebx
  0x369d	push   	edi
  0x369e	dec    	eax
  === BLOCK LINK ===
    0x369f
=== CODE BLOCK END ===

=== CODE BLOCK ADDRESS 0x369f ===
  0x369f	sub    	esp, 0x20
  0x36a2	mov    	edi, 0x104
  0x36a7	dec    	eax
  0x36a8	lea    	ebx, [0x51b2]
  0x36ae	inc    	esp
  === BLOCK LINK ===
    0x36af
=== CODE BLOCK END ===

=== CODE BLOCK ADDRESS 0x36af ===
  0x36af	mov    	eax, edi
  0x36b1	dec    	eax
  0x36b2	lea    	ecx, [0x2360]
  0x36b8	dec    	eax
  0x36b9	mov    	edx, ebx
  === BLOCK LINK ===
    0x36bb
=== CODE BLOCK END ===

=== CODE BLOCK ADDRESS 0x36bb ===
  0x36bb	dec    	eax
  0x36bc	call   	dword ptr [0x1bc6]
  === BLOCK LINK ===
    0x36c2
=== CODE BLOCK END ===

=== CODE BLOCK ADDRESS 0x36c2 ===
  0x36c2	nop    	dword ptr [eax + eax]
  0x36c7	inc    	ebp
  0x36c8	xor    	eax, eax
  0x36ca	mov    	edx, eax
  0x36cc	test   	eax, eax
  === BLOCK LINK ===
    0x36ce
=== CODE BLOCK END ===

=== CODE BLOCK ADDRESS 0x36ce ===
  0x36ce	jne    	0x372c
  === BLOCK LINK ===
    0x36d0
=== CODE BLOCK END ===

=== CODE BLOCK ADDRESS 0x36d0 ===
  0x36d0	dec    	eax
  0x36d1	lea    	ecx, [0x4f79]
  0x36d7	dec    	eax
  0x36d8	sub    	ecx, ebx
  0x36da	dec    	eax
  === BLOCK LINK ===
    0x36db
=== CODE BLOCK END ===

=== CODE BLOCK ADDRESS 0x36db ===
  0x36db	lea    	eax, [edi + 0x7ffffefa]
  0x36e1	dec    	eax
  0x36e2	test   	eax, eax
  0x36e4	je     	0x36fc
  === BLOCK LINK ===
    0x36e6
=== CODE BLOCK END ===

=== CODE BLOCK ADDRESS 0x36e6 ===
  0x36e6	movzx  	eax, word ptr [ecx + ebx]
  0x36ea	test   	ax, ax
  0x36ed	je     	0x36fc
  === BLOCK LINK ===
    0x36ef
=== CODE BLOCK END ===

=== CODE BLOCK ADDRESS 0x36ef ===
  0x36ef	mov    	word ptr [ebx], ax
  0x36f2	dec    	eax
  0x36f3	add    	ebx, 2
  0x36f6	dec    	eax
  0x36f7	sub    	edi, 1
  === BLOCK LINK ===
    0x36fa
=== CODE BLOCK END ===

=== CODE BLOCK ADDRESS 0x36fa ===
  0x36fa	jne    	0x36da
  === BLOCK LINK ===
    0x36fc
=== CODE BLOCK END ===

=== CODE BLOCK ADDRESS 0x36fc ===
  0x36fc	dec    	eax
  0x36fd	test   	edi, edi
  0x36ff	dec    	eax
  0x3700	lea    	eax, [ebx - 2]
  0x3703	dec    	eax
  === BLOCK LINK ===
    0x3704
=== CODE BLOCK END ===

=== CODE BLOCK ADDRESS 0x3704 ===
  0x3704	cmovne  	eax, ebx
  0x3707	dec    	eax
  0x3708	neg    	edi
  0x370a	sbb    	edx, edx
  0x370c	not    	edx
  === BLOCK LINK ===
    0x370e
=== CODE BLOCK END ===

=== CODE BLOCK ADDRESS 0x370e ===
  0x370e	and    	edx, 0x8007007a
  0x3714	inc    	sp
  0x3716	mov    	dword ptr [eax], eax
  0x3718	mov    	ecx, edx
  0x371a	movzx  	eax, dx
  === BLOCK LINK ===
    0x371d
=== CODE BLOCK END ===

=== CODE BLOCK ADDRESS 0x371d ===
  0x371d	and    	ecx, 0x1fff0000
  0x3723	cmp    	ecx, 0x70000
  0x3729	cmove  	edx, eax
  0x372c	dec    	eax
  0x372d	mov    	ebx, dword ptr [esp + 0x30]
  === BLOCK LINK ===
    0x3731
=== CODE BLOCK END ===

=== CODE BLOCK ADDRESS 0x3731 ===
  0x3731	mov    	eax, edx
  0x3733	dec    	eax
  0x3734	add    	esp, 0x20
  0x3737	pop    	edi
  0x3738	ret    	
  === BLOCK LINK ===
    0x3739
=== CODE BLOCK END ===

=== CODE BLOCK ADDRESS 0x3739 ===
  0x3739	int3   	
  0x373a	int3   	
  0x373b	int3   	
  0x373c	int3   	
  0x373d	int3   	
  === BLOCK LINK ===
    0x373e
=== CODE BLOCK END ===

=== CODE BLOCK ADDRESS 0x373e ===
  0x373e	int3   	
  0x373f	int3   	
  0x3740	dec    	eax
  0x3741	mov    	dword ptr [esp + 8], ebx
  0x3745	dec    	eax
  === BLOCK LINK ===
    0x3746
=== CODE BLOCK END ===

=== CODE BLOCK ADDRESS 0x3746 ===
  0x3746	mov    	dword ptr [esp + 0x10], ebp
  0x374a	push   	esi
  0x374b	push   	edi
  0x374c	inc    	ecx
  0x374d	push   	esi
  === BLOCK LINK ===
    0x374e
=== CODE BLOCK END ===

=== CODE BLOCK ADDRESS 0x374e ===
  0x374e	dec    	eax
  0x374f	sub    	esp, 0x40
  0x3752	dec    	eax
  0x3753	mov    	edi, ecx
  0x3755	mov    	ecx, edx
  === BLOCK LINK ===
    0x3757
=== CODE BLOCK END ===

=== CODE BLOCK ADDRESS 0x3757 ===
  0x3757	dec    	eax
  0x3758	call   	dword ptr [0x1b22]
  === BLOCK LINK ===
    0x375e
=== CODE BLOCK END ===

=== CODE BLOCK ADDRESS 0x375e ===
  0x375e	nop    	dword ptr [eax + eax]
  0x3763	inc    	ebp
  0x3764	xor    	esi, esi
  0x3766	dec    	eax
  0x3767	mov    	ebp, eax
  === BLOCK LINK ===
    0x3769
=== CODE BLOCK END ===

=== CODE BLOCK ADDRESS 0x3769 ===
  0x3769	dec    	eax
  0x376a	test   	eax, eax
  0x376c	je     	0x3885
  === BLOCK LINK ===
    0x3772
=== CODE BLOCK END ===

=== CODE BLOCK ADDRESS 0x3772 ===
  0x3772	dec    	eax
  0x3773	test   	edi, edi
  0x3775	je     	0x3885
  === BLOCK LINK ===
    0x377b
=== CODE BLOCK END ===

=== CODE BLOCK ADDRESS 0x377b ===
  0x377b	inc    	sp
  0x377d	cmp    	dword ptr [edi], esi
  0x377f	je     	0x3885
  === BLOCK LINK ===
    0x3785
=== CODE BLOCK END ===

=== CODE BLOCK ADDRESS 0x3785 ===
  0x3785	dec    	eax
  0x3786	mov    	ecx, edi
  0x3788	dec    	eax
  0x3789	call   	dword ptr [0x1bc1]
  === BLOCK LINK ===
    0x378f
=== CODE BLOCK END ===

=== CODE BLOCK ADDRESS 0x378f ===
  0x378f	nop    	dword ptr [eax + eax]
  0x3794	dec    	eax
  0x3795	mov    	ecx, ebp
  0x3797	inc    	esp
  0x3798	mov    	dword ptr [esp + 0x70], esi
  === BLOCK LINK ===
    0x379c
=== CODE BLOCK END ===

=== CODE BLOCK ADDRESS 0x379c ===
  0x379c	mov    	ebx, eax
  0x379e	inc    	esp
  0x379f	mov    	dword ptr [esp + 0x78], esi
  0x37a3	dec    	eax
  0x37a4	call   	dword ptr [0x1a56]
  === BLOCK LINK ===
    0x37aa
=== CODE BLOCK END ===

=== CODE BLOCK ADDRESS 0x37aa ===
  0x37aa	nop    	dword ptr [eax + eax]
  0x37af	cmp    	eax, 2
  0x37b2	jne    	0x37f0
  === BLOCK LINK ===
    0x37b4
=== CODE BLOCK END ===

=== CODE BLOCK ADDRESS 0x37b4 ===
  0x37b4	dec    	eax
  0x37b5	lea    	edx, [esp + 0x78]
  0x37b9	dec    	eax
  0x37ba	mov    	ecx, ebp
  0x37bc	dec    	eax
  === BLOCK LINK ===
    0x37bd
=== CODE BLOCK END ===

=== CODE BLOCK ADDRESS 0x37bd ===
  0x37bd	call   	dword ptr [0x19dd]
  === BLOCK LINK ===
    0x37c3
=== CODE BLOCK END ===

=== CODE BLOCK ADDRESS 0x37c3 ===
  0x37c3	nop    	dword ptr [eax + eax]
  0x37c8	test   	eax, eax
  0x37ca	je     	0x37f0
  === BLOCK LINK ===
    0x37cc
=== CODE BLOCK END ===

=== CODE BLOCK ADDRESS 0x37cc ===
  0x37cc	dec    	esp
  0x37cd	lea    	ecx, [esp + 0x70]
  0x37d1	dec    	esp
  0x37d2	mov    	dword ptr [esp + 0x20], esi
  0x37d6	inc    	esp
  === BLOCK LINK ===
    0x37d7
=== CODE BLOCK END ===

=== CODE BLOCK ADDRESS 0x37d7 ===
  0x37d7	mov    	eax, ebx
  0x37d9	dec    	eax
  0x37da	mov    	edx, edi
  0x37dc	dec    	eax
  0x37dd	mov    	ecx, ebp
  === BLOCK LINK ===
    0x37df
=== CODE BLOCK END ===

=== CODE BLOCK ADDRESS 0x37df ===
  0x37df	dec    	eax
  0x37e0	call   	dword ptr [0x19b2]
  === BLOCK LINK ===
    0x37e6
=== CODE BLOCK END ===

=== CODE BLOCK ADDRESS 0x37e6 ===
  0x37e6	nop    	dword ptr [eax + eax]
  0x37eb	jmp    	0x3885
  === BLOCK LINK ===
    0x37f0
=== CODE BLOCK END ===

=== CODE BLOCK ADDRESS 0x37f0 ===
  0x37f0	lea    	edx, [ebx + 1]
  0x37f3	xor    	ecx, ecx
  0x37f5	dec    	eax
  0x37f6	add    	edx, edx
  0x37f8	dec    	eax
  === BLOCK LINK ===
    0x37f9
=== CODE BLOCK END ===

=== CODE BLOCK ADDRESS 0x37f9 ===
  0x37f9	call   	dword ptr [0x1a41]
  === BLOCK LINK ===
    0x37ff
=== CODE BLOCK END ===

=== CODE BLOCK ADDRESS 0x37ff ===
  0x37ff	nop    	dword ptr [eax + eax]
  0x3804	dec    	eax
  0x3805	mov    	esi, eax
  0x3807	dec    	eax
  0x3808	test   	eax, eax
  === BLOCK LINK ===
    0x380a
=== CODE BLOCK END ===

=== CODE BLOCK ADDRESS 0x380a ===
  0x380a	je     	0x3885
  === BLOCK LINK ===
    0x380c
=== CODE BLOCK END ===

=== CODE BLOCK ADDRESS 0x380c ===
  0x380c	add    	ebx, ebx
  0x380e	dec    	eax
  0x380f	call   	dword ptr [0x1993]
  === BLOCK LINK ===
    0x3815
=== CODE BLOCK END ===

=== CODE BLOCK ADDRESS 0x3815 ===
  0x3815	nop    	dword ptr [eax + eax]
  0x381a	dec    	esp
  0x381b	mov    	dword ptr [esp + 0x38], esi
  0x381f	inc    	ecx
  0x3820	or     	ecx, 0xffffffff
  === BLOCK LINK ===
    0x3823
=== CODE BLOCK END ===

=== CODE BLOCK ADDRESS 0x3823 ===
  0x3823	dec    	esp
  0x3824	mov    	dword ptr [esp + 0x30], esi
  0x3828	mov    	ecx, eax
  0x382a	mov    	dword ptr [esp + 0x28], ebx
  0x382e	dec    	esp
  === BLOCK LINK ===
    0x382f
=== CODE BLOCK END ===

=== CODE BLOCK ADDRESS 0x382f ===
  0x382f	mov    	eax, edi
  0x3831	xor    	edx, edx
  0x3833	dec    	eax
  0x3834	mov    	dword ptr [esp + 0x20], esi
  0x3838	dec    	eax
  === BLOCK LINK ===
    0x3839
=== CODE BLOCK END ===

=== CODE BLOCK ADDRESS 0x3839 ===
  0x3839	call   	dword ptr [0x1af9]
  === BLOCK LINK ===
    0x383f
=== CODE BLOCK END ===

=== CODE BLOCK ADDRESS 0x383f ===
  0x383f	nop    	dword ptr [eax + eax]
  0x3844	test   	eax, eax
  0x3846	je     	0x3876
  === BLOCK LINK ===
    0x3848
=== CODE BLOCK END ===

=== CODE BLOCK ADDRESS 0x3848 ===
  0x3848	dec    	eax
  0x3849	mov    	ecx, esi
  0x384b	dec    	eax
  0x384c	call   	dword ptr [0x1af6]
  === BLOCK LINK ===
    0x3852
=== CODE BLOCK END ===

=== CODE BLOCK ADDRESS 0x3852 ===
  0x3852	nop    	dword ptr [eax + eax]
  0x3857	dec    	esp
  0x3858	lea    	ecx, [esp + 0x70]
  0x385c	dec    	esp
  0x385d	mov    	dword ptr [esp + 0x20], esi
  === BLOCK LINK ===
    0x3861
=== CODE BLOCK END ===

=== CODE BLOCK ADDRESS 0x3861 ===
  0x3861	inc    	esp
  0x3862	mov    	eax, eax
  0x3864	dec    	eax
  0x3865	mov    	edx, esi
  0x3867	dec    	eax
  === BLOCK LINK ===
    0x3868
=== CODE BLOCK END ===

=== CODE BLOCK ADDRESS 0x3868 ===
  0x3868	mov    	ecx, ebp
  0x386a	dec    	eax
  0x386b	call   	dword ptr [0x1987]
  === BLOCK LINK ===
    0x3871
=== CODE BLOCK END ===

=== CODE BLOCK ADDRESS 0x3871 ===
  0x3871	nop    	dword ptr [eax + eax]
  0x3876	dec    	eax
  0x3877	mov    	ecx, esi
  0x3879	dec    	eax
  0x387a	call   	dword ptr [0x19b8]
  === BLOCK LINK ===
    0x3880
=== CODE BLOCK END ===

=== CODE BLOCK ADDRESS 0x3880 ===
  0x3880	nop    	dword ptr [eax + eax]
  0x3885	dec    	eax
  0x3886	mov    	ebx, dword ptr [esp + 0x60]
  0x388a	dec    	eax
  0x388b	mov    	ebp, dword ptr [esp + 0x68]
  === BLOCK LINK ===
    0x388f
=== CODE BLOCK END ===

=== CODE BLOCK ADDRESS 0x388f ===
  0x388f	dec    	eax
  0x3890	add    	esp, 0x40
  0x3893	inc    	ecx
  0x3894	pop    	esi
  0x3895	pop    	edi
  === BLOCK LINK ===
    0x3896
=== CODE BLOCK END ===

=== CODE BLOCK ADDRESS 0x3896 ===
  0x3896	pop    	esi
  0x3897	ret    	
  0x3898	int3   	
  0x3899	int3   	
  0x389a	int3   	
  === BLOCK LINK ===
    0x389b
=== CODE BLOCK END ===

=== CODE BLOCK ADDRESS 0x13da ===
  0x13da	dec    	eax
  0x13db	lea    	eax, [ebp - 0x39]
  === BLOCK LINK ===
    0x13de
=== CODE BLOCK END ===

=== CODE BLOCK ADDRESS 0x389b ===
  0x389b	int3   	
  0x389c	int3   	
  0x389d	int3   	
  0x389e	int3   	
  0x389f	int3   	
  === BLOCK LINK ===
    0x38a0
=== CODE BLOCK END ===

=== CODE BLOCK ADDRESS 0x38a0 ===
  0x38a0	dec    	eax
  0x38a1	sub    	esp, 0x38
  0x38a4	mov    	eax, dword ptr [0x2186]
  0x38aa	dec    	esp
  0x38ab	mov    	ecx, dword ptr [0x1907]
  === BLOCK LINK ===
    0x38b1
=== CODE BLOCK END ===

=== CODE BLOCK ADDRESS 0x38b1 ===
  0x38b1	dec    	esp
  0x38b2	mov    	eax, dword ptr [0x2180]
  0x38b8	mov    	dword ptr [esp + 0x28], eax
  0x38bc	dec    	eax
  0x38bd	mov    	dword ptr [esp + 0x20], edx
  === BLOCK LINK ===
    0x38c1
=== CODE BLOCK END ===

=== CODE BLOCK ADDRESS 0x38c1 ===
  0x38c1	dec    	eax
  0x38c2	mov    	edx, ecx
  0x38c4	dec    	eax
  0x38c5	lea    	ecx, [0xffffc735]
  0x38cb	dec    	eax
  === BLOCK LINK ===
    0x38cc
=== CODE BLOCK END ===

=== CODE BLOCK ADDRESS 0x38cc ===
  0x38cc	call   	dword ptr [0x18f6]
  === BLOCK LINK ===
    0x38d2
=== CODE BLOCK END ===

=== CODE BLOCK ADDRESS 0x38d2 ===
  0x38d2	nop    	dword ptr [eax + eax]
  0x38d7	dec    	eax
  0x38d8	add    	esp, 0x38
  0x38db	ret    	
  0x38dc	int3   	
  === BLOCK LINK ===
    0x38dd
=== CODE BLOCK END ===

=== CODE BLOCK ADDRESS 0x38dd ===
  0x38dd	int3   	
  0x38de	int3   	
  0x38df	int3   	
  0x38e0	int3   	
  0x38e1	int3   	
  === BLOCK LINK ===
    0x38e2
=== CODE BLOCK END ===

=== CODE BLOCK ADDRESS 0x38e2 ===
  0x38e2	int3   	
  0x38e3	int3   	
  0x38e4	int3   	
  0x38e5	int3   	
  0x38e6	int3   	
  === BLOCK LINK ===
    0x38e7
=== CODE BLOCK END ===

=== CODE BLOCK ADDRESS 0x38e7 ===
  0x38e7	int3   	
  0x38e8	int3   	
  0x38e9	int3   	
  0x38ea	int3   	
  0x38eb	int3   	
  === BLOCK LINK ===
    0x38ec
=== CODE BLOCK END ===

=== CODE BLOCK ADDRESS 0x38ec ===
  0x38ec	int3   	
  0x38ed	int3   	
  0x38ee	int3   	
  0x38ef	int3   	
  0x38f0	dec    	eax
  === BLOCK LINK ===
    0x38f1
=== CODE BLOCK END ===

=== CODE BLOCK ADDRESS 0x38f1 ===
  0x38f1	sub    	esp, 0x28
  0x38f4	mov    	eax, 0x5a4d
  0x38f9	cmp    	word ptr [0xffffc700], ax
  0x3900	je     	0x3906
  === BLOCK LINK ===
    0x3902
=== CODE BLOCK END ===

=== CODE BLOCK ADDRESS 0x3902 ===
  0x3902	xor    	eax, eax
  0x3904	jmp    	0x3959
  === BLOCK LINK ===
    0x3906
=== CODE BLOCK END ===

=== CODE BLOCK ADDRESS 0x3906 ===
  0x3906	dec    	eax
  0x3907	arpl   	word ptr [0xffffc72f], cx
  0x390d	dec    	eax
  0x390e	lea    	eax, [0xffffc6ec]
  0x3914	dec    	eax
  === BLOCK LINK ===
    0x3915
=== CODE BLOCK END ===

=== CODE BLOCK ADDRESS 0x3915 ===
  0x3915	add    	ecx, eax
  0x3917	cmp    	dword ptr [ecx], 0x4550
  0x391d	jne    	0x3902
  === BLOCK LINK ===
    0x391f
=== CODE BLOCK END ===

=== CODE BLOCK ADDRESS 0x391f ===
  0x391f	mov    	eax, 0x10b
  0x3924	cmp    	word ptr [ecx + 0x18], ax
  0x3928	je     	0x3948
  === BLOCK LINK ===
    0x392a
=== CODE BLOCK END ===

=== CODE BLOCK ADDRESS 0x392a ===
  0x392a	mov    	eax, 0x20b
  0x392f	cmp    	word ptr [ecx + 0x18], ax
  0x3933	jne    	0x3902
  === BLOCK LINK ===
    0x3935
=== CODE BLOCK END ===

=== CODE BLOCK ADDRESS 0x3935 ===
  0x3935	xor    	eax, eax
  0x3937	cmp    	dword ptr [ecx + 0x84], 0xe
  0x393e	jbe    	0x3959
  === BLOCK LINK ===
    0x3940
=== CODE BLOCK END ===

=== CODE BLOCK ADDRESS 0x3940 ===
  0x3940	cmp    	dword ptr [ecx + 0xf8], eax
  0x3946	jmp    	0x3956
  === BLOCK LINK ===
    0x3948
=== CODE BLOCK END ===

=== CODE BLOCK ADDRESS 0x3948 ===
  0x3948	xor    	eax, eax
  0x394a	cmp    	dword ptr [ecx + 0x74], 0xe
  0x394e	jbe    	0x3959
  === BLOCK LINK ===
    0x3950
=== CODE BLOCK END ===

=== CODE BLOCK ADDRESS 0x3950 ===
  0x3950	cmp    	dword ptr [ecx + 0xe8], eax
  0x3956	setne  	al
  0x3959	mov    	ecx, 1
  0x395e	mov    	dword ptr [0x471c], eax
  0x3964	call   	0x3d18
  === BLOCK LINK ===
    0x3969
=== CODE BLOCK END ===

=== CODE BLOCK ADDRESS 0x3969 ===
  0x3969	mov    	ecx, eax
  0x396b	call   	dword ptr [0x1a5f]
  === BLOCK LINK ===
    0x3971
=== CODE BLOCK END ===

=== CODE BLOCK ADDRESS 0x3971 ===
  0x3971	dec    	eax
  0x3972	mov    	ecx, dword ptr [0x1a78]
  0x3978	dec    	eax
  0x3979	or     	eax, 0xffffffff
  0x397c	dec    	eax
  === BLOCK LINK ===
    0x397d
=== CODE BLOCK END ===

=== CODE BLOCK ADDRESS 0x397d ===
  0x397d	mov    	dword ptr [0x50e5], eax
  0x3983	dec    	eax
  0x3984	mov    	dword ptr [0x50e6], eax
  0x398a	mov    	eax, dword ptr [0x4704]
  0x3990	mov    	dword ptr [ecx], eax
  === BLOCK LINK ===
    0x3992
=== CODE BLOCK END ===

=== CODE BLOCK ADDRESS 0x3992 ===
  0x3992	dec    	eax
  0x3993	mov    	ecx, dword ptr [0x1a4f]
  0x3999	mov    	eax, dword ptr [0x46e9]
  0x399f	mov    	dword ptr [ecx], eax
  0x39a1	call   	0x3d70
  === BLOCK LINK ===
    0x39a6
=== CODE BLOCK END ===

=== CODE BLOCK ADDRESS 0x39a6 ===
  0x39a6	cmp    	dword ptr [0x4693], 0
  0x39ad	jne    	0x39bc
  === BLOCK LINK ===
    0x39af
=== CODE BLOCK END ===

=== CODE BLOCK ADDRESS 0x39af ===
  0x39af	dec    	eax
  0x39b0	lea    	ecx, [0x3ba]
  0x39b6	call   	dword ptr [0x1a4c]
  === BLOCK LINK ===
    0x39bc
=== CODE BLOCK END ===

=== CODE BLOCK ADDRESS 0x39bc ===
  0x39bc	xor    	eax, eax
  0x39be	dec    	eax
  0x39bf	add    	esp, 0x28
  0x39c2	ret    	
  0x39c3	int3   	
  === BLOCK LINK ===
    0x39c4
=== CODE BLOCK END ===

=== CODE BLOCK ADDRESS 0x39c4 ===
  0x39c4	int3   	
  0x39c5	int3   	
  0x39c6	int3   	
  0x39c7	int3   	
  0x39c8	int3   	
  === BLOCK LINK ===
    0x39c9
=== CODE BLOCK END ===

=== CODE BLOCK ADDRESS 0x39c9 ===
  0x39c9	int3   	
  0x39ca	int3   	
  0x39cb	int3   	
  0x39cc	int3   	
  0x39cd	int3   	
  === BLOCK LINK ===
    0x39ce
=== CODE BLOCK END ===

=== CODE BLOCK ADDRESS 0x39ce ===
  0x39ce	int3   	
  0x39cf	int3   	
  0x39d0	dec    	eax
  0x39d1	sub    	esp, 0x38
  0x39d4	mov    	eax, dword ptr [0x46b6]
  === BLOCK LINK ===
    0x39da
=== CODE BLOCK END ===

=== CODE BLOCK ADDRESS 0x39da ===
  0x39da	dec    	esp
  0x39db	lea    	eax, [0x4697]
  0x39e1	inc    	esp
  0x39e2	mov    	ecx, dword ptr [0x46a4]
  0x39e8	dec    	eax
  === BLOCK LINK ===
    0x39e9
=== CODE BLOCK END ===

=== CODE BLOCK ADDRESS 0x39e9 ===
  0x39e9	lea    	edx, [0x4681]
  0x39ef	mov    	dword ptr [0x468f], eax
  0x39f5	dec    	eax
  0x39f6	lea    	ecx, [0x466c]
  0x39fc	dec    	eax
  === BLOCK LINK ===
    0x39fd
=== CODE BLOCK END ===

=== CODE BLOCK ADDRESS 0x39fd ===
  0x39fd	lea    	eax, [0x4681]
  0x3a03	dec    	eax
  0x3a04	mov    	dword ptr [esp + 0x20], eax
  0x3a08	call   	dword ptr [0x19ba]
  === BLOCK LINK ===
    0x3a0e
=== CODE BLOCK END ===

=== CODE BLOCK ADDRESS 0x3a0e ===
  0x3a0e	mov    	dword ptr [0x4658], eax
  0x3a14	dec    	eax
  0x3a15	add    	esp, 0x38
  0x3a18	ret    	
  0x3a19	int3   	
  === BLOCK LINK ===
    0x3a1a
=== CODE BLOCK END ===

=== CODE BLOCK ADDRESS 0x3a1a ===
  0x3a1a	int3   	
  0x3a1b	int3   	
  0x3a1c	int3   	
  0x3a1d	int3   	
  0x3a1e	int3   	
  === BLOCK LINK ===
    0x3a1f
=== CODE BLOCK END ===

=== CODE BLOCK ADDRESS 0x3a1f ===
  0x3a1f	int3   	
  0x3a20	dec    	eax
  0x3a21	mov    	dword ptr [esp + 8], ebx
  0x3a25	dec    	eax
  0x3a26	mov    	dword ptr [esp + 0x10], esi
  === BLOCK LINK ===
    0x3a2a
=== CODE BLOCK END ===

=== CODE BLOCK ADDRESS 0x3a2a ===
  0x3a2a	dec    	eax
  0x3a2b	mov    	dword ptr [esp + 0x18], edi
  0x3a2f	inc    	ecx
  0x3a30	push   	edi
  0x3a31	dec    	eax
  === BLOCK LINK ===
    0x3a32
=== CODE BLOCK END ===

=== CODE BLOCK ADDRESS 0x3a32 ===
  0x3a32	sub    	esp, 0x30
  0x3a35	dec    	eax
  0x3a37	mov    	eax, dword ptr [0x30]
  0x3a3e	dec    	eax
  0x3a3f	mov    	ebx, dword ptr [eax + 8]
  === BLOCK LINK ===
    0x3a42
=== CODE BLOCK END ===

=== CODE BLOCK ADDRESS 0x3a42 ===
  0x3a42	xor    	esi, esi
  0x3a44	xor    	eax, eax
  0x3a46	.byte  	0xf0
  0x3a47	dec    	eax
  0x3a48	cmpxchg  	dword ptr [0x5029], ebx
  === BLOCK LINK ===
    0x3a4f
=== CODE BLOCK END ===

=== CODE BLOCK ADDRESS 0x3a4f ===
  0x3a4f	je     	0x3a6c
  === BLOCK LINK ===
    0x3a51
=== CODE BLOCK END ===

=== CODE BLOCK ADDRESS 0x3a51 ===
  0x3a51	dec    	eax
  0x3a52	cmp    	eax, ebx
  0x3a54	jne    	0x3a5f
  === BLOCK LINK ===
    0x3a56
=== CODE BLOCK END ===

=== CODE BLOCK ADDRESS 0x3a56 ===
  0x3a56	mov    	ebx, 1
  0x3a5b	mov    	esi, ebx
  0x3a5d	jmp    	0x3a71
  === BLOCK LINK ===
    0x3a5f
=== CODE BLOCK END ===

=== CODE BLOCK ADDRESS 0x3a5f ===
  0x3a5f	mov    	ecx, 0x3e8
  0x3a64	call   	dword ptr [0x18f6]
  === BLOCK LINK ===
    0x3a6a
=== CODE BLOCK END ===

=== CODE BLOCK ADDRESS 0x3a6a ===
  0x3a6a	jmp    	0x3a44
  === BLOCK LINK ===
    0x3a6c
=== CODE BLOCK END ===

=== CODE BLOCK ADDRESS 0x3a6c ===
  0x3a6c	mov    	ebx, 1
  0x3a71	mov    	eax, dword ptr [0x5009]
  0x3a77	cmp    	eax, ebx
  0x3a79	jne    	0x3a87
  === BLOCK LINK ===
    0x3a7b
=== CODE BLOCK END ===

=== CODE BLOCK ADDRESS 0x3a7b ===
  0x3a7b	mov    	ecx, 0x1f
  0x3a80	call   	0x3d63
  === BLOCK LINK ===
    0x3a85
=== CODE BLOCK END ===

=== CODE BLOCK ADDRESS 0x3a85 ===
  0x3a85	jmp    	0x3aec
  === BLOCK LINK ===
    0x3a87
=== CODE BLOCK END ===

=== CODE BLOCK ADDRESS 0x3a87 ===
  0x3a87	mov    	eax, dword ptr [0x4ff3]
  0x3a8d	test   	eax, eax
  0x3a8f	jne    	0x3ae6
  === BLOCK LINK ===
    0x3a91
=== CODE BLOCK END ===

=== CODE BLOCK ADDRESS 0x3a91 ===
  0x3a91	mov    	dword ptr [0x4fe9], ebx
  0x3a97	dec    	esp
  0x3a98	lea    	edi, [0x19fa]
  0x3a9e	dec    	eax
  0x3a9f	lea    	edi, [0x19db]
  === BLOCK LINK ===
    0x3aa5
=== CODE BLOCK END ===

=== CODE BLOCK ADDRESS 0x3aa5 ===
  0x3aa5	dec    	eax
  0x3aa6	mov    	dword ptr [esp + 0x28], edi
  0x3aaa	mov    	dword ptr [esp + 0x20], eax
  0x3aae	dec    	ecx
  0x3aaf	cmp    	edi, edi
  === BLOCK LINK ===
    0x3ab1
=== CODE BLOCK END ===

=== CODE BLOCK ADDRESS 0x3ab1 ===
  0x3ab1	jae    	0x3ad8
  === BLOCK LINK ===
    0x3ab3
=== CODE BLOCK END ===

=== CODE BLOCK ADDRESS 0x3ab3 ===
  0x3ab3	test   	eax, eax
  0x3ab5	jne    	0x3adc
  === BLOCK LINK ===
    0x3ab7
=== CODE BLOCK END ===

=== CODE BLOCK ADDRESS 0x3ab7 ===
  0x3ab7	dec    	eax
  0x3ab8	cmp    	dword ptr [edi], 0
  0x3abb	je     	0x3acd
  === BLOCK LINK ===
    0x3abd
=== CODE BLOCK END ===

=== CODE BLOCK ADDRESS 0x3abd ===
  0x3abd	dec    	eax
  0x3abe	mov    	eax, dword ptr [edi]
  0x3ac0	dec    	eax
  0x3ac1	mov    	ecx, dword ptr [0x1999]
  0x3ac7	call   	ecx
  === BLOCK LINK ===
    0x3ac9
=== CODE BLOCK END ===

=== CODE BLOCK ADDRESS 0x3ac9 ===
  0x3ac9	mov    	dword ptr [esp + 0x20], eax
  0x3acd	dec    	eax
  0x3ace	add    	edi, 8
  0x3ad1	dec    	eax
  0x3ad2	mov    	dword ptr [esp + 0x28], edi
  === BLOCK LINK ===
    0x3ad6
=== CODE BLOCK END ===

=== CODE BLOCK ADDRESS 0x3ad6 ===
  0x3ad6	jmp    	0x3aae
  === BLOCK LINK ===
    0x3ad8
=== CODE BLOCK END ===

=== CODE BLOCK ADDRESS 0x3ad8 ===
  0x3ad8	test   	eax, eax
  0x3ada	je     	0x3aec
  === BLOCK LINK ===
    0x3adc
=== CODE BLOCK END ===

=== CODE BLOCK ADDRESS 0x3adc ===
  0x3adc	mov    	eax, 0xff
  0x3ae1	jmp    	0x3bc8
  === BLOCK LINK ===
    0x3ae6
=== CODE BLOCK END ===

=== CODE BLOCK ADDRESS 0x3ae6 ===
  0x3ae6	mov    	dword ptr [0x4578], ebx
  0x3aec	mov    	eax, dword ptr [0x4f8e]
  0x3af2	cmp    	eax, ebx
  0x3af4	jne    	0x3b13
  === BLOCK LINK ===
    0x3af6
=== CODE BLOCK END ===

=== CODE BLOCK ADDRESS 0x3af6 ===
  0x3af6	dec    	eax
  0x3af7	lea    	edx, [0x197b]
  0x3afd	dec    	eax
  0x3afe	lea    	ecx, [0x1964]
  0x3b04	call   	0x3f3e
  === BLOCK LINK ===
    0x3b09
=== CODE BLOCK END ===

=== CODE BLOCK ADDRESS 0x3b09 ===
  0x3b09	mov    	dword ptr [0x4f6d], 2
  0x3b13	test   	esi, esi
  0x3b15	jne    	0x3b20
  === BLOCK LINK ===
    0x3b17
=== CODE BLOCK END ===

=== CODE BLOCK ADDRESS 0x3b17 ===
  0x3b17	xor    	eax, eax
  0x3b19	dec    	eax
  0x3b1a	xchg   	dword ptr [0x4f58], eax
  0x3b20	dec    	eax
  0x3b21	cmp    	dword ptr [0x4f60], 0
  === BLOCK LINK ===
    0x3b28
=== CODE BLOCK END ===

=== CODE BLOCK ADDRESS 0x3b28 ===
  0x3b28	je     	0x3b54
  === BLOCK LINK ===
    0x3b2a
=== CODE BLOCK END ===

=== CODE BLOCK ADDRESS 0x3b2a ===
  0x3b2a	dec    	eax
  0x3b2b	lea    	ecx, [0x4f57]
  0x3b31	call   	0x3dd0
  === BLOCK LINK ===
    0x3b36
=== CODE BLOCK END ===

=== CODE BLOCK ADDRESS 0x3b36 ===
  0x3b36	test   	eax, eax
  0x3b38	je     	0x3b54
  === BLOCK LINK ===
    0x3b3a
=== CODE BLOCK END ===

=== CODE BLOCK ADDRESS 0x3b3a ===
  0x3b3a	inc    	ebp
  0x3b3b	xor    	eax, eax
  0x3b3d	inc    	ecx
  0x3b3e	lea    	edx, [eax + 2]
  0x3b41	xor    	ecx, ecx
  === BLOCK LINK ===
    0x3b43
=== CODE BLOCK END ===

=== CODE BLOCK ADDRESS 0x3b43 ===
  0x3b43	dec    	eax
  0x3b44	mov    	eax, dword ptr [0x4f3e]
  0x3b4a	dec    	esp
  0x3b4b	mov    	ecx, dword ptr [0x190f]
  0x3b51	inc    	ecx
  === BLOCK LINK ===
    0x3b52
=== CODE BLOCK END ===

=== CODE BLOCK ADDRESS 0x3b52 ===
  0x3b52	call   	ecx
  === BLOCK LINK ===
    0x3b54
=== CODE BLOCK END ===

=== CODE BLOCK ADDRESS 0x3b54 ===
  0x3b54	dec    	esp
  0x3b55	mov    	eax, dword ptr [0x451d]
  0x3b5b	dec    	eax
  0x3b5c	mov    	edx, dword ptr [0x450e]
  0x3b62	mov    	ecx, dword ptr [0x4500]
  === BLOCK LINK ===
    0x3b68
=== CODE BLOCK END ===

=== CODE BLOCK ADDRESS 0x3b68 ===
  0x3b68	call   	0x2224
  === BLOCK LINK ===
    0x3b6d
=== CODE BLOCK END ===

=== CODE BLOCK ADDRESS 0x3b6d ===
  0x3b6d	mov    	dword ptr [0x44ed], eax
  0x3b73	cmp    	dword ptr [0x4506], 0
  0x3b7a	jne    	0x3b84
  === BLOCK LINK ===
    0x3b7c
=== CODE BLOCK END ===

=== CODE BLOCK ADDRESS 0x3b7c ===
  0x3b7c	mov    	ecx, eax
  0x3b7e	call   	dword ptr [0x1854]
  === BLOCK LINK ===
    0x3b84
=== CODE BLOCK END ===

=== CODE BLOCK ADDRESS 0x3b84 ===
  0x3b84	cmp    	dword ptr [0x44d9], 0
  0x3b8b	jne    	0x3b99
  === BLOCK LINK ===
    0x3b8d
=== CODE BLOCK END ===

=== CODE BLOCK ADDRESS 0x3b8d ===
  0x3b8d	call   	dword ptr [0x187d]
  === BLOCK LINK ===
    0x3b93
=== CODE BLOCK END ===

=== CODE BLOCK ADDRESS 0x3b93 ===
  0x3b93	mov    	eax, dword ptr [0x44c7]
  0x3b99	jmp    	0x3bc8
  === BLOCK LINK ===
    0x3b9b
=== CODE BLOCK END ===

=== CODE BLOCK ADDRESS 0x3b9b ===
  0x3b9b	mov    	dword ptr [0x44bf], eax
  0x3ba1	cmp    	dword ptr [0x44d8], 0
  0x3ba8	jne    	0x3bb3
  === BLOCK LINK ===
    0x3baa
=== CODE BLOCK END ===

=== CODE BLOCK ADDRESS 0x3baa ===
  0x3baa	mov    	ecx, eax
  0x3bac	call   	dword ptr [0x1866]
  === BLOCK LINK ===
    0x3bb2
=== CODE BLOCK END ===

=== CODE BLOCK ADDRESS 0x3bb2 ===
  0x3bb2	int3   	
  0x3bb3	cmp    	dword ptr [0x44aa], 0
  0x3bba	jne    	0x3bc8
  === BLOCK LINK ===
    0x3bbc
=== CODE BLOCK END ===

=== CODE BLOCK ADDRESS 0x3bbc ===
  0x3bbc	call   	dword ptr [0x184e]
  === BLOCK LINK ===
    0x3bc2
=== CODE BLOCK END ===

=== CODE BLOCK ADDRESS 0x3bc2 ===
  0x3bc2	mov    	eax, dword ptr [0x4498]
  0x3bc8	dec    	eax
  0x3bc9	mov    	ebx, dword ptr [esp + 0x40]
  0x3bcd	dec    	eax
  0x3bce	mov    	esi, dword ptr [esp + 0x48]
  === BLOCK LINK ===
    0x3bd2
=== CODE BLOCK END ===

=== CODE BLOCK ADDRESS 0x3bd2 ===
  0x3bd2	dec    	eax
  0x3bd3	mov    	edi, dword ptr [esp + 0x50]
  0x3bd7	dec    	eax
  0x3bd8	add    	esp, 0x30
  0x3bdb	inc    	ecx
  === BLOCK LINK ===
    0x3bdc
=== CODE BLOCK END ===

=== CODE BLOCK ADDRESS 0x3bdc ===
  0x3bdc	pop    	edi
  0x3bdd	ret    	
  0x3bde	int3   	
  0x3bdf	int3   	
  0x3be0	int3   	
  === BLOCK LINK ===
    0x3be1
=== CODE BLOCK END ===

=== CODE BLOCK ADDRESS 0x3be1 ===
  0x3be1	int3   	
  0x3be2	int3   	
  0x3be3	int3   	
  0x3be4	int3   	
  0x3be5	int3   	
  === BLOCK LINK ===
    0x3be6
=== CODE BLOCK END ===

=== CODE BLOCK ADDRESS 0x3be6 ===
  0x3be6	int3   	
  0x3be7	int3   	
  0x3be8	int3   	
  0x3be9	int3   	
  0x3bea	int3   	
  === BLOCK LINK ===
    0x3beb
=== CODE BLOCK END ===

=== CODE BLOCK ADDRESS 0x3beb ===
  0x3beb	int3   	
  0x3bec	int3   	
  0x3bed	int3   	
  0x3bee	int3   	
  0x3bef	int3   	
  === BLOCK LINK ===
    0x3bf0
=== CODE BLOCK END ===

=== CODE BLOCK ADDRESS 0x3bf0 ===
  0x3bf0	dec    	eax
  0x3bf1	sub    	esp, 0x28
  0x3bf4	call   	0x3e64
  === BLOCK LINK ===
    0x3bf9
=== CODE BLOCK END ===

=== CODE BLOCK ADDRESS 0x3bf9 ===
  0x3bf9	dec    	eax
  0x3bfa	add    	esp, 0x28
  0x3bfd	jmp    	0x3a20
  === BLOCK LINK ===
    0x3c02
=== CODE BLOCK END ===

=== CODE BLOCK ADDRESS 0x3c02 ===
  0x3c02	int3   	
  0x3c03	int3   	
  0x3c04	int3   	
  0x3c05	int3   	
  0x3c06	int3   	
  === BLOCK LINK ===
    0x3c07
=== CODE BLOCK END ===

=== CODE BLOCK ADDRESS 0x3c07 ===
  0x3c07	int3   	
  0x3c08	int3   	
  0x3c09	int3   	
  0x3c0a	int3   	
  0x3c0b	int3   	
  === BLOCK LINK ===
    0x3c0c
=== CODE BLOCK END ===

=== CODE BLOCK ADDRESS 0x3c0c ===
  0x3c0c	int3   	
  0x3c0d	int3   	
  0x3c0e	int3   	
  0x3c0f	int3   	
  0x3c10	int3   	
  === BLOCK LINK ===
    0x3c11
=== CODE BLOCK END ===

=== CODE BLOCK ADDRESS 0x3c11 ===
  0x3c11	int3   	
  0x3c12	int3   	
  0x3c13	int3   	
  0x3c14	int3   	
  0x3c15	int3   	
  === BLOCK LINK ===
    0x3c16
=== CODE BLOCK END ===

=== CODE BLOCK ADDRESS 0x3c16 ===
  0x3c16	nop    	word ptr [eax + eax]
  0x3c20	dec    	eax
  0x3c21	cmp    	ecx, dword ptr [0x4421]
  0x3c27	jne    	0x3c39
  === BLOCK LINK ===
    0x3c29
=== CODE BLOCK END ===

=== CODE BLOCK ADDRESS 0x3c29 ===
  0x3c29	dec    	eax
  0x3c2a	rol    	ecx, 0x10
  0x3c2d	test   	cx, 0xffff
  0x3c32	jne    	0x3c35
  === BLOCK LINK ===
    0x3c34
=== CODE BLOCK END ===

=== CODE BLOCK ADDRESS 0x3c34 ===
  0x3c34	ret    	
  0x3c35	dec    	eax
  0x3c36	ror    	ecx, 0x10
  0x3c39	jmp    	0x3fb0
  === BLOCK LINK ===
    0x3c3e
=== CODE BLOCK END ===

=== CODE BLOCK ADDRESS 0x3c3e ===
  0x3c3e	int3   	
  0x3c3f	int3   	
  0x3c40	int3   	
  0x3c41	int3   	
  0x3c42	int3   	
  === BLOCK LINK ===
    0x3c43
=== CODE BLOCK END ===

=== CODE BLOCK ADDRESS 0x3c43 ===
  0x3c43	int3   	
  0x3c44	int3   	
  0x3c45	int3   	
  0x3c46	int3   	
  0x3c47	int3   	
  === BLOCK LINK ===
    0x3c48
=== CODE BLOCK END ===

=== CODE BLOCK ADDRESS 0x3c48 ===
  0x3c48	int3   	
  0x3c49	int3   	
  0x3c4a	int3   	
  0x3c4b	int3   	
  0x3c4c	int3   	
  === BLOCK LINK ===
    0x3c4d
=== CODE BLOCK END ===

=== CODE BLOCK ADDRESS 0x3c4d ===
  0x3c4d	int3   	
  0x3c4e	int3   	
  0x3c4f	int3   	
  0x3c50	dec    	eax
  0x3c51	sub    	esp, 0x28
  === BLOCK LINK ===
    0x3c54
=== CODE BLOCK END ===

=== CODE BLOCK ADDRESS 0x3c54 ===
  0x3c54	dec    	eax
  0x3c55	mov    	eax, dword ptr [ecx]
  0x3c57	cmp    	dword ptr [eax], 0xe06d7363
  0x3c5d	jne    	0x3c82
  === BLOCK LINK ===
    0x3c5f
=== CODE BLOCK END ===

=== CODE BLOCK ADDRESS 0x3c5f ===
  0x3c5f	cmp    	dword ptr [eax + 0x18], 4
  0x3c63	jne    	0x3c82
  === BLOCK LINK ===
    0x3c65
=== CODE BLOCK END ===

=== CODE BLOCK ADDRESS 0x3c65 ===
  0x3c65	mov    	ecx, dword ptr [eax + 0x20]
  0x3c68	lea    	eax, [ecx - 0x19930520]
  0x3c6e	cmp    	eax, 2
  0x3c71	jbe    	0x3c7b
  === BLOCK LINK ===
    0x3c73
=== CODE BLOCK END ===

=== CODE BLOCK ADDRESS 0x3c73 ===
  0x3c73	cmp    	ecx, 0x1994000
  0x3c79	jne    	0x3c82
  === BLOCK LINK ===
    0x3c7b
=== CODE BLOCK END ===

=== CODE BLOCK ADDRESS 0x3c7b ===
  0x3c7b	call   	dword ptr [0x175f]
  === BLOCK LINK ===
    0x3c81
=== CODE BLOCK END ===

=== CODE BLOCK ADDRESS 0x3c81 ===
  0x3c81	int3   	
  0x3c82	xor    	eax, eax
  0x3c84	dec    	eax
  0x3c85	add    	esp, 0x28
  0x3c88	ret    	
  === BLOCK LINK ===
    0x3c89
=== CODE BLOCK END ===

=== CODE BLOCK ADDRESS 0x1499 ===
  0x1499	mov    	eax, esi
  0x149b	dec    	eax
  0x149c	add    	esp, 0x28
  0x149f	pop    	edi
  === BLOCK LINK ===
    0x14a0
=== CODE BLOCK END ===

=== CODE BLOCK ADDRESS 0x3c89 ===
  0x3c89	int3   	
  0x3c8a	int3   	
  0x3c8b	int3   	
  0x3c8c	int3   	
  0x3c8d	int3   	
  === BLOCK LINK ===
    0x3c8e
=== CODE BLOCK END ===

=== CODE BLOCK ADDRESS 0x3c8e ===
  0x3c8e	int3   	
  0x3c8f	int3   	
  0x3c90	dec    	eax
  0x3c91	sub    	esp, 0x28
  0x3c94	dec    	eax
  === BLOCK LINK ===
    0x3c95
=== CODE BLOCK END ===

=== CODE BLOCK ADDRESS 0x3c95 ===
  0x3c95	lea    	ecx, [0xffffffb5]
  0x3c9b	call   	dword ptr [0x1537]
  === BLOCK LINK ===
    0x3ca1
=== CODE BLOCK END ===

=== CODE BLOCK ADDRESS 0x3ca1 ===
  0x3ca1	xor    	eax, eax
  0x3ca3	dec    	eax
  0x3ca4	add    	esp, 0x28
  0x3ca7	ret    	
  0x3ca8	int3   	
  === BLOCK LINK ===
    0x3ca9
=== CODE BLOCK END ===

=== CODE BLOCK ADDRESS 0x3ca9 ===
  0x3ca9	int3   	
  0x3caa	int3   	
  0x3cab	int3   	
  0x3cac	int3   	
  0x3cad	int3   	
  === BLOCK LINK ===
    0x3cae
=== CODE BLOCK END ===

=== CODE BLOCK ADDRESS 0x3cae ===
  0x3cae	jmp    	dword ptr [0x1704]
  === BLOCK LINK ===
    0x3cb4
=== CODE BLOCK END ===

=== CODE BLOCK ADDRESS 0x3cb4 ===
  0x3cb4	int3   	
  0x3cb5	int3   	
  0x3cb6	int3   	
  0x3cb7	int3   	
  0x3cb8	int3   	
  === BLOCK LINK ===
    0x3cb9
=== CODE BLOCK END ===

=== CODE BLOCK ADDRESS 0x3cb9 ===
  0x3cb9	int3   	
  0x3cba	int3   	
  0x3cbb	int3   	
  0x3cbc	dec    	eax
  0x3cbd	sub    	esp, 0x18
  === BLOCK LINK ===
    0x3cc0
=== CODE BLOCK END ===

=== CODE BLOCK ADDRESS 0x3cc0 ===
  0x3cc0	xor    	edx, edx
  0x3cc2	dec    	eax
  0x3cc3	lea    	eax, [ecx - 1]
  0x3cc6	dec    	eax
  0x3cc7	cmp    	eax, -3
  === BLOCK LINK ===
    0x3cca
=== CODE BLOCK END ===

=== CODE BLOCK ADDRESS 0x3cca ===
  0x3cca	ja     	0x3d08
  === BLOCK LINK ===
    0x3ccc
=== CODE BLOCK END ===

=== CODE BLOCK ADDRESS 0x3ccc ===
  0x3ccc	mov    	eax, 0x5a4d
  0x3cd1	cmp    	word ptr [ecx], ax
  0x3cd4	jne    	0x3d00
  === BLOCK LINK ===
    0x3cd6
=== CODE BLOCK END ===

=== CODE BLOCK ADDRESS 0x3cd6 ===
  0x3cd6	cmp    	dword ptr [ecx + 0x3c], edx
  0x3cd9	jl     	0x3d00
  === BLOCK LINK ===
    0x3cdb
=== CODE BLOCK END ===

=== CODE BLOCK ADDRESS 0x3cdb ===
  0x3cdb	cmp    	dword ptr [ecx + 0x3c], 0x10000000
  0x3ce2	jae    	0x3d00
  === BLOCK LINK ===
    0x3ce4
=== CODE BLOCK END ===

=== CODE BLOCK ADDRESS 0x3ce4 ===
  0x3ce4	dec    	eax
  0x3ce5	arpl   	word ptr [ecx + 0x3c], ax
  0x3ce8	dec    	eax
  0x3ce9	add    	eax, ecx
  0x3ceb	dec    	eax
  === BLOCK LINK ===
    0x3cec
=== CODE BLOCK END ===

=== CODE BLOCK ADDRESS 0x3cec ===
  0x3cec	mov    	dword ptr [esp], eax
  0x3cef	cmp    	dword ptr [eax], 0x4550
  0x3cf5	dec    	eax
  0x3cf6	cmovne  	eax, edx
  0x3cf9	dec    	eax
  === BLOCK LINK ===
    0x3cfa
=== CODE BLOCK END ===

=== CODE BLOCK ADDRESS 0x3cfa ===
  0x3cfa	mov    	edx, eax
  0x3cfc	dec    	eax
  0x3cfd	mov    	dword ptr [esp], eax
  0x3d00	jmp    	0x3d08
  === BLOCK LINK ===
    0x3d02
=== CODE BLOCK END ===

=== CODE BLOCK ADDRESS 0x3d02 ===
  0x3d02	xor    	edx, edx
  0x3d04	dec    	eax
  0x3d05	mov    	dword ptr [esp], edx
  0x3d08	dec    	eax
  0x3d09	mov    	eax, edx
  === BLOCK LINK ===
    0x3d0b
=== CODE BLOCK END ===

=== CODE BLOCK ADDRESS 0x3d0b ===
  0x3d0b	dec    	eax
  0x3d0c	add    	esp, 0x18
  0x3d0f	ret    	
  0x3d10	int3   	
  0x3d11	int3   	
  === BLOCK LINK ===
    0x3d12
=== CODE BLOCK END ===

=== CODE BLOCK ADDRESS 0x3d12 ===
  0x3d12	int3   	
  0x3d13	int3   	
  0x3d14	int3   	
  0x3d15	int3   	
  0x3d16	int3   	
  === BLOCK LINK ===
    0x3d17
=== CODE BLOCK END ===

=== CODE BLOCK ADDRESS 0x3d17 ===
  0x3d17	int3   	
  0x3d18	inc    	eax
  0x3d19	push   	ebx
  0x3d1a	dec    	eax
  0x3d1b	sub    	esp, 0x20
  === BLOCK LINK ===
    0x3d1e
=== CODE BLOCK END ===

=== CODE BLOCK ADDRESS 0x3d1e ===
  0x3d1e	mov    	ebx, ecx
  0x3d20	xor    	ecx, ecx
  0x3d22	call   	dword ptr [0x1530]
  === BLOCK LINK ===
    0x3d28
=== CODE BLOCK END ===

=== CODE BLOCK ADDRESS 0x3d28 ===
  0x3d28	dec    	eax
  0x3d29	test   	eax, eax
  0x3d2b	je     	0x3d55
  === BLOCK LINK ===
    0x3d2d
=== CODE BLOCK END ===

=== CODE BLOCK ADDRESS 0x3d2d ===
  0x3d2d	dec    	eax
  0x3d2e	mov    	ecx, eax
  0x3d30	call   	0x3cbc
  === BLOCK LINK ===
    0x3d35
=== CODE BLOCK END ===

=== CODE BLOCK ADDRESS 0x3d35 ===
  0x3d35	dec    	eax
  0x3d36	test   	eax, eax
  0x3d38	je     	0x3d55
  === BLOCK LINK ===
    0x3d3a
=== CODE BLOCK END ===

=== CODE BLOCK ADDRESS 0x3d3a ===
  0x3d3a	mov    	ecx, 2
  0x3d3f	cmp    	word ptr [eax + 0x5c], cx
  0x3d43	jne    	0x3d49
  === BLOCK LINK ===
    0x3d45
=== CODE BLOCK END ===

=== CODE BLOCK ADDRESS 0x3d45 ===
  0x3d45	mov    	eax, ecx
  0x3d47	jmp    	0x3d57
  === BLOCK LINK ===
    0x3d49
=== CODE BLOCK END ===

=== CODE BLOCK ADDRESS 0x3d49 ===
  0x3d49	cmp    	word ptr [eax + 0x5c], 3
  0x3d4e	mov    	eax, 1
  0x3d53	je     	0x3d57
  === BLOCK LINK ===
    0x3d55
=== CODE BLOCK END ===

=== CODE BLOCK ADDRESS 0x3d55 ===
  0x3d55	mov    	eax, ebx
  0x3d57	dec    	eax
  0x3d58	add    	esp, 0x20
  0x3d5b	pop    	ebx
  0x3d5c	ret    	
  === BLOCK LINK ===
    0x3d5d
=== CODE BLOCK END ===

=== CODE BLOCK ADDRESS 0x3d5d ===
  0x3d5d	int3   	
  0x3d5e	int3   	
  0x3d5f	int3   	
  0x3d60	int3   	
  0x3d61	int3   	
  === BLOCK LINK ===
    0x3d62
=== CODE BLOCK END ===

=== CODE BLOCK ADDRESS 0x3d62 ===
  0x3d62	int3   	
  0x3d63	jmp    	dword ptr [0x1657]
  === BLOCK LINK ===
    0x3d69
=== CODE BLOCK END ===

=== CODE BLOCK ADDRESS 0x3d69 ===
  0x3d69	int3   	
  0x3d6a	int3   	
  0x3d6b	int3   	
  0x3d6c	int3   	
  0x3d6d	int3   	
  === BLOCK LINK ===
    0x3d6e
=== CODE BLOCK END ===

=== CODE BLOCK ADDRESS 0x3d6e ===
  0x3d6e	int3   	
  0x3d6f	int3   	
  0x3d70	xor    	eax, eax
  0x3d72	ret    	
  0x3d73	int3   	
  === BLOCK LINK ===
    0x3d74
=== CODE BLOCK END ===

=== CODE BLOCK ADDRESS 0x3d74 ===
  0x3d74	int3   	
  0x3d75	int3   	
  0x3d76	int3   	
  0x3d77	int3   	
  0x3d78	int3   	
  === BLOCK LINK ===
    0x3d79
=== CODE BLOCK END ===

=== CODE BLOCK ADDRESS 0x3d79 ===
  0x3d79	int3   	
  0x3d7a	int3   	
  0x3d7b	int3   	
  0x3d7c	int3   	
  0x3d7d	int3   	
  === BLOCK LINK ===
    0x3d7e
=== CODE BLOCK END ===

=== CODE BLOCK ADDRESS 0x3d7e ===
  0x3d7e	int3   	
  0x3d7f	int3   	
  0x3d80	dec    	esp
  0x3d81	arpl   	word ptr [ecx + 0x3c], ax
  0x3d84	inc    	ebp
  === BLOCK LINK ===
    0x3d85
=== CODE BLOCK END ===

=== CODE BLOCK ADDRESS 0x3d85 ===
  0x3d85	xor    	ecx, ecx
  0x3d87	dec    	esp
  0x3d88	add    	eax, ecx
  0x3d8a	dec    	esp
  0x3d8b	mov    	edx, edx
  === BLOCK LINK ===
    0x3d8d
=== CODE BLOCK END ===

=== CODE BLOCK ADDRESS 0x3d8d ===
  0x3d8d	inc    	ecx
  0x3d8e	movzx  	eax, word ptr [eax + 0x14]
  0x3d92	inc    	ebp
  0x3d93	movzx  	ebx, word ptr [eax + 6]
  0x3d97	dec    	eax
  === BLOCK LINK ===
    0x3d98
=== CODE BLOCK END ===

=== CODE BLOCK ADDRESS 0x3d98 ===
  0x3d98	add    	eax, 0x18
  0x3d9b	dec    	ecx
  0x3d9c	add    	eax, eax
  0x3d9e	inc    	ebp
  0x3d9f	test   	ebx, ebx
  === BLOCK LINK ===
    0x3da1
=== CODE BLOCK END ===

=== CODE BLOCK ADDRESS 0x3da1 ===
  0x3da1	je     	0x3dc1
  === BLOCK LINK ===
    0x3da3
=== CODE BLOCK END ===

=== CODE BLOCK ADDRESS 0x3da3 ===
  0x3da3	mov    	edx, dword ptr [eax + 0xc]
  0x3da6	dec    	esp
  0x3da7	cmp    	edx, edx
  0x3da9	jb     	0x3db5
  === BLOCK LINK ===
    0x3dab
=== CODE BLOCK END ===

=== CODE BLOCK ADDRESS 0x3dab ===
  0x3dab	mov    	ecx, dword ptr [eax + 8]
  0x3dae	add    	ecx, edx
  0x3db0	dec    	esp
  0x3db1	cmp    	edx, ecx
  0x3db3	jb     	0x3dc3
  === BLOCK LINK ===
    0x3db5
=== CODE BLOCK END ===

=== CODE BLOCK ADDRESS 0x3db5 ===
  0x3db5	inc    	ecx
  0x3db6	inc    	ecx
  0x3db8	dec    	eax
  0x3db9	add    	eax, 0x28
  0x3dbc	inc    	ebp
  === BLOCK LINK ===
    0x3dbd
=== CODE BLOCK END ===

=== CODE BLOCK ADDRESS 0x3dbd ===
  0x3dbd	cmp    	ecx, ebx
  0x3dbf	jb     	0x3da3
  === BLOCK LINK ===
    0x3dc1
=== CODE BLOCK END ===

=== CODE BLOCK ADDRESS 0x3dc1 ===
  0x3dc1	xor    	eax, eax
  0x3dc3	ret    	
  0x3dc4	int3   	
  0x3dc5	int3   	
  0x3dc6	int3   	
  === BLOCK LINK ===
    0x3dc7
=== CODE BLOCK END ===

=== CODE BLOCK ADDRESS 0x3dc7 ===
  0x3dc7	int3   	
  0x3dc8	int3   	
  0x3dc9	int3   	
  0x3dca	int3   	
  0x3dcb	int3   	
  === BLOCK LINK ===
    0x3dcc
=== CODE BLOCK END ===

=== CODE BLOCK ADDRESS 0x3dcc ===
  0x3dcc	int3   	
  0x3dcd	int3   	
  0x3dce	int3   	
  0x3dcf	int3   	
  0x3dd0	dec    	eax
  === BLOCK LINK ===
    0x3dd1
=== CODE BLOCK END ===

=== CODE BLOCK ADDRESS 0x3dd1 ===
  0x3dd1	mov    	dword ptr [esp + 8], ebx
  0x3dd5	push   	edi
  0x3dd6	dec    	eax
  0x3dd7	sub    	esp, 0x20
  0x3dda	dec    	eax
  === BLOCK LINK ===
    0x3ddb
=== CODE BLOCK END ===

=== CODE BLOCK ADDRESS 0x3ddb ===
  0x3ddb	mov    	ebx, ecx
  0x3ddd	dec    	eax
  0x3dde	lea    	edi, [0xffffc21c]
  0x3de4	dec    	eax
  0x3de5	mov    	ecx, edi
  === BLOCK LINK ===
    0x3de7
=== CODE BLOCK END ===

=== CODE BLOCK ADDRESS 0x3de7 ===
  0x3de7	call   	0x3e30
  === BLOCK LINK ===
    0x3dec
=== CODE BLOCK END ===

=== CODE BLOCK ADDRESS 0x3dec ===
  0x3dec	test   	eax, eax
  0x3dee	je     	0x3e12
  === BLOCK LINK ===
    0x3df0
=== CODE BLOCK END ===

=== CODE BLOCK ADDRESS 0x3df0 ===
  0x3df0	dec    	eax
  0x3df1	sub    	ebx, edi
  0x3df3	dec    	eax
  0x3df4	mov    	edx, ebx
  0x3df6	dec    	eax
  === BLOCK LINK ===
    0x3df7
=== CODE BLOCK END ===

=== CODE BLOCK ADDRESS 0x3df7 ===
  0x3df7	mov    	ecx, edi
  0x3df9	call   	0x3d80
  === BLOCK LINK ===
    0x3dfe
=== CODE BLOCK END ===

=== CODE BLOCK ADDRESS 0x3dfe ===
  0x3dfe	dec    	eax
  0x3dff	test   	eax, eax
  0x3e01	je     	0x3e12
  === BLOCK LINK ===
    0x3e03
=== CODE BLOCK END ===

=== CODE BLOCK ADDRESS 0x3e03 ===
  0x3e03	mov    	eax, dword ptr [eax + 0x24]
  0x3e06	shr    	eax, 0x1f
  0x3e09	not    	eax
  0x3e0b	and    	eax, 1
  0x3e0e	jmp    	0x3e12
  === BLOCK LINK ===
    0x3e10
=== CODE BLOCK END ===

=== CODE BLOCK ADDRESS 0x3e10 ===
  0x3e10	xor    	eax, eax
  0x3e12	dec    	eax
  0x3e13	mov    	ebx, dword ptr [esp + 0x30]
  0x3e17	dec    	eax
  0x3e18	add    	esp, 0x20
  === BLOCK LINK ===
    0x3e1b
=== CODE BLOCK END ===

=== CODE BLOCK ADDRESS 0x3e1b ===
  0x3e1b	pop    	edi
  0x3e1c	ret    	
  0x3e1d	int3   	
  0x3e1e	int3   	
  0x3e1f	int3   	
  === BLOCK LINK ===
    0x3e20
=== CODE BLOCK END ===

=== CODE BLOCK ADDRESS 0x3e20 ===
  0x3e20	int3   	
  0x3e21	int3   	
  0x3e22	int3   	
  0x3e23	int3   	
  0x3e24	int3   	
  === BLOCK LINK ===
    0x3e25
=== CODE BLOCK END ===

=== CODE BLOCK ADDRESS 0x3e25 ===
  0x3e25	int3   	
  0x3e26	int3   	
  0x3e27	int3   	
  0x3e28	int3   	
  0x3e29	int3   	
  === BLOCK LINK ===
    0x3e2a
=== CODE BLOCK END ===

=== CODE BLOCK ADDRESS 0x3e2a ===
  0x3e2a	int3   	
  0x3e2b	int3   	
  0x3e2c	int3   	
  0x3e2d	int3   	
  0x3e2e	int3   	
  === BLOCK LINK ===
    0x3e2f
=== CODE BLOCK END ===

=== CODE BLOCK ADDRESS 0x3e2f ===
  0x3e2f	int3   	
  0x3e30	mov    	eax, 0x5a4d
  0x3e35	cmp    	word ptr [ecx], ax
  0x3e38	jne    	0x3e5a
  === BLOCK LINK ===
    0x3e3a
=== CODE BLOCK END ===

=== CODE BLOCK ADDRESS 0x3e3a ===
  0x3e3a	dec    	eax
  0x3e3b	arpl   	word ptr [ecx + 0x3c], ax
  0x3e3e	dec    	eax
  0x3e3f	add    	eax, ecx
  0x3e41	cmp    	dword ptr [eax], 0x4550
  === BLOCK LINK ===
    0x3e47
=== CODE BLOCK END ===

=== CODE BLOCK ADDRESS 0x3e47 ===
  0x3e47	jne    	0x3e5a
  === BLOCK LINK ===
    0x3e49
=== CODE BLOCK END ===

=== CODE BLOCK ADDRESS 0x3e49 ===
  0x3e49	mov    	ecx, 0x20b
  0x3e4e	cmp    	word ptr [eax + 0x18], cx
  0x3e52	jne    	0x3e5a
  === BLOCK LINK ===
    0x3e54
=== CODE BLOCK END ===

=== CODE BLOCK ADDRESS 0x3e54 ===
  0x3e54	mov    	eax, 1
  0x3e59	ret    	
  0x3e5a	xor    	eax, eax
  0x3e5c	ret    	
  0x3e5d	int3   	
  === BLOCK LINK ===
    0x3e5e
=== CODE BLOCK END ===

=== CODE BLOCK ADDRESS 0x1605 ===
  0x1605	inc    	ebp
  0x1606	add    	edx, esp
  0x1608	dec    	ecx
  0x1609	add    	ecx, 2
  === BLOCK LINK ===
    0x160c
=== CODE BLOCK END ===

=== CODE BLOCK ADDRESS 0x3e5e ===
  0x3e5e	int3   	
  0x3e5f	int3   	
  0x3e60	int3   	
  0x3e61	int3   	
  0x3e62	int3   	
  === BLOCK LINK ===
    0x3e63
=== CODE BLOCK END ===

=== CODE BLOCK ADDRESS 0x3e63 ===
  0x3e63	int3   	
  0x3e64	dec    	eax
  0x3e65	mov    	dword ptr [esp + 0x20], ebx
  0x3e69	push   	ebp
  0x3e6a	dec    	eax
  === BLOCK LINK ===
    0x3e6b
=== CODE BLOCK END ===

=== CODE BLOCK ADDRESS 0x3e6b ===
  0x3e6b	mov    	ebp, esp
  0x3e6d	dec    	eax
  0x3e6e	sub    	esp, 0x20
  0x3e71	dec    	eax
  0x3e72	and    	dword ptr [ebp + 0x18], 0
  === BLOCK LINK ===
    0x3e76
=== CODE BLOCK END ===

=== CODE BLOCK ADDRESS 0x3e76 ===
  0x3e76	dec    	eax
  0x3e77	mov    	ebx, 0x2ddfa232
  0x3e7c	cdq    	
  0x3e7d	sub    	eax, dword ptr [eax]
  0x3e7f	add    	byte ptr [eax - 0x75], cl
  === BLOCK LINK ===
    0x3e82
=== CODE BLOCK END ===

=== CODE BLOCK ADDRESS 0x3e82 ===
  0x3e82	add    	eax, 0x41c1
  0x3e87	dec    	eax
  0x3e88	cmp    	eax, ebx
  0x3e8a	jne    	0x3f23
  === BLOCK LINK ===
    0x3e90
=== CODE BLOCK END ===

=== CODE BLOCK ADDRESS 0x3e90 ===
  0x3e90	dec    	eax
  0x3e91	lea    	ecx, [ebp + 0x18]
  0x3e94	call   	dword ptr [0x14de]
  === BLOCK LINK ===
    0x3e9a
=== CODE BLOCK END ===

=== CODE BLOCK ADDRESS 0x3e9a ===
  0x3e9a	dec    	eax
  0x3e9b	mov    	eax, dword ptr [ebp + 0x18]
  0x3e9e	dec    	eax
  0x3e9f	mov    	dword ptr [ebp + 0x10], eax
  0x3ea2	call   	dword ptr [0x1408]
  === BLOCK LINK ===
    0x3ea8
=== CODE BLOCK END ===

=== CODE BLOCK ADDRESS 0x3ea8 ===
  0x3ea8	mov    	eax, eax
  0x3eaa	dec    	eax
  0x3eab	xor    	dword ptr [ebp + 0x10], eax
  0x3eae	call   	dword ptr [0x13ec]
  === BLOCK LINK ===
    0x3eb4
=== CODE BLOCK END ===

=== CODE BLOCK ADDRESS 0x3eb4 ===
  0x3eb4	mov    	eax, eax
  0x3eb6	dec    	eax
  0x3eb7	xor    	dword ptr [ebp + 0x10], eax
  0x3eba	call   	dword ptr [0x14b0]
  === BLOCK LINK ===
    0x3ec0
=== CODE BLOCK END ===

=== CODE BLOCK ADDRESS 0x3ec0 ===
  0x3ec0	mov    	eax, eax
  0x3ec2	dec    	eax
  0x3ec3	shl    	eax, 0x18
  0x3ec6	dec    	eax
  0x3ec7	xor    	dword ptr [ebp + 0x10], eax
  === BLOCK LINK ===
    0x3eca
=== CODE BLOCK END ===

=== CODE BLOCK ADDRESS 0x3eca ===
  0x3eca	call   	dword ptr [0x14a0]
  === BLOCK LINK ===
    0x3ed0
=== CODE BLOCK END ===

=== CODE BLOCK ADDRESS 0x3ed0 ===
  0x3ed0	mov    	eax, eax
  0x3ed2	dec    	eax
  0x3ed3	lea    	ecx, [ebp + 0x10]
  0x3ed6	dec    	eax
  0x3ed7	xor    	eax, dword ptr [ebp + 0x10]
  === BLOCK LINK ===
    0x3eda
=== CODE BLOCK END ===

=== CODE BLOCK ADDRESS 0x3eda ===
  0x3eda	dec    	eax
  0x3edb	xor    	eax, ecx
  0x3edd	dec    	eax
  0x3ede	lea    	ecx, [ebp + 0x20]
  0x3ee1	dec    	eax
  === BLOCK LINK ===
    0x3ee2
=== CODE BLOCK END ===

=== CODE BLOCK ADDRESS 0x3ee2 ===
  0x3ee2	mov    	dword ptr [ebp + 0x10], eax
  0x3ee5	call   	dword ptr [0x13d5]
  === BLOCK LINK ===
    0x3eeb
=== CODE BLOCK END ===

=== CODE BLOCK ADDRESS 0x3eeb ===
  0x3eeb	mov    	eax, dword ptr [ebp + 0x20]
  0x3eee	dec    	eax
  0x3eef	mov    	ecx, 0xffffffff
  0x3ef4	.byte  	0xff
  0x3ef5	inc    	dword ptr [eax]
  === BLOCK LINK ===
    0x3ef7
=== CODE BLOCK END ===

=== CODE BLOCK ADDRESS 0x3ef7 ===
  0x3ef7	add    	byte ptr [eax - 0x3f], cl
  0x3efa	loopne  	0x3f1c
  === BLOCK LINK ===
    0x3efc
=== CODE BLOCK END ===

=== CODE BLOCK ADDRESS 0x3efc ===
  0x3efc	dec    	eax
  0x3efd	xor    	eax, dword ptr [ebp + 0x20]
  0x3f00	dec    	eax
  0x3f01	xor    	eax, dword ptr [ebp + 0x10]
  0x3f04	dec    	eax
  === BLOCK LINK ===
    0x3f05
=== CODE BLOCK END ===

=== CODE BLOCK ADDRESS 0x3f05 ===
  0x3f05	and    	eax, ecx
  0x3f07	dec    	eax
  0x3f08	mov    	ecx, eax
  0x3f0a	dec    	eax
  0x3f0b	cmp    	eax, ebx
  === BLOCK LINK ===
    0x3f0d
=== CODE BLOCK END ===

=== CODE BLOCK ADDRESS 0x3f0d ===
  0x3f0d	jne    	0x3f1c
  === BLOCK LINK ===
    0x3f0f
=== CODE BLOCK END ===

=== CODE BLOCK ADDRESS 0x3f0f ===
  0x3f0f	dec    	eax
  0x3f10	mov    	eax, 0x2ddfa233
  0x3f15	cdq    	
  0x3f16	sub    	eax, dword ptr [eax]
  0x3f18	add    	byte ptr [eax - 0x75], cl
  === BLOCK LINK ===
    0x3f1b
=== CODE BLOCK END ===

=== CODE BLOCK ADDRESS 0x3f1b ===
  0x3f1b	enter  	-0x76b8, 0xd
  0x3f1f	and    	eax, 0x48000041
  0x3f24	mov    	ebx, dword ptr [esp + 0x48]
  0x3f28	dec    	eax
  0x3f29	not    	eax
  === BLOCK LINK ===
    0x3f2b
=== CODE BLOCK END ===

=== CODE BLOCK ADDRESS 0x3f2b ===
  0x3f2b	dec    	eax
  0x3f2c	mov    	dword ptr [0x411e], eax
  0x3f32	dec    	eax
  0x3f33	add    	esp, 0x20
  0x3f36	pop    	ebp
  === BLOCK LINK ===
    0x3f37
=== CODE BLOCK END ===

=== CODE BLOCK ADDRESS 0x3f37 ===
  0x3f37	ret    	
  0x3f38	int3   	
  0x3f39	int3   	
  0x3f3a	int3   	
  0x3f3b	int3   	
  === BLOCK LINK ===
    0x3f3c
=== CODE BLOCK END ===

=== CODE BLOCK ADDRESS 0x3f3c ===
  0x3f3c	int3   	
  0x3f3d	int3   	
  0x3f3e	jmp    	dword ptr [0x14bc]
  === BLOCK LINK ===
    0x3f44
=== CODE BLOCK END ===

=== CODE BLOCK ADDRESS 0x3f44 ===
  0x3f44	int3   	
  0x3f45	int3   	
  0x3f46	int3   	
  0x3f47	int3   	
  0x3f48	int3   	
  === BLOCK LINK ===
    0x3f49
=== CODE BLOCK END ===

=== CODE BLOCK ADDRESS 0x3f49 ===
  0x3f49	int3   	
  0x3f4a	jmp    	dword ptr [0x14a8]
  === BLOCK LINK ===
    0x3f50
=== CODE BLOCK END ===

=== CODE BLOCK ADDRESS 0x3f50 ===
  0x3f50	int3   	
  0x3f51	int3   	
  0x3f52	int3   	
  0x3f53	int3   	
  0x3f54	int3   	
  === BLOCK LINK ===
    0x3f55
=== CODE BLOCK END ===

=== CODE BLOCK ADDRESS 0x3f55 ===
  0x3f55	int3   	
  0x3f56	int3   	
  0x3f57	int3   	
  0x3f58	int3   	
  0x3f59	int3   	
  === BLOCK LINK ===
    0x3f5a
=== CODE BLOCK END ===

=== CODE BLOCK ADDRESS 0x3f5a ===
  0x3f5a	int3   	
  0x3f5b	int3   	
  0x3f5c	int3   	
  0x3f5d	int3   	
  0x3f5e	int3   	
  === BLOCK LINK ===
    0x3f5f
=== CODE BLOCK END ===

=== CODE BLOCK ADDRESS 0x3f5f ===
  0x3f5f	int3   	
  0x3f60	ret    	0
  0x3f63	int3   	
  0x3f64	int3   	
  0x3f65	int3   	
  === BLOCK LINK ===
    0x3f66
=== CODE BLOCK END ===

=== CODE BLOCK ADDRESS 0x3f66 ===
  0x3f66	int3   	
  0x3f67	int3   	
  0x3f68	int3   	
  0x3f69	int3   	
  0x3f6a	int3   	
  === BLOCK LINK ===
    0x3f6b
=== CODE BLOCK END ===

=== CODE BLOCK ADDRESS 0x3f6b ===
  0x3f6b	int3   	
  0x3f6c	inc    	eax
  0x3f6d	push   	ebx
  0x3f6e	dec    	eax
  0x3f6f	sub    	esp, 0x20
  === BLOCK LINK ===
    0x3f72
=== CODE BLOCK END ===

=== CODE BLOCK ADDRESS 0x3f72 ===
  0x3f72	dec    	eax
  0x3f73	mov    	ebx, ecx
  0x3f75	xor    	ecx, ecx
  0x3f77	call   	dword ptr [0x125b]
  === BLOCK LINK ===
    0x3f7d
=== CODE BLOCK END ===

=== CODE BLOCK ADDRESS 0x3f7d ===
  0x3f7d	dec    	eax
  0x3f7e	mov    	ecx, ebx
  0x3f80	call   	dword ptr [0x125a]
  === BLOCK LINK ===
    0x3f86
=== CODE BLOCK END ===

=== CODE BLOCK ADDRESS 0x3f86 ===
  0x3f86	call   	dword ptr [0x131c]
  === BLOCK LINK ===
    0x3f8c
=== CODE BLOCK END ===

=== CODE BLOCK ADDRESS 0x3f8c ===
  0x3f8c	dec    	eax
  0x3f8d	mov    	ecx, eax
  0x3f8f	mov    	edx, 0xc0000409
  0x3f94	dec    	eax
  0x3f95	add    	esp, 0x20
  === BLOCK LINK ===
    0x3f98
=== CODE BLOCK END ===

=== CODE BLOCK ADDRESS 0x3f98 ===
  0x3f98	pop    	ebx
  0x3f99	dec    	eax
  0x3f9a	jmp    	dword ptr [0x12f8]
  === BLOCK LINK ===
    0x3fa0
=== CODE BLOCK END ===

=== CODE BLOCK ADDRESS 0x3fa0 ===
  0x3fa0	int3   	
  0x3fa1	int3   	
  0x3fa2	int3   	
  0x3fa3	int3   	
  0x3fa4	int3   	
  === BLOCK LINK ===
    0x3fa5
=== CODE BLOCK END ===

=== CODE BLOCK ADDRESS 0x3fa5 ===
  0x3fa5	int3   	
  0x3fa6	int3   	
  0x3fa7	int3   	
  0x3fa8	int3   	
  0x3fa9	int3   	
  === BLOCK LINK ===
    0x3faa
=== CODE BLOCK END ===

=== CODE BLOCK ADDRESS 0x3faa ===
  0x3faa	int3   	
  0x3fab	int3   	
  0x3fac	int3   	
  0x3fad	int3   	
  0x3fae	int3   	
  === BLOCK LINK ===
    0x3faf
=== CODE BLOCK END ===

=== CODE BLOCK ADDRESS 0x3faf ===
  0x3faf	int3   	
  0x3fb0	dec    	eax
  0x3fb1	mov    	dword ptr [esp + 8], ecx
  0x3fb5	dec    	eax
  0x3fb6	sub    	esp, 0x88
  === BLOCK LINK ===
    0x3fbc
=== CODE BLOCK END ===

=== CODE BLOCK ADDRESS 0x3fbc ===
  0x3fbc	dec    	eax
  0x3fbd	lea    	ecx, [0x417d]
  0x3fc3	call   	dword ptr [0x132f]
  === BLOCK LINK ===
    0x3fc9
=== CODE BLOCK END ===

=== CODE BLOCK ADDRESS 0x3fc9 ===
  0x3fc9	dec    	eax
  0x3fca	mov    	eax, dword ptr [0x4268]
  0x3fd0	dec    	eax
  0x3fd1	mov    	dword ptr [esp + 0x48], eax
  0x3fd5	inc    	ebp
  === BLOCK LINK ===
    0x3fd6
=== CODE BLOCK END ===

=== CODE BLOCK ADDRESS 0x3fd6 ===
  0x3fd6	xor    	eax, eax
  0x3fd8	dec    	eax
  0x3fd9	lea    	edx, [esp + 0x50]
  0x3fdd	dec    	eax
  0x3fde	mov    	ecx, dword ptr [esp + 0x48]
  === BLOCK LINK ===
    0x3fe2
=== CODE BLOCK END ===

=== CODE BLOCK ADDRESS 0x3fe2 ===
  0x3fe2	call   	dword ptr [0x1318]
  === BLOCK LINK ===
    0x3fe8
=== CODE BLOCK END ===

=== CODE BLOCK ADDRESS 0x3fe8 ===
  0x3fe8	dec    	eax
  0x3fe9	mov    	dword ptr [esp + 0x40], eax
  0x3fed	dec    	eax
  0x3fee	cmp    	dword ptr [esp + 0x40], 0
  0x3ff3	je     	0x4037
  === BLOCK LINK ===
    0x3ff5
=== CODE BLOCK END ===

=== CODE BLOCK ADDRESS 0x3ff5 ===
  0x3ff5	dec    	eax
  0x3ff6	mov    	dword ptr [esp + 0x38], 0
  0x3ffe	dec    	eax
  0x3fff	lea    	eax, [esp + 0x58]
  0x4003	dec    	eax
  === BLOCK LINK ===
    0x4004
=== CODE BLOCK END ===

=== CODE BLOCK ADDRESS 0x4004 ===
  0x4004	mov    	dword ptr [esp + 0x30], eax
  0x4008	dec    	eax
  0x4009	lea    	eax, [esp + 0x60]
  0x400d	dec    	eax
  0x400e	mov    	dword ptr [esp + 0x28], eax
  === BLOCK LINK ===
    0x4012
=== CODE BLOCK END ===

=== CODE BLOCK ADDRESS 0x4012 ===
  0x4012	dec    	eax
  0x4013	lea    	eax, [0x4127]
  0x4019	dec    	eax
  0x401a	mov    	dword ptr [esp + 0x20], eax
  0x401e	dec    	esp
  === BLOCK LINK ===
    0x401f
=== CODE BLOCK END ===

=== CODE BLOCK ADDRESS 0x401f ===
  0x401f	mov    	ecx, dword ptr [esp + 0x40]
  0x4023	dec    	esp
  0x4024	mov    	eax, dword ptr [esp + 0x48]
  0x4028	dec    	eax
  0x4029	mov    	edx, dword ptr [esp + 0x50]
  === BLOCK LINK ===
    0x402d
=== CODE BLOCK END ===

=== CODE BLOCK ADDRESS 0x402d ===
  0x402d	xor    	ecx, ecx
  0x402f	call   	dword ptr [0x12bb]
  === BLOCK LINK ===
    0x4035
=== CODE BLOCK END ===

=== CODE BLOCK ADDRESS 0x4035 ===
  0x4035	jmp    	0x405a
  === BLOCK LINK ===
    0x4037
=== CODE BLOCK END ===

=== CODE BLOCK ADDRESS 0x4037 ===
  0x4037	dec    	eax
  0x4038	mov    	eax, dword ptr [0x419a]
  0x403e	dec    	eax
  0x403f	mov    	eax, dword ptr [eax]
  0x4041	dec    	eax
  === BLOCK LINK ===
    0x4042
=== CODE BLOCK END ===

=== CODE BLOCK ADDRESS 0x4042 ===
  0x4042	mov    	dword ptr [0x41f0], eax
  0x4048	dec    	eax
  0x4049	mov    	eax, dword ptr [0x4189]
  0x404f	dec    	eax
  0x4050	add    	eax, 8
  === BLOCK LINK ===
    0x4053
=== CODE BLOCK END ===

=== CODE BLOCK ADDRESS 0x4053 ===
  0x4053	dec    	eax
  0x4054	mov    	dword ptr [0x417e], eax
  0x405a	dec    	eax
  0x405b	mov    	eax, dword ptr [0x41d7]
  0x4061	dec    	eax
  === BLOCK LINK ===
    0x4062
=== CODE BLOCK END ===

=== CODE BLOCK ADDRESS 0x4062 ===
  0x4062	mov    	dword ptr [0x4048], eax
  0x4068	dec    	eax
  0x4069	mov    	eax, dword ptr [esp + 0x90]
  0x4070	dec    	eax
  0x4071	mov    	dword ptr [0x4149], eax
  === BLOCK LINK ===
    0x4077
=== CODE BLOCK END ===

=== CODE BLOCK ADDRESS 0x4077 ===
  0x4077	mov    	dword ptr [0x401f], 0xc0000409
  0x4081	mov    	dword ptr [0x4019], 1
  0x408b	mov    	dword ptr [0x4023], 3
  0x4095	mov    	eax, 8
  0x409a	dec    	eax
  === BLOCK LINK ===
    0x409b
=== CODE BLOCK END ===

=== CODE BLOCK ADDRESS 0x409b ===
  0x409b	imul   	eax, eax, 0
  0x409e	dec    	eax
  0x409f	lea    	ecx, [0x401b]
  0x40a5	dec    	eax
  0x40a6	mov    	dword ptr [ecx + eax], 2
  === BLOCK LINK ===
    0x40ad
=== CODE BLOCK END ===

=== CODE BLOCK ADDRESS 0x40ad ===
  0x40ad	mov    	eax, 8
  0x40b2	dec    	eax
  0x40b3	imul   	eax, eax, 1
  0x40b6	dec    	eax
  0x40b7	lea    	ecx, [0x4003]
  === BLOCK LINK ===
    0x40bd
=== CODE BLOCK END ===

=== CODE BLOCK ADDRESS 0x40bd ===
  0x40bd	dec    	eax
  0x40be	mov    	edx, dword ptr [0x3f84]
  0x40c4	dec    	eax
  0x40c5	mov    	dword ptr [ecx + eax], edx
  0x40c8	mov    	eax, 8
  === BLOCK LINK ===
    0x40cd
=== CODE BLOCK END ===

=== CODE BLOCK ADDRESS 0x40cd ===
  0x40cd	dec    	eax
  0x40ce	imul   	eax, eax, 2
  0x40d1	dec    	eax
  0x40d2	lea    	ecx, [0x3fe8]
  0x40d8	dec    	eax
  === BLOCK LINK ===
    0x40d9
=== CODE BLOCK END ===

=== CODE BLOCK ADDRESS 0x40d9 ===
  0x40d9	mov    	edx, dword ptr [0x3f71]
  0x40df	dec    	eax
  0x40e0	mov    	dword ptr [ecx + eax], edx
  0x40e3	mov    	eax, 8
  0x40e8	dec    	eax
  === BLOCK LINK ===
    0x40e9
=== CODE BLOCK END ===

=== CODE BLOCK ADDRESS 0x40e9 ===
  0x40e9	imul   	eax, eax, 0
  0x40ec	dec    	eax
  0x40ed	mov    	ecx, dword ptr [0x3f55]
  0x40f3	dec    	eax
  0x40f4	mov    	dword ptr [esp + eax + 0x68], ecx
  === BLOCK LINK ===
    0x40f8
=== CODE BLOCK END ===

=== CODE BLOCK ADDRESS 0x40f8 ===
  0x40f8	mov    	eax, 8
  0x40fd	dec    	eax
  0x40fe	imul   	eax, eax, 1
  0x4101	dec    	eax
  0x4102	mov    	ecx, dword ptr [0x3f48]
  === BLOCK LINK ===
    0x4108
=== CODE BLOCK END ===

=== CODE BLOCK ADDRESS 0x4108 ===
  0x4108	dec    	eax
  0x4109	mov    	dword ptr [esp + eax + 0x68], ecx
  0x410d	dec    	eax
  0x410e	lea    	ecx, [0xeec]
  0x4114	call   	0x3f6c
  === BLOCK LINK ===
    0x4119
=== CODE BLOCK END ===

=== CODE BLOCK ADDRESS 0x4119 ===
  0x4119	dec    	eax
  0x411a	add    	esp, 0x88
  0x4120	ret    	
  0x4121	int3   	
  0x4122	int3   	
  === BLOCK LINK ===
    0x4123
=== CODE BLOCK END ===

=== CODE BLOCK ADDRESS 0x4123 ===
  0x4123	int3   	
  0x4124	int3   	
  0x4125	int3   	
  0x4126	int3   	
  0x4127	int3   	
  === BLOCK LINK ===
    0x4128
=== CODE BLOCK END ===

=== CODE BLOCK ADDRESS 0x4128 ===
  0x4128	int3   	
  0x4129	int3   	
  0x412a	int3   	
  0x412b	int3   	
  0x412c	int3   	
  === BLOCK LINK ===
    0x412d
=== CODE BLOCK END ===

=== CODE BLOCK ADDRESS 0x412d ===
  0x412d	int3   	
  0x412e	int3   	
  0x412f	int3   	
  0x4130	int3   	
  0x4131	int3   	
  === BLOCK LINK ===
    0x4132
=== CODE BLOCK END ===

=== CODE BLOCK ADDRESS 0x4132 ===
  0x4132	int3   	
  0x4133	int3   	
  0x4134	int3   	
  0x4135	int3   	
  0x4136	dec    	eax
  === BLOCK LINK ===
    0x4137
=== CODE BLOCK END ===

=== CODE BLOCK ADDRESS 0x4137 ===
  0x4137	lea    	eax, [0x5ec3]
  0x413d	jmp    	0x4142
  === BLOCK LINK ===
    0x4142
=== CODE BLOCK END ===

=== CODE BLOCK ADDRESS 0x4142 ===
  0x4142	dec    	eax
  0x4143	mov    	dword ptr [esp + 8], ecx
  0x4147	dec    	eax
  0x4148	mov    	dword ptr [esp + 0x10], edx
  0x414c	dec    	esp
  === BLOCK LINK ===
    0x414d
=== CODE BLOCK END ===

=== CODE BLOCK ADDRESS 0x414d ===
  0x414d	mov    	dword ptr [esp + 0x18], eax
  0x4151	dec    	esp
  0x4152	mov    	dword ptr [esp + 0x20], ecx
  0x4156	dec    	eax
  0x4157	sub    	esp, 0x68
  === BLOCK LINK ===
    0x415a
=== CODE BLOCK END ===

=== CODE BLOCK ADDRESS 0x415a ===
  0x415a	movdqa  	xmmword ptr [esp + 0x20], xmm0
  0x4160	movdqa  	xmmword ptr [esp + 0x30], xmm1
  0x4166	movdqa  	xmmword ptr [esp + 0x40], xmm2
  0x416c	movdqa  	xmmword ptr [esp + 0x50], xmm3
  0x4172	dec    	eax
  === BLOCK LINK ===
    0x4173
=== CODE BLOCK END ===

=== CODE BLOCK ADDRESS 0x4173 ===
  0x4173	mov    	edx, eax
  0x4175	dec    	eax
  0x4176	lea    	ecx, [0x2040]
  0x417c	call   	0x38a0
  === BLOCK LINK ===
    0x4181
=== CODE BLOCK END ===

=== CODE BLOCK ADDRESS 0x4181 ===
  0x4181	movdqa  	xmm0, xmmword ptr [esp + 0x20]
  0x4187	movdqa  	xmm1, xmmword ptr [esp + 0x30]
  0x418d	movdqa  	xmm2, xmmword ptr [esp + 0x40]
  0x4193	movdqa  	xmm3, xmmword ptr [esp + 0x50]
  0x4199	dec    	eax
  === BLOCK LINK ===
    0x419a
=== CODE BLOCK END ===

=== CODE BLOCK ADDRESS 0x419a ===
  0x419a	mov    	ecx, dword ptr [esp + 0x70]
  0x419e	dec    	eax
  0x419f	mov    	edx, dword ptr [esp + 0x78]
  0x41a3	dec    	esp
  0x41a4	mov    	eax, dword ptr [esp + 0x80]
  === BLOCK LINK ===
    0x41ab
=== CODE BLOCK END ===

=== CODE BLOCK ADDRESS 0x41ab ===
  0x41ab	dec    	esp
  0x41ac	mov    	ecx, dword ptr [esp + 0x88]
  0x41b3	dec    	eax
  0x41b4	add    	esp, 0x68
  0x41b7	jmp    	0x41b9
  === BLOCK LINK ===
    0x41b9
=== CODE BLOCK END ===

=== CODE BLOCK ADDRESS 0x41b9 ===
  0x41b9	jmp    	eax
  === BLOCK LINK ===
    0x41bb
=== CODE BLOCK END ===

=== CODE BLOCK ADDRESS 0x41bb ===
  0x41bb	int3   	
  0x41bc	int3   	
  0x41bd	int3   	
  0x41be	int3   	
  0x41bf	int3   	
  === BLOCK LINK ===
    0x41c0
=== CODE BLOCK END ===

=== CODE BLOCK ADDRESS 0x41c0 ===
  0x41c0	int3   	
  0x41c1	int3   	
  0x41c2	int3   	
  0x41c3	int3   	
  0x41c4	dec    	eax
  === BLOCK LINK ===
    0x41c5
=== CODE BLOCK END ===

=== CODE BLOCK ADDRESS 0x41c5 ===
  0x41c5	sub    	esp, 0x28
  0x41c8	mov    	ecx, dword ptr [0x444a]
  0x41ce	cmp    	ecx, 1
  0x41d1	jne    	0x41d7
  === BLOCK LINK ===
    0x41d3
=== CODE BLOCK END ===

=== CODE BLOCK ADDRESS 0x41d3 ===
  0x41d3	mov    	al, cl
  0x41d5	jmp    	0x420d
  === BLOCK LINK ===
    0x41d7
=== CODE BLOCK END ===

=== CODE BLOCK ADDRESS 0x41d7 ===
  0x41d7	cmp    	ecx, 2
  0x41da	je     	0x420b
  === BLOCK LINK ===
    0x41dc
=== CODE BLOCK END ===

=== CODE BLOCK ADDRESS 0x41dc ===
  0x41dc	dec    	eax
  0x41dd	lea    	edx, [esp + 0x30]
  0x41e1	mov    	byte ptr [esp + 0x30], 0
  0x41e6	dec    	eax
  0x41e7	lea    	ecx, [0xe23]
  === BLOCK LINK ===
    0x41ed
=== CODE BLOCK END ===

=== CODE BLOCK ADDRESS 0x41ed ===
  0x41ed	call   	0x4220
  === BLOCK LINK ===
    0x41f2
=== CODE BLOCK END ===

=== CODE BLOCK ADDRESS 0x41f2 ===
  0x41f2	test   	eax, eax
  0x41f4	js     	0x420b
  === BLOCK LINK ===
    0x41f6
=== CODE BLOCK END ===

=== CODE BLOCK ADDRESS 0x41f6 ===
  0x41f6	mov    	al, byte ptr [esp + 0x30]
  0x41fa	mov    	cl, al
  0x41fc	neg    	cl
  0x41fe	sbb    	edx, edx
  0x4200	add    	edx, 2
  === BLOCK LINK ===
    0x4203
=== CODE BLOCK END ===

=== CODE BLOCK ADDRESS 0x4203 ===
  0x4203	mov    	dword ptr [0x440f], edx
  0x4209	jmp    	0x420d
  === BLOCK LINK ===
    0x420b
=== CODE BLOCK END ===

=== CODE BLOCK ADDRESS 0x420b ===
  0x420b	xor    	al, al
  0x420d	dec    	eax
  0x420e	add    	esp, 0x28
  0x4211	ret    	
  0x4212	int3   	
  === BLOCK LINK ===
    0x4213
=== CODE BLOCK END ===

=== CODE BLOCK ADDRESS 0x4213 ===
  0x4213	int3   	
  0x4214	int3   	
  0x4215	int3   	
  0x4216	int3   	
  0x4217	int3   	
  === BLOCK LINK ===
    0x4218
=== CODE BLOCK END ===

=== CODE BLOCK ADDRESS 0x4218 ===
  0x4218	int3   	
  0x4219	int3   	
  0x421a	int3   	
  0x421b	int3   	
  0x421c	int3   	
  === BLOCK LINK ===
    0x421d
=== CODE BLOCK END ===

=== CODE BLOCK ADDRESS 0x421d ===
  0x421d	int3   	
  0x421e	int3   	
  0x421f	int3   	
  0x4220	jmp    	dword ptr [0xf62]
  === BLOCK LINK ===
    0x4226
=== CODE BLOCK END ===

=== CODE BLOCK ADDRESS 0x4226 ===
  0x4226	int3   	
  0x4227	int3   	
  0x4228	int3   	
  0x4229	int3   	
  0x422a	int3   	
  === BLOCK LINK ===
    0x422b
=== CODE BLOCK END ===

=== CODE BLOCK ADDRESS 0x422b ===
  0x422b	int3   	
  0x422c	dec    	eax
  0x422d	sub    	esp, 0x28
  0x4230	mov    	ecx, dword ptr [0x43f2]
  0x4236	cmp    	ecx, 1
  === BLOCK LINK ===
    0x4239
=== CODE BLOCK END ===

=== CODE BLOCK ADDRESS 0x4239 ===
  0x4239	jne    	0x423f
  === BLOCK LINK ===
    0x423b
=== CODE BLOCK END ===

=== CODE BLOCK ADDRESS 0x423b ===
  0x423b	mov    	al, cl
  0x423d	jmp    	0x4275
  === BLOCK LINK ===
    0x423f
=== CODE BLOCK END ===

=== CODE BLOCK ADDRESS 0x423f ===
  0x423f	cmp    	ecx, 2
  0x4242	je     	0x4273
  === BLOCK LINK ===
    0x4244
=== CODE BLOCK END ===

=== CODE BLOCK ADDRESS 0x4244 ===
  0x4244	dec    	eax
  0x4245	lea    	edx, [esp + 0x30]
  0x4249	mov    	byte ptr [esp + 0x30], 0
  0x424e	dec    	eax
  0x424f	lea    	ecx, [0xe0b]
  === BLOCK LINK ===
    0x4255
=== CODE BLOCK END ===

=== CODE BLOCK ADDRESS 0x4255 ===
  0x4255	call   	0x4220
  === BLOCK LINK ===
    0x425a
=== CODE BLOCK END ===

=== CODE BLOCK ADDRESS 0x425a ===
  0x425a	test   	eax, eax
  0x425c	js     	0x4273
  === BLOCK LINK ===
    0x425e
=== CODE BLOCK END ===

=== CODE BLOCK ADDRESS 0x425e ===
  0x425e	mov    	al, byte ptr [esp + 0x30]
  0x4262	mov    	cl, al
  0x4264	neg    	cl
  0x4266	sbb    	edx, edx
  0x4268	add    	edx, 2
  === BLOCK LINK ===
    0x426b
=== CODE BLOCK END ===

=== CODE BLOCK ADDRESS 0x426b ===
  0x426b	mov    	dword ptr [0x43b7], edx
  0x4271	jmp    	0x4275
  === BLOCK LINK ===
    0x4273
=== CODE BLOCK END ===

=== CODE BLOCK ADDRESS 0x4273 ===
  0x4273	xor    	al, al
  0x4275	dec    	eax
  0x4276	add    	esp, 0x28
  0x4279	ret    	
  0x427a	int3   	
  === BLOCK LINK ===
    0x427b
=== CODE BLOCK END ===

=== CODE BLOCK ADDRESS 0x1572 ===
  0x1572	mov    	eax, ebx
  0x1574	shl    	eax, 0x10
  0x1577	or     	eax, ecx
  0x1579	mov    	dword ptr [edx], eax
  === BLOCK LINK ===
    0x157b
=== CODE BLOCK END ===

=== CODE BLOCK ADDRESS 0x427b ===
  0x427b	int3   	
  0x427c	int3   	
  0x427d	int3   	
  0x427e	int3   	
  0x427f	int3   	
  === BLOCK LINK ===
    0x4280
=== CODE BLOCK END ===

=== CODE BLOCK ADDRESS 0x4280 ===
  0x4280	dec    	eax
  0x4281	lea    	eax, [0x5da9]
  0x4287	jmp    	0x428c
  === BLOCK LINK ===
    0x428c
=== CODE BLOCK END ===

=== CODE BLOCK ADDRESS 0x428c ===
  0x428c	dec    	eax
  0x428d	mov    	dword ptr [esp + 8], ecx
  0x4291	dec    	eax
  0x4292	mov    	dword ptr [esp + 0x10], edx
  0x4296	dec    	esp
  === BLOCK LINK ===
    0x4297
=== CODE BLOCK END ===

=== CODE BLOCK ADDRESS 0x4297 ===
  0x4297	mov    	dword ptr [esp + 0x18], eax
  0x429b	dec    	esp
  0x429c	mov    	dword ptr [esp + 0x20], ecx
  0x42a0	dec    	eax
  0x42a1	sub    	esp, 0x68
  === BLOCK LINK ===
    0x42a4
=== CODE BLOCK END ===

=== CODE BLOCK ADDRESS 0x42a4 ===
  0x42a4	movdqa  	xmmword ptr [esp + 0x20], xmm0
  0x42aa	movdqa  	xmmword ptr [esp + 0x30], xmm1
  0x42b0	movdqa  	xmmword ptr [esp + 0x40], xmm2
  0x42b6	movdqa  	xmmword ptr [esp + 0x50], xmm3
  0x42bc	dec    	eax
  === BLOCK LINK ===
    0x42bd
=== CODE BLOCK END ===

=== CODE BLOCK ADDRESS 0x42bd ===
  0x42bd	mov    	edx, eax
  0x42bf	dec    	eax
  0x42c0	lea    	ecx, [0x1f16]
  0x42c6	call   	0x38a0
  === BLOCK LINK ===
    0x42cb
=== CODE BLOCK END ===

=== CODE BLOCK ADDRESS 0x42cb ===
  0x42cb	movdqa  	xmm0, xmmword ptr [esp + 0x20]
  0x42d1	movdqa  	xmm1, xmmword ptr [esp + 0x30]
  0x42d7	movdqa  	xmm2, xmmword ptr [esp + 0x40]
  0x42dd	movdqa  	xmm3, xmmword ptr [esp + 0x50]
  0x42e3	dec    	eax
  === BLOCK LINK ===
    0x42e4
=== CODE BLOCK END ===

=== CODE BLOCK ADDRESS 0x42e4 ===
  0x42e4	mov    	ecx, dword ptr [esp + 0x70]
  0x42e8	dec    	eax
  0x42e9	mov    	edx, dword ptr [esp + 0x78]
  0x42ed	dec    	esp
  0x42ee	mov    	eax, dword ptr [esp + 0x80]
  === BLOCK LINK ===
    0x42f5
=== CODE BLOCK END ===

=== CODE BLOCK ADDRESS 0x42f5 ===
  0x42f5	dec    	esp
  0x42f6	mov    	ecx, dword ptr [esp + 0x88]
  0x42fd	dec    	eax
  0x42fe	add    	esp, 0x68
  0x4301	jmp    	0x4303
  === BLOCK LINK ===
    0x4303
=== CODE BLOCK END ===

=== CODE BLOCK ADDRESS 0x4303 ===
  0x4303	jmp    	eax
  === BLOCK LINK ===
    0x4305
=== CODE BLOCK END ===

=== CODE BLOCK ADDRESS 0x4305 ===
  0x4305	int3   	
  0x4306	int3   	
  0x4307	int3   	
  0x4308	int3   	
  0x4309	int3   	
  === BLOCK LINK ===
    0x430a
=== CODE BLOCK END ===

=== CODE BLOCK ADDRESS 0x430a ===
  0x430a	int3   	
  0x430b	dec    	eax
  0x430c	lea    	eax, [0x5d06]
  0x4312	jmp    	0x428c
  === BLOCK LINK ===
    0x4317
=== CODE BLOCK END ===

=== CODE BLOCK ADDRESS 0x4317 ===
  0x4317	int3   	
  0x4318	int3   	
  0x4319	int3   	
  0x431a	int3   	
  0x431b	int3   	
  === BLOCK LINK ===
    0x431c
=== CODE BLOCK END ===

=== CODE BLOCK ADDRESS 0x431c ===
  0x431c	int3   	
  0x431d	dec    	eax
  0x431e	lea    	eax, [0x5cfc]
  0x4324	jmp    	0x428c
  === BLOCK LINK ===
    0x4329
=== CODE BLOCK END ===

=== CODE BLOCK ADDRESS 0x4329 ===
  0x4329	int3   	
  0x432a	int3   	
  0x432b	int3   	
  0x432c	int3   	
  0x432d	int3   	
  === BLOCK LINK ===
    0x432e
=== CODE BLOCK END ===

=== CODE BLOCK ADDRESS 0x432e ===
  0x432e	int3   	
  0x432f	dec    	eax
  0x4330	lea    	eax, [0x5cf2]
  0x4336	jmp    	0x428c
  === BLOCK LINK ===
    0x433b
=== CODE BLOCK END ===

=== CODE BLOCK ADDRESS 0x433b ===
  0x433b	int3   	
  0x433c	int3   	
  0x433d	int3   	
  0x433e	int3   	
  0x433f	int3   	
  === BLOCK LINK ===
    0x4340
=== CODE BLOCK END ===

=== CODE BLOCK ADDRESS 0x4340 ===
  0x4340	int3   	
  0x4341	dec    	eax
  0x4342	lea    	eax, [0x5cc8]
  0x4348	jmp    	0x428c
  === BLOCK LINK ===
    0x434d
=== CODE BLOCK END ===

=== CODE BLOCK ADDRESS 0x434d ===
  0x434d	int3   	
  0x434e	int3   	
  0x434f	int3   	
  0x4350	int3   	
  0x4351	int3   	
  === BLOCK LINK ===
    0x4352
=== CODE BLOCK END ===

=== CODE BLOCK ADDRESS 0x4352 ===
  0x4352	int3   	
  0x4353	int3   	
  0x4354	dec    	eax
  0x4355	sub    	esp, 0x28
  0x4358	dec    	ebp
  === BLOCK LINK ===
    0x4359
=== CODE BLOCK END ===

=== CODE BLOCK ADDRESS 0x4359 ===
  0x4359	mov    	eax, dword ptr [ecx + 0x38]
  0x435c	dec    	eax
  0x435d	mov    	ecx, edx
  0x435f	dec    	ecx
  0x4360	mov    	edx, ecx
  === BLOCK LINK ===
    0x4362
=== CODE BLOCK END ===

=== CODE BLOCK ADDRESS 0x4362 ===
  0x4362	call   	0x4378
  === BLOCK LINK ===
    0x4367
=== CODE BLOCK END ===

=== CODE BLOCK ADDRESS 0x4367 ===
  0x4367	mov    	eax, 1
  0x436c	dec    	eax
  0x436d	add    	esp, 0x28
  0x4370	ret    	
  0x4371	int3   	
  === BLOCK LINK ===
    0x4372
=== CODE BLOCK END ===

=== CODE BLOCK ADDRESS 0x4372 ===
  0x4372	int3   	
  0x4373	int3   	
  0x4374	int3   	
  0x4375	int3   	
  0x4376	int3   	
  === BLOCK LINK ===
    0x4377
=== CODE BLOCK END ===

=== CODE BLOCK ADDRESS 0x4377 ===
  0x4377	int3   	
  0x4378	inc    	eax
  0x4379	push   	ebx
  0x437a	inc    	ebp
  0x437b	mov    	ebx, dword ptr [eax]
  === BLOCK LINK ===
    0x437d
=== CODE BLOCK END ===

=== CODE BLOCK ADDRESS 0x437d ===
  0x437d	dec    	eax
  0x437e	mov    	ebx, edx
  0x4380	inc    	ecx
  0x4381	and    	ebx, 0xfffffff8
  0x4384	dec    	esp
  === BLOCK LINK ===
    0x4385
=== CODE BLOCK END ===

=== CODE BLOCK ADDRESS 0x4385 ===
  0x4385	mov    	ecx, ecx
  0x4387	inc    	ecx
  0x4388	test   	byte ptr [eax], 4
  0x438b	dec    	esp
  0x438c	mov    	edx, ecx
  === BLOCK LINK ===
    0x438e
=== CODE BLOCK END ===

=== CODE BLOCK ADDRESS 0x438e ===
  0x438e	je     	0x43a3
  === BLOCK LINK ===
    0x4390
=== CODE BLOCK END ===

=== CODE BLOCK ADDRESS 0x4390 ===
  0x4390	inc    	ecx
  0x4391	mov    	eax, dword ptr [eax + 8]
  0x4394	dec    	ebp
  0x4395	arpl   	word ptr [eax + 4], dx
  0x4398	neg    	eax
  === BLOCK LINK ===
    0x439a
=== CODE BLOCK END ===

=== CODE BLOCK ADDRESS 0x439a ===
  0x439a	dec    	esp
  0x439b	add    	edx, ecx
  0x439d	dec    	eax
  0x439e	arpl   	ax, cx
  0x43a0	dec    	esp
  === BLOCK LINK ===
    0x43a1
=== CODE BLOCK END ===

=== CODE BLOCK ADDRESS 0x43a1 ===
  0x43a1	and    	edx, ecx
  0x43a3	dec    	ecx
  0x43a4	arpl   	bx, ax
  0x43a6	dec    	edx
  0x43a7	mov    	edx, dword ptr [eax + edx]
  === BLOCK LINK ===
    0x43aa
=== CODE BLOCK END ===

=== CODE BLOCK ADDRESS 0x43aa ===
  0x43aa	dec    	eax
  0x43ab	mov    	eax, dword ptr [ebx + 0x10]
  0x43ae	mov    	ecx, dword ptr [eax + 8]
  0x43b1	dec    	eax
  0x43b2	mov    	eax, dword ptr [ebx + 8]
  === BLOCK LINK ===
    0x43b5
=== CODE BLOCK END ===

=== CODE BLOCK ADDRESS 0x43b5 ===
  0x43b5	test   	byte ptr [ecx + eax + 3], 0xf
  0x43ba	je     	0x43c7
  === BLOCK LINK ===
    0x43bc
=== CODE BLOCK END ===

=== CODE BLOCK ADDRESS 0x43bc ===
  0x43bc	movzx  	eax, byte ptr [ecx + eax + 3]
  0x43c1	and    	eax, 0xfffffff0
  0x43c4	dec    	esp
  0x43c5	add    	ecx, eax
  0x43c7	dec    	esp
  === BLOCK LINK ===
    0x43c8
=== CODE BLOCK END ===

=== CODE BLOCK ADDRESS 0x43c8 ===
  0x43c8	xor    	ecx, edx
  0x43ca	dec    	ecx
  0x43cb	mov    	ecx, ecx
  0x43cd	pop    	ebx
  0x43ce	jmp    	0x3c20
  === BLOCK LINK ===
    0x43d3
=== CODE BLOCK END ===

=== CODE BLOCK ADDRESS 0x43d3 ===
  0x43d3	int3   	
  0x43d4	int3   	
  0x43d5	int3   	
  0x43d6	int3   	
  0x43d7	int3   	
  === BLOCK LINK ===
    0x43d8
=== CODE BLOCK END ===

=== CODE BLOCK ADDRESS 0x43d8 ===
  0x43d8	int3   	
  0x43d9	int3   	
  0x43da	int3   	
  0x43db	int3   	
  0x43dc	int3   	
  === BLOCK LINK ===
    0x43dd
=== CODE BLOCK END ===

=== CODE BLOCK ADDRESS 0x43dd ===
  0x43dd	int3   	
  0x43de	int3   	
  0x43df	int3   	
  0x43e0	int3   	
  0x43e1	int3   	
  === BLOCK LINK ===
    0x43e2
=== CODE BLOCK END ===

=== CODE BLOCK ADDRESS 0x43e2 ===
  0x43e2	int3   	
  0x43e3	int3   	
  0x43e4	int3   	
  0x43e5	int3   	
  0x43e6	nop    	word ptr [eax + eax]
  === BLOCK LINK ===
    0x43f0
=== CODE BLOCK END ===

=== CODE BLOCK ADDRESS 0x43f0 ===
  0x43f0	jmp    	eax
  === BLOCK LINK ===
    0x43f2
=== CODE BLOCK END ===

=== CODE BLOCK ADDRESS 0x43f2 ===
  0x43f2	int3   	
  0x43f3	int3   	
  0x43f4	int3   	
  0x43f5	int3   	
  0x43f6	int3   	
  === BLOCK LINK ===
    0x43f7
=== CODE BLOCK END ===

=== CODE BLOCK ADDRESS 0x43f7 ===
  0x43f7	int3   	
  0x43f8	int3   	
  0x43f9	int3   	
  0x43fa	int3   	
  0x43fb	int3   	
  === BLOCK LINK ===
    0x43fc
=== CODE BLOCK END ===

=== CODE BLOCK ADDRESS 0x43fc ===
  0x43fc	int3   	
  0x43fd	int3   	
  0x43fe	int3   	
  0x43ff	int3   	
  0x4400	inc    	eax
  === BLOCK LINK ===
    0x4401
=== CODE BLOCK END ===

=== CODE BLOCK ADDRESS 0x4401 ===
  0x4401	push   	ebp
  0x4402	dec    	eax
  0x4403	sub    	esp, 0x20
  0x4406	dec    	eax
  0x4407	mov    	ebp, edx
  === BLOCK LINK ===
    0x4409
=== CODE BLOCK END ===

=== CODE BLOCK ADDRESS 0x4409 ===
  0x4409	dec    	eax
  0x440a	mov    	eax, dword ptr [ecx]
  0x440c	dec    	eax
  0x440d	mov    	edx, ecx
  0x440f	mov    	ecx, dword ptr [eax]
  === BLOCK LINK ===
    0x4411
=== CODE BLOCK END ===

=== CODE BLOCK ADDRESS 0x4411 ===
  0x4411	call   	0x3cae
  === BLOCK LINK ===
    0x4416
=== CODE BLOCK END ===

=== CODE BLOCK ADDRESS 0x4416 ===
  0x4416	nop    	
  0x4417	dec    	eax
  0x4418	add    	esp, 0x20
  0x441b	pop    	ebp
  0x441c	ret    	
  === BLOCK LINK ===
    0x441d
=== CODE BLOCK END ===

=== CODE BLOCK ADDRESS 0x441d ===
  0x441d	int3   	
  0x441e	int3   	
  0x441f	int3   	
  0x4420	int3   	
  0x4421	int3   	
  === BLOCK LINK ===
    0x4422
=== CODE BLOCK END ===

=== CODE BLOCK ADDRESS 0x4422 ===
  0x4422	int3   	
  0x4423	int3   	
  0x4424	int3   	
  0x4425	int3   	
  0x4426	int3   	
  === BLOCK LINK ===
    0x4427
=== CODE BLOCK END ===

=== CODE BLOCK ADDRESS 0x4427 ===
  0x4427	int3   	
  0x4428	int3   	
  0x4429	int3   	
  0x442a	int3   	
  0x442b	int3   	
  === BLOCK LINK ===
    0x442c
=== CODE BLOCK END ===

=== CODE BLOCK ADDRESS 0x442c ===
  0x442c	int3   	
  0x442d	int3   	
  0x442e	int3   	
  0x442f	int3   	
  0x4430	inc    	eax
  === BLOCK LINK ===
    0x4431
=== CODE BLOCK END ===

=== CODE BLOCK ADDRESS 0x4431 ===
  0x4431	push   	ebp
  0x4432	dec    	eax
  0x4433	sub    	esp, 0x20
  0x4436	dec    	eax
  0x4437	mov    	ebp, edx
  === BLOCK LINK ===
    0x4439
=== CODE BLOCK END ===

=== CODE BLOCK ADDRESS 0x4439 ===
  0x4439	dec    	eax
  0x443a	mov    	eax, dword ptr [ecx]
  0x443c	xor    	ecx, ecx
  0x443e	cmp    	dword ptr [eax], 0xc0000005
  0x4444	sete   	cl
  === BLOCK LINK ===
    0x4447
=== CODE BLOCK END ===

=== CODE BLOCK ADDRESS 0x4447 ===
  0x4447	mov    	eax, ecx
  0x4449	dec    	eax
  0x444a	add    	esp, 0x20
  0x444d	pop    	ebp
  0x444e	ret    	
  === BLOCK LINK ===
    0x444f
=== CODE BLOCK END ===

=== CODE BLOCK ADDRESS 0x444f ===
  0x444f	int3   	
  0x4450	add    	byte ptr [eax], al
  0x4452	add    	byte ptr [eax], al
  0x4454	add    	byte ptr [eax], al
  0x4456	add    	byte ptr [eax], al
  === BLOCK LINK ===
    0x4458
=== CODE BLOCK END ===

=== CODE BLOCK ADDRESS 0x4458 ===
  0x4458	add    	byte ptr [eax], al
  0x445a	add    	byte ptr [eax], al
  0x445c	add    	byte ptr [eax], al
  0x445e	add    	byte ptr [eax], al
  0x4460	add    	byte ptr [eax], al
  === BLOCK LINK ===
    0x4462
=== CODE BLOCK END ===

=== CODE BLOCK ADDRESS 0x4462 ===
  0x4462	add    	byte ptr [eax], al
  0x4464	add    	byte ptr [eax], al
  0x4466	add    	byte ptr [eax], al
  0x4468	add    	byte ptr [eax], al
  0x446a	add    	byte ptr [eax], al
  === BLOCK LINK ===
    0x446c
=== CODE BLOCK END ===

=== CODE BLOCK ADDRESS 0x446c ===
  0x446c	add    	byte ptr [eax], al
  0x446e	add    	byte ptr [eax], al
  0x4470	add    	byte ptr [eax], al
  0x4472	add    	byte ptr [eax], al
  0x4474	add    	byte ptr [eax], al
  === BLOCK LINK ===
    0x4476
=== CODE BLOCK END ===

=== CODE BLOCK ADDRESS 0x4476 ===
  0x4476	add    	byte ptr [eax], al
  0x4478	add    	byte ptr [eax], al
  0x447a	add    	byte ptr [eax], al
  0x447c	add    	byte ptr [eax], al
  0x447e	add    	byte ptr [eax], al
  === BLOCK LINK ===
    0x4480
=== CODE BLOCK END ===

=== CODE BLOCK ADDRESS 0x4480 ===
  0x4480	add    	byte ptr [eax], al
  0x4482	add    	byte ptr [eax], al
  0x4484	add    	byte ptr [eax], al
  0x4486	add    	byte ptr [eax], al
  0x4488	add    	byte ptr [eax], al
  === BLOCK LINK ===
    0x448a
=== CODE BLOCK END ===

=== CODE BLOCK ADDRESS 0x448a ===
  0x448a	add    	byte ptr [eax], al
  0x448c	add    	byte ptr [eax], al
  0x448e	add    	byte ptr [eax], al
  0x4490	add    	byte ptr [eax], al
  0x4492	add    	byte ptr [eax], al
  === BLOCK LINK ===
    0x4494
=== CODE BLOCK END ===

=== CODE BLOCK ADDRESS 0x4494 ===
  0x4494	add    	byte ptr [eax], al
  0x4496	add    	byte ptr [eax], al
  0x4498	add    	byte ptr [eax], al
  0x449a	add    	byte ptr [eax], al
  0x449c	add    	byte ptr [eax], al
  === BLOCK LINK ===
    0x449e
=== CODE BLOCK END ===

=== CODE BLOCK ADDRESS 0x449e ===
  0x449e	add    	byte ptr [eax], al
  0x44a0	add    	byte ptr [eax], al
  0x44a2	add    	byte ptr [eax], al
  0x44a4	add    	byte ptr [eax], al
  0x44a6	add    	byte ptr [eax], al
  === BLOCK LINK ===
    0x44a8
=== CODE BLOCK END ===

=== CODE BLOCK ADDRESS 0x44a8 ===
  0x44a8	add    	byte ptr [eax], al
  0x44aa	add    	byte ptr [eax], al
  0x44ac	add    	byte ptr [eax], al
  0x44ae	add    	byte ptr [eax], al
  0x44b0	add    	byte ptr [eax], al
  === BLOCK LINK ===
    0x44b2
=== CODE BLOCK END ===

=== CODE BLOCK ADDRESS 0x44b2 ===
  0x44b2	add    	byte ptr [eax], al
  0x44b4	add    	byte ptr [eax], al
  0x44b6	add    	byte ptr [eax], al
  0x44b8	add    	byte ptr [eax], al
  0x44ba	add    	byte ptr [eax], al
  === BLOCK LINK ===
    0x44bc
=== CODE BLOCK END ===

=== CODE BLOCK ADDRESS 0x44bc ===
  0x44bc	add    	byte ptr [eax], al
  0x44be	add    	byte ptr [eax], al
  0x44c0	add    	byte ptr [eax], al
  0x44c2	add    	byte ptr [eax], al
  0x44c4	add    	byte ptr [eax], al
  === BLOCK LINK ===
    0x44c6
=== CODE BLOCK END ===

=== CODE BLOCK ADDRESS 0x44c6 ===
  0x44c6	add    	byte ptr [eax], al
  0x44c8	add    	byte ptr [eax], al
  0x44ca	add    	byte ptr [eax], al
  0x44cc	add    	byte ptr [eax], al
  0x44ce	add    	byte ptr [eax], al
  === BLOCK LINK ===
    0x44d0
=== CODE BLOCK END ===

=== CODE BLOCK ADDRESS 0x44d0 ===
  0x44d0	add    	byte ptr [eax], al
  0x44d2	add    	byte ptr [eax], al
  0x44d4	add    	byte ptr [eax], al
  0x44d6	add    	byte ptr [eax], al
  0x44d8	add    	byte ptr [eax], al
  === BLOCK LINK ===
    0x44da
=== CODE BLOCK END ===

=== CODE BLOCK ADDRESS 0x44da ===
  0x44da	add    	byte ptr [eax], al
  0x44dc	add    	byte ptr [eax], al
  0x44de	add    	byte ptr [eax], al
  0x44e0	add    	byte ptr [eax], al
  0x44e2	add    	byte ptr [eax], al
  === BLOCK LINK ===
    0x44e4
=== CODE BLOCK END ===

=== CODE BLOCK ADDRESS 0x44e4 ===
  0x44e4	add    	byte ptr [eax], al
  0x44e6	add    	byte ptr [eax], al
  0x44e8	add    	byte ptr [eax], al
  0x44ea	add    	byte ptr [eax], al
  0x44ec	add    	byte ptr [eax], al
  === BLOCK LINK ===
    0x44ee
=== CODE BLOCK END ===

=== CODE BLOCK ADDRESS 0x44ee ===
  0x44ee	add    	byte ptr [eax], al
  0x44f0	add    	byte ptr [eax], al
  0x44f2	add    	byte ptr [eax], al
  0x44f4	add    	byte ptr [eax], al
  0x44f6	add    	byte ptr [eax], al
  === BLOCK LINK ===
    0x44f8
=== CODE BLOCK END ===

=== CODE BLOCK ADDRESS 0x44f8 ===
  0x44f8	add    	byte ptr [eax], al
  0x44fa	add    	byte ptr [eax], al
  0x44fc	add    	byte ptr [eax], al
  0x44fe	add    	byte ptr [eax], al
  0x4500	add    	byte ptr [eax], al
  === BLOCK LINK ===
    0x4502
=== CODE BLOCK END ===

=== CODE BLOCK ADDRESS 0x4502 ===
  0x4502	add    	byte ptr [eax], al
  0x4504	add    	byte ptr [eax], al
  0x4506	add    	byte ptr [eax], al
  0x4508	add    	byte ptr [eax], al
  0x450a	add    	byte ptr [eax], al
  === BLOCK LINK ===
    0x450c
=== CODE BLOCK END ===

=== CODE BLOCK ADDRESS 0x450c ===
  0x450c	add    	byte ptr [eax], al
  0x450e	add    	byte ptr [eax], al
  0x4510	add    	byte ptr [eax], al
  0x4512	add    	byte ptr [eax], al
  0x4514	add    	byte ptr [eax], al
  === BLOCK LINK ===
    0x4516
=== CODE BLOCK END ===

=== CODE BLOCK ADDRESS 0x4516 ===
  0x4516	add    	byte ptr [eax], al
  0x4518	add    	byte ptr [eax], al
  0x451a	add    	byte ptr [eax], al
  0x451c	add    	byte ptr [eax], al
  0x451e	add    	byte ptr [eax], al
  === BLOCK LINK ===
    0x4520
=== CODE BLOCK END ===

=== CODE BLOCK ADDRESS 0x4520 ===
  0x4520	add    	byte ptr [eax], al
  0x4522	add    	byte ptr [eax], al
  0x4524	add    	byte ptr [eax], al
  0x4526	add    	byte ptr [eax], al
  0x4528	add    	byte ptr [eax], al
  === BLOCK LINK ===
    0x452a
=== CODE BLOCK END ===

=== CODE BLOCK ADDRESS 0x452a ===
  0x452a	add    	byte ptr [eax], al
  0x452c	add    	byte ptr [eax], al
  0x452e	add    	byte ptr [eax], al
  0x4530	add    	byte ptr [eax], al
  0x4532	add    	byte ptr [eax], al
  === BLOCK LINK ===
    0x4534
=== CODE BLOCK END ===

=== CODE BLOCK ADDRESS 0x4534 ===
  0x4534	add    	byte ptr [eax], al
  0x4536	add    	byte ptr [eax], al
  0x4538	add    	byte ptr [eax], al
  0x453a	add    	byte ptr [eax], al
  0x453c	add    	byte ptr [eax], al
  === BLOCK LINK ===
    0x453e
=== CODE BLOCK END ===

=== CODE BLOCK ADDRESS 0x453e ===
  0x453e	add    	byte ptr [eax], al
  0x4540	add    	byte ptr [eax], al
  0x4542	add    	byte ptr [eax], al
  0x4544	add    	byte ptr [eax], al
  0x4546	add    	byte ptr [eax], al
  === BLOCK LINK ===
    0x4548
=== CODE BLOCK END ===

=== CODE BLOCK ADDRESS 0x4548 ===
  0x4548	add    	byte ptr [eax], al
  0x454a	add    	byte ptr [eax], al
  0x454c	add    	byte ptr [eax], al
  0x454e	add    	byte ptr [eax], al
  0x4550	add    	byte ptr [eax], al
  === BLOCK LINK ===
    0x4552
=== CODE BLOCK END ===

=== CODE BLOCK ADDRESS 0x4552 ===
  0x4552	add    	byte ptr [eax], al
  0x4554	add    	byte ptr [eax], al
  0x4556	add    	byte ptr [eax], al
  0x4558	add    	byte ptr [eax], al
  0x455a	add    	byte ptr [eax], al
  === BLOCK LINK ===
    0x455c
=== CODE BLOCK END ===

=== CODE BLOCK ADDRESS 0x455c ===
  0x455c	add    	byte ptr [eax], al
  0x455e	add    	byte ptr [eax], al
  0x4560	add    	byte ptr [eax], al
  0x4562	add    	byte ptr [eax], al
  0x4564	add    	byte ptr [eax], al
  === BLOCK LINK ===
    0x4566
=== CODE BLOCK END ===

=== CODE BLOCK ADDRESS 0x4566 ===
  0x4566	add    	byte ptr [eax], al
  0x4568	add    	byte ptr [eax], al
  0x456a	add    	byte ptr [eax], al
  0x456c	add    	byte ptr [eax], al
  0x456e	add    	byte ptr [eax], al
  === BLOCK LINK ===
    0x4570
=== CODE BLOCK END ===

=== CODE BLOCK ADDRESS 0x4570 ===
  0x4570	add    	byte ptr [eax], al
  0x4572	add    	byte ptr [eax], al
  0x4574	add    	byte ptr [eax], al
  0x4576	add    	byte ptr [eax], al
  0x4578	add    	byte ptr [eax], al
  === BLOCK LINK ===
    0x457a
=== CODE BLOCK END ===

=== CODE BLOCK ADDRESS 0x457a ===
  0x457a	add    	byte ptr [eax], al
  0x457c	add    	byte ptr [eax], al
  0x457e	add    	byte ptr [eax], al
  0x4580	add    	byte ptr [eax], al
  0x4582	add    	byte ptr [eax], al
  === BLOCK LINK ===
    0x4584
=== CODE BLOCK END ===

=== CODE BLOCK ADDRESS 0x4584 ===
  0x4584	add    	byte ptr [eax], al
  0x4586	add    	byte ptr [eax], al
  0x4588	add    	byte ptr [eax], al
  0x458a	add    	byte ptr [eax], al
  0x458c	add    	byte ptr [eax], al
  === BLOCK LINK ===
    0x458e
=== CODE BLOCK END ===

=== CODE BLOCK ADDRESS 0x458e ===
  0x458e	add    	byte ptr [eax], al
  0x4590	add    	byte ptr [eax], al
  0x4592	add    	byte ptr [eax], al
  0x4594	add    	byte ptr [eax], al
  0x4596	add    	byte ptr [eax], al
  === BLOCK LINK ===
    0x4598
=== CODE BLOCK END ===

=== CODE BLOCK ADDRESS 0x4598 ===
  0x4598	add    	byte ptr [eax], al
  0x459a	add    	byte ptr [eax], al
  0x459c	add    	byte ptr [eax], al
  0x459e	add    	byte ptr [eax], al
  0x45a0	add    	byte ptr [eax], al
  === BLOCK LINK ===
    0x45a2
=== CODE BLOCK END ===

=== CODE BLOCK ADDRESS 0x45a2 ===
  0x45a2	add    	byte ptr [eax], al
  0x45a4	add    	byte ptr [eax], al
  0x45a6	add    	byte ptr [eax], al
  0x45a8	add    	byte ptr [eax], al
  0x45aa	add    	byte ptr [eax], al
  === BLOCK LINK ===
    0x45ac
=== CODE BLOCK END ===

=== CODE BLOCK ADDRESS 0x45ac ===
  0x45ac	add    	byte ptr [eax], al
  0x45ae	add    	byte ptr [eax], al
  0x45b0	add    	byte ptr [eax], al
  0x45b2	add    	byte ptr [eax], al
  0x45b4	add    	byte ptr [eax], al
  === BLOCK LINK ===
    0x45b6
=== CODE BLOCK END ===

=== CODE BLOCK ADDRESS 0x45b6 ===
  0x45b6	add    	byte ptr [eax], al
  0x45b8	add    	byte ptr [eax], al
  0x45ba	add    	byte ptr [eax], al
  0x45bc	add    	byte ptr [eax], al
  0x45be	add    	byte ptr [eax], al
  === BLOCK LINK ===
    0x45c0
=== CODE BLOCK END ===

=== CODE BLOCK ADDRESS 0x45c0 ===
  0x45c0	add    	byte ptr [eax], al
  0x45c2	add    	byte ptr [eax], al
  0x45c4	add    	byte ptr [eax], al
  0x45c6	add    	byte ptr [eax], al
  0x45c8	add    	byte ptr [eax], al
  === BLOCK LINK ===
    0x45ca
=== CODE BLOCK END ===

=== CODE BLOCK ADDRESS 0x45ca ===
  0x45ca	add    	byte ptr [eax], al
  0x45cc	add    	byte ptr [eax], al
  0x45ce	add    	byte ptr [eax], al
  0x45d0	add    	byte ptr [eax], al
  0x45d2	add    	byte ptr [eax], al
  === BLOCK LINK ===
    0x45d4
=== CODE BLOCK END ===

=== CODE BLOCK ADDRESS 0x45d4 ===
  0x45d4	add    	byte ptr [eax], al
  0x45d6	add    	byte ptr [eax], al
  0x45d8	add    	byte ptr [eax], al
  0x45da	add    	byte ptr [eax], al
  0x45dc	add    	byte ptr [eax], al
  === BLOCK LINK ===
    0x45de
=== CODE BLOCK END ===

=== CODE BLOCK ADDRESS 0x45de ===
  0x45de	add    	byte ptr [eax], al
  0x45e0	add    	byte ptr [eax], al
  0x45e2	add    	byte ptr [eax], al
  0x45e4	add    	byte ptr [eax], al
  0x45e6	add    	byte ptr [eax], al
  === BLOCK LINK ===
    0x45e8
=== CODE BLOCK END ===

=== CODE BLOCK ADDRESS 0x45e8 ===
  0x45e8	add    	byte ptr [eax], al
  0x45ea	add    	byte ptr [eax], al
  0x45ec	add    	byte ptr [eax], al
  0x45ee	add    	byte ptr [eax], al
  0x45f0	add    	byte ptr [eax], al
  === BLOCK LINK ===
    0x45f2
=== CODE BLOCK END ===

=== CODE BLOCK ADDRESS 0x45f2 ===
  0x45f2	add    	byte ptr [eax], al
  0x45f4	add    	byte ptr [eax], al
  0x45f6	add    	byte ptr [eax], al
  0x45f8	add    	byte ptr [eax], al
  0x45fa	add    	byte ptr [eax], al
  === BLOCK LINK ===
    0x45fc
=== CODE BLOCK END ===

=== CODE BLOCK ADDRESS 0x45fc ===
  0x45fc	add    	byte ptr [eax], al
=== CODE BLOCK END ===

=== DATA BLOCK ADDRESS 0x5000 ===
  0x5000	a0 80 00 40 01 00 00 00 40 81 00 40 01 00 00 00 	000@0000@00@0000
  0x5010	3a 00 3c 00 00 00 00 00 f8 54 00 40 01 00 00 00 	:0<000000T0@0000
  0x5020	3a 00 3c 00 00 00 00 00 38 55 00 40 01 00 00 00 	:0<000008U0@0000
  0x5030	3a 00 3c 00 00 00 00 00 78 55 00 40 01 00 00 00 	:0<00000xU0@0000
  0x5040	3a 00 3c 00 00 00 00 00 b8 55 00 40 01 00 00 00 	:0<000000U0@0000
  0x5050	3a 00 3c 00 00 00 00 00 f8 55 00 40 01 00 00 00 	:0<000000U0@0000
  0x5060	4c 00 4e 00 00 00 00 00 40 56 00 40 01 00 00 00 	L0N00000@V0@0000
  0x5070	18 01 00 00 00 00 00 00 00 00 00 00 00 00 00 00 	0000000000000000
  0x5080	00 00 00 00 00 00 00 00 00 00 00 00 00 00 00 00 	0000000000000000
  0x5090	00 00 00 00 00 00 00 00 00 00 00 00 00 00 00 00 	0000000000000000
  0x50a0	00 00 00 00 00 00 00 00 00 00 00 00 00 00 00 00 	0000000000000000
  0x50b0	00 00 00 00 00 00 00 00 00 00 00 00 00 00 00 00 	0000000000000000
  0x50c0	00 00 00 00 00 00 00 00 48 80 00 40 01 00 00 00 	00000000H00@0000
  0x50d0	00 00 00 00 00 00 00 00 00 00 00 00 00 00 00 00 	0000000000000000
  0x50e0	58 54 00 40 01 00 00 00 60 54 00 40 01 00 00 00 	XT0@0000`T0@0000
  0x50f0	a0 54 00 40 01 00 00 00 0b 00 00 00 00 00 00 00 	0T0@000000000000
  0x5100	00 75 01 00 00 00 00 00 00 00 00 00 00 00 00 00 	0u00000000000000
  0x5110	cc 54 00 40 01 00 00 00 01 00 00 00 00 00 00 00 	0T0@000000000000
  0x5120	00 00 00 00 00 00 00 00 00 00 00 00 00 00 00 00 	0000000000000000
  0x5130	00 00 00 00 00 00 00 00 00 00 00 00 00 00 00 00 	0000000000000000
  0x5140	00 00 00 00 00 00 00 00 00 00 00 00 00 00 00 00 	0000000000000000
  0x5150	00 00 00 00 00 00 00 00 00 00 00 00 00 00 00 00 	0000000000000000
  0x5160	00 00 00 00 00 00 00 00 00 00 00 00 00 00 00 00 	0000000000000000
  0x5170	00 00 00 00 00 00 00 00 00 00 00 00 00 00 00 00 	0000000000000000
  0x5180	00 00 00 00 00 00 00 00 f0 68 00 00 00 00 00 00 	000000000h000000
  0x5190	00 00 00 00 00 00 00 00 92 6f 00 00 00 00 00 00 	000000000o000000
  0x51a0	60 6f 00 00 00 00 00 00 14 6f 00 00 00 00 00 00 	`o0000000o000000
  0x51b0	00 00 00 00 00 00 00 00 b0 6e 00 00 00 00 00 00 	000000000n000000
  0x51c0	00 00 00 00 00 00 00 00 98 6e 00 00 00 00 00 00 	000000000n000000
  0x51d0	00 00 00 00 00 00 00 00 b8 6a 00 00 00 00 00 00 	000000000j000000
  0x51e0	88 6b 00 00 00 00 00 00 c6 69 00 00 00 00 00 00 	0k0000000i000000
  0x51f0	00 00 00 00 00 00 00 00 3a 6f 00 00 00 00 00 00 	00000000:o000000
  0x5200	b8 6f 00 00 00 00 00 00 00 00 00 00 00 00 00 00 	0o00000000000000
  0x5210	fc 69 00 00 00 00 00 00 96 6a 00 00 00 00 00 00 	0i0000000j000000
  0x5220	00 00 00 00 00 00 00 00 d6 69 00 00 00 00 00 00 	000000000i000000
  0x5230	00 00 00 00 00 00 00 00 1e 6a 00 00 00 00 00 00 	000000000j000000
  0x5240	9a 69 00 00 00 00 00 00 00 00 00 00 00 00 00 00 	0i00000000000000
  0x5250	84 6f 00 00 00 00 00 00 40 6a 00 00 00 00 00 00 	0o000000@j000000
  0x5260	00 00 00 00 00 00 00 00 62 6a 00 00 00 00 00 00 	00000000bj000000
  0x5270	72 6f 00 00 00 00 00 00 00 00 00 00 00 00 00 00 	ro00000000000000
  0x5280	2a 6f 00 00 00 00 00 00 46 6f 00 00 00 00 00 00 	*o000000Fo000000
  0x5290	00 00 00 00 00 00 00 00 b8 6b 00 00 00 00 00 00 	000000000k000000
  0x52a0	06 6b 00 00 00 00 00 00 a4 6b 00 00 00 00 00 00 	0k0000000k000000
  0x52b0	f0 6a 00 00 00 00 00 00 00 00 00 00 00 00 00 00 	0j00000000000000
  0x52c0	d6 6a 00 00 00 00 00 00 00 00 00 00 00 00 00 00 	0j00000000000000
  0x52d0	30 69 00 00 00 00 00 00 54 6a 00 00 00 00 00 00 	0i000000Tj000000
  0x52e0	72 69 00 00 00 00 00 00 00 00 00 00 00 00 00 00 	ri00000000000000
  0x52f0	74 6b 00 00 00 00 00 00 46 6b 00 00 00 00 00 00 	tk000000Fk000000
  0x5300	5a 6b 00 00 00 00 00 00 00 00 00 00 00 00 00 00 	Zk00000000000000
  0x5310	82 69 00 00 00 00 00 00 44 69 00 00 00 00 00 00 	0i000000Di000000
  0x5320	00 00 00 00 00 00 00 00 82 6a 00 00 00 00 00 00 	000000000j000000
  0x5330	00 00 00 00 00 00 00 00 a2 6f 00 00 00 00 00 00 	000000000o000000
  0x5340	00 00 00 00 00 00 00 00 5a 70 00 00 00 00 00 00 	00000000Zp000000
  0x5350	fa 6d 00 00 00 00 00 00 00 00 00 00 00 00 00 00 	0m00000000000000
  0x5360	a8 69 00 00 00 00 00 00 00 00 00 00 00 00 00 00 	0i00000000000000
  0x5370	36 6b 00 00 00 00 00 00 1c 6b 00 00 00 00 00 00 	6k0000000k000000
  0x5380	00 00 00 00 00 00 00 00 b0 69 00 00 00 00 00 00 	000000000i000000
  0x5390	ec 69 00 00 00 00 00 00 60 69 00 00 00 00 00 00 	0i000000`i000000
  0x53a0	2a 6a 00 00 00 00 00 00 00 00 00 00 00 00 00 00 	*j00000000000000
  0x53b0	1e 68 00 00 00 00 00 00 28 68 00 00 00 00 00 00 	0h000000(h000000
  0x53c0	36 68 00 00 00 00 00 00 44 68 00 00 00 00 00 00 	6h000000Dh000000
  0x53d0	56 68 00 00 00 00 00 00 68 68 00 00 00 00 00 00 	Vh000000hh000000
  0x53e0	dc 68 00 00 00 00 00 00 c4 68 00 00 00 00 00 00 	0h0000000h000000
  0x53f0	ba 68 00 00 00 00 00 00 a2 68 00 00 00 00 00 00 	0h0000000h000000
  0x5400	96 68 00 00 00 00 00 00 82 68 00 00 00 00 00 00 	0h0000000h000000
  0x5410	78 68 00 00 00 00 00 00 70 68 00 00 00 00 00 00 	xh000000ph000000
  0x5420	10 68 00 00 00 00 00 00 00 00 00 00 00 00 00 00 	0h00000000000000
  0x5430	60 6e 00 00 00 00 00 00 48 6e 00 00 00 00 00 00 	`n000000Hn000000
  0x5440	32 6e 00 00 00 00 00 00 78 6e 00 00 00 00 00 00 	2n000000xn000000
  0x5450	00 00 00 00 00 00 00 00 60 3f 00 40 01 00 00 00 	00000000`?0@0000
  0x5460	f0 43 00 40 01 00 00 00 00 00 00 00 00 00 00 00 	0C0@000000000000
  0x5470	d0 39 00 40 01 00 00 00 00 00 00 00 00 00 00 00 	090@000000000000
  0x5480	00 00 00 00 00 00 00 00 f0 38 00 40 01 00 00 00 	00000000080@0000
  0x5490	90 3c 00 40 01 00 00 00 00 00 00 00 00 00 00 00 	0<0@000000000000
  0x54a0	10 10 00 00 a0 38 00 00 f0 38 00 00 d0 39 00 00 	0000080008000900
  0x54b0	f0 3b 00 00 50 3c 00 00 90 3c 00 00 70 3d 00 00 	0;00P<000<00p=00
  0x54c0	60 3f 00 00 b0 3f 00 00 20 42 00 00 b8 51 00 00 	`?000?00 B000Q00
  0x54d0	65 78 74 2d 6d 73 2d 77 69 6e 2d 6e 74 75 73 65 	ext-ms-win-ntuse
  0x54e0	72 2d 6d 69 73 63 2d 6c 31 2d 31 2d 30 2e 64 6c 	r-misc-l1-1-0.dl
  0x54f0	6c 00 00 00 00 00 00 00 65 00 78 00 74 00 2d 00 	l0000000e0x0t0-0
  0x5500	6d 00 73 00 2d 00 77 00 69 00 6e 00 2d 00 6e 00 	m0s0-0w0i0n0-0n0
  0x5510	74 00 75 00 73 00 65 00 72 00 2d 00 6d 00 69 00 	t0u0s0e0r0-0m0i0
  0x5520	73 00 63 00 2d 00 6c 00 31 00 2d 00 31 00 2d 00 	s0c0-0l010-010-0
  0x5530	30 00 00 00 00 00 00 00 65 00 78 00 74 00 2d 00 	00000000e0x0t0-0
  0x5540	6d 00 73 00 2d 00 77 00 69 00 6e 00 2d 00 6e 00 	m0s0-0w0i0n0-0n0
  0x5550	74 00 75 00 73 00 65 00 72 00 2d 00 6d 00 69 00 	t0u0s0e0r0-0m0i0
  0x5560	73 00 63 00 2d 00 6c 00 31 00 2d 00 32 00 2d 00 	s0c0-0l010-020-0
  0x5570	30 00 00 00 00 00 00 00 65 00 78 00 74 00 2d 00 	00000000e0x0t0-0
  0x5580	6d 00 73 00 2d 00 77 00 69 00 6e 00 2d 00 6e 00 	m0s0-0w0i0n0-0n0
  0x5590	74 00 75 00 73 00 65 00 72 00 2d 00 6d 00 69 00 	t0u0s0e0r0-0m0i0
  0x55a0	73 00 63 00 2d 00 6c 00 31 00 2d 00 35 00 2d 00 	s0c0-0l010-050-0
  0x55b0	30 00 00 00 00 00 00 00 65 00 78 00 74 00 2d 00 	00000000e0x0t0-0
  0x55c0	6d 00 73 00 2d 00 77 00 69 00 6e 00 2d 00 6e 00 	m0s0-0w0i0n0-0n0
  0x55d0	74 00 75 00 73 00 65 00 72 00 2d 00 6d 00 69 00 	t0u0s0e0r0-0m0i0
  0x55e0	73 00 63 00 2d 00 6c 00 31 00 2d 00 35 00 2d 00 	s0c0-0l010-050-0
  0x55f0	31 00 00 00 00 00 00 00 65 00 78 00 74 00 2d 00 	10000000e0x0t0-0
  0x5600	6d 00 73 00 2d 00 77 00 69 00 6e 00 2d 00 6e 00 	m0s0-0w0i0n0-0n0
  0x5610	74 00 75 00 73 00 65 00 72 00 2d 00 6d 00 69 00 	t0u0s0e0r0-0m0i0
  0x5620	73 00 63 00 2d 00 6c 00 31 00 2d 00 36 00 2d 00 	s0c0-0l010-060-0
  0x5630	30 00 00 00 00 00 00 00 00 00 00 00 00 00 00 00 	0000000000000000
  0x5640	65 00 78 00 74 00 2d 00 6d 00 73 00 2d 00 77 00 	e0x0t0-0m0s0-0w0
  0x5650	69 00 6e 00 2d 00 73 00 65 00 63 00 75 00 72 00 	i0n0-0s0e0c0u0r0
  0x5660	69 00 74 00 79 00 2d 00 73 00 68 00 75 00 74 00 	i0t0y0-0s0h0u0t0
  0x5670	64 00 6f 00 77 00 6e 00 65 00 78 00 74 00 2d 00 	d0o0w0n0e0x0t0-0
  0x5680	6c 00 31 00 2d 00 31 00 2d 00 30 00 00 00 00 00 	l010-010-0000000
  0x5690	65 78 74 2d 6d 73 2d 77 69 6e 2d 73 65 63 75 72 	ext-ms-win-secur
  0x56a0	69 74 79 2d 73 68 75 74 64 6f 77 6e 65 78 74 2d 	ity-shutdownext-
  0x56b0	6c 31 2d 31 2d 30 2e 64 6c 6c 00 00 00 00 00 00 	l1-1-0.dll000000
  0x56c0	7b 00 38 00 62 00 65 00 34 00 64 00 66 00 36 00 	{080b0e040d0f060
  0x56d0	31 00 2d 00 39 00 33 00 63 00 61 00 2d 00 31 00 	10-09030c0a0-010
  0x56e0	31 00 64 00 32 00 2d 00 61 00 61 00 30 00 64 00 	10d020-0a0a000d0
  0x56f0	2d 00 30 00 30 00 65 00 30 00 39 00 38 00 30 00 	-00000e000908000
  0x5700	33 00 32 00 62 00 38 00 63 00 7d 00 00 00 00 00 	3020b080c0}00000
  0x5710	4f 00 73 00 49 00 6e 00 64 00 69 00 63 00 61 00 	O0s0I0n0d0i0c0a0
  0x5720	74 00 69 00 6f 00 6e 00 73 00 00 00 00 00 00 00 	t0i0o0n0s0000000
  0x5730	47 65 74 45 6e 76 69 72 6f 6e 6d 65 6e 74 56 61 	GetEnvironmentVa
  0x5740	72 69 61 62 6c 65 57 00 4d 6f 64 75 6c 65 48 61 	riableW0ModuleHa
  0x5750	6e 64 6c 65 00 00 00 00 2d 00 69 00 00 00 00 00 	ndle0000-0i00000
  0x5760	2f 00 69 00 00 00 00 00 2d 00 49 00 00 00 00 00 	/0i00000-0I00000
  0x5770	2f 00 49 00 00 00 00 00 2d 00 75 00 6e 00 65 00 	/0I00000-0u0n0e0
  0x5780	78 00 70 00 65 00 63 00 74 00 65 00 64 00 00 00 	x0p0e0c0t0e0d000
  0x5790	2d 00 55 00 6e 00 65 00 78 00 70 00 65 00 63 00 	-0U0n0e0x0p0e0c0
  0x57a0	74 00 65 00 64 00 00 00 2f 00 75 00 6e 00 65 00 	t0e0d000/0u0n0e0
  0x57b0	78 00 70 00 65 00 63 00 74 00 65 00 64 00 00 00 	x0p0e0c0t0e0d000
  0x57c0	2f 00 55 00 6e 00 65 00 78 00 70 00 65 00 63 00 	/0U0n0e0x0p0e0c0
  0x57d0	74 00 65 00 64 00 00 00 00 00 00 00 00 00 00 00 	t0e0d00000000000
  0x57e0	53 00 6f 00 66 00 74 00 77 00 61 00 72 00 65 00 	S0o0f0t0w0a0r0e0
  0x57f0	5c 00 4d 00 69 00 63 00 72 00 6f 00 73 00 6f 00 	00M0i0c0r0o0s0o0
  0x5800	66 00 74 00 5c 00 57 00 69 00 6e 00 64 00 6f 00 	f0t000W0i0n0d0o0
  0x5810	77 00 73 00 5c 00 43 00 75 00 72 00 72 00 65 00 	w0s000C0u0r0r0e0
  0x5820	6e 00 74 00 56 00 65 00 72 00 73 00 69 00 6f 00 	n0t0V0e0r0s0i0o0
  0x5830	6e 00 5c 00 52 00 65 00 6c 00 69 00 61 00 62 00 	n000R0e0l0i0a0b0
  0x5840	69 00 6c 00 69 00 74 00 79 00 00 00 00 00 00 00 	i0l0i0t0y0000000
  0x5850	44 00 69 00 72 00 74 00 79 00 53 00 68 00 75 00 	D0i0r0t0y0S0h0u0
  0x5860	74 00 64 00 6f 00 77 00 6e 00 00 00 00 00 00 00 	t0d0o0w0n0000000
  0x5870	52 65 67 51 75 65 72 79 56 61 6c 75 65 45 78 57 	RegQueryValueExW
  0x5880	00 00 00 00 00 00 00 00 52 65 67 4f 70 65 6e 4b 	00000000RegOpenK
  0x5890	65 79 45 78 57 00 00 00 53 68 75 74 64 6f 77 6e 	eyExW000Shutdown
  0x58a0	44 69 72 74 79 44 69 61 6c 6f 67 00 00 00 00 00 	DirtyDialog00000
  0x58b0	4f 00 73 00 49 00 6e 00 64 00 69 00 63 00 61 00 	O0s0I0n0d0i0c0a0
  0x58c0	74 00 69 00 6f 00 6e 00 73 00 53 00 75 00 70 00 	t0i0o0n0s0S0u0p0
  0x58d0	70 00 6f 00 72 00 74 00 65 00 64 00 00 00 00 00 	p0o0r0t0e0d00000
  0x58e0	00 00 00 00 00 00 00 00 41 62 6f 72 74 53 79 73 	00000000AbortSys
  0x58f0	74 65 6d 53 68 75 74 64 6f 77 6e 57 00 00 00 00 	temShutdownW0000
  0x5900	45 78 69 74 57 69 6e 64 6f 77 73 45 78 00 00 00 	ExitWindowsEx000
  0x5910	50 4f 57 45 52 5f 4f 50 54 49 4f 4e 5f 48 49 42 	POWER_OPTION_HIB
  0x5920	45 52 4e 41 54 45 00 00 50 6f 77 65 72 4f 70 74 	ERNATE00PowerOpt
  0x5930	69 6f 6e 45 6e 61 62 6c 65 64 00 00 00 00 00 00 	ionEnabled000000
  0x5940	4e 74 49 6e 69 74 69 61 74 65 50 6f 77 65 72 41 	NtInitiatePowerA
  0x5950	63 74 69 6f 6e 00 00 00 49 6e 69 74 69 61 74 65 	ction000Initiate
  0x5960	53 68 75 74 64 6f 77 6e 57 00 00 00 00 00 00 00 	ShutdownW0000000
  0x5970	49 6e 69 74 69 61 74 65 53 79 73 74 65 6d 53 68 	InitiateSystemSh
  0x5980	75 74 64 6f 77 6e 45 78 57 00 00 00 00 00 00 00 	utdownExW0000000
  0x5990	57 00 61 00 69 00 74 00 69 00 6e 00 67 00 20 00 	W0a0i0t0i0n0g0 0
  0x59a0	66 00 6f 00 72 00 65 00 76 00 65 00 72 00 2e 00 	f0o0r0e0v0e0r0.0
  0x59b0	2e 00 2e 00 0a 00 00 00 25 00 73 00 3a 00 20 00 	.0.00000%0s0:0 0
  0x59c0	25 00 73 00 28 00 25 00 64 00 29 00 0a 00 00 00 	%0s0(0%0d0)00000
  0x59d0	25 00 73 00 3a 00 20 00 25 00 73 00 0a 00 00 00 	%0s0:0 0%0s00000
  0x59e0	25 00 73 00 28 00 25 00 64 00 29 00 0a 00 00 00 	%0s0(0%0d0)00000
  0x59f0	25 00 73 00 0a 00 00 00 43 00 4f 00 4d 00 50 00 	%0s00000C0O0M0P0
  0x5a00	55 00 54 00 45 00 52 00 4e 00 41 00 4d 00 45 00 	U0T0E0R0N0A0M0E0
  0x5a10	00 00 00 00 00 00 00 00 55 00 53 00 45 00 52 00 	00000000U0S0E0R0
  0x5a20	44 00 4f 00 4d 00 41 00 49 00 4e 00 00 00 00 00 	D0O0M0A0I0N00000
  0x5a30	00 00 00 00 00 00 00 00 00 00 00 00 00 00 00 00 	0000000000000000
  0x5a40	00 00 00 00 ad 7c d2 be 00 00 00 00 02 00 00 00 	00000|0000000000
  0x5a50	25 00 00 00 74 5c 00 00 74 46 00 00 00 00 00 00 	%000t000tF000000
  0x5a60	ad 7c d2 be 00 00 00 00 0d 00 00 00 fc 02 00 00 	0|00000000000000
  0x5a70	9c 5c 00 00 9c 46 00 00 00 00 00 00 ad 7c d2 be 	00000F0000000|00
  0x5a80	00 00 00 00 10 00 00 00 24 00 00 00 98 5f 00 00 	00000000$0000_00
  0x5a90	98 49 00 00 00 00 00 00 45 54 57 30 10 00 00 01 	0I000000ETW00000
  0x5aa0	86 0e 04 88 2b 05 8a bb 06 0b 05 00 00 00 00 00 	0000+00000000000
  0x5ab0	00 20 00 00 38 00 00 43 61 6c 6c 46 61 69 6c 65 	0 00800CallFaile
  0x5ac0	64 00 57 68 69 63 68 43 61 6c 6c 00 02 46 61 69 	d0WhichCall00Fai
  0x5ad0	6c 43 6f 64 65 00 08 46 6c 61 67 73 00 08 4f 70 	lCode00Flags00Op
  0x5ae0	74 69 6f 6e 53 74 72 69 6e 67 00 02 06 0b 05 00 	tionString000000
  0x5af0	00 00 00 00 00 20 00 00 38 00 00 43 61 6c 6c 46 	00000 00800CallF
  0x5b00	61 69 6c 65 64 00 57 68 69 63 68 43 61 6c 6c 00 	ailed0WhichCall0
  0x5b10	02 46 61 69 6c 43 6f 64 65 00 08 46 6c 61 67 73 	0FailCode00Flags
  0x5b20	00 07 4f 70 74 69 6f 6e 53 74 72 69 6e 67 00 02 	00OptionString00
  0x5b30	06 0b 05 00 00 00 00 00 00 20 00 00 12 00 00 55 	000000000 00000U
  0x5b40	73 61 67 65 44 69 73 70 6c 61 79 65 64 00 06 0b 	sageDisplayed000
  0x5b50	05 00 00 00 00 00 00 20 00 00 1b 00 00 43 61 6c 	0000000 00000Cal
  0x5b60	6c 46 61 69 6c 65 64 00 4e 61 6d 65 00 02 64 77 	lFailed0Name00dw
  0x5b70	52 65 74 00 08 06 0b 05 00 00 00 00 00 00 20 00 	Ret00000000000 0
  0x5b80	00 cd 00 00 53 68 75 74 64 6f 77 6e 45 78 65 49 	0000ShutdownExeI
  0x5b90	6e 76 6f 6b 65 64 00 66 4c 6f 67 6f 66 66 00 07 	nvoked0fLogoff00
  0x5ba0	66 46 6f 72 63 65 00 07 66 52 65 62 6f 6f 74 00 	fForce00fReboot0
  0x5bb0	07 66 48 69 62 65 72 6e 61 74 65 00 07 66 41 62 	0fHibernate00fAb
  0x5bc0	6f 72 74 00 07 66 50 6f 77 65 72 6f 66 66 00 07 	ort00fPoweroff00
  0x5bd0	66 41 6e 6e 6f 74 61 74 65 00 07 66 52 65 73 74 	fAnnotate00fRest
  0x5be0	61 72 74 41 70 70 73 00 07 66 52 65 73 74 61 72 	artApps00fRestar
  0x5bf0	74 41 70 70 73 53 68 75 74 64 6f 77 6e 00 07 66 	tAppsShutdown00f
  0x5c00	53 68 75 74 64 6f 77 6e 48 79 62 72 69 64 00 07 	ShutdownHybrid00
  0x5c10	66 53 65 72 76 65 72 4e 61 6d 65 53 70 65 63 69 	fServerNameSpeci
  0x5c20	66 69 65 64 00 07 66 4d 65 73 73 61 67 65 53 70 	fied00fMessageSp
  0x5c30	65 63 69 66 69 65 64 00 07 64 77 54 69 6d 65 6f 	ecified00dwTimeo
  0x5c40	75 74 00 08 64 77 52 65 61 73 6f 6e 00 08 04 64 	ut00dwReason000d
  0x5c50	5c c1 87 a5 40 b5 54 62 83 5c 35 ee 45 74 f8 11 	0000@0Tb0050Et00
  0x5c60	00 53 68 75 74 64 6f 77 6e 44 6f 74 45 78 65 00 	0ShutdownDotExe0
  0x5c70	01 00 00 00 52 53 44 53 be 4b 68 4e 9e 52 b8 66 	0000RSDS0KhN0R0f
  0x5c80	20 bc a5 62 05 2c 7a 92 01 00 00 00 73 68 75 74 	 00b0,z00000shut
  0x5c90	64 6f 77 6e 2e 70 64 62 00 00 00 00 47 43 54 4c 	down.pdb0000GCTL
  0x5ca0	00 10 00 00 20 04 00 00 2e 74 65 78 74 00 00 00 	0000 000.text000
  0x5cb0	20 14 00 00 c0 2f 00 00 2e 74 65 78 74 24 6d 6e 	 0000/00.text$mn
  0x5cc0	00 00 00 00 e0 43 00 00 20 00 00 00 2e 74 65 78 	00000C00 000.tex
  0x5cd0	74 24 6d 6e 24 30 30 00 00 44 00 00 50 00 00 00 	t$mn$0000D00P000
  0x5ce0	2e 74 65 78 74 24 78 00 00 50 00 00 88 01 00 00 	.text$x00P000000
  0x5cf0	2e 72 64 61 74 61 24 62 72 63 00 00 88 51 00 00 	.rdata$brc000Q00
  0x5d00	d0 02 00 00 2e 69 64 61 74 61 24 35 00 00 00 00 	0000.idata$50000
  0x5d10	58 54 00 00 10 00 00 00 2e 30 30 63 66 67 00 00 	XT000000.00cfg00
  0x5d20	68 54 00 00 08 00 00 00 2e 43 52 54 24 58 43 41 	hT000000.CRT$XCA
  0x5d30	00 00 00 00 70 54 00 00 08 00 00 00 2e 43 52 54 	0000pT000000.CRT
  0x5d40	24 58 43 41 41 00 00 00 78 54 00 00 08 00 00 00 	$XCAA000xT000000
  0x5d50	2e 43 52 54 24 58 43 5a 00 00 00 00 80 54 00 00 	.CRT$XCZ00000T00
  0x5d60	08 00 00 00 2e 43 52 54 24 58 49 41 00 00 00 00 	0000.CRT$XIA0000
  0x5d70	88 54 00 00 08 00 00 00 2e 43 52 54 24 58 49 41 	0T000000.CRT$XIA
  0x5d80	41 00 00 00 90 54 00 00 08 00 00 00 2e 43 52 54 	A0000T000000.CRT
  0x5d90	24 58 49 59 00 00 00 00 98 54 00 00 08 00 00 00 	$XIY00000T000000
  0x5da0	2e 43 52 54 24 58 49 5a 00 00 00 00 a0 54 00 00 	.CRT$XIZ00000T00
  0x5db0	2c 00 00 00 2e 67 66 69 64 73 00 00 cc 54 00 00 	,000.gfids000T00
  0x5dc0	04 00 00 00 2e 67 69 61 74 73 00 00 d0 54 00 00 	0000.giats000T00
  0x5dd0	c8 05 00 00 2e 72 64 61 74 61 00 00 98 5a 00 00 	0000.rdata000Z00
  0x5de0	10 00 00 00 2e 72 64 61 74 61 24 7a 45 54 57 30 	0000.rdata$zETW0
  0x5df0	00 00 00 00 a8 5a 00 00 a6 01 00 00 2e 72 64 61 	00000Z000000.rda
  0x5e00	74 61 24 7a 45 54 57 31 00 00 00 00 4e 5c 00 00 	ta$zETW10000N000
  0x5e10	22 00 00 00 2e 72 64 61 74 61 24 7a 45 54 57 32 	"000.rdata$zETW2
  0x5e20	00 00 00 00 70 5c 00 00 04 00 00 00 2e 72 64 61 	0000p0000000.rda
  0x5e30	74 61 24 7a 45 54 57 39 00 00 00 00 74 5c 00 00 	ta$zETW90000t000
  0x5e40	4c 03 00 00 2e 72 64 61 74 61 24 7a 7a 7a 64 62 	L000.rdata$zzzdb
  0x5e50	67 00 00 00 c0 5f 00 00 fc 01 00 00 2e 78 64 61 	g0000_000000.xda
  0x5e60	74 61 00 00 bc 61 00 00 40 00 00 00 2e 64 69 64 	ta000a00@000.did
  0x5e70	61 74 24 32 00 00 00 00 fc 61 00 00 24 00 00 00 	at$200000a00$000
  0x5e80	2e 64 69 64 61 74 24 33 00 00 00 00 20 62 00 00 	.didat$30000 b00
  0x5e90	40 00 00 00 2e 64 69 64 61 74 24 34 00 00 00 00 	@000.didat$40000
  0x5ea0	60 62 00 00 98 00 00 00 2e 64 69 64 61 74 24 36 	`b000000.didat$6
  0x5eb0	00 00 00 00 f8 62 00 00 40 00 00 00 2e 64 69 64 	00000b00@000.did
  0x5ec0	61 74 24 37 00 00 00 00 38 63 00 00 f4 01 00 00 	at$700008c000000
  0x5ed0	2e 69 64 61 74 61 24 32 00 00 00 00 2c 65 00 00 	.idata$20000,e00
  0x5ee0	14 00 00 00 2e 69 64 61 74 61 24 33 00 00 00 00 	0000.idata$30000
  0x5ef0	40 65 00 00 d0 02 00 00 2e 69 64 61 74 61 24 34 	@e000000.idata$4
  0x5f00	00 00 00 00 10 68 00 00 56 08 00 00 2e 69 64 61 	00000h00V000.ida
  0x5f10	74 61 24 36 00 00 00 00 00 80 00 00 40 00 00 00 	ta$600000000@000
  0x5f20	2e 64 61 74 61 24 62 72 63 00 00 00 40 80 00 00 	.data$brc000@000
  0x5f30	20 00 00 00 2e 64 61 74 61 00 00 00 60 80 00 00 	 000.data000`000
  0x5f40	b0 0a 00 00 2e 62 73 73 00 00 00 00 00 90 00 00 	0000.bss00000000
  0x5f50	e0 01 00 00 2e 70 64 61 74 61 00 00 00 a0 00 00 	0000.pdata000000
  0x5f60	40 00 00 00 2e 64 69 64 61 74 24 35 00 00 00 00 	@000.didat$50000
  0x5f70	00 b0 00 00 f0 00 00 00 2e 72 73 72 63 24 30 31 	00000000.rsrc$01
  0x5f80	00 00 00 00 f0 b0 00 00 30 07 00 00 2e 72 73 72 	000000000000.rsr
  0x5f90	63 24 30 32 00 00 00 00 20 00 00 00 be 4b 68 4e 	c$020000 0000KhN
  0x5fa0	9e 52 b8 66 20 bc a5 62 05 2c 7a 92 ff b4 9e b2 	0R0f 00b0,z00000
  0x5fb0	35 97 cc 0a 30 88 0b a5 ad 7c d2 be 00 00 00 00 	500000000|000000
  0x5fc0	01 12 05 00 12 42 0e 70 0d 60 0c 50 0b 30 00 00 	00000B0p0`0P0000
  0x5fd0	01 06 02 00 06 72 02 30 01 04 01 00 04 82 00 00 	00000r0000000000
  0x5fe0	01 19 0b 00 19 74 07 00 19 64 06 00 19 54 05 00 	00000t000d000T00
  0x5ff0	19 34 04 00 19 f0 17 e0 15 c0 00 00 01 1f 09 00 	0400000000000000
  0x6000	1f 62 1b f0 19 e0 17 d0 15 c0 13 70 12 60 11 50 	0b000000000p0`0P
  0x6010	10 30 00 00 19 28 0a 00 19 74 11 00 19 64 10 00 	00000(000t000d00
  0x6020	19 54 0f 00 19 34 0e 00 19 b2 15 e0 54 43 00 00 	0T0004000000TC00
  0x6030	50 00 00 00 19 1f 05 00 0d 34 14 00 0d 01 12 00 	P000000004000000
  0x6040	06 70 00 00 54 43 00 00 80 00 00 00 01 0a 04 00 	0p00TC0000000000
  0x6050	0a 34 06 00 0a 32 06 70 19 26 09 00 18 34 36 00 	0400020p0&000460
  0x6060	18 01 2e 00 0c f0 0a e0 08 70 07 60 06 50 00 00 	00.000000p0`0P00
  0x6070	54 43 00 00 60 01 00 00 19 16 02 00 07 01 11 00 	TC00`00000000000
  0x6080	54 43 00 00 70 00 00 00 19 1c 03 00 0e 01 28 00 	TC00p000000000(0
  0x6090	02 50 00 00 54 43 00 00 30 01 00 00 19 1c 03 00 	0P00TC0000000000
  0x60a0	0e 01 14 00 02 50 00 00 54 43 00 00 90 00 00 00 	00000P00TC000000
  0x60b0	01 18 0a 00 18 64 0c 00 18 54 0b 00 18 34 0a 00 	00000d000T000400
  0x60c0	18 52 14 f0 12 e0 10 70 01 19 0a 00 19 74 09 00 	0R00000p00000t00
  0x60d0	19 64 08 00 19 54 07 00 19 34 06 00 19 32 15 e0 	0d000T0004000200
  0x60e0	01 12 08 00 12 54 0d 00 12 34 0c 00 12 72 0e e0 	00000T0004000r00
  0x60f0	0c 70 0b 60 01 04 01 00 04 62 00 00 01 04 01 00 	0p0`00000b000000
  0x6100	04 42 00 00 09 15 08 00 15 74 0a 00 15 64 09 00 	0B0000000t000d00
  0x6110	15 34 08 00 15 52 11 f0 4a 3f 00 00 01 00 00 00 	04000R00J?000000
  0x6120	35 3a 00 00 9b 3b 00 00 00 44 00 00 9b 3b 00 00 	5:000;000D000;00
  0x6130	01 06 02 00 06 32 02 50 01 00 00 00 09 04 01 00 	0000020P00000000
  0x6140	04 22 00 00 4a 3f 00 00 01 00 00 00 cc 3c 00 00 	0"00J?0000000<00
  0x6150	02 3d 00 00 01 00 00 00 02 3d 00 00 01 06 02 00 	0=0000000=000000
  0x6160	06 32 02 30 09 0a 04 00 0a 34 06 00 0a 32 06 70 	020000000400020p
  0x6170	4a 3f 00 00 01 00 00 00 dd 3d 00 00 10 3e 00 00 	J?0000000=000>00
  0x6180	30 44 00 00 10 3e 00 00 01 0d 04 00 0d 34 09 00 	0D000>0000000400
  0x6190	0d 32 06 50 01 0c 02 00 0c 01 11 00 00 00 00 00 	020P000000000000
  0x61a0	01 00 00 00 01 18 01 00 18 c2 00 00 01 18 01 00 	0000000000000000
  0x61b0	18 c2 00 00 01 02 01 00 02 30 00 00 01 00 00 00 	0000000000000000
  0x61c0	d0 54 00 00 10 86 00 00 00 a0 00 00 20 62 00 00 	0T0000000000 b00
  0x61d0	f8 62 00 00 00 00 00 00 00 00 00 00 01 00 00 00 	0b00000000000000
  0x61e0	90 56 00 00 30 86 00 00 10 a0 00 00 30 62 00 00 	0V00000000000b00
  0x61f0	08 63 00 00 00 00 00 00 00 00 00 00 00 00 00 00 	0c00000000000000
  0x6200	00 00 00 00 00 00 00 00 00 00 00 00 00 00 00 00 	0000000000000000
  0x6210	00 00 00 00 00 00 00 00 00 00 00 00 00 00 00 00 	0000000000000000
  0x6220	60 62 00 00 00 00 00 00 00 00 00 00 00 00 00 00 	`b00000000000000
  0x6230	de 62 00 00 00 00 00 00 8a 62 00 00 00 00 00 00 	0b0000000b000000
  0x6240	a4 62 00 00 00 00 00 00 bc 62 00 00 00 00 00 00 	0b0000000b000000
  0x6250	70 62 00 00 00 00 00 00 00 00 00 00 00 00 00 00 	pb00000000000000
  0x6260	0a 00 45 78 69 74 57 69 6e 64 6f 77 73 45 78 00 	00ExitWindowsEx0
  0x6270	04 00 53 68 75 74 64 6f 77 6e 45 78 52 65 6d 6f 	00ShutdownExRemo
  0x6280	74 65 44 69 61 6c 6f 67 00 00 02 00 53 68 75 74 	teDialog0000Shut
  0x6290	64 6f 77 6e 45 78 50 72 69 6e 74 52 65 61 73 6f 	downExPrintReaso
  0x62a0	6e 73 00 00 01 00 53 68 75 74 64 6f 77 6e 45 78 	ns0000ShutdownEx
  0x62b0	44 69 72 74 79 44 69 61 6c 6f 67 00 03 00 53 68 	DirtyDialog000Sh
  0x62c0	75 74 64 6f 77 6e 45 78 52 65 61 73 6f 6e 43 6f 	utdownExReasonCo
  0x62d0	6d 6d 65 6e 74 52 65 71 75 69 72 65 64 00 00 00 	mmentRequired000
  0x62e0	53 68 75 74 64 6f 77 6e 45 78 41 6e 6e 6f 74 61 	ShutdownExAnnota
  0x62f0	74 65 00 00 00 00 00 00 00 00 00 00 00 00 00 00 	te00000000000000
  0x6300	00 00 00 00 00 00 00 00 00 00 00 00 00 00 00 00 	0000000000000000
  0x6310	00 00 00 00 00 00 00 00 00 00 00 00 00 00 00 00 	0000000000000000
  0x6320	00 00 00 00 00 00 00 00 00 00 00 00 00 00 00 00 	0000000000000000
  0x6330	00 00 00 00 00 00 00 00 68 67 00 00 00 00 00 00 	00000000hg000000
  0x6340	00 00 00 00 d0 68 00 00 b0 53 00 00 40 65 00 00 	00000h000S00@e00
  0x6350	00 00 00 00 00 00 00 00 0c 69 00 00 88 51 00 00 	000000000i000Q00
  0x6360	88 66 00 00 00 00 00 00 00 00 00 00 cc 6b 00 00 	0f00000000000k00
  0x6370	d0 52 00 00 c8 66 00 00 00 00 00 00 00 00 00 00 	0R000f0000000000
  0x6380	f0 6b 00 00 10 53 00 00 40 67 00 00 00 00 00 00 	0k000S00@g000000
  0x6390	00 00 00 00 14 6c 00 00 88 53 00 00 f0 65 00 00 	00000l000S000e00
  0x63a0	00 00 00 00 00 00 00 00 3c 6c 00 00 38 52 00 00 	00000000<l008R00
  0x63b0	18 67 00 00 00 00 00 00 00 00 00 00 5c 6c 00 00 	0g00000000000l00
  0x63c0	60 53 00 00 90 65 00 00 00 00 00 00 00 00 00 00 	`S000e0000000000
  0x63d0	7e 6c 00 00 d8 51 00 00 e0 65 00 00 00 00 00 00 	~l000Q000e000000
  0x63e0	00 00 00 00 a8 6c 00 00 28 52 00 00 c8 65 00 00 	00000l00(R000e00
  0x63f0	00 00 00 00 00 00 00 00 c8 6c 00 00 10 52 00 00 	000000000l000R00
  0x6400	08 66 00 00 00 00 00 00 00 00 00 00 ec 6c 00 00 	0f00000000000l00
  0x6410	50 52 00 00 20 66 00 00 00 00 00 00 00 00 00 00 	PR00 f0000000000
  0x6420	16 6d 00 00 68 52 00 00 e0 66 00 00 00 00 00 00 	0m00hR000f000000
  0x6430	00 00 00 00 3e 6d 00 00 28 53 00 00 78 66 00 00 	0000>m00(S00xf00
  0x6440	00 00 00 00 00 00 00 00 62 6d 00 00 c0 52 00 00 	00000000bm000R00
  0x6450	50 66 00 00 00 00 00 00 00 00 00 00 86 6d 00 00 	Pf00000000000m00
  0x6460	98 52 00 00 28 67 00 00 00 00 00 00 00 00 00 00 	0R00(g0000000000
  0x6470	b0 6d 00 00 70 53 00 00 a8 66 00 00 00 00 00 00 	0m00pS000f000000
  0x6480	00 00 00 00 d4 6d 00 00 f0 52 00 00 00 67 00 00 	00000m000R000g00
  0x6490	00 00 00 00 00 00 00 00 06 6e 00 00 48 53 00 00 	000000000n00HS00
  0x64a0	e8 67 00 00 00 00 00 00 00 00 00 00 8e 6e 00 00 	0g00000000000n00
  0x64b0	30 54 00 00 80 65 00 00 00 00 00 00 00 00 00 00 	0T000e0000000000
  0x64c0	c8 6e 00 00 c8 51 00 00 70 65 00 00 00 00 00 00 	0n000Q00pe000000
  0x64d0	00 00 00 00 ee 6e 00 00 b8 51 00 00 50 65 00 00 	00000n000Q00Pe00
  0x64e0	00 00 00 00 00 00 00 00 c6 6f 00 00 98 51 00 00 	000000000o000Q00
  0x64f0	38 66 00 00 00 00 00 00 00 00 00 00 ea 6f 00 00 	8f00000000000o00
  0x6500	80 52 00 00 b0 65 00 00 00 00 00 00 00 00 00 00 	0R000e0000000000
  0x6510	18 70 00 00 f8 51 00 00 f0 66 00 00 00 00 00 00 	0p000Q000f000000
  0x6520	00 00 00 00 38 70 00 00 38 53 00 00 00 00 00 00 	00008p008S000000
  0x6530	00 00 00 00 00 00 00 00 00 00 00 00 00 00 00 00 	0000000000000000
  0x6540	f0 68 00 00 00 00 00 00 00 00 00 00 00 00 00 00 	0h00000000000000
  0x6550	92 6f 00 00 00 00 00 00 60 6f 00 00 00 00 00 00 	0o000000`o000000
  0x6560	14 6f 00 00 00 00 00 00 00 00 00 00 00 00 00 00 	0o00000000000000
  0x6570	b0 6e 00 00 00 00 00 00 00 00 00 00 00 00 00 00 	0n00000000000000
  0x6580	98 6e 00 00 00 00 00 00 00 00 00 00 00 00 00 00 	0n00000000000000
  0x6590	b8 6a 00 00 00 00 00 00 88 6b 00 00 00 00 00 00 	0j0000000k000000
  0x65a0	c6 69 00 00 00 00 00 00 00 00 00 00 00 00 00 00 	0i00000000000000
  0x65b0	3a 6f 00 00 00 00 00 00 b8 6f 00 00 00 00 00 00 	:o0000000o000000
  0x65c0	00 00 00 00 00 00 00 00 fc 69 00 00 00 00 00 00 	000000000i000000
  0x65d0	96 6a 00 00 00 00 00 00 00 00 00 00 00 00 00 00 	0j00000000000000
  0x65e0	d6 69 00 00 00 00 00 00 00 00 00 00 00 00 00 00 	0i00000000000000
  0x65f0	1e 6a 00 00 00 00 00 00 9a 69 00 00 00 00 00 00 	0j0000000i000000
  0x6600	00 00 00 00 00 00 00 00 84 6f 00 00 00 00 00 00 	000000000o000000
  0x6610	40 6a 00 00 00 00 00 00 00 00 00 00 00 00 00 00 	@j00000000000000
  0x6620	62 6a 00 00 00 00 00 00 72 6f 00 00 00 00 00 00 	bj000000ro000000
  0x6630	00 00 00 00 00 00 00 00 2a 6f 00 00 00 00 00 00 	00000000*o000000
  0x6640	46 6f 00 00 00 00 00 00 00 00 00 00 00 00 00 00 	Fo00000000000000
  0x6650	b8 6b 00 00 00 00 00 00 06 6b 00 00 00 00 00 00 	0k0000000k000000
  0x6660	a4 6b 00 00 00 00 00 00 f0 6a 00 00 00 00 00 00 	0k0000000j000000
  0x6670	00 00 00 00 00 00 00 00 d6 6a 00 00 00 00 00 00 	000000000j000000
  0x6680	00 00 00 00 00 00 00 00 30 69 00 00 00 00 00 00 	000000000i000000
  0x6690	54 6a 00 00 00 00 00 00 72 69 00 00 00 00 00 00 	Tj000000ri000000
  0x66a0	00 00 00 00 00 00 00 00 74 6b 00 00 00 00 00 00 	00000000tk000000
  0x66b0	46 6b 00 00 00 00 00 00 5a 6b 00 00 00 00 00 00 	Fk000000Zk000000
  0x66c0	00 00 00 00 00 00 00 00 82 69 00 00 00 00 00 00 	000000000i000000
  0x66d0	44 69 00 00 00 00 00 00 00 00 00 00 00 00 00 00 	Di00000000000000
  0x66e0	82 6a 00 00 00 00 00 00 00 00 00 00 00 00 00 00 	0j00000000000000
  0x66f0	a2 6f 00 00 00 00 00 00 00 00 00 00 00 00 00 00 	0o00000000000000
  0x6700	5a 70 00 00 00 00 00 00 fa 6d 00 00 00 00 00 00 	Zp0000000m000000
  0x6710	00 00 00 00 00 00 00 00 a8 69 00 00 00 00 00 00 	000000000i000000
  0x6720	00 00 00 00 00 00 00 00 36 6b 00 00 00 00 00 00 	000000006k000000
  0x6730	1c 6b 00 00 00 00 00 00 00 00 00 00 00 00 00 00 	0k00000000000000
  0x6740	b0 69 00 00 00 00 00 00 ec 69 00 00 00 00 00 00 	0i0000000i000000
  0x6750	60 69 00 00 00 00 00 00 2a 6a 00 00 00 00 00 00 	`i000000*j000000
  0x6760	00 00 00 00 00 00 00 00 1e 68 00 00 00 00 00 00 	000000000h000000
  0x6770	28 68 00 00 00 00 00 00 36 68 00 00 00 00 00 00 	(h0000006h000000
  0x6780	44 68 00 00 00 00 00 00 56 68 00 00 00 00 00 00 	Dh000000Vh000000
  0x6790	68 68 00 00 00 00 00 00 dc 68 00 00 00 00 00 00 	hh0000000h000000
  0x67a0	c4 68 00 00 00 00 00 00 ba 68 00 00 00 00 00 00 	0h0000000h000000
  0x67b0	a2 68 00 00 00 00 00 00 96 68 00 00 00 00 00 00 	0h0000000h000000
  0x67c0	82 68 00 00 00 00 00 00 78 68 00 00 00 00 00 00 	0h000000xh000000
  0x67d0	70 68 00 00 00 00 00 00 10 68 00 00 00 00 00 00 	ph0000000h000000
  0x67e0	00 00 00 00 00 00 00 00 60 6e 00 00 00 00 00 00 	00000000`n000000
  0x67f0	48 6e 00 00 00 00 00 00 32 6e 00 00 00 00 00 00 	Hn0000002n000000
  0x6800	78 6e 00 00 00 00 00 00 00 00 00 00 00 00 00 00 	xn00000000000000
  0x6810	69 03 5f 76 73 6e 77 70 72 69 6e 74 66 00 0b 05 	i0_vsnwprintf000
  0x6820	77 63 73 6e 63 6d 70 00 55 00 5f 58 63 70 74 46 	wcsncmp0U0_XcptF
  0x6830	69 6c 74 65 72 00 ae 00 5f 61 6d 73 67 5f 65 78 	ilter000_amsg_ex
  0x6840	69 74 00 00 9d 00 5f 5f 77 67 65 74 6d 61 69 6e 	it0000__wgetmain
  0x6850	61 72 67 73 00 00 8e 00 5f 5f 73 65 74 5f 61 70 	args0000__set_ap
  0x6860	70 5f 74 79 70 65 00 00 32 04 65 78 69 74 00 00 	p_type0020exit00
  0x6870	0e 01 5f 65 78 69 74 00 c1 00 5f 63 65 78 69 74 	00_exit000_cexit
  0x6880	00 00 90 00 5f 5f 73 65 74 75 73 65 72 6d 61 74 	0000__setusermat
  0x6890	68 65 72 72 00 00 7d 01 5f 69 6e 69 74 74 65 72 	herr00}0_initter
  0x68a0	6d 00 57 00 5f 5f 43 5f 73 70 65 63 69 66 69 63 	m0W0__C_specific
  0x68b0	5f 68 61 6e 64 6c 65 72 00 00 27 01 5f 66 6d 6f 	_handler00'0_fmo
  0x68c0	64 65 00 00 d2 00 5f 63 6f 6d 6d 6f 64 65 00 00 	de0000_commode00
  0x68d0	6d 73 76 63 72 74 2e 64 6c 6c 00 00 2f 00 3f 74 	msvcrt.dll00/0?t
  0x68e0	65 72 6d 69 6e 61 74 65 40 40 59 41 58 58 5a 00 	erminate@@YAXXZ0
  0x68f0	00 00 41 70 69 53 65 74 51 75 65 72 79 41 70 69 	00ApiSetQueryApi
  0x6900	53 65 74 50 72 65 73 65 6e 63 65 00 61 70 69 2d 	SetPresence0api-
  0x6910	6d 73 2d 77 69 6e 2d 63 6f 72 65 2d 61 70 69 71 	ms-win-core-apiq
  0x6920	75 65 72 79 2d 6c 31 2d 31 2d 30 2e 64 6c 6c 00 	uery-l1-1-0.dll0
  0x6930	25 00 52 65 67 51 75 65 72 79 56 61 6c 75 65 45 	%0RegQueryValueE
  0x6940	78 57 00 00 02 00 49 6e 69 74 69 61 74 65 53 79 	xW0000InitiateSy
  0x6950	73 74 65 6d 53 68 75 74 64 6f 77 6e 45 78 57 00 	stemShutdownExW0
  0x6960	05 00 45 76 65 6e 74 55 6e 72 65 67 69 73 74 65 	00EventUnregiste
  0x6970	72 00 1e 00 52 65 67 4f 70 65 6e 4b 65 79 45 78 	r000RegOpenKeyEx
  0x6980	57 00 00 00 41 62 6f 72 74 53 79 73 74 65 6d 53 	W000AbortSystemS
  0x6990	68 75 74 64 6f 77 6e 57 00 00 02 00 4c 6f 63 61 	hutdownW0000Loca
  0x69a0	6c 41 6c 6c 6f 63 00 00 2d 00 53 6c 65 65 70 00 	lAlloc00-0Sleep0
  0x69b0	04 00 45 76 65 6e 74 53 65 74 49 6e 66 6f 72 6d 	00EventSetInform
  0x69c0	61 74 69 6f 6e 00 05 00 47 65 74 4c 61 73 74 45 	ation000GetLastE
  0x69d0	72 72 6f 72 00 00 0a 00 48 65 61 70 53 65 74 49 	rror0000HeapSetI
  0x69e0	6e 66 6f 72 6d 61 74 69 6f 6e 00 00 03 00 45 76 	nformation0000Ev
  0x69f0	65 6e 74 52 65 67 69 73 74 65 72 00 07 00 53 65 	entRegister000Se
  0x6a00	74 46 69 72 6d 77 61 72 65 45 6e 76 69 72 6f 6e 	tFirmwareEnviron
  0x6a10	6d 65 6e 74 56 61 72 69 61 62 6c 65 57 00 03 00 	mentVariableW000
  0x6a20	4c 6f 63 61 6c 46 72 65 65 00 09 00 45 76 65 6e 	LocalFree000Even
  0x6a30	74 57 72 69 74 65 54 72 61 6e 73 66 65 72 00 00 	tWriteTransfer00
  0x6a40	14 00 47 65 74 4d 6f 64 75 6c 65 48 61 6e 64 6c 	00GetModuleHandl
  0x6a50	65 57 00 00 00 00 52 65 67 43 6c 6f 73 65 4b 65 	eW0000RegCloseKe
  0x6a60	79 00 3d 00 53 65 74 54 68 72 65 61 64 50 72 65 	y0=0SetThreadPre
  0x6a70	66 65 72 72 65 64 55 49 4c 61 6e 67 75 61 67 65 	ferredUILanguage
  0x6a80	73 00 01 00 49 6e 69 74 69 61 74 65 53 68 75 74 	s000InitiateShut
  0x6a90	64 6f 77 6e 57 00 03 00 47 65 74 46 69 72 6d 77 	downW000GetFirmw
  0x6aa0	61 72 65 45 6e 76 69 72 6f 6e 6d 65 6e 74 56 61 	areEnvironmentVa
  0x6ab0	72 69 61 62 6c 65 57 00 0f 00 53 65 74 55 6e 68 	riableW000SetUnh
  0x6ac0	61 6e 64 6c 65 64 45 78 63 65 70 74 69 6f 6e 46 	andledExceptionF
  0x6ad0	69 6c 74 65 72 00 00 00 51 75 65 72 79 50 65 72 	ilter000QueryPer
  0x6ae0	66 6f 72 6d 61 6e 63 65 43 6f 75 6e 74 65 72 00 	formanceCounter0
  0x6af0	0d 00 47 65 74 43 75 72 72 65 6e 74 50 72 6f 63 	00GetCurrentProc
  0x6b00	65 73 73 49 64 00 11 00 47 65 74 43 75 72 72 65 	essId000GetCurre
  0x6b10	6e 74 54 68 72 65 61 64 49 64 00 00 16 00 47 65 	ntThreadId0000Ge
  0x6b20	74 53 79 73 74 65 6d 54 69 6d 65 41 73 46 69 6c 	tSystemTimeAsFil
  0x6b30	65 54 69 6d 65 00 1a 00 47 65 74 54 69 63 6b 43 	eTime000GetTickC
  0x6b40	6f 75 6e 74 00 00 02 00 52 74 6c 43 61 70 74 75 	ount0000RtlCaptu
  0x6b50	72 65 43 6f 6e 74 65 78 74 00 0a 00 52 74 6c 4c 	reContext000RtlL
  0x6b60	6f 6f 6b 75 70 46 75 6e 63 74 69 6f 6e 45 6e 74 	ookupFunctionEnt
  0x6b70	72 79 00 00 10 00 52 74 6c 56 69 72 74 75 61 6c 	ry0000RtlVirtual
  0x6b80	55 6e 77 69 6e 64 00 00 11 00 55 6e 68 61 6e 64 	Unwind0000Unhand
  0x6b90	6c 65 64 45 78 63 65 70 74 69 6f 6e 46 69 6c 74 	ledExceptionFilt
  0x6ba0	65 72 00 00 0c 00 47 65 74 43 75 72 72 65 6e 74 	er0000GetCurrent
  0x6bb0	50 72 6f 63 65 73 73 00 4e 00 54 65 72 6d 69 6e 	Process0N0Termin
  0x6bc0	61 74 65 50 72 6f 63 65 73 73 00 00 61 70 69 2d 	ateProcess00api-
  0x6bd0	6d 73 2d 77 69 6e 2d 63 6f 72 65 2d 72 65 67 69 	ms-win-core-regi
  0x6be0	73 74 72 79 2d 6c 31 2d 31 2d 30 2e 64 6c 6c 00 	stry-l1-1-0.dll0
  0x6bf0	61 70 69 2d 6d 73 2d 77 69 6e 2d 63 6f 72 65 2d 	api-ms-win-core-
  0x6c00	73 68 75 74 64 6f 77 6e 2d 6c 31 2d 31 2d 30 2e 	shutdown-l1-1-0.
  0x6c10	64 6c 6c 00 61 70 69 2d 6d 73 2d 77 69 6e 2d 65 	dll0api-ms-win-e
  0x6c20	76 65 6e 74 69 6e 67 2d 70 72 6f 76 69 64 65 72 	venting-provider
  0x6c30	2d 6c 31 2d 31 2d 30 2e 64 6c 6c 00 61 70 69 2d 	-l1-1-0.dll0api-
  0x6c40	6d 73 2d 77 69 6e 2d 63 6f 72 65 2d 68 65 61 70 	ms-win-core-heap
  0x6c50	2d 6c 32 2d 31 2d 30 2e 64 6c 6c 00 61 70 69 2d 	-l2-1-0.dll0api-
  0x6c60	6d 73 2d 77 69 6e 2d 63 6f 72 65 2d 73 79 6e 63 	ms-win-core-sync
  0x6c70	68 2d 6c 31 2d 32 2d 30 2e 64 6c 6c 00 00 61 70 	h-l1-2-0.dll00ap
  0x6c80	69 2d 6d 73 2d 77 69 6e 2d 63 6f 72 65 2d 65 72 	i-ms-win-core-er
  0x6c90	72 6f 72 68 61 6e 64 6c 69 6e 67 2d 6c 31 2d 31 	rorhandling-l1-1
  0x6ca0	2d 30 2e 64 6c 6c 00 00 61 70 69 2d 6d 73 2d 77 	-0.dll00api-ms-w
  0x6cb0	69 6e 2d 63 6f 72 65 2d 68 65 61 70 2d 6c 31 2d 	in-core-heap-l1-
  0x6cc0	31 2d 30 2e 64 6c 6c 00 61 70 69 2d 6d 73 2d 77 	1-0.dll0api-ms-w
  0x6cd0	69 6e 2d 63 6f 72 65 2d 66 69 72 6d 77 61 72 65 	in-core-firmware
  0x6ce0	2d 6c 31 2d 31 2d 30 2e 64 6c 6c 00 61 70 69 2d 	-l1-1-0.dll0api-
  0x6cf0	6d 73 2d 77 69 6e 2d 63 6f 72 65 2d 6c 69 62 72 	ms-win-core-libr
  0x6d00	61 72 79 6c 6f 61 64 65 72 2d 6c 31 2d 32 2d 30 	aryloader-l1-2-0
  0x6d10	2e 64 6c 6c 00 00 61 70 69 2d 6d 73 2d 77 69 6e 	.dll00api-ms-win
  0x6d20	2d 63 6f 72 65 2d 6c 6f 63 61 6c 69 7a 61 74 69 	-core-localizati
  0x6d30	6f 6e 2d 6c 31 2d 32 2d 30 2e 64 6c 6c 00 61 70 	on-l1-2-0.dll0ap
  0x6d40	69 2d 6d 73 2d 77 69 6e 2d 63 6f 72 65 2d 73 68 	i-ms-win-core-sh
  0x6d50	75 74 64 6f 77 6e 2d 6c 31 2d 31 2d 31 2e 64 6c 	utdown-l1-1-1.dl
  0x6d60	6c 00 61 70 69 2d 6d 73 2d 77 69 6e 2d 63 6f 72 	l0api-ms-win-cor
  0x6d70	65 2d 70 72 6f 66 69 6c 65 2d 6c 31 2d 31 2d 30 	e-profile-l1-1-0
  0x6d80	2e 64 6c 6c 00 00 61 70 69 2d 6d 73 2d 77 69 6e 	.dll00api-ms-win
  0x6d90	2d 63 6f 72 65 2d 70 72 6f 63 65 73 73 74 68 72 	-core-processthr
  0x6da0	65 61 64 73 2d 6c 31 2d 31 2d 30 2e 64 6c 6c 00 	eads-l1-1-0.dll0
  0x6db0	61 70 69 2d 6d 73 2d 77 69 6e 2d 63 6f 72 65 2d 	api-ms-win-core-
  0x6dc0	73 79 73 69 6e 66 6f 2d 6c 31 2d 31 2d 30 2e 64 	sysinfo-l1-1-0.d
  0x6dd0	6c 6c 00 00 61 70 69 2d 6d 73 2d 77 69 6e 2d 63 	ll00api-ms-win-c
  0x6de0	6f 72 65 2d 72 74 6c 73 75 70 70 6f 72 74 2d 6c 	ore-rtlsupport-l
  0x6df0	31 2d 31 2d 30 2e 64 6c 6c 00 0b 00 6c 73 74 72 	1-1-0.dll000lstr
  0x6e00	6c 65 6e 57 00 00 61 70 69 2d 6d 73 2d 77 69 6e 	lenW00api-ms-win
  0x6e10	2d 63 6f 72 65 2d 73 74 72 69 6e 67 2d 6f 62 73 	-core-string-obs
  0x6e20	6f 6c 65 74 65 2d 6c 31 2d 31 2d 30 2e 64 6c 6c 	olete-l1-1-0.dll
  0x6e30	00 00 bb 01 4e 74 50 6f 77 65 72 49 6e 66 6f 72 	0000NtPowerInfor
  0x6e40	6d 61 74 69 6f 6e 00 00 7d 01 4e 74 49 6e 69 74 	mation00}0NtInit
  0x6e50	69 61 74 65 50 6f 77 65 72 41 63 74 69 6f 6e 00 	iatePowerAction0
  0x6e60	fd 04 52 74 6c 4e 74 53 74 61 74 75 73 54 6f 44 	00RtlNtStatusToD
  0x6e70	6f 73 45 72 72 6f 72 00 cd 02 52 74 6c 41 64 6a 	osError000RtlAdj
  0x6e80	75 73 74 50 72 69 76 69 6c 65 67 65 00 00 6e 74 	ustPrivilege00nt
  0x6e90	64 6c 6c 2e 64 6c 6c 00 01 00 52 65 73 6f 6c 76 	dll.dll000Resolv
  0x6ea0	65 44 65 6c 61 79 4c 6f 61 64 65 64 41 50 49 00 	eDelayLoadedAPI0
  0x6eb0	00 00 44 65 6c 61 79 4c 6f 61 64 46 61 69 6c 75 	00DelayLoadFailu
  0x6ec0	72 65 48 6f 6f 6b 00 00 61 70 69 2d 6d 73 2d 77 	reHook00api-ms-w
  0x6ed0	69 6e 2d 63 6f 72 65 2d 64 65 6c 61 79 6c 6f 61 	in-core-delayloa
  0x6ee0	64 2d 6c 31 2d 31 2d 31 2e 64 6c 6c 00 00 61 70 	d-l1-1-1.dll00ap
  0x6ef0	69 2d 6d 73 2d 77 69 6e 2d 63 6f 72 65 2d 64 65 	i-ms-win-core-de
  0x6f00	6c 61 79 6c 6f 61 64 2d 6c 31 2d 31 2d 30 2e 64 	layload-l1-1-0.d
  0x6f10	6c 6c 00 00 07 00 47 65 74 43 6f 6e 73 6f 6c 65 	ll0000GetConsole
  0x6f20	4f 75 74 70 75 74 43 50 00 00 0c 00 47 65 74 53 	OutputCP0000GetS
  0x6f30	74 64 48 61 6e 64 6c 65 00 00 5b 00 57 72 69 74 	tdHandle00[0Writ
  0x6f40	65 46 69 6c 65 00 0b 00 47 65 74 45 6e 76 69 72 	eFile000GetEnvir
  0x6f50	6f 6e 6d 65 6e 74 56 61 72 69 61 62 6c 65 57 00 	onmentVariableW0
  0x6f60	06 00 47 65 74 43 6f 6e 73 6f 6c 65 4d 6f 64 65 	00GetConsoleMode
  0x6f70	00 00 09 00 46 6f 72 6d 61 74 4d 65 73 73 61 67 	0000FormatMessag
  0x6f80	65 57 00 00 1c 00 4c 6f 61 64 53 74 72 69 6e 67 	eW0000LoadString
  0x6f90	57 00 13 00 57 72 69 74 65 43 6f 6e 73 6f 6c 65 	W000WriteConsole
  0x6fa0	57 00 07 00 57 69 64 65 43 68 61 72 54 6f 4d 75 	W000WideCharToMu
  0x6fb0	6c 74 69 42 79 74 65 00 31 00 47 65 74 46 69 6c 	ltiByte010GetFil
  0x6fc0	65 54 79 70 65 00 61 70 69 2d 6d 73 2d 77 69 6e 	eType0api-ms-win
  0x6fd0	2d 63 6f 72 65 2d 63 6f 6e 73 6f 6c 65 2d 6c 31 	-core-console-l1
  0x6fe0	2d 31 2d 30 2e 64 6c 6c 00 00 61 70 69 2d 6d 73 	-1-0.dll00api-ms
  0x6ff0	2d 77 69 6e 2d 63 6f 72 65 2d 70 72 6f 63 65 73 	-win-core-proces
  0x7000	73 65 6e 76 69 72 6f 6e 6d 65 6e 74 2d 6c 31 2d 	senvironment-l1-
  0x7010	31 2d 30 2e 64 6c 6c 00 61 70 69 2d 6d 73 2d 77 	1-0.dll0api-ms-w
  0x7020	69 6e 2d 63 6f 72 65 2d 66 69 6c 65 2d 6c 31 2d 	in-core-file-l1-
  0x7030	31 2d 30 2e 64 6c 6c 00 61 70 69 2d 6d 73 2d 77 	1-0.dll0api-ms-w
  0x7040	69 6e 2d 63 6f 72 65 2d 73 74 72 69 6e 67 2d 6c 	in-core-string-l
  0x7050	31 2d 31 2d 30 2e 64 6c 6c 00 0a 00 6c 73 74 72 	1-1-0.dll000lstr
  0x7060	6c 65 6e 41 00 00 00 00 00 00 00 00 00 00 00 00 	lenA000000000000
  0x7070	00 00 00 00 00 00 00 00 00 00 00 00 00 00 00 00 	0000000000000000
  0x7080	00 00 00 00 00 00 00 00 00 00 00 00 00 00 00 00 	0000000000000000
  0x7090	00 00 00 00 00 00 00 00 00 00 00 00 00 00 00 00 	0000000000000000
  0x70a0	00 00 00 00 00 00 00 00 00 00 00 00 00 00 00 00 	0000000000000000
  0x70b0	00 00 00 00 00 00 00 00 00 00 00 00 00 00 00 00 	0000000000000000
  0x70c0	00 00 00 00 00 00 00 00 00 00 00 00 00 00 00 00 	0000000000000000
  0x70d0	00 00 00 00 00 00 00 00 00 00 00 00 00 00 00 00 	0000000000000000
  0x70e0	00 00 00 00 00 00 00 00 00 00 00 00 00 00 00 00 	0000000000000000
  0x70f0	00 00 00 00 00 00 00 00 00 00 00 00 00 00 00 00 	0000000000000000
  0x7100	00 00 00 00 00 00 00 00 00 00 00 00 00 00 00 00 	0000000000000000
  0x7110	00 00 00 00 00 00 00 00 00 00 00 00 00 00 00 00 	0000000000000000
  0x7120	00 00 00 00 00 00 00 00 00 00 00 00 00 00 00 00 	0000000000000000
  0x7130	00 00 00 00 00 00 00 00 00 00 00 00 00 00 00 00 	0000000000000000
  0x7140	00 00 00 00 00 00 00 00 00 00 00 00 00 00 00 00 	0000000000000000
  0x7150	00 00 00 00 00 00 00 00 00 00 00 00 00 00 00 00 	0000000000000000
  0x7160	00 00 00 00 00 00 00 00 00 00 00 00 00 00 00 00 	0000000000000000
  0x7170	00 00 00 00 00 00 00 00 00 00 00 00 00 00 00 00 	0000000000000000
  0x7180	00 00 00 00 00 00 00 00 00 00 00 00 00 00 00 00 	0000000000000000
  0x7190	00 00 00 00 00 00 00 00 00 00 00 00 00 00 00 00 	0000000000000000
  0x71a0	00 00 00 00 00 00 00 00 00 00 00 00 00 00 00 00 	0000000000000000
  0x71b0	00 00 00 00 00 00 00 00 00 00 00 00 00 00 00 00 	0000000000000000
  0x71c0	00 00 00 00 00 00 00 00 00 00 00 00 00 00 00 00 	0000000000000000
  0x71d0	00 00 00 00 00 00 00 00 00 00 00 00 00 00 00 00 	0000000000000000
  0x71e0	00 00 00 00 00 00 00 00 00 00 00 00 00 00 00 00 	0000000000000000
  0x71f0	00 00 00 00 00 00 00 00 00 00 00 00 00 00 00 00 	0000000000000000
=== DATA BLOCK END ===

=== DATA BLOCK ADDRESS 0x8000 ===
  0x8000	00 00 00 00 00 00 00 00 5f 5c 00 40 01 00 00 00 	00000000_00@0000
  0x8010	00 00 00 00 00 00 00 00 00 00 00 00 00 00 00 00 	0000000000000000
  0x8020	00 00 00 00 00 00 00 00 00 00 00 00 00 00 00 00 	0000000000000000
  0x8030	00 00 00 00 00 00 00 00 00 00 00 00 00 00 00 00 	0000000000000000
  0x8040	01 00 00 00 00 00 00 00 32 a2 df 2d 99 2b 00 00 	00000000200-0+00
  0x8050	cd 5d 20 d2 66 d4 ff ff 00 00 00 00 00 00 00 00 	0] 0f00000000000
  0x8060	00 00 00 00 00 00 00 00 00 00 00 00 00 00 00 00 	0000000000000000
  0x8070	00 00 00 00 00 00 00 00 00 00 00 00 00 00 00 00 	0000000000000000
  0x8080	00 00 00 00 00 00 00 00 00 00 00 00 00 00 00 00 	0000000000000000
  0x8090	00 00 00 00 00 00 00 00 00 00 00 00 00 00 00 00 	0000000000000000
  0x80a0	00 00 00 00 00 00 00 00 00 00 00 00 00 00 00 00 	0000000000000000
  0x80b0	00 00 00 00 00 00 00 00 00 00 00 00 00 00 00 00 	0000000000000000
  0x80c0	00 00 00 00 00 00 00 00 00 00 00 00 00 00 00 00 	0000000000000000
  0x80d0	00 00 00 00 00 00 00 00 00 00 00 00 00 00 00 00 	0000000000000000
  0x80e0	00 00 00 00 00 00 00 00 00 00 00 00 00 00 00 00 	0000000000000000
  0x80f0	00 00 00 00 00 00 00 00 00 00 00 00 00 00 00 00 	0000000000000000
  0x8100	00 00 00 00 00 00 00 00 00 00 00 00 00 00 00 00 	0000000000000000
  0x8110	00 00 00 00 00 00 00 00 00 00 00 00 00 00 00 00 	0000000000000000
  0x8120	00 00 00 00 00 00 00 00 00 00 00 00 00 00 00 00 	0000000000000000
  0x8130	00 00 00 00 00 00 00 00 00 00 00 00 00 00 00 00 	0000000000000000
  0x8140	00 00 00 00 00 00 00 00 00 00 00 00 00 00 00 00 	0000000000000000
  0x8150	00 00 00 00 00 00 00 00 00 00 00 00 00 00 00 00 	0000000000000000
  0x8160	00 00 00 00 00 00 00 00 00 00 00 00 00 00 00 00 	0000000000000000
  0x8170	00 00 00 00 00 00 00 00 00 00 00 00 00 00 00 00 	0000000000000000
  0x8180	00 00 00 00 00 00 00 00 00 00 00 00 00 00 00 00 	0000000000000000
  0x8190	00 00 00 00 00 00 00 00 00 00 00 00 00 00 00 00 	0000000000000000
  0x81a0	00 00 00 00 00 00 00 00 00 00 00 00 00 00 00 00 	0000000000000000
  0x81b0	00 00 00 00 00 00 00 00 00 00 00 00 00 00 00 00 	0000000000000000
  0x81c0	00 00 00 00 00 00 00 00 00 00 00 00 00 00 00 00 	0000000000000000
  0x81d0	00 00 00 00 00 00 00 00 00 00 00 00 00 00 00 00 	0000000000000000
  0x81e0	00 00 00 00 00 00 00 00 00 00 00 00 00 00 00 00 	0000000000000000
  0x81f0	00 00 00 00 00 00 00 00 00 00 00 00 00 00 00 00 	0000000000000000
=== DATA BLOCK END ===

=== DATA BLOCK ADDRESS 0x9000 ===
  0x9000	10 10 00 00 89 10 00 00 d0 5f 00 00 90 10 00 00 	000000000_000000
  0x9010	25 11 00 00 d8 5f 00 00 2c 11 00 00 cc 11 00 00 	%0000_00,0000000
  0x9020	78 60 00 00 d4 11 00 00 34 13 00 00 88 60 00 00 	x`00000040000`00
  0x9030	3c 13 00 00 1e 14 00 00 9c 60 00 00 24 14 00 00 	<00000000`00$000
  0x9040	a5 14 00 00 c0 5f 00 00 b8 14 00 00 3c 16 00 00 	00000_000000<000
  0x9050	e0 5f 00 00 44 16 00 00 d6 1e 00 00 fc 5f 00 00 	0_00D00000000_00
  0x9060	dc 1e 00 00 d1 20 00 00 14 60 00 00 d8 20 00 00 	00000 000`000 00
  0x9070	67 21 00 00 34 60 00 00 70 21 00 00 1b 22 00 00 	g!004`00p!000"00
  0x9080	4c 60 00 00 24 22 00 00 3e 32 00 00 58 60 00 00 	L`00$"00>200X`00
  0x9090	44 32 00 00 bf 33 00 00 b0 60 00 00 c8 33 00 00 	D20003000`000300
  0x90a0	9e 34 00 00 c8 60 00 00 a4 34 00 00 8f 36 00 00 	04000`0004000600
  0x90b0	e0 60 00 00 98 36 00 00 3a 37 00 00 4c 60 00 00 	0`000600:700L`00
  0x90c0	40 37 00 00 99 38 00 00 e0 60 00 00 a0 38 00 00 	@70008000`000800
  0x90d0	dd 38 00 00 f4 60 00 00 f0 38 00 00 c3 39 00 00 	08000`0008000900
  0x90e0	fc 60 00 00 d0 39 00 00 19 3a 00 00 f4 60 00 00 	0`0009000:000`00
  0x90f0	20 3a 00 00 de 3b 00 00 04 61 00 00 f0 3b 00 00 	 :000;000a000;00
  0x9100	02 3c 00 00 fc 60 00 00 20 3c 00 00 3e 3c 00 00 	0<000`00 <00><00
  0x9110	38 61 00 00 50 3c 00 00 89 3c 00 00 fc 60 00 00 	8a00P<000<000`00
  0x9120	90 3c 00 00 a8 3c 00 00 fc 60 00 00 bc 3c 00 00 	0<000<000`000<00
  0x9130	10 3d 00 00 3c 61 00 00 18 3d 00 00 5d 3d 00 00 	0=00<a000=00]=00
  0x9140	5c 61 00 00 d0 3d 00 00 1d 3e 00 00 64 61 00 00 	0a000=000>00da00
  0x9150	64 3e 00 00 38 3f 00 00 88 61 00 00 6c 3f 00 00 	d>008?000a00l?00
  0x9160	a0 3f 00 00 5c 61 00 00 b0 3f 00 00 21 41 00 00 	0?000a000?00!A00
  0x9170	94 61 00 00 42 41 00 00 b9 41 00 00 a4 61 00 00 	0a00BA000A000a00
  0x9180	c4 41 00 00 12 42 00 00 fc 60 00 00 2c 42 00 00 	0A000B000`00,B00
  0x9190	7a 42 00 00 fc 60 00 00 8c 42 00 00 03 43 00 00 	zB000`000B000C00
  0x91a0	ac 61 00 00 54 43 00 00 71 43 00 00 fc 60 00 00 	0a00TC00qC000`00
  0x91b0	78 43 00 00 d3 43 00 00 b4 61 00 00 f0 43 00 00 	xC000C000a000C00
  0x91c0	f2 43 00 00 a0 61 00 00 00 44 00 00 1e 44 00 00 	0C000a000D000D00
  0x91d0	30 61 00 00 30 44 00 00 50 44 00 00 30 61 00 00 	0a000D00PD000a00
  0x91e0	00 00 00 00 00 00 00 00 00 00 00 00 00 00 00 00 	0000000000000000
  0x91f0	00 00 00 00 00 00 00 00 00 00 00 00 00 00 00 00 	0000000000000000
=== DATA BLOCK END ===
