===== Assembly blocks =====

=== CODE BLOCK ADDRESS 0x1000 ===
  0x1000	int3   	
  0x1001	int3   	
  0x1002	int3   	
  0x1003	int3   	
  0x1004	int3   	
  === BLOCK LINK ===
    0x1005
=== CODE BLOCK END ===

=== CODE BLOCK ADDRESS 0x1005 ===
  0x1005	int3   	
  0x1006	int3   	
  0x1007	int3   	
  === BLOCK LINK ===
    0x1008
=== CODE BLOCK END ===

=== CODE BLOCK ADDRESS 0x100e ===
  0x100e	mov    	edx, eax
  0x1010	inc    	esp
  0x1011	mov    	ecx, edx
  0x1013	dec    	eax
  0x1014	mov    	eax, ecx
  === BLOCK LINK ===
    0x1016
=== CODE BLOCK END ===

=== CODE BLOCK ADDRESS 0x1016 ===
  0x1016	inc    	ebp
  0x1017	xor    	ebx, ebx
  === BLOCK LINK ===
    0x1019
=== CODE BLOCK END ===

=== CODE BLOCK ADDRESS 0x101f ===
  0x101f	dec    	eax
  0x1020	add    	eax, 2
  0x1023	dec    	ecx
  0x1024	sub    	ecx, 1
  0x1027	jne    	0x1019
  === BLOCK LINK ===
    0x1029
    0x1019
=== CODE BLOCK END ===

=== CODE BLOCK ADDRESS 0x1029 ===
  0x1029	dec    	ecx
  0x102a	mov    	eax, ecx
  0x102c	dec    	eax
  0x102d	neg    	eax
  0x102f	sbb    	eax, eax
  === BLOCK LINK ===
    0x1031
=== CODE BLOCK END ===

=== CODE BLOCK ADDRESS 0x1031 ===
  0x1031	not    	eax
  0x1033	and    	eax, 0x80070057
  0x1038	dec    	ebp
  0x1039	test   	ecx, ecx
  0x103b	je     	0x1045
  === BLOCK LINK ===
    0x103d
    0x1045
=== CODE BLOCK END ===

=== CODE BLOCK ADDRESS 0x103d ===
  0x103d	dec    	esp
  0x103e	mov    	eax, edx
  0x1040	dec    	ebp
  0x1041	sub    	eax, ecx
  0x1043	jmp    	0x1048
  === BLOCK LINK ===
    0x1045
    0x1048
=== CODE BLOCK END ===

=== CODE BLOCK ADDRESS 0x1045 ===
  0x1045	dec    	ebp
  0x1046	mov    	eax, ebx
  === BLOCK LINK ===
    0x1048
    0x109f
=== CODE BLOCK END ===

=== CODE BLOCK ADDRESS 0x104d ===
  0x104d	dec    	edx
  0x104e	lea    	ecx, [ecx + eax*2]
  0x1051	dec    	ecx
  0x1052	sub    	edx, eax
  0x1054	je     	0x1084
  === BLOCK LINK ===
    0x1056
    0x1084
=== CODE BLOCK END ===

=== CODE BLOCK ADDRESS 0x1056 ===
  0x1056	dec    	ecx
  0x1057	lea    	eax, [eax + 0x7ffffefa]
  0x105d	dec    	eax
  0x105e	add    	eax, edx
  0x1060	dec    	esp
  === BLOCK LINK ===
    0x1061
=== CODE BLOCK END ===

=== CODE BLOCK ADDRESS 0x1061 ===
  0x1061	sub    	edx, ecx
  === BLOCK LINK ===
    0x1063
=== CODE BLOCK END ===

=== CODE BLOCK ADDRESS 0x1068 ===
  0x1068	inc    	ebp
  0x1069	movzx  	eax, word ptr [edx + ecx]
  0x106d	inc    	bp
  0x106f	test   	eax, eax
  0x1071	je     	0x1084
  === BLOCK LINK ===
    0x1073
    0x1084
=== CODE BLOCK END ===

=== CODE BLOCK ADDRESS 0x1073 ===
  0x1073	inc    	sp
  0x1075	mov    	dword ptr [ecx], eax
  0x1077	dec    	eax
  0x1078	dec    	eax
  0x107a	dec    	eax
  === BLOCK LINK ===
    0x107b
=== CODE BLOCK END ===

=== CODE BLOCK ADDRESS 0x107b ===
  0x107b	add    	ecx, 2
  0x107e	dec    	eax
  0x107f	sub    	edx, 1
  0x1082	jne    	0x1063
  === BLOCK LINK ===
    0x1084
    0x1063
=== CODE BLOCK END ===

=== CODE BLOCK ADDRESS 0x1084 ===
  0x1084	dec    	eax
  0x1085	test   	edx, edx
  0x1087	dec    	eax
  0x1088	lea    	eax, [ecx - 2]
  0x108b	dec    	eax
  === BLOCK LINK ===
    0x108c
=== CODE BLOCK END ===

=== CODE BLOCK ADDRESS 0x108c ===
  0x108c	cmovne  	eax, ecx
  0x108f	dec    	eax
  0x1090	neg    	edx
  0x1092	inc    	sp
  0x1094	mov    	dword ptr [eax], ebx
  === BLOCK LINK ===
    0x1096
=== CODE BLOCK END ===

=== CODE BLOCK ADDRESS 0x1096 ===
  0x1096	sbb    	eax, eax
  0x1098	not    	eax
  0x109a	and    	eax, 0x8007007a
  === BLOCK LINK ===
    0x109f
=== CODE BLOCK END ===

=== CODE BLOCK ADDRESS 0x10a1 ===
  0x10a1	int3   	
  0x10a2	int3   	
  0x10a3	int3   	
  0x10a4	int3   	
  0x10a5	int3   	
  === BLOCK LINK ===
    0x10a6
=== CODE BLOCK END ===

=== CODE BLOCK ADDRESS 0x10a6 ===
  0x10a6	int3   	
  0x10a7	int3   	
  0x10a8	dec    	esp
  0x10a9	mov    	dword ptr [esp + 0x18], eax
  0x10ad	dec    	esp
  === BLOCK LINK ===
    0x10ae
=== CODE BLOCK END ===

=== CODE BLOCK ADDRESS 0x10ae ===
  0x10ae	mov    	dword ptr [esp + 0x20], ecx
  0x10b2	push   	ebx
  0x10b3	push   	ebp
  0x10b4	push   	esi
  0x10b5	push   	edi
  === BLOCK LINK ===
    0x10b6
=== CODE BLOCK END ===

=== CODE BLOCK ADDRESS 0x10b6 ===
  0x10b6	dec    	eax
  0x10b7	sub    	esp, 0x28
  0x10ba	xor    	ebp, ebp
  0x10bc	dec    	eax
  0x10bd	lea    	eax, [edx - 1]
  === BLOCK LINK ===
    0x10c0
=== CODE BLOCK END ===

=== CODE BLOCK ADDRESS 0x10c0 ===
  0x10c0	dec    	eax
  0x10c1	cmp    	eax, 0x7ffffffe
  0x10c6	dec    	eax
  0x10c7	mov    	esi, ecx
  0x10c9	mov    	edi, ebp
  === BLOCK LINK ===
    0x10cb
=== CODE BLOCK END ===

=== CODE BLOCK ADDRESS 0x10cb ===
  0x10cb	mov    	ecx, 0x80070057
  0x10d0	cmova  	edi, ecx
  0x10d3	test   	edi, edi
  0x10d5	js     	0x1112
  === BLOCK LINK ===
    0x10d7
    0x1112
=== CODE BLOCK END ===

=== CODE BLOCK ADDRESS 0x10d7 ===
  0x10d7	dec    	eax
  0x10d8	lea    	ebx, [edx - 1]
  0x10db	dec    	eax
  0x10dc	mov    	ecx, esi
  0x10de	dec    	eax
  === BLOCK LINK ===
    0x10df
=== CODE BLOCK END ===

=== CODE BLOCK ADDRESS 0x10df ===
  0x10df	mov    	edx, ebx
  0x10e1	dec    	esp
  0x10e2	lea    	ecx, [esp + 0x68]
  0x10e6	mov    	edi, ebp
  0x10e8	dec    	eax
  === BLOCK LINK ===
    0x10e9
=== CODE BLOCK END ===

=== CODE BLOCK ADDRESS 0x10e9 ===
  0x10e9	call   	dword ptr [0x2679]
  === BLOCK LINK ===
    0x10ef
=== CODE BLOCK END ===

=== CODE BLOCK ADDRESS 0x10ef ===
  0x10ef	nop    	dword ptr [eax + eax]
  0x10f4	test   	eax, eax
  0x10f6	js     	0x1107
  === BLOCK LINK ===
    0x10f8
    0x1107
=== CODE BLOCK END ===

=== CODE BLOCK ADDRESS 0x10f8 ===
  0x10f8	dec    	eax
  0x10f9	cwde   	
  0x10fa	dec    	eax
  0x10fb	cmp    	eax, ebx
  0x10fd	ja     	0x1107
  === BLOCK LINK ===
    0x10ff
    0x1107
=== CODE BLOCK END ===

=== CODE BLOCK ADDRESS 0x10ff ===
  0x10ff	jne    	0x111a
  === BLOCK LINK ===
    0x1101
    0x111a
=== CODE BLOCK END ===

=== CODE BLOCK ADDRESS 0x1101 ===
  0x1101	mov    	word ptr [esi + ebx*2], bp
  0x1105	jmp    	0x111a
  === BLOCK LINK ===
    0x1107
    0x111a
=== CODE BLOCK END ===

=== CODE BLOCK ADDRESS 0x1107 ===
  0x1107	mov    	word ptr [esi + ebx*2], bp
  0x110b	mov    	edi, 0x8007007a
  0x1110	jmp    	0x111a
  === BLOCK LINK ===
    0x1112
    0x111a
=== CODE BLOCK END ===

=== CODE BLOCK ADDRESS 0x1112 ===
  0x1112	dec    	eax
  0x1113	test   	edx, edx
  0x1115	je     	0x111a
  === BLOCK LINK ===
    0x1117
    0x111a
=== CODE BLOCK END ===

=== CODE BLOCK ADDRESS 0x1117 ===
  0x1117	mov    	word ptr [esi], bp
  === BLOCK LINK ===
    0x111a
=== CODE BLOCK END ===

=== CODE BLOCK ADDRESS 0x1121 ===
  0x1121	pop    	esi
  0x1122	pop    	ebp
  0x1123	pop    	ebx
  0x1124	ret    	
  0x1125	int3   	
  === BLOCK LINK ===
    0x1126
=== CODE BLOCK END ===

=== CODE BLOCK ADDRESS 0x1019 ===
  0x1019	inc    	sp
  0x101b	cmp    	dword ptr [eax], ebx
  0x101d	je     	0x1029
  === BLOCK LINK ===
    0x101f
    0x1029
=== CODE BLOCK END ===

=== CODE BLOCK ADDRESS 0x1126 ===
  0x1126	int3   	
  0x1127	int3   	
  0x1128	int3   	
  0x1129	int3   	
  0x112a	int3   	
  === BLOCK LINK ===
    0x112b
=== CODE BLOCK END ===

=== CODE BLOCK ADDRESS 0x112b ===
  0x112b	int3   	
  0x112c	int3   	
  0x112d	int3   	
  0x112e	int3   	
  0x112f	int3   	
  === BLOCK LINK ===
    0x1130
=== CODE BLOCK END ===

=== CODE BLOCK ADDRESS 0x1130 ===
  0x1130	inc    	eax
  0x1131	push   	ebx
  0x1132	dec    	eax
  0x1133	sub    	esp, 0x20
  0x1136	dec    	eax
  === BLOCK LINK ===
    0x1137
=== CODE BLOCK END ===

=== CODE BLOCK ADDRESS 0x1137 ===
  0x1137	mov    	ebx, ecx
  0x1139	dec    	eax
  0x113a	call   	dword ptr [0x24d0]
  === BLOCK LINK ===
    0x1140
=== CODE BLOCK END ===

=== CODE BLOCK ADDRESS 0x1140 ===
  0x1140	nop    	dword ptr [eax + eax]
  0x1145	dec    	esp
  0x1146	mov    	eax, ebx
  0x1148	xor    	edx, edx
  0x114a	dec    	eax
  === BLOCK LINK ===
    0x114b
=== CODE BLOCK END ===

=== CODE BLOCK ADDRESS 0x114b ===
  0x114b	mov    	ecx, eax
  0x114d	dec    	eax
  0x114e	add    	esp, 0x20
  0x1151	pop    	ebx
  0x1152	dec    	eax
  === BLOCK LINK ===
    0x1153
=== CODE BLOCK END ===

=== CODE BLOCK ADDRESS 0x1153 ===
  0x1153	jmp    	dword ptr [0x249f]
  === BLOCK LINK ===
    0x1159
=== CODE BLOCK END ===

=== CODE BLOCK ADDRESS 0x1159 ===
  0x1159	int3   	
  0x115a	int3   	
  0x115b	int3   	
  0x115c	int3   	
  0x115d	int3   	
  === BLOCK LINK ===
    0x115e
=== CODE BLOCK END ===

=== CODE BLOCK ADDRESS 0x115e ===
  0x115e	int3   	
  0x115f	int3   	
  0x1160	int3   	
  0x1161	int3   	
  0x1162	int3   	
  === BLOCK LINK ===
    0x1163
=== CODE BLOCK END ===

=== CODE BLOCK ADDRESS 0x1163 ===
  0x1163	int3   	
  0x1164	int3   	
  0x1165	int3   	
  0x1166	int3   	
  0x1167	int3   	
  === BLOCK LINK ===
    0x1168
=== CODE BLOCK END ===

=== CODE BLOCK ADDRESS 0x1168 ===
  0x1168	int3   	
  0x1169	int3   	
  0x116a	int3   	
  0x116b	int3   	
  0x116c	int3   	
  === BLOCK LINK ===
    0x116d
=== CODE BLOCK END ===

=== CODE BLOCK ADDRESS 0x116d ===
  0x116d	int3   	
  0x116e	int3   	
  0x116f	int3   	
  0x1170	inc    	eax
  0x1171	push   	ebx
  === BLOCK LINK ===
    0x1172
=== CODE BLOCK END ===

=== CODE BLOCK ADDRESS 0x1172 ===
  0x1172	dec    	eax
  0x1173	sub    	esp, 0x20
  0x1176	dec    	eax
  0x1177	mov    	ebx, ecx
  0x1179	dec    	eax
  === BLOCK LINK ===
    0x117a
=== CODE BLOCK END ===

=== CODE BLOCK ADDRESS 0x117a ===
  0x117a	call   	dword ptr [0x2490]
  === BLOCK LINK ===
    0x1180
=== CODE BLOCK END ===

=== CODE BLOCK ADDRESS 0x1180 ===
  0x1180	nop    	dword ptr [eax + eax]
  0x1185	dec    	esp
  0x1186	mov    	eax, ebx
  0x1188	xor    	edx, edx
  0x118a	dec    	eax
  === BLOCK LINK ===
    0x118b
=== CODE BLOCK END ===

=== CODE BLOCK ADDRESS 0x118b ===
  0x118b	mov    	ecx, eax
  0x118d	dec    	eax
  0x118e	add    	esp, 0x20
  0x1191	pop    	ebx
  0x1192	dec    	eax
  === BLOCK LINK ===
    0x1193
=== CODE BLOCK END ===

=== CODE BLOCK ADDRESS 0x1193 ===
  0x1193	jmp    	dword ptr [0x2407]
  === BLOCK LINK ===
    0x1199
=== CODE BLOCK END ===

=== CODE BLOCK ADDRESS 0x1199 ===
  0x1199	int3   	
  0x119a	int3   	
  0x119b	int3   	
  0x119c	int3   	
  0x119d	int3   	
  === BLOCK LINK ===
    0x119e
=== CODE BLOCK END ===

=== CODE BLOCK ADDRESS 0x119e ===
  0x119e	int3   	
  0x119f	int3   	
  0x11a0	int3   	
  0x11a1	int3   	
  0x11a2	int3   	
  === BLOCK LINK ===
    0x11a3
=== CODE BLOCK END ===

=== CODE BLOCK ADDRESS 0x11a3 ===
  0x11a3	int3   	
  0x11a4	dec    	eax
  0x11a5	mov    	dword ptr [esp + 8], ebx
  0x11a9	dec    	eax
  0x11aa	mov    	dword ptr [esp + 0x10], esi
  === BLOCK LINK ===
    0x11ae
=== CODE BLOCK END ===

=== CODE BLOCK ADDRESS 0x11ae ===
  0x11ae	push   	ebp
  0x11af	push   	edi
  0x11b0	inc    	ecx
  0x11b1	push   	esp
  0x11b2	inc    	ecx
  === BLOCK LINK ===
    0x11b3
=== CODE BLOCK END ===

=== CODE BLOCK ADDRESS 0x11b3 ===
  0x11b3	push   	esi
  0x11b4	inc    	ecx
  0x11b5	push   	edi
  0x11b6	dec    	eax
  0x11b7	lea    	ebp, [esp - 0x270]
  === BLOCK LINK ===
    0x11be
=== CODE BLOCK END ===

=== CODE BLOCK ADDRESS 0x11be ===
  0x11be	dec    	eax
  0x11bf	sub    	esp, 0x370
  0x11c5	dec    	eax
  0x11c6	mov    	eax, dword ptr [0x3e3c]
  0x11cc	dec    	eax
  === BLOCK LINK ===
    0x11cd
=== CODE BLOCK END ===

=== CODE BLOCK ADDRESS 0x11cd ===
  0x11cd	xor    	eax, esp
  0x11cf	dec    	eax
  0x11d0	mov    	dword ptr [ebp + 0x260], eax
  0x11d6	dec    	esp
  0x11d7	mov    	edi, dword ptr [ebp + 0x2c0]
  === BLOCK LINK ===
    0x11dd
=== CODE BLOCK END ===

=== CODE BLOCK ADDRESS 0x11dd ===
  0x11dd	dec    	esp
  0x11de	lea    	ecx, [0x26bc]
  0x11e4	dec    	eax
  0x11e5	lea    	eax, [ebp + 0x50]
  0x11e8	mov    	esi, 0x104
  === BLOCK LINK ===
    0x11ed
=== CODE BLOCK END ===

=== CODE BLOCK ADDRESS 0x11ed ===
  0x11ed	dec    	esp
  0x11ee	sub    	ecx, eax
  0x11f0	dec    	eax
  0x11f1	lea    	edx, [ebp + 0x50]
  0x11f4	dec    	ebp
  === BLOCK LINK ===
    0x11f5
=== CODE BLOCK END ===

=== CODE BLOCK ADDRESS 0x11f5 ===
  0x11f5	mov    	esi, eax
  0x11f7	inc    	ebp
  0x11f8	xor    	esp, esp
  0x11fa	inc    	esp
  0x11fb	mov    	eax, esi
  === BLOCK LINK ===
    0x11fd
=== CODE BLOCK END ===

=== CODE BLOCK ADDRESS 0x11fd ===
  0x11fd	dec    	ecx
  0x11fe	lea    	eax, [eax + 0x7ffffefa]
  0x1204	dec    	eax
  0x1205	test   	eax, eax
  0x1207	je     	0x1220
  === BLOCK LINK ===
    0x1209
    0x1220
=== CODE BLOCK END ===

=== CODE BLOCK ADDRESS 0x1209 ===
  0x1209	inc    	ecx
  0x120a	movzx  	eax, word ptr [ecx + edx]
  0x120e	test   	ax, ax
  0x1211	je     	0x1220
  === BLOCK LINK ===
    0x1213
    0x1220
=== CODE BLOCK END ===

=== CODE BLOCK ADDRESS 0x1213 ===
  0x1213	mov    	word ptr [edx], ax
  0x1216	dec    	eax
  0x1217	add    	edx, 2
  0x121a	dec    	ecx
  0x121b	sub    	eax, 1
  === BLOCK LINK ===
    0x121e
=== CODE BLOCK END ===

=== CODE BLOCK ADDRESS 0x121e ===
  0x121e	jne    	0x11fd
  === BLOCK LINK ===
    0x1220
    0x11fd
=== CODE BLOCK END ===

=== CODE BLOCK ADDRESS 0x1220 ===
  0x1220	dec    	ebp
  0x1221	test   	eax, eax
  0x1223	dec    	eax
  0x1224	lea    	eax, [edx - 2]
  0x1227	dec    	esp
  === BLOCK LINK ===
    0x1228
=== CODE BLOCK END ===

=== CODE BLOCK ADDRESS 0x1228 ===
  0x1228	mov    	eax, ecx
  0x122a	dec    	eax
  0x122b	lea    	ecx, [ebp + 0x50]
  0x122e	dec    	eax
  0x122f	cmovne  	eax, edx
  === BLOCK LINK ===
    0x1232
=== CODE BLOCK END ===

=== CODE BLOCK ADDRESS 0x1232 ===
  0x1232	inc    	sp
  0x1234	mov    	dword ptr [eax], esp
  0x1236	call   	0x1008
  === BLOCK LINK ===
    0x123b
    0x1008
=== CODE BLOCK END ===

=== CODE BLOCK ADDRESS 0x123b ===
  0x123b	dec    	esp
  0x123c	lea    	eax, [0x26a6]
  0x1242	dec    	eax
  0x1243	lea    	ecx, [ebp + 0x50]
  0x1246	call   	0x1008
  === BLOCK LINK ===
    0x124b
    0x1008
=== CODE BLOCK END ===

=== CODE BLOCK ADDRESS 0x124b ===
  0x124b	dec    	eax
  0x124c	lea    	eax, [esp + 0x48]
  0x1250	inc    	ecx
  0x1251	mov    	ecx, 0x20019
  0x1256	inc    	ebp
  === BLOCK LINK ===
    0x1257
=== CODE BLOCK END ===

=== CODE BLOCK ADDRESS 0x1257 ===
  0x1257	xor    	eax, eax
  0x1259	dec    	eax
  0x125a	mov    	dword ptr [esp + 0x20], eax
  0x125e	dec    	eax
  0x125f	lea    	edx, [ebp + 0x50]
  === BLOCK LINK ===
    0x1262
=== CODE BLOCK END ===

=== CODE BLOCK ADDRESS 0x1262 ===
  0x1262	dec    	eax
  0x1263	mov    	ecx, 0x80000002
  0x1269	dec    	eax
  0x126a	call   	dword ptr [0x2300]
  === BLOCK LINK ===
    0x1270
=== CODE BLOCK END ===

=== CODE BLOCK ADDRESS 0x1270 ===
  0x1270	nop    	dword ptr [eax + eax]
  0x1275	test   	eax, eax
  0x1277	jne    	0x1489
  === BLOCK LINK ===
    0x127d
    0x1489
=== CODE BLOCK END ===

=== CODE BLOCK ADDRESS 0x127d ===
  0x127d	dec    	eax
  0x127e	mov    	ecx, dword ptr [esp + 0x48]
  0x1282	dec    	eax
  0x1283	lea    	eax, [esp + 0x40]
  0x1287	dec    	eax
  === BLOCK LINK ===
    0x1288
=== CODE BLOCK END ===

=== CODE BLOCK ADDRESS 0x1288 ===
  0x1288	mov    	dword ptr [esp + 0x28], eax
  0x128c	dec    	esp
  0x128d	lea    	ecx, [esp + 0x44]
  0x1291	dec    	eax
  0x1292	lea    	eax, [esp + 0x50]
  === BLOCK LINK ===
    0x1296
=== CODE BLOCK END ===

=== CODE BLOCK ADDRESS 0x1296 ===
  0x1296	mov    	dword ptr [esp + 0x40], 0x100
  0x129e	inc    	ebp
  0x129f	xor    	eax, eax
  0x12a1	dec    	eax
  0x12a2	mov    	dword ptr [esp + 0x20], eax
  === BLOCK LINK ===
    0x12a6
=== CODE BLOCK END ===

=== CODE BLOCK ADDRESS 0x12a6 ===
  0x12a6	dec    	eax
  0x12a7	lea    	edx, [0x2663]
  0x12ad	dec    	eax
  0x12ae	lea    	ebx, [esp + 0x50]
  0x12b2	dec    	eax
  === BLOCK LINK ===
    0x12b3
=== CODE BLOCK END ===

=== CODE BLOCK ADDRESS 0x12b3 ===
  0x12b3	call   	dword ptr [0x22d7]
  === BLOCK LINK ===
    0x12b9
=== CODE BLOCK END ===

=== CODE BLOCK ADDRESS 0x12b9 ===
  0x12b9	nop    	dword ptr [eax + eax]
  0x12be	mov    	edi, eax
  0x12c0	test   	eax, eax
  0x12c2	je     	0x134f
  === BLOCK LINK ===
    0x12c8
    0x134f
=== CODE BLOCK END ===

=== CODE BLOCK ADDRESS 0x12c8 ===
  0x12c8	cmp    	eax, 0xea
  0x12cd	jne    	0x131a
  === BLOCK LINK ===
    0x12cf
    0x131a
=== CODE BLOCK END ===

=== CODE BLOCK ADDRESS 0x12cf ===
  0x12cf	mov    	edx, dword ptr [esp + 0x40]
  0x12d3	xor    	ecx, ecx
  0x12d5	dec    	eax
  0x12d6	call   	dword ptr [0x22dc]
  === BLOCK LINK ===
    0x12dc
=== CODE BLOCK END ===

=== CODE BLOCK ADDRESS 0x12dc ===
  0x12dc	nop    	dword ptr [eax + eax]
  0x12e1	dec    	eax
  0x12e2	mov    	ebx, eax
  0x12e4	dec    	eax
  0x12e5	test   	eax, eax
  === BLOCK LINK ===
    0x12e7
=== CODE BLOCK END ===

=== CODE BLOCK ADDRESS 0x12e7 ===
  0x12e7	je     	0x131e
  === BLOCK LINK ===
    0x12e9
    0x131e
=== CODE BLOCK END ===

=== CODE BLOCK ADDRESS 0x12e9 ===
  0x12e9	dec    	eax
  0x12ea	mov    	ecx, dword ptr [esp + 0x48]
  0x12ee	dec    	eax
  0x12ef	lea    	eax, [esp + 0x40]
  0x12f3	dec    	eax
  === BLOCK LINK ===
    0x12f4
=== CODE BLOCK END ===

=== CODE BLOCK ADDRESS 0x12f4 ===
  0x12f4	mov    	dword ptr [esp + 0x28], eax
  0x12f8	dec    	esp
  0x12f9	lea    	ecx, [esp + 0x44]
  0x12fd	inc    	ebp
  0x12fe	xor    	eax, eax
  === BLOCK LINK ===
    0x1300
=== CODE BLOCK END ===

=== CODE BLOCK ADDRESS 0x1300 ===
  0x1300	dec    	eax
  0x1301	mov    	dword ptr [esp + 0x20], ebx
  0x1305	dec    	eax
  0x1306	lea    	edx, [0x2604]
  0x130c	dec    	eax
  === BLOCK LINK ===
    0x130d
=== CODE BLOCK END ===

=== CODE BLOCK ADDRESS 0x130d ===
  0x130d	call   	dword ptr [0x227d]
  === BLOCK LINK ===
    0x1313
=== CODE BLOCK END ===

=== CODE BLOCK ADDRESS 0x1313 ===
  0x1313	nop    	dword ptr [eax + eax]
  0x1318	mov    	edi, eax
  === BLOCK LINK ===
    0x131a
    0x134f
=== CODE BLOCK END ===

=== CODE BLOCK ADDRESS 0x131e ===
  0x131e	dec    	eax
  0x131f	mov    	ecx, dword ptr [esp + 0x48]
  0x1323	dec    	eax
  0x1324	call   	dword ptr [0x225e]
  === BLOCK LINK ===
    0x132a
=== CODE BLOCK END ===

=== CODE BLOCK ADDRESS 0x132a ===
  0x132a	nop    	dword ptr [eax + eax]
  0x132f	dec    	eax
  0x1330	lea    	eax, [esp + 0x50]
  0x1334	dec    	eax
  0x1335	cmp    	ebx, eax
  === BLOCK LINK ===
    0x1337
=== CODE BLOCK END ===

=== CODE BLOCK ADDRESS 0x1337 ===
  0x1337	je     	0x1348
  === BLOCK LINK ===
    0x1339
    0x1348
=== CODE BLOCK END ===

=== CODE BLOCK ADDRESS 0x1339 ===
  0x1339	dec    	eax
  0x133a	mov    	ecx, ebx
  0x133c	dec    	eax
  0x133d	call   	dword ptr [0x22c5]
  === BLOCK LINK ===
    0x1343
=== CODE BLOCK END ===

=== CODE BLOCK ADDRESS 0x1343 ===
  0x1343	nop    	dword ptr [eax + eax]
  === BLOCK LINK ===
    0x1348
    0x1489
=== CODE BLOCK END ===

=== CODE BLOCK ADDRESS 0x134f ===
  0x134f	dec    	eax
  0x1350	mov    	ecx, dword ptr [esp + 0x48]
  0x1354	dec    	eax
  0x1355	call   	dword ptr [0x222d]
  === BLOCK LINK ===
    0x135b
=== CODE BLOCK END ===

=== CODE BLOCK ADDRESS 0x135b ===
  0x135b	nop    	dword ptr [eax + eax]
  0x1360	cmp    	dword ptr [esp + 0x44], 2
  0x1365	jne    	0x138d
  === BLOCK LINK ===
    0x1367
    0x138d
=== CODE BLOCK END ===

=== CODE BLOCK ADDRESS 0x1367 ===
  0x1367	inc    	esp
  0x1368	mov    	eax, esi
  0x136a	dec    	eax
  0x136b	lea    	edx, [ebp + 0x50]
  0x136e	dec    	eax
  === BLOCK LINK ===
    0x136f
=== CODE BLOCK END ===

=== CODE BLOCK ADDRESS 0x136f ===
  0x136f	mov    	ecx, ebx
  0x1371	dec    	eax
  0x1372	call   	dword ptr [0x2230]
  === BLOCK LINK ===
    0x1378
=== CODE BLOCK END ===

=== CODE BLOCK ADDRESS 0x1378 ===
  0x1378	nop    	dword ptr [eax + eax]
  0x137d	dec    	eax
  0x137f	cmp    	eax, 0x103
  0x1384	jbe    	0x13d3
  === BLOCK LINK ===
    0x1386
    0x13d3
=== CODE BLOCK END ===

=== CODE BLOCK ADDRESS 0x1386 ===
  0x1386	mov    	edi, 8
  0x138b	jmp    	0x13d3
  === BLOCK LINK ===
    0x138d
    0x13d3
=== CODE BLOCK END ===

=== CODE BLOCK ADDRESS 0x138d ===
  0x138d	cmp    	dword ptr [esp + 0x44], 1
  0x1392	jne    	0x13d3
  === BLOCK LINK ===
    0x1394
    0x13d3
=== CODE BLOCK END ===

=== CODE BLOCK ADDRESS 0x1394 ===
  0x1394	dec    	eax
  0x1395	lea    	eax, [ebp + 0x50]
  0x1398	dec    	eax
  0x1399	mov    	edx, ebx
  0x139b	dec    	eax
  === BLOCK LINK ===
    0x139c
=== CODE BLOCK END ===

=== CODE BLOCK ADDRESS 0x139c ===
  0x139c	sub    	edx, eax
  0x139e	dec    	eax
  0x139f	lea    	ecx, [ebp + 0x50]
  === BLOCK LINK ===
    0x13a2
=== CODE BLOCK END ===

=== CODE BLOCK ADDRESS 0x13a9 ===
  0x13a9	dec    	eax
  0x13aa	test   	eax, eax
  0x13ac	je     	0x13c4
  === BLOCK LINK ===
    0x13ae
    0x13c4
=== CODE BLOCK END ===

=== CODE BLOCK ADDRESS 0x13ae ===
  0x13ae	movzx  	eax, word ptr [edx + ecx]
  0x13b2	test   	ax, ax
  0x13b5	je     	0x13c4
  === BLOCK LINK ===
    0x13b7
    0x13c4
=== CODE BLOCK END ===

=== CODE BLOCK ADDRESS 0x13b7 ===
  0x13b7	mov    	word ptr [ecx], ax
  0x13ba	dec    	eax
  0x13bb	add    	ecx, 2
  0x13be	dec    	eax
  0x13bf	sub    	esi, 1
  === BLOCK LINK ===
    0x13c2
=== CODE BLOCK END ===

=== CODE BLOCK ADDRESS 0x13c2 ===
  0x13c2	jne    	0x13a2
  === BLOCK LINK ===
    0x13c4
    0x13a2
=== CODE BLOCK END ===

=== CODE BLOCK ADDRESS 0x13c4 ===
  0x13c4	dec    	eax
  0x13c5	test   	esi, esi
  0x13c7	dec    	eax
  0x13c8	lea    	eax, [ecx - 2]
  0x13cb	dec    	eax
  === BLOCK LINK ===
    0x13cc
=== CODE BLOCK END ===

=== CODE BLOCK ADDRESS 0x13cc ===
  0x13cc	cmovne  	eax, ecx
  0x13cf	inc    	sp
  0x13d1	mov    	dword ptr [eax], esp
  === BLOCK LINK ===
    0x13d3
=== CODE BLOCK END ===

=== CODE BLOCK ADDRESS 0x13d8 ===
  0x13d8	test   	edi, edi
  0x13da	jne    	0x1334
  === BLOCK LINK ===
    0x13e0
=== CODE BLOCK END ===

=== CODE BLOCK ADDRESS 0x13e0 ===
  0x13e0	dec    	eax
  0x13e1	cmp    	ebx, eax
  0x13e3	je     	0x13f4
  === BLOCK LINK ===
    0x13e5
=== CODE BLOCK END ===

=== CODE BLOCK ADDRESS 0x13e5 ===
  0x13e5	dec    	eax
  0x13e6	mov    	ecx, ebx
  0x13e8	dec    	eax
  0x13e9	call   	dword ptr [0x2219]
  === BLOCK LINK ===
    0x13ef
=== CODE BLOCK END ===

=== CODE BLOCK ADDRESS 0x13ef ===
  0x13ef	nop    	dword ptr [eax + eax]
  0x13f4	dec    	eax
  0x13f5	lea    	ecx, [ebp + 0x50]
  0x13f8	dec    	eax
  0x13f9	call   	dword ptr [0x21e9]
  === BLOCK LINK ===
    0x13ff
=== CODE BLOCK END ===

=== CODE BLOCK ADDRESS 0x13ff ===
  0x13ff	nop    	dword ptr [eax + eax]
  0x1404	dec    	eax
  0x1405	mov    	edi, eax
  0x1407	dec    	eax
  0x1408	test   	eax, eax
  === BLOCK LINK ===
    0x140a
=== CODE BLOCK END ===

=== CODE BLOCK ADDRESS 0x140a ===
  0x140a	je     	0x1479
  === BLOCK LINK ===
    0x140c
=== CODE BLOCK END ===

=== CODE BLOCK ADDRESS 0x140c ===
  0x140c	dec    	eax
  0x140d	lea    	edx, [0x251d]
  0x1413	dec    	eax
  0x1414	mov    	ecx, eax
  0x1416	dec    	eax
  === BLOCK LINK ===
    0x1417
=== CODE BLOCK END ===

=== CODE BLOCK ADDRESS 0x1417 ===
  0x1417	call   	dword ptr [0x21e3]
  === BLOCK LINK ===
    0x141d
=== CODE BLOCK END ===

=== CODE BLOCK ADDRESS 0x141d ===
  0x141d	nop    	dword ptr [eax + eax]
  0x1422	dec    	eax
  0x1423	test   	eax, eax
  0x1425	je     	0x145a
  === BLOCK LINK ===
    0x1427
=== CODE BLOCK END ===

=== CODE BLOCK ADDRESS 0x1427 ===
  0x1427	mov    	ecx, dword ptr [ebp + 0x2d8]
  0x142d	dec    	ebp
  0x142e	mov    	ecx, edi
  0x1430	mov    	dword ptr [esp + 0x30], ecx
  0x1434	dec    	ecx
  === BLOCK LINK ===
    0x1435
=== CODE BLOCK END ===

=== CODE BLOCK ADDRESS 0x1435 ===
  0x1435	mov    	edx, esi
  0x1437	dec    	eax
  0x1438	lea    	ecx, [0x250a]
  0x143e	dec    	esp
  0x143f	mov    	dword ptr [esp + 0x28], esp
  === BLOCK LINK ===
    0x1443
=== CODE BLOCK END ===

=== CODE BLOCK ADDRESS 0x1443 ===
  0x1443	dec    	eax
  0x1444	mov    	dword ptr [esp + 0x20], ecx
  0x1448	dec    	eax
  0x1449	lea    	ecx, [0x2509]
  0x144f	dec    	esp
  === BLOCK LINK ===
    0x1450
=== CODE BLOCK END ===

=== CODE BLOCK ADDRESS 0x1450 ===
  0x1450	mov    	eax, ecx
  0x1452	call   	dword ptr [0x23b0]
  === BLOCK LINK ===
    0x1458
=== CODE BLOCK END ===

=== CODE BLOCK ADDRESS 0x1458 ===
  0x1458	jmp    	0x1466
  === BLOCK LINK ===
    0x145a
=== CODE BLOCK END ===

=== CODE BLOCK ADDRESS 0x145a ===
  0x145a	dec    	eax
  0x145b	call   	dword ptr [0x216f]
  === BLOCK LINK ===
    0x1461
=== CODE BLOCK END ===

=== CODE BLOCK ADDRESS 0x1461 ===
  0x1461	nop    	dword ptr [eax + eax]
  0x1466	dec    	eax
  0x1467	mov    	ecx, edi
  0x1469	mov    	ebx, eax
  0x146b	dec    	eax
  === BLOCK LINK ===
    0x146c
=== CODE BLOCK END ===

=== CODE BLOCK ADDRESS 0x146c ===
  0x146c	call   	dword ptr [0x21a6]
  === BLOCK LINK ===
    0x1472
=== CODE BLOCK END ===

=== CODE BLOCK ADDRESS 0x1472 ===
  0x1472	nop    	dword ptr [eax + eax]
  0x1477	jmp    	0x1487
  === BLOCK LINK ===
    0x1479
=== CODE BLOCK END ===

=== CODE BLOCK ADDRESS 0x1479 ===
  0x1479	dec    	eax
  0x147a	call   	dword ptr [0x2150]
  === BLOCK LINK ===
    0x1480
=== CODE BLOCK END ===

=== CODE BLOCK ADDRESS 0x1480 ===
  0x1480	nop    	dword ptr [eax + eax]
  0x1485	mov    	ebx, eax
  0x1487	mov    	eax, ebx
  === BLOCK LINK ===
    0x1489
=== CODE BLOCK END ===

=== CODE BLOCK ADDRESS 0x1490 ===
  0x1490	dec    	eax
  0x1491	xor    	ecx, esp
  0x1493	call   	0x2400
  === BLOCK LINK ===
    0x1498
=== CODE BLOCK END ===

=== CODE BLOCK ADDRESS 0x1498 ===
  0x1498	dec    	esp
  0x1499	lea    	ebx, [esp + 0x370]
  0x14a0	dec    	ecx
  0x14a1	mov    	ebx, dword ptr [ebx + 0x30]
  0x14a4	dec    	ecx
  === BLOCK LINK ===
    0x14a5
=== CODE BLOCK END ===

=== CODE BLOCK ADDRESS 0x14a5 ===
  0x14a5	mov    	esi, dword ptr [ebx + 0x38]
  0x14a8	dec    	ecx
  0x14a9	mov    	esp, ebx
  0x14ab	inc    	ecx
  0x14ac	pop    	edi
  === BLOCK LINK ===
    0x14ad
=== CODE BLOCK END ===

=== CODE BLOCK ADDRESS 0x14ad ===
  0x14ad	inc    	ecx
  0x14ae	pop    	esi
  0x14af	inc    	ecx
  0x14b0	pop    	esp
  0x14b1	pop    	edi
  === BLOCK LINK ===
    0x14b2
=== CODE BLOCK END ===

=== CODE BLOCK ADDRESS 0x14b2 ===
  0x14b2	pop    	ebp
  0x14b3	ret    	
  0x14b4	int3   	
  0x14b5	int3   	
  0x14b6	int3   	
  === BLOCK LINK ===
    0x14b7
=== CODE BLOCK END ===

=== CODE BLOCK ADDRESS 0x14b7 ===
  0x14b7	int3   	
  0x14b8	int3   	
  0x14b9	int3   	
  0x14ba	int3   	
  0x14bb	int3   	
  === BLOCK LINK ===
    0x14bc
=== CODE BLOCK END ===

=== CODE BLOCK ADDRESS 0x14bc ===
  0x14bc	dec    	eax
  0x14bd	mov    	eax, esp
  0x14bf	push   	ebx
  0x14c0	dec    	eax
  0x14c1	sub    	esp, 0x30
  === BLOCK LINK ===
    0x14c4
=== CODE BLOCK END ===

=== CODE BLOCK ADDRESS 0x14c4 ===
  0x14c4	and    	dword ptr [eax + 0x10], 0
  0x14c8	and    	dword ptr [eax + 8], 0
  0x14cc	xor    	ebx, ebx
  0x14ce	mov    	dword ptr [eax - 0x18], ebx
  0x14d1	dec    	eax
  === BLOCK LINK ===
    0x14d2
=== CODE BLOCK END ===

=== CODE BLOCK ADDRESS 0x14d2 ===
  0x14d2	lea    	edx, [eax + 0x10]
  0x14d5	xor    	ecx, ecx
  0x14d7	dec    	eax
  0x14d8	call   	dword ptr [0x21b2]
  === BLOCK LINK ===
    0x14de
=== CODE BLOCK END ===

=== CODE BLOCK ADDRESS 0x14de ===
  0x14de	nop    	dword ptr [eax + eax]
  0x14e3	test   	eax, eax
  0x14e5	jne    	0x152c
  === BLOCK LINK ===
    0x14e7
=== CODE BLOCK END ===

=== CODE BLOCK ADDRESS 0x14e7 ===
  0x14e7	cmp    	dword ptr [esp + 0x48], eax
  0x14eb	je     	0x152c
  === BLOCK LINK ===
    0x14ed
=== CODE BLOCK END ===

=== CODE BLOCK ADDRESS 0x14ed ===
  0x14ed	xor    	ecx, ecx
  0x14ef	dec    	eax
  0x14f0	call   	dword ptr [0x217a]
  === BLOCK LINK ===
    0x14f6
=== CODE BLOCK END ===

=== CODE BLOCK ADDRESS 0x14f6 ===
  0x14f6	nop    	dword ptr [eax + eax]
  0x14fb	test   	eax, eax
  0x14fd	jne    	0x152c
  === BLOCK LINK ===
    0x14ff
=== CODE BLOCK END ===

=== CODE BLOCK ADDRESS 0x14ff ===
  0x14ff	lea    	ebx, [eax + 1]
  0x1502	mov    	dword ptr [esp + 0x20], ebx
  0x1506	dec    	esp
  0x1507	lea    	eax, [esp + 0x40]
  0x150b	dec    	eax
  === BLOCK LINK ===
    0x150c
=== CODE BLOCK END ===

=== CODE BLOCK ADDRESS 0x150c ===
  0x150c	lea    	edx, [0x2506]
  0x1512	xor    	ecx, ecx
  0x1514	dec    	eax
  0x1515	call   	dword ptr [0x205d]
  === BLOCK LINK ===
    0x151b
=== CODE BLOCK END ===

=== CODE BLOCK ADDRESS 0x151b ===
  0x151b	nop    	dword ptr [eax + eax]
  0x1520	neg    	eax
  0x1522	sbb    	ecx, ecx
  0x1524	and    	ecx, dword ptr [esp + 0x40]
  0x1528	mov    	dword ptr [esp + 0x40], ecx
  === BLOCK LINK ===
    0x152c
=== CODE BLOCK END ===

=== CODE BLOCK ADDRESS 0x152c ===
  0x152c	test   	ebx, ebx
  0x152e	je     	0x153c
  === BLOCK LINK ===
    0x1530
=== CODE BLOCK END ===

=== CODE BLOCK ADDRESS 0x1530 ===
  0x1530	dec    	eax
  0x1531	call   	dword ptr [0x2131]
  === BLOCK LINK ===
    0x1537
=== CODE BLOCK END ===

=== CODE BLOCK ADDRESS 0x1537 ===
  0x1537	nop    	dword ptr [eax + eax]
  0x153c	mov    	eax, dword ptr [esp + 0x40]
  0x1540	dec    	eax
  0x1541	add    	esp, 0x30
  0x1544	pop    	ebx
  === BLOCK LINK ===
    0x1545
=== CODE BLOCK END ===

=== CODE BLOCK ADDRESS 0x1545 ===
  0x1545	ret    	
  0x1546	int3   	
  0x1547	int3   	
  0x1548	int3   	
  0x1549	int3   	
  === BLOCK LINK ===
    0x154a
=== CODE BLOCK END ===

=== CODE BLOCK ADDRESS 0x1048 ===
  0x1048	dec    	ebp
  0x1049	test   	ecx, ecx
  0x104b	je     	0x109f
  === BLOCK LINK ===
    0x104d
=== CODE BLOCK END ===

=== CODE BLOCK ADDRESS 0x154a ===
  0x154a	int3   	
  0x154b	int3   	
  0x154c	int3   	
  0x154d	int3   	
  0x154e	int3   	
  === BLOCK LINK ===
    0x154f
=== CODE BLOCK END ===

=== CODE BLOCK ADDRESS 0x154f ===
  0x154f	int3   	
  0x1550	dec    	esp
  0x1551	mov    	ebx, esp
  0x1553	dec    	eax
  0x1554	sub    	esp, 0x48
  === BLOCK LINK ===
    0x1557
=== CODE BLOCK END ===

=== CODE BLOCK ADDRESS 0x1557 ===
  0x1557	dec    	eax
  0x1558	mov    	eax, edx
  0x155a	dec    	ecx
  0x155b	and    	dword ptr [ebx - 0x20], 0
  0x155f	dec    	ecx
  === BLOCK LINK ===
    0x1560
=== CODE BLOCK END ===

=== CODE BLOCK ADDRESS 0x1560 ===
  0x1560	lea    	ecx, [ebx + 0x20]
  0x1563	dec    	ecx
  0x1564	mov    	dword ptr [ebx - 0x28], ecx
  0x1567	dec    	ebp
  0x1568	lea    	ecx, [ebx + 0x18]
  === BLOCK LINK ===
    0x156b
=== CODE BLOCK END ===

=== CODE BLOCK ADDRESS 0x156b ===
  0x156b	inc    	ebp
  0x156c	xor    	eax, eax
  0x156e	dec    	ecx
  0x156f	lea    	edx, [ebx - 0x18]
  0x1572	dec    	eax
  === BLOCK LINK ===
    0x1573
=== CODE BLOCK END ===

=== CODE BLOCK ADDRESS 0x1573 ===
  0x1573	mov    	ecx, eax
  0x1575	dec    	eax
  0x1576	call   	dword ptr [0x2124]
  === BLOCK LINK ===
    0x157c
=== CODE BLOCK END ===

=== CODE BLOCK ADDRESS 0x157c ===
  0x157c	nop    	dword ptr [eax + eax]
  0x1581	test   	eax, eax
  0x1583	jne    	0x15a8
  === BLOCK LINK ===
    0x1585
=== CODE BLOCK END ===

=== CODE BLOCK ADDRESS 0x1585 ===
  0x1585	cmp    	dword ptr [esp + 0x60], 6
  0x158a	jb     	0x15a3
  === BLOCK LINK ===
    0x158c
=== CODE BLOCK END ===

=== CODE BLOCK ADDRESS 0x158c ===
  0x158c	cmp    	dword ptr [esp + 0x68], 0xa
  0x1591	jne    	0x15a3
  === BLOCK LINK ===
    0x1593
=== CODE BLOCK END ===

=== CODE BLOCK ADDRESS 0x1593 ===
  0x1593	call   	0x14bc
  === BLOCK LINK ===
    0x1598
=== CODE BLOCK END ===

=== CODE BLOCK ADDRESS 0x1598 ===
  0x1598	neg    	eax
  0x159a	sbb    	eax, eax
  0x159c	not    	eax
  0x159e	and    	eax, 5
  0x15a1	jmp    	0x15a8
  === BLOCK LINK ===
    0x15a3
=== CODE BLOCK END ===

=== CODE BLOCK ADDRESS 0x15a3 ===
  0x15a3	mov    	eax, 5
  0x15a8	dec    	eax
  0x15a9	add    	esp, 0x48
  0x15ac	ret    	
  0x15ad	int3   	
  === BLOCK LINK ===
    0x15ae
=== CODE BLOCK END ===

=== CODE BLOCK ADDRESS 0x109f ===
  0x109f	ret    	
  0x10a0	int3   	
  === BLOCK LINK ===
    0x10a1
=== CODE BLOCK END ===

=== CODE BLOCK ADDRESS 0x15ae ===
  0x15ae	int3   	
  0x15af	int3   	
  0x15b0	int3   	
  0x15b1	int3   	
  0x15b2	int3   	
  === BLOCK LINK ===
    0x15b3
=== CODE BLOCK END ===

=== CODE BLOCK ADDRESS 0x15b3 ===
  0x15b3	int3   	
  0x15b4	int3   	
  0x15b5	int3   	
  0x15b6	int3   	
  0x15b7	int3   	
  === BLOCK LINK ===
    0x15b8
=== CODE BLOCK END ===

=== CODE BLOCK ADDRESS 0x15b8 ===
  0x15b8	int3   	
  0x15b9	int3   	
  0x15ba	int3   	
  0x15bb	int3   	
  0x15bc	int3   	
  === BLOCK LINK ===
    0x15bd
=== CODE BLOCK END ===

=== CODE BLOCK ADDRESS 0x15bd ===
  0x15bd	int3   	
  0x15be	int3   	
  0x15bf	int3   	
  0x15c0	dec    	esp
  0x15c1	mov    	ebx, esp
  === BLOCK LINK ===
    0x15c3
=== CODE BLOCK END ===

=== CODE BLOCK ADDRESS 0x15c3 ===
  0x15c3	dec    	ecx
  0x15c4	mov    	dword ptr [ebx + 8], ebx
  0x15c7	dec    	ecx
  0x15c8	mov    	dword ptr [ebx + 0x20], esi
  0x15cb	dec    	ebp
  === BLOCK LINK ===
    0x15cc
=== CODE BLOCK END ===

=== CODE BLOCK ADDRESS 0x15cc ===
  0x15cc	mov    	dword ptr [ebx + 0x18], eax
  0x15cf	push   	edi
  0x15d0	inc    	ecx
  0x15d1	push   	esp
  0x15d2	inc    	ecx
  === BLOCK LINK ===
    0x15d3
=== CODE BLOCK END ===

=== CODE BLOCK ADDRESS 0x15d3 ===
  0x15d3	push   	ebp
  0x15d4	inc    	ecx
  0x15d5	push   	esi
  0x15d6	inc    	ecx
  0x15d7	push   	edi
  === BLOCK LINK ===
    0x15d8
=== CODE BLOCK END ===

=== CODE BLOCK ADDRESS 0x15d8 ===
  0x15d8	dec    	eax
  0x15d9	sub    	esp, 0xc0
  0x15df	dec    	ebp
  0x15e0	mov    	ebp, ecx
  0x15e2	xor    	eax, eax
  === BLOCK LINK ===
    0x15e4
=== CODE BLOCK END ===

=== CODE BLOCK ADDRESS 0x15e4 ===
  0x15e4	dec    	eax
  0x15e5	mov    	dword ptr [esp + 0x58], eax
  0x15e9	dec    	eax
  0x15ea	mov    	ebx, dword ptr [edx + 0x10]
  0x15ed	mov    	edi, eax
  === BLOCK LINK ===
    0x15ef
=== CODE BLOCK END ===

=== CODE BLOCK ADDRESS 0x15ef ===
  0x15ef	dec    	eax
  0x15f0	mov    	dword ptr [esp + 0x60], eax
  0x15f4	inc    	esp
  0x15f5	mov    	esi, eax
  0x15f7	inc    	ecx
  === BLOCK LINK ===
    0x15f8
=== CODE BLOCK END ===

=== CODE BLOCK ADDRESS 0x15f8 ===
  0x15f8	mov    	dword ptr [ebx + 0x10], eax
  0x15fb	dec    	ecx
  0x15fc	mov    	dword ptr [ebx - 0x80], eax
  0x15ff	mov    	dword ptr [esp + 0x54], eax
  0x1603	dec    	esp
  === BLOCK LINK ===
    0x1604
=== CODE BLOCK END ===

=== CODE BLOCK ADDRESS 0x1604 ===
  0x1604	mov    	edi, dword ptr [ebx + 0x20]
  0x1607	dec    	esp
  0x1608	add    	edi, ebx
  0x160a	dec    	esp
  0x160b	mov    	esp, dword ptr [ebx + 0x10]
  === BLOCK LINK ===
    0x160e
=== CODE BLOCK END ===

=== CODE BLOCK ADDRESS 0x160e ===
  0x160e	dec    	esp
  0x160f	add    	esp, ebx
  0x1611	movzx  	eax, word ptr [ebx + 0x28]
  0x1615	add    	eax, 2
  0x1618	mov    	dword ptr [esp + 0x54], eax
  === BLOCK LINK ===
    0x161c
=== CODE BLOCK END ===

=== CODE BLOCK ADDRESS 0x161c ===
  0x161c	dec    	eax
  0x161d	mov    	dword ptr [esp + 0x78], eax
  0x1621	mov    	edx, eax
  0x1623	lea    	ecx, [edi + 0x40]
  0x1626	dec    	eax
  === BLOCK LINK ===
    0x1627
=== CODE BLOCK END ===

=== CODE BLOCK ADDRESS 0x1627 ===
  0x1627	call   	dword ptr [0x1f8b]
  === BLOCK LINK ===
    0x162d
=== CODE BLOCK END ===

=== CODE BLOCK ADDRESS 0x162d ===
  0x162d	nop    	dword ptr [eax + eax]
  0x1632	dec    	eax
  0x1633	mov    	esi, eax
  0x1635	dec    	eax
  0x1636	mov    	dword ptr [esp + 0x68], eax
  === BLOCK LINK ===
    0x163a
=== CODE BLOCK END ===

=== CODE BLOCK ADDRESS 0x163a ===
  0x163a	xor    	eax, eax
  0x163c	dec    	eax
  0x163d	test   	esi, esi
  0x163f	jne    	0x164f
  === BLOCK LINK ===
    0x1641
=== CODE BLOCK END ===

=== CODE BLOCK ADDRESS 0x1641 ===
  0x1641	mov    	ebx, 8
  0x1646	mov    	dword ptr [esp + 0x50], ebx
  0x164a	jmp    	0x17cc
  === BLOCK LINK ===
    0x164f
=== CODE BLOCK END ===

=== CODE BLOCK ADDRESS 0x164f ===
  0x164f	inc    	esp
  0x1650	movzx  	eax, word ptr [ebx + 0x28]
  0x1654	dec    	eax
  0x1655	mov    	edx, dword ptr [ebx + 0x30]
  0x1658	dec    	eax
  === BLOCK LINK ===
    0x1659
=== CODE BLOCK END ===

=== CODE BLOCK ADDRESS 0x1659 ===
  0x1659	add    	edx, ebx
  0x165b	dec    	eax
  0x165c	mov    	ecx, esi
  0x165e	call   	0x2ae0
  === BLOCK LINK ===
    0x1663
=== CODE BLOCK END ===

=== CODE BLOCK ADDRESS 0x1663 ===
  0x1663	dec    	esp
  0x1664	lea    	eax, [esp + 0xf8]
  0x166b	dec    	eax
  0x166c	lea    	edx, [esp + 0x60]
  0x1670	dec    	eax
  === BLOCK LINK ===
    0x1671
=== CODE BLOCK END ===

=== CODE BLOCK ADDRESS 0x1671 ===
  0x1671	mov    	ecx, esi
  0x1673	call   	0x1e30
  === BLOCK LINK ===
    0x1678
=== CODE BLOCK END ===

=== CODE BLOCK ADDRESS 0x1678 ===
  0x1678	test   	eax, eax
  0x167a	jns    	0x16a2
  === BLOCK LINK ===
    0x167c
=== CODE BLOCK END ===

=== CODE BLOCK ADDRESS 0x167c ===
  0x167c	mov    	ecx, eax
  0x167e	dec    	eax
  0x167f	call   	dword ptr [0x216b]
  === BLOCK LINK ===
    0x1685
=== CODE BLOCK END ===

=== CODE BLOCK ADDRESS 0x1685 ===
  0x1685	nop    	dword ptr [eax + eax]
  0x168a	mov    	ebx, eax
  0x168c	mov    	dword ptr [esp + 0x50], eax
  0x1690	dec    	eax
  0x1691	mov    	edi, dword ptr [esp + 0x60]
  === BLOCK LINK ===
    0x1695
=== CODE BLOCK END ===

=== CODE BLOCK ADDRESS 0x1695 ===
  0x1695	inc    	esp
  0x1696	mov    	esi, dword ptr [esp + 0xf8]
  0x169d	jmp    	0x17cc
  === BLOCK LINK ===
    0x16a2
=== CODE BLOCK END ===

=== CODE BLOCK ADDRESS 0x16a2 ===
  0x16a2	movzx  	eax, word ptr [ebx + 0x18]
  0x16a6	movzx  	ecx, word ptr [ebx + 8]
  0x16aa	dec    	esp
  0x16ab	mov    	dword ptr [esp + 0xa0], edi
  0x16b2	mov    	word ptr [esp + 0x9a], ax
  === BLOCK LINK ===
    0x16ba
=== CODE BLOCK END ===

=== CODE BLOCK ADDRESS 0x16ba ===
  0x16ba	mov    	word ptr [esp + 0x98], ax
  0x16c2	dec    	esp
  0x16c3	mov    	dword ptr [esp + 0x90], esp
  0x16ca	mov    	word ptr [esp + 0x8a], cx
  0x16d2	mov    	word ptr [esp + 0x88], cx
  === BLOCK LINK ===
    0x16da
=== CODE BLOCK END ===

=== CODE BLOCK ADDRESS 0x16da ===
  0x16da	dec    	eax
  0x16db	mov    	edi, dword ptr [esp + 0x60]
  0x16df	dec    	eax
  0x16e0	mov    	dword ptr [esp + 0xb0], edi
  0x16e7	inc    	esp
  === BLOCK LINK ===
    0x16e8
=== CODE BLOCK END ===

=== CODE BLOCK ADDRESS 0x16e8 ===
  0x16e8	mov    	esi, dword ptr [esp + 0xf8]
  0x16ef	inc    	sp
  0x16f1	mov    	dword ptr [esp + 0xaa], esi
  0x16f8	inc    	sp
  0x16fa	mov    	dword ptr [esp + 0xa8], esi
  === BLOCK LINK ===
    0x1701
=== CODE BLOCK END ===

=== CODE BLOCK ADDRESS 0x1701 ===
  0x1701	dec    	eax
  0x1702	lea    	eax, [esp + 0x58]
  0x1706	dec    	eax
  0x1707	mov    	dword ptr [esp + 0x40], eax
  0x170b	inc    	ebp
  === BLOCK LINK ===
    0x170c
=== CODE BLOCK END ===

=== CODE BLOCK ADDRESS 0x170c ===
  0x170c	xor    	esp, esp
  0x170e	dec    	esp
  0x170f	mov    	dword ptr [esp + 0x38], esp
  0x1713	dec    	eax
  0x1714	lea    	eax, [0x222e]
  === BLOCK LINK ===
    0x171a
=== CODE BLOCK END ===

=== CODE BLOCK ADDRESS 0x171a ===
  0x171a	dec    	eax
  0x171b	mov    	dword ptr [esp + 0x30], eax
  0x171f	dec    	esp
  0x1720	mov    	dword ptr [esp + 0x28], esp
  0x1724	dec    	esp
  === BLOCK LINK ===
    0x1725
=== CODE BLOCK END ===

=== CODE BLOCK ADDRESS 0x1725 ===
  0x1725	mov    	dword ptr [esp + 0x20], esp
  0x1729	dec    	esp
  0x172a	lea    	ecx, [esp + 0x80]
  0x1731	dec    	esp
  0x1732	lea    	eax, [0x2220]
  === BLOCK LINK ===
    0x1738
=== CODE BLOCK END ===

=== CODE BLOCK ADDRESS 0x1738 ===
  0x1738	dec    	eax
  0x1739	lea    	edx, [esp + 0x100]
  0x1740	dec    	eax
  0x1741	lea    	ecx, [0x2239]
  0x1747	dec    	eax
  === BLOCK LINK ===
    0x1748
=== CODE BLOCK END ===

=== CODE BLOCK ADDRESS 0x1748 ===
  0x1748	call   	dword ptr [0x58ba]
  === BLOCK LINK ===
    0x174e
=== CODE BLOCK END ===

=== CODE BLOCK ADDRESS 0x174e ===
  0x174e	nop    	dword ptr [eax + eax]
  0x1753	mov    	ebx, eax
  0x1755	mov    	dword ptr [esp + 0x50], eax
  0x1759	test   	eax, eax
  0x175b	jne    	0x17cc
  === BLOCK LINK ===
    0x175d
=== CODE BLOCK END ===

=== CODE BLOCK ADDRESS 0x175d ===
  0x175d	dec    	eax
  0x175e	mov    	edx, dword ptr [esp + 0x58]
  0x1762	dec    	eax
  0x1763	test   	edx, edx
  0x1765	je     	0x17cc
  === BLOCK LINK ===
    0x1767
=== CODE BLOCK END ===

=== CODE BLOCK ADDRESS 0x1767 ===
  0x1767	inc    	ebp
  0x1768	movzx  	edi, sp
  0x176b	dec    	eax
  0x176c	mov    	dword ptr [esp + 0x70], edx
  0x1770	dec    	ecx
  === BLOCK LINK ===
    0x1771
=== CODE BLOCK END ===

=== CODE BLOCK ADDRESS 0x1771 ===
  0x1771	or     	eax, 0xffffffff
  0x1774	dec    	ecx
  0x1775	inc    	eax
  0x1777	inc    	si
  0x1779	cmp    	dword ptr [edx + eax*2], esp
  === BLOCK LINK ===
    0x177c
=== CODE BLOCK END ===

=== CODE BLOCK ADDRESS 0x177c ===
  0x177c	jne    	0x1774
  === BLOCK LINK ===
    0x177e
=== CODE BLOCK END ===

=== CODE BLOCK ADDRESS 0x177e ===
  0x177e	inc    	ecx
  0x177f	movzx  	ecx, ax
  0x1782	inc    	ecx
  0x1784	movzx  	eax, cx
  0x1787	add    	ax, ax
  === BLOCK LINK ===
    0x178a
=== CODE BLOCK END ===

=== CODE BLOCK ADDRESS 0x178a ===
  0x178a	inc    	sp
  0x178c	add    	edi, eax
  0x178e	dec    	eax
  0x178f	lea    	edx, [edx + ecx*2]
  0x1792	dec    	eax
  === BLOCK LINK ===
    0x1793
=== CODE BLOCK END ===

=== CODE BLOCK ADDRESS 0x1793 ===
  0x1793	mov    	dword ptr [esp + 0x70], edx
  0x1797	inc    	bp
  0x1799	test   	eax, eax
  0x179b	jne    	0x1770
  === BLOCK LINK ===
    0x179d
=== CODE BLOCK END ===

=== CODE BLOCK ADDRESS 0x179d ===
  0x179d	inc    	ebp
  0x179e	movzx  	esp, di
  0x17a1	inc    	ecx
  0x17a2	mov    	ecx, esp
  0x17a4	call   	0x1130
  === BLOCK LINK ===
    0x17a9
=== CODE BLOCK END ===

=== CODE BLOCK ADDRESS 0x17a9 ===
  0x17a9	dec    	ecx
  0x17aa	mov    	dword ptr [ebp + 8], eax
  0x17ad	dec    	eax
  0x17ae	test   	eax, eax
  0x17b0	je     	0x1641
  === BLOCK LINK ===
    0x17b6
=== CODE BLOCK END ===

=== CODE BLOCK ADDRESS 0x17b6 ===
  0x17b6	inc    	bp
  0x17b8	mov    	dword ptr [ebp], edi
  0x17bb	inc    	ebp
  0x17bc	mov    	eax, esp
  0x17be	dec    	eax
  === BLOCK LINK ===
    0x17bf
=== CODE BLOCK END ===

=== CODE BLOCK ADDRESS 0x17bf ===
  0x17bf	mov    	edx, dword ptr [esp + 0x58]
  0x17c3	dec    	eax
  0x17c4	mov    	ecx, eax
  0x17c6	call   	0x2ae0
  === BLOCK LINK ===
    0x17cb
=== CODE BLOCK END ===

=== CODE BLOCK ADDRESS 0x17cb ===
  0x17cb	nop    	
  0x17cc	dec    	eax
  0x17cd	mov    	edx, dword ptr [esp + 0x58]
  0x17d1	dec    	eax
  0x17d2	test   	edx, edx
  === BLOCK LINK ===
    0x17d4
=== CODE BLOCK END ===

=== CODE BLOCK ADDRESS 0x17d4 ===
  0x17d4	je     	0x17e5
  === BLOCK LINK ===
    0x17d6
=== CODE BLOCK END ===

=== CODE BLOCK ADDRESS 0x17d6 ===
  0x17d6	dec    	eax
  0x17d7	mov    	ecx, edx
  0x17d9	dec    	eax
  0x17da	call   	dword ptr [0x1e28]
  === BLOCK LINK ===
    0x17e0
=== CODE BLOCK END ===

=== CODE BLOCK ADDRESS 0x17e0 ===
  0x17e0	nop    	dword ptr [eax + eax]
  0x17e5	dec    	eax
  0x17e6	test   	esi, esi
  0x17e8	je     	0x1808
  === BLOCK LINK ===
    0x17ea
=== CODE BLOCK END ===

=== CODE BLOCK ADDRESS 0x17ea ===
  0x17ea	dec    	esp
  0x17eb	mov    	eax, dword ptr [esp + 0x78]
  0x17ef	xor    	edx, edx
  0x17f1	dec    	eax
  0x17f2	mov    	ecx, esi
  === BLOCK LINK ===
    0x17f4
=== CODE BLOCK END ===

=== CODE BLOCK ADDRESS 0x17f4 ===
  0x17f4	call   	0x2aec
  === BLOCK LINK ===
    0x17f9
=== CODE BLOCK END ===

=== CODE BLOCK ADDRESS 0x17f9 ===
  0x17f9	dec    	eax
  0x17fa	mov    	ecx, esi
  0x17fc	dec    	eax
  0x17fd	call   	dword ptr [0x1e05]
  === BLOCK LINK ===
    0x1803
=== CODE BLOCK END ===

=== CODE BLOCK ADDRESS 0x1803 ===
  0x1803	nop    	dword ptr [eax + eax]
  0x1808	dec    	eax
  0x1809	test   	edi, edi
  0x180b	je     	0x1829
  === BLOCK LINK ===
    0x180d
=== CODE BLOCK END ===

=== CODE BLOCK ADDRESS 0x180d ===
  0x180d	inc    	ebp
  0x180e	mov    	eax, esi
  0x1810	xor    	edx, edx
  0x1812	dec    	eax
  0x1813	mov    	ecx, edi
  === BLOCK LINK ===
    0x1815
=== CODE BLOCK END ===

=== CODE BLOCK ADDRESS 0x1815 ===
  0x1815	call   	0x2aec
  === BLOCK LINK ===
    0x181a
=== CODE BLOCK END ===

=== CODE BLOCK ADDRESS 0x181a ===
  0x181a	dec    	eax
  0x181b	mov    	ecx, edi
  0x181d	dec    	eax
  0x181e	call   	dword ptr [0x1de4]
  === BLOCK LINK ===
    0x1824
=== CODE BLOCK END ===

=== CODE BLOCK ADDRESS 0x1824 ===
  0x1824	nop    	dword ptr [eax + eax]
  0x1829	dec    	eax
  0x182a	mov    	ecx, dword ptr [0x3da8]
  0x1830	dec    	eax
  0x1831	call   	dword ptr [0x1da1]
  === BLOCK LINK ===
    0x1837
=== CODE BLOCK END ===

=== CODE BLOCK ADDRESS 0x1837 ===
  0x1837	nop    	dword ptr [eax + eax]
  0x183c	mov    	eax, ebx
  0x183e	dec    	esp
  0x183f	lea    	ebx, [esp + 0xc0]
  0x1846	dec    	ecx
  === BLOCK LINK ===
    0x1847
=== CODE BLOCK END ===

=== CODE BLOCK ADDRESS 0x1847 ===
  0x1847	mov    	ebx, dword ptr [ebx + 0x30]
  0x184a	dec    	ecx
  0x184b	mov    	esi, dword ptr [ebx + 0x48]
  0x184e	dec    	ecx
  0x184f	mov    	esp, ebx
  === BLOCK LINK ===
    0x1851
=== CODE BLOCK END ===

=== CODE BLOCK ADDRESS 0x1851 ===
  0x1851	inc    	ecx
  0x1852	pop    	edi
  0x1853	inc    	ecx
  0x1854	pop    	esi
  0x1855	inc    	ecx
  === BLOCK LINK ===
    0x1856
=== CODE BLOCK END ===

=== CODE BLOCK ADDRESS 0x1856 ===
  0x1856	pop    	ebp
  0x1857	inc    	ecx
  0x1858	pop    	esp
  0x1859	pop    	edi
  0x185a	ret    	
  === BLOCK LINK ===
    0x185b
=== CODE BLOCK END ===

=== CODE BLOCK ADDRESS 0x185b ===
  0x185b	int3   	
  0x185c	int3   	
  0x185d	int3   	
  0x185e	int3   	
  0x185f	int3   	
  === BLOCK LINK ===
    0x1860
=== CODE BLOCK END ===

=== CODE BLOCK ADDRESS 0x1860 ===
  0x1860	int3   	
  0x1861	int3   	
  0x1862	int3   	
  0x1863	int3   	
  0x1864	int3   	
  === BLOCK LINK ===
    0x1865
=== CODE BLOCK END ===

=== CODE BLOCK ADDRESS 0x1865 ===
  0x1865	int3   	
  0x1866	int3   	
  0x1867	int3   	
  0x1868	int3   	
  0x1869	int3   	
  === BLOCK LINK ===
    0x186a
=== CODE BLOCK END ===

=== CODE BLOCK ADDRESS 0x186a ===
  0x186a	int3   	
  0x186b	int3   	
  0x186c	int3   	
  0x186d	int3   	
  0x186e	int3   	
  === BLOCK LINK ===
    0x186f
=== CODE BLOCK END ===

=== CODE BLOCK ADDRESS 0x186f ===
  0x186f	int3   	
  0x1870	dec    	eax
  0x1871	mov    	eax, esp
  0x1873	dec    	eax
  0x1874	mov    	dword ptr [eax + 8], ebx
  === BLOCK LINK ===
    0x1877
=== CODE BLOCK END ===

=== CODE BLOCK ADDRESS 0x1877 ===
  0x1877	dec    	eax
  0x1878	mov    	dword ptr [eax + 0x10], esi
  0x187b	push   	edi
  0x187c	inc    	ecx
  0x187d	push   	esp
  === BLOCK LINK ===
    0x187e
=== CODE BLOCK END ===

=== CODE BLOCK ADDRESS 0x187e ===
  0x187e	inc    	ecx
  0x187f	push   	ebp
  0x1880	inc    	ecx
  0x1881	push   	esi
  0x1882	inc    	ecx
  === BLOCK LINK ===
    0x1883
=== CODE BLOCK END ===

=== CODE BLOCK ADDRESS 0x1883 ===
  0x1883	push   	edi
  0x1884	dec    	eax
  0x1885	sub    	esp, 0xf0
  0x188b	inc    	esp
  0x188c	mov    	dword ptr [esp + 0x60], ecx
  === BLOCK LINK ===
    0x1890
=== CODE BLOCK END ===

=== CODE BLOCK ADDRESS 0x1890 ===
  0x1890	dec    	esp
  0x1891	mov    	ebp, edx
  0x1893	xor    	edi, edi
  0x1895	inc    	esp
  0x1896	mov    	esi, edi
  === BLOCK LINK ===
    0x1898
=== CODE BLOCK END ===

=== CODE BLOCK ADDRESS 0x1898 ===
  0x1898	dec    	eax
  0x1899	mov    	dword ptr [esp + 0x58], edi
  0x189d	inc    	esp
  0x189e	mov    	esp, edi
  0x18a0	mov    	dword ptr [eax + 0x18], edi
  === BLOCK LINK ===
    0x18a3
=== CODE BLOCK END ===

=== CODE BLOCK ADDRESS 0x18a3 ===
  0x18a3	mov    	ebx, edi
  0x18a5	dec    	eax
  0x18a6	mov    	dword ptr [esp + 0x48], ebx
  0x18aa	mov    	dword ptr [esp + 0x44], edi
  0x18ae	dec    	eax
  === BLOCK LINK ===
    0x18af
=== CODE BLOCK END ===

=== CODE BLOCK ADDRESS 0x18af ===
  0x18af	mov    	dword ptr [esp + 0x50], edi
  0x18b3	mov    	dword ptr [esp + 0x40], edi
  0x18b7	dec    	ecx
  0x18b8	mov    	esi, dword ptr [eax + 0x10]
  0x18bb	dec    	eax
  === BLOCK LINK ===
    0x18bc
=== CODE BLOCK END ===

=== CODE BLOCK ADDRESS 0x18bc ===
  0x18bc	mov    	eax, dword ptr [esi + 0x20]
  0x18bf	dec    	eax
  0x18c0	add    	eax, esi
  0x18c2	dec    	eax
  0x18c3	mov    	dword ptr [esp + 0x70], eax
  === BLOCK LINK ===
    0x18c7
=== CODE BLOCK END ===

=== CODE BLOCK ADDRESS 0x18c7 ===
  0x18c7	dec    	eax
  0x18c8	mov    	eax, dword ptr [esi + 0x10]
  0x18cb	dec    	eax
  0x18cc	add    	eax, esi
  0x18ce	dec    	eax
  === BLOCK LINK ===
    0x18cf
=== CODE BLOCK END ===

=== CODE BLOCK ADDRESS 0x18cf ===
  0x18cf	mov    	dword ptr [esp + 0x78], eax
  0x18d3	movzx  	eax, word ptr [esi + 0x28]
  0x18d7	add    	eax, 2
  0x18da	mov    	dword ptr [esp + 0x40], eax
  0x18de	dec    	eax
  === BLOCK LINK ===
    0x18df
=== CODE BLOCK END ===

=== CODE BLOCK ADDRESS 0x18df ===
  0x18df	mov    	dword ptr [esp + 0x68], eax
  0x18e3	mov    	edx, eax
  0x18e5	lea    	ecx, [edi + 0x40]
  0x18e8	dec    	eax
  0x18e9	call   	dword ptr [0x1cc9]
  === BLOCK LINK ===
    0x18ef
=== CODE BLOCK END ===

=== CODE BLOCK ADDRESS 0x18ef ===
  0x18ef	nop    	dword ptr [eax + eax]
  0x18f4	dec    	esp
  0x18f5	mov    	edi, eax
  0x18f7	dec    	eax
  0x18f8	mov    	dword ptr [esp + 0x50], eax
  === BLOCK LINK ===
    0x18fc
=== CODE BLOCK END ===

=== CODE BLOCK ADDRESS 0x18fc ===
  0x18fc	dec    	eax
  0x18fd	test   	eax, eax
  0x18ff	jne    	0x1909
  === BLOCK LINK ===
    0x1901
=== CODE BLOCK END ===

=== CODE BLOCK ADDRESS 0x1901 ===
  0x1901	lea    	edi, [ebx + 8]
  0x1904	jmp    	0x1b2f
  === BLOCK LINK ===
    0x1909
=== CODE BLOCK END ===

=== CODE BLOCK ADDRESS 0x1909 ===
  0x1909	inc    	esp
  0x190a	movzx  	eax, word ptr [esi + 0x28]
  0x190e	dec    	eax
  0x190f	mov    	edx, dword ptr [esi + 0x30]
  0x1912	dec    	eax
  === BLOCK LINK ===
    0x1913
=== CODE BLOCK END ===

=== CODE BLOCK ADDRESS 0x1913 ===
  0x1913	add    	edx, esi
  0x1915	dec    	ecx
  0x1916	mov    	ecx, edi
  0x1918	call   	0x2ae0
  === BLOCK LINK ===
    0x191d
=== CODE BLOCK END ===

=== CODE BLOCK ADDRESS 0x191d ===
  0x191d	dec    	esp
  0x191e	lea    	eax, [esp + 0x44]
  0x1922	dec    	eax
  0x1923	lea    	edx, [esp + 0x48]
  0x1927	dec    	ecx
  === BLOCK LINK ===
    0x1928
=== CODE BLOCK END ===

=== CODE BLOCK ADDRESS 0x1928 ===
  0x1928	mov    	ecx, edi
  0x192a	call   	0x1e30
  === BLOCK LINK ===
    0x192f
=== CODE BLOCK END ===

=== CODE BLOCK ADDRESS 0x192f ===
  0x192f	test   	eax, eax
  0x1931	jns    	0x194b
  === BLOCK LINK ===
    0x1933
=== CODE BLOCK END ===

=== CODE BLOCK ADDRESS 0x1933 ===
  0x1933	mov    	ecx, eax
  0x1935	dec    	eax
  0x1936	call   	dword ptr [0x1eb4]
  === BLOCK LINK ===
    0x193c
=== CODE BLOCK END ===

=== CODE BLOCK ADDRESS 0x193c ===
  0x193c	nop    	dword ptr [eax + eax]
  0x1941	dec    	eax
  0x1942	mov    	ebx, dword ptr [esp + 0x48]
  0x1946	jmp    	0x1b2d
  === BLOCK LINK ===
    0x194b
=== CODE BLOCK END ===

=== CODE BLOCK ADDRESS 0x194b ===
  0x194b	dec    	ecx
  0x194c	mov    	edi, edi
  0x194e	xor    	eax, eax
  0x1950	dec    	eax
  0x1951	mov    	ecx, dword ptr [esp + 0x68]
  === BLOCK LINK ===
    0x1955
=== CODE BLOCK END ===

=== CODE BLOCK ADDRESS 0x1955 ===
  0x1955	rep stosb  	byte ptr es:[edi], al
  0x1957	dec    	ecx
  0x1958	mov    	ecx, edi
  0x195a	dec    	eax
  0x195b	call   	dword ptr [0x1ca7]
  === BLOCK LINK ===
    0x1961
=== CODE BLOCK END ===

=== CODE BLOCK ADDRESS 0x1961 ===
  0x1961	nop    	dword ptr [eax + eax]
  0x1966	dec    	eax
  0x1967	and    	dword ptr [esp + 0x50], 0
  0x196c	and    	dword ptr [esp + 0x40], 0
  0x1971	movzx  	eax, word ptr [esi + 0x38]
  === BLOCK LINK ===
    0x1975
=== CODE BLOCK END ===

=== CODE BLOCK ADDRESS 0x1975 ===
  0x1975	add    	eax, 2
  0x1978	mov    	dword ptr [esp + 0x40], eax
  0x197c	dec    	eax
  0x197d	mov    	dword ptr [esp + 0x68], eax
  0x1981	mov    	edx, eax
  === BLOCK LINK ===
    0x1983
=== CODE BLOCK END ===

=== CODE BLOCK ADDRESS 0x1983 ===
  0x1983	mov    	ecx, 0x40
  0x1988	dec    	eax
  0x1989	call   	dword ptr [0x1c29]
  === BLOCK LINK ===
    0x198f
=== CODE BLOCK END ===

=== CODE BLOCK ADDRESS 0x198f ===
  0x198f	nop    	dword ptr [eax + eax]
  0x1994	dec    	esp
  0x1995	mov    	edi, eax
  0x1997	dec    	eax
  0x1998	mov    	dword ptr [esp + 0x50], eax
  === BLOCK LINK ===
    0x199c
=== CODE BLOCK END ===

=== CODE BLOCK ADDRESS 0x199c ===
  0x199c	dec    	eax
  0x199d	test   	eax, eax
  0x199f	jne    	0x19ae
  === BLOCK LINK ===
    0x19a1
=== CODE BLOCK END ===

=== CODE BLOCK ADDRESS 0x19a1 ===
  0x19a1	lea    	edi, [eax + 8]
  0x19a4	dec    	eax
  0x19a5	mov    	ebx, dword ptr [esp + 0x48]
  0x19a9	jmp    	0x1b2f
  === BLOCK LINK ===
    0x19ae
=== CODE BLOCK END ===

=== CODE BLOCK ADDRESS 0x19ae ===
  0x19ae	inc    	esp
  0x19af	movzx  	eax, word ptr [esi + 0x38]
  0x19b3	dec    	eax
  0x19b4	mov    	edx, dword ptr [esi + 0x40]
  0x19b7	dec    	eax
  === BLOCK LINK ===
    0x19b8
=== CODE BLOCK END ===

=== CODE BLOCK ADDRESS 0x19b8 ===
  0x19b8	add    	edx, esi
  0x19ba	dec    	ecx
  0x19bb	mov    	ecx, edi
  0x19bd	call   	0x2ae0
  === BLOCK LINK ===
    0x19c2
=== CODE BLOCK END ===

=== CODE BLOCK ADDRESS 0x19c2 ===
  0x19c2	dec    	esp
  0x19c3	lea    	eax, [esp + 0x130]
  0x19ca	dec    	eax
  0x19cb	lea    	edx, [esp + 0x58]
  0x19cf	dec    	ecx
  === BLOCK LINK ===
    0x19d0
=== CODE BLOCK END ===

=== CODE BLOCK ADDRESS 0x19d0 ===
  0x19d0	mov    	ecx, edi
  0x19d2	call   	0x1e30
  === BLOCK LINK ===
    0x19d7
=== CODE BLOCK END ===

=== CODE BLOCK ADDRESS 0x19d7 ===
  0x19d7	test   	eax, eax
  0x19d9	jns    	0x19fb
  === BLOCK LINK ===
    0x19db
=== CODE BLOCK END ===

=== CODE BLOCK ADDRESS 0x19db ===
  0x19db	mov    	ecx, eax
  0x19dd	dec    	eax
  0x19de	call   	dword ptr [0x1e0c]
  === BLOCK LINK ===
    0x19e4
=== CODE BLOCK END ===

=== CODE BLOCK ADDRESS 0x19e4 ===
  0x19e4	nop    	dword ptr [eax + eax]
  0x19e9	dec    	esp
  0x19ea	mov    	esi, dword ptr [esp + 0x58]
  0x19ee	inc    	esp
  0x19ef	mov    	esp, dword ptr [esp + 0x130]
  === BLOCK LINK ===
    0x19f6
=== CODE BLOCK END ===

=== CODE BLOCK ADDRESS 0x19f6 ===
  0x19f6	jmp    	0x1941
  === BLOCK LINK ===
    0x19fb
=== CODE BLOCK END ===

=== CODE BLOCK ADDRESS 0x19fb ===
  0x19fb	movzx  	eax, word ptr [esi + 0x18]
  0x19ff	movzx  	ecx, word ptr [esi + 8]
  0x1a03	dec    	eax
  0x1a04	mov    	edx, dword ptr [esp + 0x70]
  0x1a08	dec    	eax
  === BLOCK LINK ===
    0x1a09
=== CODE BLOCK END ===

=== CODE BLOCK ADDRESS 0x1a09 ===
  0x1a09	mov    	dword ptr [esp + 0xd8], edx
  0x1a10	mov    	word ptr [esp + 0xd2], ax
  0x1a18	mov    	word ptr [esp + 0xd0], ax
  0x1a20	dec    	eax
  0x1a21	mov    	edi, dword ptr [esp + 0x78]
  === BLOCK LINK ===
    0x1a25
=== CODE BLOCK END ===

=== CODE BLOCK ADDRESS 0x1a25 ===
  0x1a25	dec    	eax
  0x1a26	mov    	dword ptr [esp + 0xc8], edi
  0x1a2d	mov    	word ptr [esp + 0xc2], cx
  0x1a35	mov    	word ptr [esp + 0xc0], cx
  0x1a3d	dec    	esp
  === BLOCK LINK ===
    0x1a3e
=== CODE BLOCK END ===

=== CODE BLOCK ADDRESS 0x1a3e ===
  0x1a3e	mov    	esi, dword ptr [esp + 0x58]
  0x1a42	dec    	esp
  0x1a43	mov    	dword ptr [esp + 0xe8], esi
  0x1a4a	inc    	esp
  0x1a4b	mov    	esp, dword ptr [esp + 0x130]
  === BLOCK LINK ===
    0x1a52
=== CODE BLOCK END ===

=== CODE BLOCK ADDRESS 0x1a52 ===
  0x1a52	inc    	sp
  0x1a54	mov    	dword ptr [esp + 0xe2], esp
  0x1a5b	inc    	sp
  0x1a5d	mov    	dword ptr [esp + 0xe0], esp
  0x1a64	dec    	eax
  === BLOCK LINK ===
    0x1a65
=== CODE BLOCK END ===

=== CODE BLOCK ADDRESS 0x1a65 ===
  0x1a65	mov    	dword ptr [esp + 0xa0], edx
  0x1a6c	mov    	word ptr [esp + 0x9a], ax
  0x1a74	mov    	word ptr [esp + 0x98], ax
  0x1a7c	dec    	eax
  0x1a7d	mov    	dword ptr [esp + 0x90], edi
  === BLOCK LINK ===
    0x1a84
=== CODE BLOCK END ===

=== CODE BLOCK ADDRESS 0x1a84 ===
  0x1a84	mov    	word ptr [esp + 0x8a], cx
  0x1a8c	mov    	word ptr [esp + 0x88], cx
  0x1a94	dec    	eax
  0x1a95	mov    	ebx, dword ptr [esp + 0x48]
  0x1a99	dec    	eax
  === BLOCK LINK ===
    0x1a9a
=== CODE BLOCK END ===

=== CODE BLOCK ADDRESS 0x1a9a ===
  0x1a9a	mov    	dword ptr [esp + 0xb0], ebx
  0x1aa1	mov    	eax, dword ptr [esp + 0x44]
  0x1aa5	mov    	word ptr [esp + 0xaa], ax
  0x1aad	mov    	word ptr [esp + 0xa8], ax
  0x1ab5	mov    	eax, dword ptr [esp + 0x60]
  === BLOCK LINK ===
    0x1ab9
=== CODE BLOCK END ===

=== CODE BLOCK ADDRESS 0x1ab9 ===
  0x1ab9	or     	eax, 2
  0x1abc	cmp    	dword ptr [esp + 0x140], 0
  0x1ac4	cmovne  	eax, dword ptr [esp + 0x60]
  0x1ac9	mov    	dword ptr [esp + 0x38], eax
  0x1acd	dec    	esp
  === BLOCK LINK ===
    0x1ace
=== CODE BLOCK END ===

=== CODE BLOCK ADDRESS 0x1ace ===
  0x1ace	lea    	eax, [esp + 0xb8]
  0x1ad5	dec    	ebp
  0x1ad6	test   	ebp, ebp
  0x1ad8	je     	0x1af1
  === BLOCK LINK ===
    0x1ada
=== CODE BLOCK END ===

=== CODE BLOCK ADDRESS 0x1ada ===
  0x1ada	dec    	eax
  0x1adb	lea    	eax, [esp + 0x80]
  0x1ae2	dec    	eax
  0x1ae3	mov    	dword ptr [esp + 0x20], eax
  0x1ae7	dec    	ecx
  === BLOCK LINK ===
    0x1ae8
=== CODE BLOCK END ===

=== CODE BLOCK ADDRESS 0x1ae8 ===
  0x1ae8	mov    	ecx, ebp
  0x1aea	call   	0x11a4
  === BLOCK LINK ===
    0x1aef
=== CODE BLOCK END ===

=== CODE BLOCK ADDRESS 0x1aef ===
  0x1aef	jmp    	0x1b2d
  === BLOCK LINK ===
    0x1af1
=== CODE BLOCK END ===

=== CODE BLOCK ADDRESS 0x1af1 ===
  0x1af1	dec    	eax
  0x1af2	and    	dword ptr [esp + 0x30], 0
  0x1af7	dec    	eax
  0x1af8	lea    	eax, [0x1e4a]
  0x1afe	dec    	eax
  === BLOCK LINK ===
    0x1aff
=== CODE BLOCK END ===

=== CODE BLOCK ADDRESS 0x1aff ===
  0x1aff	mov    	dword ptr [esp + 0x28], eax
  0x1b03	dec    	eax
  0x1b04	lea    	eax, [esp + 0x80]
  0x1b0b	dec    	eax
  0x1b0c	mov    	dword ptr [esp + 0x20], eax
  === BLOCK LINK ===
    0x1b10
=== CODE BLOCK END ===

=== CODE BLOCK ADDRESS 0x1b10 ===
  0x1b10	dec    	eax
  0x1b11	lea    	edx, [0x1e41]
  0x1b17	dec    	esp
  0x1b18	mov    	ecx, edx
  0x1b1a	dec    	eax
  === BLOCK LINK ===
    0x1b1b
=== CODE BLOCK END ===

=== CODE BLOCK ADDRESS 0x1b1b ===
  0x1b1b	lea    	ecx, [0x1e5f]
  0x1b21	dec    	eax
  0x1b22	call   	dword ptr [0x54d8]
  === BLOCK LINK ===
    0x1b28
=== CODE BLOCK END ===

=== CODE BLOCK ADDRESS 0x1b28 ===
  0x1b28	nop    	dword ptr [eax + eax]
  0x1b2d	mov    	edi, eax
  0x1b2f	dec    	ebp
  0x1b30	test   	edi, edi
  0x1b32	je     	0x1b52
  === BLOCK LINK ===
    0x1b34
=== CODE BLOCK END ===

=== CODE BLOCK ADDRESS 0x1b34 ===
  0x1b34	dec    	esp
  0x1b35	mov    	eax, dword ptr [esp + 0x68]
  0x1b39	xor    	edx, edx
  0x1b3b	dec    	ecx
  0x1b3c	mov    	ecx, edi
  === BLOCK LINK ===
    0x1b3e
=== CODE BLOCK END ===

=== CODE BLOCK ADDRESS 0x1b3e ===
  0x1b3e	call   	0x2aec
  === BLOCK LINK ===
    0x1b43
=== CODE BLOCK END ===

=== CODE BLOCK ADDRESS 0x1b43 ===
  0x1b43	dec    	ecx
  0x1b44	mov    	ecx, edi
  0x1b46	dec    	eax
  0x1b47	call   	dword ptr [0x1abb]
  === BLOCK LINK ===
    0x1b4d
=== CODE BLOCK END ===

=== CODE BLOCK ADDRESS 0x1b4d ===
  0x1b4d	nop    	dword ptr [eax + eax]
  0x1b52	dec    	ebp
  0x1b53	test   	esi, esi
  0x1b55	je     	0x1b73
  === BLOCK LINK ===
    0x1b57
=== CODE BLOCK END ===

=== CODE BLOCK ADDRESS 0x1b57 ===
  0x1b57	inc    	ebp
  0x1b58	mov    	eax, esp
  0x1b5a	xor    	edx, edx
  0x1b5c	dec    	ecx
  0x1b5d	mov    	ecx, esi
  === BLOCK LINK ===
    0x1b5f
=== CODE BLOCK END ===

=== CODE BLOCK ADDRESS 0x1b5f ===
  0x1b5f	call   	0x2aec
  === BLOCK LINK ===
    0x1b64
=== CODE BLOCK END ===

=== CODE BLOCK ADDRESS 0x1b64 ===
  0x1b64	dec    	ecx
  0x1b65	mov    	ecx, esi
  0x1b67	dec    	eax
  0x1b68	call   	dword ptr [0x1a9a]
  === BLOCK LINK ===
    0x1b6e
=== CODE BLOCK END ===

=== CODE BLOCK ADDRESS 0x1b6e ===
  0x1b6e	nop    	dword ptr [eax + eax]
  0x1b73	dec    	eax
  0x1b74	test   	ebx, ebx
  0x1b76	je     	0x1b96
  === BLOCK LINK ===
    0x1b78
=== CODE BLOCK END ===

=== CODE BLOCK ADDRESS 0x1b78 ===
  0x1b78	inc    	esp
  0x1b79	mov    	eax, dword ptr [esp + 0x44]
  0x1b7d	xor    	edx, edx
  0x1b7f	dec    	eax
  0x1b80	mov    	ecx, ebx
  === BLOCK LINK ===
    0x1b82
=== CODE BLOCK END ===

=== CODE BLOCK ADDRESS 0x1b82 ===
  0x1b82	call   	0x2aec
  === BLOCK LINK ===
    0x1b87
=== CODE BLOCK END ===

=== CODE BLOCK ADDRESS 0x1b87 ===
  0x1b87	dec    	eax
  0x1b88	mov    	ecx, ebx
  0x1b8a	dec    	eax
  0x1b8b	call   	dword ptr [0x1a77]
  === BLOCK LINK ===
    0x1b91
=== CODE BLOCK END ===

=== CODE BLOCK ADDRESS 0x1b91 ===
  0x1b91	nop    	dword ptr [eax + eax]
  0x1b96	dec    	eax
  0x1b97	mov    	ecx, dword ptr [0x3a3b]
  0x1b9d	dec    	eax
  0x1b9e	call   	dword ptr [0x1a34]
  === BLOCK LINK ===
    0x1ba4
=== CODE BLOCK END ===

=== CODE BLOCK ADDRESS 0x1ba4 ===
  0x1ba4	nop    	dword ptr [eax + eax]
  0x1ba9	mov    	eax, edi
  0x1bab	dec    	esp
  0x1bac	lea    	ebx, [esp + 0xf0]
  0x1bb3	dec    	ecx
  === BLOCK LINK ===
    0x1bb4
=== CODE BLOCK END ===

=== CODE BLOCK ADDRESS 0x1bb4 ===
  0x1bb4	mov    	ebx, dword ptr [ebx + 0x30]
  0x1bb7	dec    	ecx
  0x1bb8	mov    	esi, dword ptr [ebx + 0x38]
  0x1bbb	dec    	ecx
  0x1bbc	mov    	esp, ebx
  === BLOCK LINK ===
    0x1bbe
=== CODE BLOCK END ===

=== CODE BLOCK ADDRESS 0x1bbe ===
  0x1bbe	inc    	ecx
  0x1bbf	pop    	edi
  0x1bc0	inc    	ecx
  0x1bc1	pop    	esi
  0x1bc2	inc    	ecx
  === BLOCK LINK ===
    0x1bc3
=== CODE BLOCK END ===

=== CODE BLOCK ADDRESS 0x1bc3 ===
  0x1bc3	pop    	ebp
  0x1bc4	inc    	ecx
  0x1bc5	pop    	esp
  0x1bc6	pop    	edi
  0x1bc7	ret    	
  === BLOCK LINK ===
    0x1bc8
=== CODE BLOCK END ===

=== CODE BLOCK ADDRESS 0x1bc8 ===
  0x1bc8	int3   	
  0x1bc9	int3   	
  0x1bca	int3   	
  0x1bcb	int3   	
  0x1bcc	int3   	
  === BLOCK LINK ===
    0x1bcd
=== CODE BLOCK END ===

=== CODE BLOCK ADDRESS 0x1bcd ===
  0x1bcd	int3   	
  0x1bce	int3   	
  0x1bcf	int3   	
  0x1bd0	dec    	eax
  0x1bd1	mov    	dword ptr [esp + 8], ebx
  === BLOCK LINK ===
    0x1bd5
=== CODE BLOCK END ===

=== CODE BLOCK ADDRESS 0x1bd5 ===
  0x1bd5	push   	esi
  0x1bd6	dec    	eax
  0x1bd7	sub    	esp, 0xc0
  0x1bdd	dec    	eax
  0x1bde	mov    	eax, dword ptr [0x3424]
  === BLOCK LINK ===
    0x1be4
=== CODE BLOCK END ===

=== CODE BLOCK ADDRESS 0x1be4 ===
  0x1be4	dec    	eax
  0x1be5	xor    	eax, esp
  0x1be7	dec    	eax
  0x1be8	mov    	dword ptr [esp + 0xb0], eax
  0x1bef	dec    	eax
  === BLOCK LINK ===
    0x1bf0
=== CODE BLOCK END ===

=== CODE BLOCK ADDRESS 0x1bf0 ===
  0x1bf0	and    	dword ptr [esp + 0x30], 0
  0x1bf5	and    	dword ptr [esp + 0x38], 0
  0x1bfa	and    	dword ptr [esp + 0x3c], 0
  0x1bff	inc    	ebp
  0x1c00	xor    	ecx, ecx
  === BLOCK LINK ===
    0x1c02
=== CODE BLOCK END ===

=== CODE BLOCK ADDRESS 0x1c02 ===
  0x1c02	inc    	ebp
  0x1c03	xor    	eax, eax
  0x1c05	inc    	ecx
  0x1c06	lea    	esi, [ecx + 1]
  0x1c09	mov    	edx, esi
  === BLOCK LINK ===
    0x1c0b
=== CODE BLOCK END ===

=== CODE BLOCK ADDRESS 0x1c0b ===
  0x1c0b	xor    	ecx, ecx
  0x1c0d	dec    	eax
  0x1c0e	call   	dword ptr [0x19dc]
  === BLOCK LINK ===
    0x1c14
=== CODE BLOCK END ===

=== CODE BLOCK ADDRESS 0x1c14 ===
  0x1c14	nop    	dword ptr [eax + eax]
  0x1c19	inc    	ebp
  0x1c1a	xor    	ecx, ecx
  0x1c1c	inc    	ebp
  0x1c1d	xor    	eax, eax
  === BLOCK LINK ===
    0x1c1f
=== CODE BLOCK END ===

=== CODE BLOCK ADDRESS 0x1c1f ===
  0x1c1f	xor    	edx, edx
  0x1c21	xor    	ecx, ecx
  0x1c23	dec    	eax
  0x1c24	call   	dword ptr [0x1996]
  === BLOCK LINK ===
    0x1c2a
=== CODE BLOCK END ===

=== CODE BLOCK ADDRESS 0x1c2a ===
  0x1c2a	nop    	dword ptr [eax + eax]
  0x1c2f	dec    	eax
  0x1c30	mov    	dword ptr [0x39a2], eax
  0x1c36	dec    	eax
  0x1c37	test   	eax, eax
  === BLOCK LINK ===
    0x1c39
=== CODE BLOCK END ===

=== CODE BLOCK ADDRESS 0x1c39 ===
  0x1c39	jne    	0x1c4e
  === BLOCK LINK ===
    0x1c3b
=== CODE BLOCK END ===

=== CODE BLOCK ADDRESS 0x1c3b ===
  0x1c3b	dec    	eax
  0x1c3c	call   	dword ptr [0x198e]
  === BLOCK LINK ===
    0x1c42
=== CODE BLOCK END ===

=== CODE BLOCK ADDRESS 0x1c42 ===
  0x1c42	nop    	dword ptr [eax + eax]
  0x1c47	mov    	ebx, eax
  0x1c49	jmp    	0x1d7b
  === BLOCK LINK ===
    0x1c4e
=== CODE BLOCK END ===

=== CODE BLOCK ADDRESS 0x1c4e ===
  0x1c4e	inc    	ebp
  0x1c4f	xor    	eax, eax
  0x1c51	inc    	ecx
  0x1c52	lea    	edx, [eax + 0xa]
  0x1c55	dec    	eax
  === BLOCK LINK ===
    0x1c56
=== CODE BLOCK END ===

=== CODE BLOCK ADDRESS 0x1c56 ===
  0x1c56	lea    	ecx, [0x1d5c]
  0x1c5c	dec    	eax
  0x1c5d	call   	dword ptr [0x1a25]
  === BLOCK LINK ===
    0x1c63
=== CODE BLOCK END ===

=== CODE BLOCK ADDRESS 0x1c63 ===
  0x1c63	nop    	dword ptr [eax + eax]
  0x1c68	mov    	ebx, eax
  0x1c6a	test   	eax, eax
  0x1c6c	jne    	0x1d7b
  === BLOCK LINK ===
    0x1c72
=== CODE BLOCK END ===

=== CODE BLOCK ADDRESS 0x1c72 ===
  0x1c72	dec    	eax
  0x1c73	lea    	eax, [0xfffff8d7]
  0x1c79	dec    	eax
  0x1c7a	mov    	dword ptr [esp + 0x28], eax
  0x1c7e	mov    	dword ptr [esp + 0x20], 0x4d2
  === BLOCK LINK ===
    0x1c86
=== CODE BLOCK END ===

=== CODE BLOCK ADDRESS 0x1c86 ===
  0x1c86	inc    	esp
  0x1c87	lea    	ecx, [ebx + 0x28]
  0x1c8a	inc    	ebp
  0x1c8b	xor    	eax, eax
  0x1c8d	xor    	edx, edx
  === BLOCK LINK ===
    0x1c8f
=== CODE BLOCK END ===

=== CODE BLOCK ADDRESS 0x1c8f ===
  0x1c8f	dec    	eax
  0x1c90	lea    	ecx, [0x167a]
  0x1c96	dec    	eax
  0x1c97	call   	dword ptr [0x19db]
  === BLOCK LINK ===
    0x1c9d
=== CODE BLOCK END ===

=== CODE BLOCK ADDRESS 0x1c9d ===
  0x1c9d	nop    	dword ptr [eax + eax]
  0x1ca2	mov    	ebx, eax
  0x1ca4	test   	eax, eax
  0x1ca6	jne    	0x1d7b
  === BLOCK LINK ===
    0x1cac
=== CODE BLOCK END ===

=== CODE BLOCK ADDRESS 0x1cac ===
  0x1cac	mov    	dword ptr [esp + 0x3c], esi
  0x1cb0	dec    	eax
  0x1cb1	lea    	ecx, [esp + 0x30]
  0x1cb5	dec    	eax
  0x1cb6	call   	dword ptr [0x198c]
  === BLOCK LINK ===
    0x1cbc
=== CODE BLOCK END ===

=== CODE BLOCK ADDRESS 0x1cbc ===
  0x1cbc	nop    	dword ptr [eax + eax]
  0x1cc1	mov    	ebx, eax
  0x1cc3	test   	eax, eax
  0x1cc5	jne    	0x1d7b
  === BLOCK LINK ===
    0x1ccb
=== CODE BLOCK END ===

=== CODE BLOCK ADDRESS 0x1ccb ===
  0x1ccb	dec    	eax
  0x1ccd	mov    	eax, dword ptr [0x60]
  0x1cd4	inc    	esp
  0x1cd5	mov    	ecx, dword ptr [eax + 0x2c0]
  0x1cdb	dec    	esp
  === BLOCK LINK ===
    0x1cdc
=== CODE BLOCK END ===

=== CODE BLOCK ADDRESS 0x1cdc ===
  0x1cdc	lea    	eax, [0x1cee]
  0x1ce2	lea    	edx, [ebx + 0x25]
  0x1ce5	dec    	eax
  0x1ce6	lea    	ecx, [esp + 0x60]
  0x1cea	call   	0x10a8
  === BLOCK LINK ===
    0x1cef
=== CODE BLOCK END ===

=== CODE BLOCK ADDRESS 0x1cef ===
  0x1cef	dec    	eax
  0x1cf0	lea    	edx, [esp + 0x50]
  0x1cf4	dec    	eax
  0x1cf5	lea    	ecx, [esp + 0x60]
  0x1cf9	dec    	eax
  === BLOCK LINK ===
    0x1cfa
=== CODE BLOCK END ===

=== CODE BLOCK ADDRESS 0x1cfa ===
  0x1cfa	call   	dword ptr [0x1998]
  === BLOCK LINK ===
    0x1d00
=== CODE BLOCK END ===

=== CODE BLOCK ADDRESS 0x1d00 ===
  0x1d00	nop    	dword ptr [eax + eax]
  0x1d05	mov    	ebx, eax
  0x1d07	test   	eax, eax
  0x1d09	jne    	0x1d7b
  === BLOCK LINK ===
    0x1d0b
=== CODE BLOCK END ===

=== CODE BLOCK ADDRESS 0x1d0b ===
  0x1d0b	mov    	dword ptr [esp + 0x40], esi
  0x1d0f	dec    	eax
  0x1d10	lea    	eax, [esp + 0x50]
  0x1d14	dec    	eax
  0x1d15	mov    	dword ptr [esp + 0x48], eax
  === BLOCK LINK ===
    0x1d19
=== CODE BLOCK END ===

=== CODE BLOCK ADDRESS 0x1d19 ===
  0x1d19	inc    	ebp
  0x1d1a	xor    	ecx, ecx
  0x1d1c	dec    	esp
  0x1d1d	lea    	eax, [esp + 0x40]
  0x1d21	dec    	eax
  === BLOCK LINK ===
    0x1d22
=== CODE BLOCK END ===

=== CODE BLOCK ADDRESS 0x1d22 ===
  0x1d22	mov    	edx, dword ptr [esp + 0x30]
  0x1d26	dec    	eax
  0x1d27	lea    	ecx, [0x15e3]
  0x1d2d	dec    	eax
  0x1d2e	call   	dword ptr [0x191c]
  === BLOCK LINK ===
    0x1d34
=== CODE BLOCK END ===

=== CODE BLOCK ADDRESS 0x1d34 ===
  0x1d34	nop    	dword ptr [eax + eax]
  0x1d39	mov    	ebx, eax
  0x1d3b	test   	eax, eax
  0x1d3d	jne    	0x1d7b
  === BLOCK LINK ===
    0x1d3f
=== CODE BLOCK END ===

=== CODE BLOCK ADDRESS 0x1d3f ===
  0x1d3f	mov    	dword ptr [esp + 0x38], esi
  0x1d43	inc    	esp
  0x1d44	mov    	eax, esi
  0x1d46	mov    	edx, 0x4d2
  0x1d4b	mov    	ecx, esi
  === BLOCK LINK ===
    0x1d4d
=== CODE BLOCK END ===

=== CODE BLOCK ADDRESS 0x1d4d ===
  0x1d4d	dec    	eax
  0x1d4e	call   	dword ptr [0x190c]
  === BLOCK LINK ===
    0x1d54
=== CODE BLOCK END ===

=== CODE BLOCK ADDRESS 0x1d54 ===
  0x1d54	nop    	dword ptr [eax + eax]
  0x1d59	mov    	ebx, eax
  0x1d5b	test   	eax, eax
  0x1d5d	jne    	0x1d7b
  === BLOCK LINK ===
    0x1d5f
=== CODE BLOCK END ===

=== CODE BLOCK ADDRESS 0x1d5f ===
  0x1d5f	or     	edx, 0xffffffff
  0x1d62	dec    	eax
  0x1d63	mov    	ecx, dword ptr [0x386f]
  0x1d69	dec    	eax
  0x1d6a	call   	dword ptr [0x1840]
  === BLOCK LINK ===
    0x1d70
=== CODE BLOCK END ===

=== CODE BLOCK ADDRESS 0x1d70 ===
  0x1d70	nop    	dword ptr [eax + eax]
  0x1d75	mov    	ebx, eax
  0x1d77	test   	eax, eax
  0x1d79	jne    	0x1d5f
  === BLOCK LINK ===
    0x1d7b
=== CODE BLOCK END ===

=== CODE BLOCK ADDRESS 0x1d7b ===
  0x1d7b	dec    	eax
  0x1d7c	mov    	ecx, dword ptr [0x3856]
  0x1d82	dec    	eax
  0x1d83	test   	ecx, ecx
  0x1d85	je     	0x1d93
  === BLOCK LINK ===
    0x1d87
=== CODE BLOCK END ===

=== CODE BLOCK ADDRESS 0x1d87 ===
  0x1d87	dec    	eax
  0x1d88	call   	dword ptr [0x1852]
  === BLOCK LINK ===
    0x1d8e
=== CODE BLOCK END ===

=== CODE BLOCK ADDRESS 0x1d8e ===
  0x1d8e	nop    	dword ptr [eax + eax]
  0x1d93	mov    	ecx, 0x3e8
  0x1d98	dec    	eax
  0x1d99	call   	dword ptr [0x1829]
  === BLOCK LINK ===
    0x1d9f
=== CODE BLOCK END ===

=== CODE BLOCK ADDRESS 0x1d9f ===
  0x1d9f	nop    	dword ptr [eax + eax]
  0x1da4	cmp    	dword ptr [esp + 0x38], 0
  0x1da9	je     	0x1dca
  === BLOCK LINK ===
    0x1dab
=== CODE BLOCK END ===

=== CODE BLOCK ADDRESS 0x1dab ===
  0x1dab	dec    	esp
  0x1dac	lea    	eax, [esp + 0x40]
  0x1db0	dec    	eax
  0x1db1	mov    	edx, dword ptr [esp + 0x30]
  0x1db5	dec    	eax
  === BLOCK LINK ===
    0x1db6
=== CODE BLOCK END ===

=== CODE BLOCK ADDRESS 0x1db6 ===
  0x1db6	lea    	ecx, [0x1554]
  0x1dbc	dec    	eax
  0x1dbd	call   	dword ptr [0x1895]
  === BLOCK LINK ===
    0x1dc3
=== CODE BLOCK END ===

=== CODE BLOCK ADDRESS 0x1dc3 ===
  0x1dc3	nop    	dword ptr [eax + eax]
  0x1dc8	mov    	ebx, eax
  0x1dca	dec    	eax
  0x1dcb	cmp    	dword ptr [esp + 0x30], 0
  0x1dd0	je     	0x1de5
  === BLOCK LINK ===
    0x1dd2
=== CODE BLOCK END ===

=== CODE BLOCK ADDRESS 0x1dd2 ===
  0x1dd2	dec    	eax
  0x1dd3	lea    	ecx, [esp + 0x30]
  0x1dd7	dec    	eax
  0x1dd8	call   	dword ptr [0x18ca]
  === BLOCK LINK ===
    0x1dde
=== CODE BLOCK END ===

=== CODE BLOCK ADDRESS 0x1dde ===
  0x1dde	nop    	dword ptr [eax + eax]
  0x1de3	mov    	ebx, eax
  0x1de5	cmp    	dword ptr [esp + 0x3c], 0
  0x1dea	je     	0x1e06
  === BLOCK LINK ===
    0x1dec
=== CODE BLOCK END ===

=== CODE BLOCK ADDRESS 0x1dec ===
  0x1dec	inc    	esp
  0x1ded	mov    	eax, esi
  0x1def	xor    	edx, edx
  0x1df1	dec    	eax
  0x1df2	lea    	ecx, [0x1518]
  === BLOCK LINK ===
    0x1df8
=== CODE BLOCK END ===

=== CODE BLOCK ADDRESS 0x1df8 ===
  0x1df8	dec    	eax
  0x1df9	call   	dword ptr [0x1881]
  === BLOCK LINK ===
    0x1dff
=== CODE BLOCK END ===

=== CODE BLOCK ADDRESS 0x1dff ===
  0x1dff	nop    	dword ptr [eax + eax]
  0x1e04	mov    	ebx, eax
  0x1e06	mov    	eax, ebx
  0x1e08	dec    	eax
  0x1e09	mov    	ecx, dword ptr [esp + 0xb0]
  === BLOCK LINK ===
    0x1e10
=== CODE BLOCK END ===

=== CODE BLOCK ADDRESS 0x1e10 ===
  0x1e10	dec    	eax
  0x1e11	xor    	ecx, esp
  0x1e13	call   	0x2400
  === BLOCK LINK ===
    0x1e18
=== CODE BLOCK END ===

=== CODE BLOCK ADDRESS 0x1e18 ===
  0x1e18	dec    	eax
  0x1e19	mov    	ebx, dword ptr [esp + 0xd0]
  0x1e20	dec    	eax
  0x1e21	add    	esp, 0xc0
  0x1e27	pop    	esi
  === BLOCK LINK ===
    0x1e28
=== CODE BLOCK END ===

=== CODE BLOCK ADDRESS 0x1e28 ===
  0x1e28	ret    	
  0x1e29	int3   	
  0x1e2a	int3   	
  0x1e2b	int3   	
  0x1e2c	int3   	
  === BLOCK LINK ===
    0x1e2d
=== CODE BLOCK END ===

=== CODE BLOCK ADDRESS 0x1e2d ===
  0x1e2d	int3   	
  0x1e2e	int3   	
  0x1e2f	int3   	
  0x1e30	dec    	eax
  0x1e31	mov    	eax, esp
  === BLOCK LINK ===
    0x1e33
=== CODE BLOCK END ===

=== CODE BLOCK ADDRESS 0x1e33 ===
  0x1e33	dec    	eax
  0x1e34	mov    	dword ptr [eax + 8], ebx
  0x1e37	push   	ebp
  0x1e38	push   	esi
  0x1e39	push   	edi
  === BLOCK LINK ===
    0x1e3a
=== CODE BLOCK END ===

=== CODE BLOCK ADDRESS 0x1e3a ===
  0x1e3a	inc    	ecx
  0x1e3b	push   	esp
  0x1e3c	inc    	ecx
  0x1e3d	push   	ebp
  0x1e3e	inc    	ecx
  === BLOCK LINK ===
    0x1e3f
=== CODE BLOCK END ===

=== CODE BLOCK ADDRESS 0x1e3f ===
  0x1e3f	push   	esi
  0x1e40	inc    	ecx
  0x1e41	push   	edi
  0x1e42	dec    	eax
  0x1e43	sub    	esp, 0x30
  === BLOCK LINK ===
    0x1e46
=== CODE BLOCK END ===

=== CODE BLOCK ADDRESS 0x1e46 ===
  0x1e46	inc    	ebp
  0x1e47	xor    	ebp, ebp
  0x1e49	dec    	ebp
  0x1e4a	mov    	edi, eax
  0x1e4c	inc    	esp
  === BLOCK LINK ===
    0x1e4d
=== CODE BLOCK END ===

=== CODE BLOCK ADDRESS 0x1e4d ===
  0x1e4d	mov    	dword ptr [eax + 0x18], ebp
  0x1e50	dec    	esp
  0x1e51	mov    	esp, edx
  0x1e53	dec    	eax
  0x1e54	mov    	ebp, ecx
  === BLOCK LINK ===
    0x1e56
=== CODE BLOCK END ===

=== CODE BLOCK ADDRESS 0x1e56 ===
  0x1e56	inc    	ecx
  0x1e57	mov    	ebx, ebp
  0x1e59	inc    	ecx
  0x1e5a	mov    	esi, ebp
  0x1e5c	inc    	ebp
  === BLOCK LINK ===
    0x1e5d
=== CODE BLOCK END ===

=== CODE BLOCK ADDRESS 0x1e5d ===
  0x1e5d	mov    	esi, ebp
  0x1e5f	dec    	ebp
  0x1e60	test   	eax, eax
  0x1e62	jne    	0x1e6e
  === BLOCK LINK ===
    0x1e64
=== CODE BLOCK END ===

=== CODE BLOCK ADDRESS 0x1e64 ===
  0x1e64	mov    	eax, 0xc000000d
  0x1e69	jmp    	0x1fd5
  === BLOCK LINK ===
    0x1e6e
=== CODE BLOCK END ===

=== CODE BLOCK ADDRESS 0x1e6e ===
  0x1e6e	dec    	esp
  0x1e6f	mov    	dword ptr [edx], ebp
  0x1e71	inc    	ebp
  0x1e72	mov    	dword ptr [eax], ebp
  0x1e74	dec    	eax
  === BLOCK LINK ===
    0x1e75
=== CODE BLOCK END ===

=== CODE BLOCK ADDRESS 0x1e75 ===
  0x1e75	test   	ebp, ebp
  0x1e77	jne    	0x1e80
  === BLOCK LINK ===
    0x1e79
=== CODE BLOCK END ===

=== CODE BLOCK ADDRESS 0x1e79 ===
  0x1e79	xor    	eax, eax
  0x1e7b	jmp    	0x1fd5
  === BLOCK LINK ===
    0x1e80
=== CODE BLOCK END ===

=== CODE BLOCK ADDRESS 0x1e80 ===
  0x1e80	dec    	eax
  0x1e81	or     	edi, 0xffffffff
  0x1e84	dec    	eax
  0x1e85	inc    	edi
  0x1e87	inc    	sp
  === BLOCK LINK ===
    0x1e89
=== CODE BLOCK END ===

=== CODE BLOCK ADDRESS 0x1e89 ===
  0x1e89	cmp    	dword ptr [ecx + edi*2], ebp
  0x1e8c	jne    	0x1e84
  === BLOCK LINK ===
    0x1e8e
=== CODE BLOCK END ===

=== CODE BLOCK ADDRESS 0x1e8e ===
  0x1e8e	dec    	eax
  0x1e8f	lea    	edx, [esp + 0x88]
  0x1e96	inc    	edi
  0x1e98	dec    	eax
  0x1e99	call   	dword ptr [0x16c9]
  === BLOCK LINK ===
    0x1e9f
=== CODE BLOCK END ===

=== CODE BLOCK ADDRESS 0x1e9f ===
  0x1e9f	nop    	dword ptr [eax + eax]
  0x1ea4	test   	eax, eax
  0x1ea6	jne    	0x1eb2
  === BLOCK LINK ===
    0x1ea8
=== CODE BLOCK END ===

=== CODE BLOCK ADDRESS 0x1ea8 ===
  0x1ea8	mov    	ebx, 0xc000000d
  0x1ead	jmp    	0x1fd3
  === BLOCK LINK ===
    0x1eb2
=== CODE BLOCK END ===

=== CODE BLOCK ADDRESS 0x1eb2 ===
  0x1eb2	mov    	ecx, dword ptr [esp + 0x88]
  0x1eb9	sub    	ecx, 1
  0x1ebc	je     	0x1fb1
  === BLOCK LINK ===
    0x1ec2
=== CODE BLOCK END ===

=== CODE BLOCK ADDRESS 0x1ec2 ===
  0x1ec2	cmp    	ecx, 1
  0x1ec5	je     	0x1f07
  === BLOCK LINK ===
    0x1ec7
=== CODE BLOCK END ===

=== CODE BLOCK ADDRESS 0x1ec7 ===
  0x1ec7	inc    	esp
  0x1ec8	lea    	esi, [edi + edi]
  0x1ecb	mov    	ecx, 0x40
  0x1ed0	inc    	ecx
  0x1ed1	mov    	edx, esi
  === BLOCK LINK ===
    0x1ed3
=== CODE BLOCK END ===

=== CODE BLOCK ADDRESS 0x1ed3 ===
  0x1ed3	inc    	ecx
  0x1ed4	mov    	edi, esi
  0x1ed6	dec    	eax
  0x1ed7	call   	dword ptr [0x16db]
  === BLOCK LINK ===
    0x1edd
=== CODE BLOCK END ===

=== CODE BLOCK ADDRESS 0x1edd ===
  0x1edd	nop    	dword ptr [eax + eax]
  0x1ee2	dec    	eax
  0x1ee3	mov    	esi, eax
  0x1ee5	dec    	eax
  0x1ee6	test   	eax, eax
  === BLOCK LINK ===
    0x1ee8
=== CODE BLOCK END ===

=== CODE BLOCK ADDRESS 0x1ee8 ===
  0x1ee8	jne    	0x1ef4
  === BLOCK LINK ===
    0x1eea
=== CODE BLOCK END ===

=== CODE BLOCK ADDRESS 0x1eea ===
  0x1eea	mov    	ebx, 0xc000009a
  0x1eef	jmp    	0x1fd3
  === BLOCK LINK ===
    0x1ef4
=== CODE BLOCK END ===

=== CODE BLOCK ADDRESS 0x1ef4 ===
  0x1ef4	dec    	esp
  0x1ef5	mov    	eax, edi
  0x1ef7	dec    	eax
  0x1ef8	mov    	edx, ebp
  0x1efa	dec    	eax
  === BLOCK LINK ===
    0x1efb
=== CODE BLOCK END ===

=== CODE BLOCK ADDRESS 0x1efb ===
  0x1efb	mov    	ecx, eax
  0x1efd	call   	0x2ae0
  === BLOCK LINK ===
    0x1f02
=== CODE BLOCK END ===

=== CODE BLOCK ADDRESS 0x1f02 ===
  0x1f02	jmp    	0x1fa8
  === BLOCK LINK ===
    0x1f07
=== CODE BLOCK END ===

=== CODE BLOCK ADDRESS 0x1f07 ===
  0x1f07	dec    	eax
  0x1f08	lea    	eax, [esp + 0x80]
  0x1f0f	inc    	ebp
  0x1f10	xor    	ecx, ecx
  0x1f12	inc    	esp
  === BLOCK LINK ===
    0x1f13
=== CODE BLOCK END ===

=== CODE BLOCK ADDRESS 0x1f13 ===
  0x1f13	mov    	eax, edi
  0x1f15	dec    	eax
  0x1f16	mov    	dword ptr [esp + 0x20], eax
  0x1f1a	dec    	eax
  0x1f1b	mov    	edx, ebp
  === BLOCK LINK ===
    0x1f1d
=== CODE BLOCK END ===

=== CODE BLOCK ADDRESS 0x1f1d ===
  0x1f1d	xor    	ecx, ecx
  0x1f1f	dec    	eax
  0x1f20	call   	dword ptr [0x165a]
  === BLOCK LINK ===
    0x1f26
=== CODE BLOCK END ===

=== CODE BLOCK ADDRESS 0x1f26 ===
  0x1f26	nop    	dword ptr [eax + eax]
  0x1f2b	test   	eax, eax
  0x1f2d	jne    	0x1fa8
  === BLOCK LINK ===
    0x1f2f
=== CODE BLOCK END ===

=== CODE BLOCK ADDRESS 0x1f2f ===
  0x1f2f	dec    	eax
  0x1f30	call   	dword ptr [0x169a]
  === BLOCK LINK ===
    0x1f36
=== CODE BLOCK END ===

=== CODE BLOCK ADDRESS 0x1f36 ===
  0x1f36	nop    	dword ptr [eax + eax]
  0x1f3b	cmp    	eax, 0x7a
  0x1f3e	jne    	0x1ea8
  === BLOCK LINK ===
    0x1f44
=== CODE BLOCK END ===

=== CODE BLOCK ADDRESS 0x1f44 ===
  0x1f44	mov    	eax, dword ptr [esp + 0x80]
  0x1f4b	test   	eax, eax
  0x1f4d	je     	0x1ea8
  === BLOCK LINK ===
    0x1f53
=== CODE BLOCK END ===

=== CODE BLOCK ADDRESS 0x1f53 ===
  0x1f53	mov    	edx, eax
  0x1f55	mov    	ecx, 0x40
  0x1f5a	dec    	eax
  0x1f5b	add    	edx, edx
  0x1f5d	dec    	eax
  === BLOCK LINK ===
    0x1f5e
=== CODE BLOCK END ===

=== CODE BLOCK ADDRESS 0x1f5e ===
  0x1f5e	call   	dword ptr [0x1654]
  === BLOCK LINK ===
    0x1f64
=== CODE BLOCK END ===

=== CODE BLOCK ADDRESS 0x1f64 ===
  0x1f64	nop    	dword ptr [eax + eax]
  0x1f69	dec    	eax
  0x1f6a	mov    	esi, eax
  0x1f6c	dec    	eax
  0x1f6d	test   	eax, eax
  === BLOCK LINK ===
    0x1f6f
=== CODE BLOCK END ===

=== CODE BLOCK ADDRESS 0x1f6f ===
  0x1f6f	je     	0x1eea
  === BLOCK LINK ===
    0x1f75
=== CODE BLOCK END ===

=== CODE BLOCK ADDRESS 0x1f75 ===
  0x1f75	dec    	eax
  0x1f76	lea    	eax, [esp + 0x80]
  0x1f7d	dec    	esp
  0x1f7e	mov    	ecx, esi
  0x1f80	inc    	esp
  === BLOCK LINK ===
    0x1f81
=== CODE BLOCK END ===

=== CODE BLOCK ADDRESS 0x1f81 ===
  0x1f81	mov    	eax, edi
  0x1f83	dec    	eax
  0x1f84	mov    	dword ptr [esp + 0x20], eax
  0x1f88	dec    	eax
  0x1f89	mov    	edx, ebp
  === BLOCK LINK ===
    0x1f8b
=== CODE BLOCK END ===

=== CODE BLOCK ADDRESS 0x1f8b ===
  0x1f8b	xor    	ecx, ecx
  0x1f8d	dec    	eax
  0x1f8e	call   	dword ptr [0x15ec]
  === BLOCK LINK ===
    0x1f94
=== CODE BLOCK END ===

=== CODE BLOCK ADDRESS 0x1f94 ===
  0x1f94	nop    	dword ptr [eax + eax]
  0x1f99	test   	eax, eax
  0x1f9b	je     	0x1fb1
  === BLOCK LINK ===
    0x1f9d
=== CODE BLOCK END ===

=== CODE BLOCK ADDRESS 0x1f9d ===
  0x1f9d	mov    	eax, dword ptr [esp + 0x80]
  0x1fa4	inc    	esp
  0x1fa5	lea    	esi, [eax + eax]
  0x1fa8	dec    	ecx
  0x1fa9	mov    	dword ptr [esp], esi
  === BLOCK LINK ===
    0x1fac
=== CODE BLOCK END ===

=== CODE BLOCK ADDRESS 0x1fac ===
  0x1fac	inc    	ebp
  0x1fad	mov    	dword ptr [edi], esi
  0x1faf	jmp    	0x1fd3
  === BLOCK LINK ===
    0x1fb1
=== CODE BLOCK END ===

=== CODE BLOCK ADDRESS 0x1fb1 ===
  0x1fb1	mov    	ebx, 0xc000000d
  0x1fb6	dec    	eax
  0x1fb7	test   	esi, esi
  0x1fb9	je     	0x1fd3
  === BLOCK LINK ===
    0x1fbb
=== CODE BLOCK END ===

=== CODE BLOCK ADDRESS 0x1fbb ===
  0x1fbb	xor    	ecx, ecx
  0x1fbd	xor    	eax, eax
  0x1fbf	dec    	eax
  0x1fc0	mov    	edi, esi
  0x1fc2	rep stosb  	byte ptr es:[edi], al
  === BLOCK LINK ===
    0x1fc4
=== CODE BLOCK END ===

=== CODE BLOCK ADDRESS 0x1fc4 ===
  0x1fc4	dec    	eax
  0x1fc5	mov    	ecx, esi
  0x1fc7	dec    	eax
  0x1fc8	call   	dword ptr [0x163a]
  === BLOCK LINK ===
    0x1fce
=== CODE BLOCK END ===

=== CODE BLOCK ADDRESS 0x1fce ===
  0x1fce	nop    	dword ptr [eax + eax]
  0x1fd3	mov    	eax, ebx
  0x1fd5	dec    	eax
  0x1fd6	mov    	ebx, dword ptr [esp + 0x70]
  0x1fda	dec    	eax
  === BLOCK LINK ===
    0x1fdb
=== CODE BLOCK END ===

=== CODE BLOCK ADDRESS 0x1fdb ===
  0x1fdb	add    	esp, 0x30
  0x1fde	inc    	ecx
  0x1fdf	pop    	edi
  0x1fe0	inc    	ecx
  0x1fe1	pop    	esi
  === BLOCK LINK ===
    0x1fe2
=== CODE BLOCK END ===

=== CODE BLOCK ADDRESS 0x1fe2 ===
  0x1fe2	inc    	ecx
  0x1fe3	pop    	ebp
  0x1fe4	inc    	ecx
  0x1fe5	pop    	esp
  0x1fe6	pop    	edi
  === BLOCK LINK ===
    0x1fe7
=== CODE BLOCK END ===

=== CODE BLOCK ADDRESS 0x1fe7 ===
  0x1fe7	pop    	esi
  0x1fe8	pop    	ebp
  0x1fe9	ret    	
  0x1fea	int3   	
  0x1feb	int3   	
  === BLOCK LINK ===
    0x1fec
=== CODE BLOCK END ===

=== CODE BLOCK ADDRESS 0x1063 ===
  0x1063	dec    	eax
  0x1064	test   	eax, eax
  0x1066	je     	0x1084
  === BLOCK LINK ===
    0x1068
    0x1084
=== CODE BLOCK END ===

=== CODE BLOCK ADDRESS 0x1fec ===
  0x1fec	int3   	
  0x1fed	int3   	
  0x1fee	int3   	
  0x1fef	int3   	
  0x1ff0	int3   	
  === BLOCK LINK ===
    0x1ff1
=== CODE BLOCK END ===

=== CODE BLOCK ADDRESS 0x1ff1 ===
  0x1ff1	int3   	
  0x1ff2	int3   	
  0x1ff3	int3   	
  0x1ff4	int3   	
  0x1ff5	int3   	
  === BLOCK LINK ===
    0x1ff6
=== CODE BLOCK END ===

=== CODE BLOCK ADDRESS 0x1ff6 ===
  0x1ff6	int3   	
  0x1ff7	int3   	
  0x1ff8	int3   	
  0x1ff9	int3   	
  0x1ffa	int3   	
  === BLOCK LINK ===
    0x1ffb
=== CODE BLOCK END ===

=== CODE BLOCK ADDRESS 0x1ffb ===
  0x1ffb	int3   	
  0x1ffc	int3   	
  0x1ffd	int3   	
  0x1ffe	int3   	
  0x1fff	int3   	
  === BLOCK LINK ===
    0x2000
=== CODE BLOCK END ===

=== CODE BLOCK ADDRESS 0x2000 ===
  0x2000	dec    	eax
  0x2001	sub    	esp, 0x38
  0x2004	mov    	eax, dword ptr [0x1b56]
  0x200a	dec    	esp
  0x200b	mov    	ecx, dword ptr [0x1617]
  === BLOCK LINK ===
    0x2011
=== CODE BLOCK END ===

=== CODE BLOCK ADDRESS 0x2011 ===
  0x2011	dec    	esp
  0x2012	mov    	eax, dword ptr [0x1b50]
  0x2018	mov    	dword ptr [esp + 0x28], eax
  0x201c	dec    	eax
  0x201d	mov    	dword ptr [esp + 0x20], edx
  === BLOCK LINK ===
    0x2021
=== CODE BLOCK END ===

=== CODE BLOCK ADDRESS 0x2021 ===
  0x2021	dec    	eax
  0x2022	mov    	edx, ecx
  0x2024	dec    	eax
  0x2025	lea    	ecx, [0xffffdfd5]
  0x202b	dec    	eax
  === BLOCK LINK ===
    0x202c
=== CODE BLOCK END ===

=== CODE BLOCK ADDRESS 0x202c ===
  0x202c	call   	dword ptr [0x15ee]
  === BLOCK LINK ===
    0x2032
=== CODE BLOCK END ===

=== CODE BLOCK ADDRESS 0x2032 ===
  0x2032	nop    	dword ptr [eax + eax]
  0x2037	dec    	eax
  0x2038	add    	esp, 0x38
  0x203b	ret    	
  0x203c	int3   	
  === BLOCK LINK ===
    0x203d
=== CODE BLOCK END ===

=== CODE BLOCK ADDRESS 0x203d ===
  0x203d	int3   	
  0x203e	int3   	
  0x203f	int3   	
  0x2040	int3   	
  0x2041	int3   	
  === BLOCK LINK ===
    0x2042
=== CODE BLOCK END ===

=== CODE BLOCK ADDRESS 0x2042 ===
  0x2042	int3   	
  0x2043	int3   	
  0x2044	int3   	
  0x2045	int3   	
  0x2046	int3   	
  === BLOCK LINK ===
    0x2047
=== CODE BLOCK END ===

=== CODE BLOCK ADDRESS 0x2047 ===
  0x2047	int3   	
  0x2048	int3   	
  0x2049	int3   	
  0x204a	int3   	
  0x204b	int3   	
  === BLOCK LINK ===
    0x204c
=== CODE BLOCK END ===

=== CODE BLOCK ADDRESS 0x204c ===
  0x204c	int3   	
  0x204d	int3   	
  0x204e	int3   	
  0x204f	int3   	
  0x2050	dec    	eax
  === BLOCK LINK ===
    0x2051
=== CODE BLOCK END ===

=== CODE BLOCK ADDRESS 0x2051 ===
  0x2051	sub    	esp, 0x28
  0x2054	mov    	eax, 0x5a4d
  0x2059	cmp    	word ptr [0xffffdfa0], ax
  0x2060	je     	0x2066
  === BLOCK LINK ===
    0x2062
=== CODE BLOCK END ===

=== CODE BLOCK ADDRESS 0x2062 ===
  0x2062	xor    	eax, eax
  0x2064	jmp    	0x20b9
  === BLOCK LINK ===
    0x2066
=== CODE BLOCK END ===

=== CODE BLOCK ADDRESS 0x2066 ===
  0x2066	dec    	eax
  0x2067	arpl   	word ptr [0xffffdfcf], cx
  0x206d	dec    	eax
  0x206e	lea    	eax, [0xffffdf8c]
  0x2074	dec    	eax
  === BLOCK LINK ===
    0x2075
=== CODE BLOCK END ===

=== CODE BLOCK ADDRESS 0x2075 ===
  0x2075	add    	ecx, eax
  0x2077	cmp    	dword ptr [ecx], 0x4550
  0x207d	jne    	0x2062
  === BLOCK LINK ===
    0x207f
=== CODE BLOCK END ===

=== CODE BLOCK ADDRESS 0x207f ===
  0x207f	mov    	eax, 0x10b
  0x2084	cmp    	word ptr [ecx + 0x18], ax
  0x2088	je     	0x20a8
  === BLOCK LINK ===
    0x208a
=== CODE BLOCK END ===

=== CODE BLOCK ADDRESS 0x208a ===
  0x208a	mov    	eax, 0x20b
  0x208f	cmp    	word ptr [ecx + 0x18], ax
  0x2093	jne    	0x2062
  === BLOCK LINK ===
    0x2095
=== CODE BLOCK END ===

=== CODE BLOCK ADDRESS 0x2095 ===
  0x2095	xor    	eax, eax
  0x2097	cmp    	dword ptr [ecx + 0x84], 0xe
  0x209e	jbe    	0x20b9
  === BLOCK LINK ===
    0x20a0
=== CODE BLOCK END ===

=== CODE BLOCK ADDRESS 0x20a0 ===
  0x20a0	cmp    	dword ptr [ecx + 0xf8], eax
  0x20a6	jmp    	0x20b6
  === BLOCK LINK ===
    0x20a8
=== CODE BLOCK END ===

=== CODE BLOCK ADDRESS 0x20a8 ===
  0x20a8	xor    	eax, eax
  0x20aa	cmp    	dword ptr [ecx + 0x74], 0xe
  0x20ae	jbe    	0x20b9
  === BLOCK LINK ===
    0x20b0
=== CODE BLOCK END ===

=== CODE BLOCK ADDRESS 0x20b0 ===
  0x20b0	cmp    	dword ptr [ecx + 0xe8], eax
  0x20b6	setne  	al
  0x20b9	mov    	ecx, 2
  0x20be	mov    	dword ptr [0x2f7c], eax
  0x20c4	call   	0x24f8
  === BLOCK LINK ===
    0x20c9
=== CODE BLOCK END ===

=== CODE BLOCK ADDRESS 0x20c9 ===
  0x20c9	mov    	ecx, eax
  0x20cb	call   	dword ptr [0x16bf]
  === BLOCK LINK ===
    0x20d1
=== CODE BLOCK END ===

=== CODE BLOCK ADDRESS 0x20d1 ===
  0x20d1	dec    	eax
  0x20d2	mov    	ecx, dword ptr [0x16c0]
  0x20d8	dec    	eax
  0x20d9	or     	eax, 0xffffffff
  0x20dc	dec    	eax
  === BLOCK LINK ===
    0x20dd
=== CODE BLOCK END ===

=== CODE BLOCK ADDRESS 0x20dd ===
  0x20dd	mov    	dword ptr [0x34fd], eax
  0x20e3	dec    	eax
  0x20e4	mov    	dword ptr [0x34fe], eax
  0x20ea	mov    	eax, dword ptr [0x2f64]
  0x20f0	mov    	dword ptr [ecx], eax
  === BLOCK LINK ===
    0x20f2
=== CODE BLOCK END ===

=== CODE BLOCK ADDRESS 0x20f2 ===
  0x20f2	dec    	eax
  0x20f3	mov    	ecx, dword ptr [0x16a7]
  0x20f9	mov    	eax, dword ptr [0x2f49]
  0x20ff	mov    	dword ptr [ecx], eax
  0x2101	call   	0x2550
  === BLOCK LINK ===
    0x2106
=== CODE BLOCK END ===

=== CODE BLOCK ADDRESS 0x2106 ===
  0x2106	cmp    	dword ptr [0x2ef3], 0
  0x210d	jne    	0x211c
  === BLOCK LINK ===
    0x210f
=== CODE BLOCK END ===

=== CODE BLOCK ADDRESS 0x210f ===
  0x210f	dec    	eax
  0x2110	lea    	ecx, [0x43a]
  0x2116	call   	dword ptr [0x1654]
  === BLOCK LINK ===
    0x211c
=== CODE BLOCK END ===

=== CODE BLOCK ADDRESS 0x211c ===
  0x211c	xor    	eax, eax
  0x211e	dec    	eax
  0x211f	add    	esp, 0x28
  0x2122	ret    	
  0x2123	int3   	
  === BLOCK LINK ===
    0x2124
=== CODE BLOCK END ===

=== CODE BLOCK ADDRESS 0x2124 ===
  0x2124	int3   	
  0x2125	int3   	
  0x2126	int3   	
  0x2127	int3   	
  0x2128	int3   	
  === BLOCK LINK ===
    0x2129
=== CODE BLOCK END ===

=== CODE BLOCK ADDRESS 0x2129 ===
  0x2129	int3   	
  0x212a	int3   	
  0x212b	int3   	
  0x212c	int3   	
  0x212d	int3   	
  === BLOCK LINK ===
    0x212e
=== CODE BLOCK END ===

=== CODE BLOCK ADDRESS 0x212e ===
  0x212e	int3   	
  0x212f	int3   	
  0x2130	dec    	eax
  0x2131	sub    	esp, 0x38
  0x2134	mov    	eax, dword ptr [0x2f16]
  === BLOCK LINK ===
    0x213a
=== CODE BLOCK END ===

=== CODE BLOCK ADDRESS 0x213a ===
  0x213a	dec    	esp
  0x213b	lea    	eax, [0x2ef7]
  0x2141	inc    	esp
  0x2142	mov    	ecx, dword ptr [0x2f04]
  0x2148	dec    	eax
  === BLOCK LINK ===
    0x2149
=== CODE BLOCK END ===

=== CODE BLOCK ADDRESS 0x2149 ===
  0x2149	lea    	edx, [0x2ee1]
  0x214f	mov    	dword ptr [0x2eef], eax
  0x2155	dec    	eax
  0x2156	lea    	ecx, [0x2ecc]
  0x215c	dec    	eax
  === BLOCK LINK ===
    0x215d
=== CODE BLOCK END ===

=== CODE BLOCK ADDRESS 0x215d ===
  0x215d	lea    	eax, [0x2ee1]
  0x2163	dec    	eax
  0x2164	mov    	dword ptr [esp + 0x20], eax
  0x2168	call   	dword ptr [0x161a]
  === BLOCK LINK ===
    0x216e
=== CODE BLOCK END ===

=== CODE BLOCK ADDRESS 0x216e ===
  0x216e	mov    	dword ptr [0x2eb8], eax
  0x2174	dec    	eax
  0x2175	add    	esp, 0x38
  0x2178	ret    	
  0x2179	int3   	
  === BLOCK LINK ===
    0x217a
=== CODE BLOCK END ===

=== CODE BLOCK ADDRESS 0x217a ===
  0x217a	int3   	
  0x217b	int3   	
  0x217c	int3   	
  0x217d	int3   	
  0x217e	int3   	
  === BLOCK LINK ===
    0x217f
=== CODE BLOCK END ===

=== CODE BLOCK ADDRESS 0x217f ===
  0x217f	int3   	
  0x2180	dec    	eax
  0x2181	sub    	esp, 0x28
  0x2184	call   	0x2644
  === BLOCK LINK ===
    0x2189
=== CODE BLOCK END ===

=== CODE BLOCK ADDRESS 0x2189 ===
  0x2189	dec    	eax
  0x218a	add    	esp, 0x28
  0x218d	jmp    	0x2198
  === BLOCK LINK ===
    0x2192
=== CODE BLOCK END ===

=== CODE BLOCK ADDRESS 0x2192 ===
  0x2192	int3   	
  0x2193	int3   	
  0x2194	int3   	
  0x2195	int3   	
  0x2196	int3   	
  === BLOCK LINK ===
    0x2197
=== CODE BLOCK END ===

=== CODE BLOCK ADDRESS 0x2197 ===
  0x2197	int3   	
  0x2198	dec    	eax
  0x2199	mov    	dword ptr [esp + 8], ebx
  0x219d	dec    	eax
  0x219e	mov    	dword ptr [esp + 0x10], edi
  === BLOCK LINK ===
    0x21a2
=== CODE BLOCK END ===

=== CODE BLOCK ADDRESS 0x21a2 ===
  0x21a2	inc    	ecx
  0x21a3	push   	esi
  0x21a4	dec    	eax
  0x21a5	sub    	esp, 0xb0
  0x21ab	and    	dword ptr [esp + 0x20], 0
  === BLOCK LINK ===
    0x21b0
=== CODE BLOCK END ===

=== CODE BLOCK ADDRESS 0x21b0 ===
  0x21b0	dec    	eax
  0x21b1	lea    	ecx, [esp + 0x40]
  0x21b5	call   	dword ptr [0x1545]
  === BLOCK LINK ===
    0x21bb
=== CODE BLOCK END ===

=== CODE BLOCK ADDRESS 0x21bb ===
  0x21bb	nop    	
  0x21bc	dec    	eax
  0x21be	mov    	eax, dword ptr [0x30]
  0x21c5	dec    	eax
  0x21c6	mov    	ebx, dword ptr [eax + 8]
  === BLOCK LINK ===
    0x21c9
=== CODE BLOCK END ===

=== CODE BLOCK ADDRESS 0x21c9 ===
  0x21c9	xor    	edi, edi
  0x21cb	xor    	eax, eax
  0x21cd	.byte  	0xf0
  0x21ce	dec    	eax
  0x21cf	cmpxchg  	dword ptr [0x341a], ebx
  === BLOCK LINK ===
    0x21d6
=== CODE BLOCK END ===

=== CODE BLOCK ADDRESS 0x21d6 ===
  0x21d6	je     	0x21e2
  === BLOCK LINK ===
    0x21d8
=== CODE BLOCK END ===

=== CODE BLOCK ADDRESS 0x21d8 ===
  0x21d8	dec    	eax
  0x21d9	cmp    	eax, ebx
  0x21db	jne    	0x21f7
  === BLOCK LINK ===
    0x21dd
=== CODE BLOCK END ===

=== CODE BLOCK ADDRESS 0x21dd ===
  0x21dd	mov    	edi, 1
  0x21e2	mov    	eax, dword ptr [0x3410]
  0x21e8	cmp    	eax, 1
  0x21eb	jne    	0x2204
  === BLOCK LINK ===
    0x21ed
=== CODE BLOCK END ===

=== CODE BLOCK ADDRESS 0x21ed ===
  0x21ed	lea    	ecx, [eax + 0x1e]
  0x21f0	call   	0x2543
  === BLOCK LINK ===
    0x21f5
=== CODE BLOCK END ===

=== CODE BLOCK ADDRESS 0x21f5 ===
  0x21f5	jmp    	0x2271
  === BLOCK LINK ===
    0x21f7
=== CODE BLOCK END ===

=== CODE BLOCK ADDRESS 0x21f7 ===
  0x21f7	mov    	ecx, 0x3e8
  0x21fc	call   	dword ptr [0x13c6]
  === BLOCK LINK ===
    0x2202
=== CODE BLOCK END ===

=== CODE BLOCK ADDRESS 0x2202 ===
  0x2202	jmp    	0x21cb
  === BLOCK LINK ===
    0x2204
=== CODE BLOCK END ===

=== CODE BLOCK ADDRESS 0x2204 ===
  0x2204	mov    	eax, dword ptr [0x33ee]
  0x220a	test   	eax, eax
  0x220c	jne    	0x2267
  === BLOCK LINK ===
    0x220e
=== CODE BLOCK END ===

=== CODE BLOCK ADDRESS 0x220e ===
  0x220e	mov    	dword ptr [0x33e0], 1
  0x2218	dec    	esp
  0x2219	lea    	esi, [0x1621]
  0x221f	dec    	eax
  0x2220	lea    	ebx, [0x1602]
  === BLOCK LINK ===
    0x2226
=== CODE BLOCK END ===

=== CODE BLOCK ADDRESS 0x2226 ===
  0x2226	dec    	eax
  0x2227	mov    	dword ptr [esp + 0x30], ebx
  0x222b	mov    	dword ptr [esp + 0x24], eax
  0x222f	dec    	ecx
  0x2230	cmp    	ebx, esi
  === BLOCK LINK ===
    0x2232
=== CODE BLOCK END ===

=== CODE BLOCK ADDRESS 0x2232 ===
  0x2232	jae    	0x2259
  === BLOCK LINK ===
    0x2234
=== CODE BLOCK END ===

=== CODE BLOCK ADDRESS 0x2234 ===
  0x2234	test   	eax, eax
  0x2236	jne    	0x225d
  === BLOCK LINK ===
    0x2238
=== CODE BLOCK END ===

=== CODE BLOCK ADDRESS 0x2238 ===
  0x2238	dec    	eax
  0x2239	cmp    	dword ptr [ebx], 0
  0x223c	je     	0x224e
  === BLOCK LINK ===
    0x223e
=== CODE BLOCK END ===

=== CODE BLOCK ADDRESS 0x223e ===
  0x223e	dec    	eax
  0x223f	mov    	eax, dword ptr [ebx]
  0x2241	dec    	eax
  0x2242	mov    	ecx, dword ptr [0x15c0]
  0x2248	call   	ecx
  === BLOCK LINK ===
    0x224a
=== CODE BLOCK END ===

=== CODE BLOCK ADDRESS 0x224a ===
  0x224a	mov    	dword ptr [esp + 0x24], eax
  0x224e	dec    	eax
  0x224f	add    	ebx, 8
  0x2252	dec    	eax
  0x2253	mov    	dword ptr [esp + 0x30], ebx
  === BLOCK LINK ===
    0x2257
=== CODE BLOCK END ===

=== CODE BLOCK ADDRESS 0x2257 ===
  0x2257	jmp    	0x222f
  === BLOCK LINK ===
    0x2259
=== CODE BLOCK END ===

=== CODE BLOCK ADDRESS 0x2259 ===
  0x2259	test   	eax, eax
  0x225b	je     	0x2271
  === BLOCK LINK ===
    0x225d
=== CODE BLOCK END ===

=== CODE BLOCK ADDRESS 0x225d ===
  0x225d	mov    	eax, 0xff
  0x2262	jmp    	0x23c4
  === BLOCK LINK ===
    0x2267
=== CODE BLOCK END ===

=== CODE BLOCK ADDRESS 0x2267 ===
  0x2267	mov    	dword ptr [0x2db3], 1
  0x2271	mov    	eax, dword ptr [0x3381]
  0x2277	cmp    	eax, 1
  0x227a	jne    	0x2299
  === BLOCK LINK ===
    0x227c
=== CODE BLOCK END ===

=== CODE BLOCK ADDRESS 0x227c ===
  0x227c	dec    	eax
  0x227d	lea    	edx, [0x159d]
  0x2283	dec    	eax
  0x2284	lea    	ecx, [0x1586]
  0x228a	call   	0x271e
  === BLOCK LINK ===
    0x228f
=== CODE BLOCK END ===

=== CODE BLOCK ADDRESS 0x228f ===
  0x228f	mov    	dword ptr [0x335f], 2
  0x2299	test   	edi, edi
  0x229b	jne    	0x22a6
  === BLOCK LINK ===
    0x229d
=== CODE BLOCK END ===

=== CODE BLOCK ADDRESS 0x229d ===
  0x229d	xor    	eax, eax
  0x229f	dec    	eax
  0x22a0	xchg   	dword ptr [0x334a], eax
  0x22a6	dec    	eax
  0x22a7	cmp    	dword ptr [0x3352], 0
  === BLOCK LINK ===
    0x22ae
=== CODE BLOCK END ===

=== CODE BLOCK ADDRESS 0x22ae ===
  0x22ae	je     	0x22da
  === BLOCK LINK ===
    0x22b0
=== CODE BLOCK END ===

=== CODE BLOCK ADDRESS 0x22b0 ===
  0x22b0	dec    	eax
  0x22b1	lea    	ecx, [0x3349]
  0x22b7	call   	0x25b0
  === BLOCK LINK ===
    0x22bc
=== CODE BLOCK END ===

=== CODE BLOCK ADDRESS 0x22bc ===
  0x22bc	test   	eax, eax
  0x22be	je     	0x22da
  === BLOCK LINK ===
    0x22c0
=== CODE BLOCK END ===

=== CODE BLOCK ADDRESS 0x22c0 ===
  0x22c0	inc    	ebp
  0x22c1	xor    	eax, eax
  0x22c3	inc    	ecx
  0x22c4	lea    	edx, [eax + 2]
  0x22c7	xor    	ecx, ecx
  === BLOCK LINK ===
    0x22c9
=== CODE BLOCK END ===

=== CODE BLOCK ADDRESS 0x22c9 ===
  0x22c9	dec    	eax
  0x22ca	mov    	eax, dword ptr [0x3330]
  0x22d0	dec    	esp
  0x22d1	mov    	ecx, dword ptr [0x1531]
  0x22d7	inc    	ecx
  === BLOCK LINK ===
    0x22d8
=== CODE BLOCK END ===

=== CODE BLOCK ADDRESS 0x22d8 ===
  0x22d8	call   	ecx
  === BLOCK LINK ===
    0x22da
=== CODE BLOCK END ===

=== CODE BLOCK ADDRESS 0x22da ===
  0x22da	dec    	eax
  0x22db	mov    	eax, dword ptr [0x147f]
  0x22e1	dec    	eax
  0x22e2	mov    	ebx, dword ptr [eax]
  0x22e4	dec    	eax
  === BLOCK LINK ===
    0x22e5
=== CODE BLOCK END ===

=== CODE BLOCK ADDRESS 0x22e5 ===
  0x22e5	mov    	dword ptr [esp + 0x28], ebx
  0x22e9	mov    	edi, dword ptr [esp + 0x20]
  0x22ed	movzx  	ecx, byte ptr [ebx]
  0x22f0	cmp    	cl, 0x20
  0x22f3	ja     	0x2366
  === BLOCK LINK ===
    0x22f5
=== CODE BLOCK END ===

=== CODE BLOCK ADDRESS 0x22f5 ===
  0x22f5	test   	cl, cl
  0x22f7	je     	0x22fd
  === BLOCK LINK ===
    0x22f9
=== CODE BLOCK END ===

=== CODE BLOCK ADDRESS 0x22f9 ===
  0x22f9	test   	edi, edi
  0x22fb	jne    	0x2366
  === BLOCK LINK ===
    0x22fd
=== CODE BLOCK END ===

=== CODE BLOCK ADDRESS 0x22fd ===
  0x22fd	dec    	cl
  0x22ff	cmp    	cl, 0x1f
  0x2302	ja     	0x2310
  === BLOCK LINK ===
    0x2304
=== CODE BLOCK END ===

=== CODE BLOCK ADDRESS 0x2304 ===
  0x2304	dec    	eax
  0x2305	inc    	ebx
  0x2307	dec    	eax
  0x2308	mov    	dword ptr [esp + 0x28], ebx
  0x230c	mov    	cl, byte ptr [ebx]
  === BLOCK LINK ===
    0x230e
=== CODE BLOCK END ===

=== CODE BLOCK ADDRESS 0x230e ===
  0x230e	jmp    	0x22fd
  === BLOCK LINK ===
    0x2310
=== CODE BLOCK END ===

=== CODE BLOCK ADDRESS 0x2310 ===
  0x2310	test   	byte ptr [esp + 0x7c], 1
  0x2315	movzx  	eax, word ptr [esp + 0x80]
  0x231d	inc    	ecx
  0x231e	mov    	ecx, 0xa
  0x2323	inc    	esp
  === BLOCK LINK ===
    0x2324
=== CODE BLOCK END ===

=== CODE BLOCK ADDRESS 0x2324 ===
  0x2324	cmovne  	ecx, eax
  0x2327	dec    	esp
  0x2328	mov    	eax, ebx
  0x232a	xor    	edx, edx
  0x232c	dec    	eax
  === BLOCK LINK ===
    0x232d
=== CODE BLOCK END ===

=== CODE BLOCK ADDRESS 0x232d ===
  0x232d	lea    	ecx, [0xffffdccd]
  0x2333	call   	0x1bd0
  === BLOCK LINK ===
    0x2338
=== CODE BLOCK END ===

=== CODE BLOCK ADDRESS 0x2338 ===
  0x2338	mov    	dword ptr [0x2ce2], eax
  0x233e	cmp    	dword ptr [0x2cfb], 0
  0x2345	jne    	0x234f
  === BLOCK LINK ===
    0x2347
=== CODE BLOCK END ===

=== CODE BLOCK ADDRESS 0x2347 ===
  0x2347	mov    	ecx, eax
  0x2349	call   	dword ptr [0x1469]
  === BLOCK LINK ===
    0x234f
=== CODE BLOCK END ===

=== CODE BLOCK ADDRESS 0x234f ===
  0x234f	cmp    	dword ptr [0x2cce], 0
  0x2356	jne    	0x2364
  === BLOCK LINK ===
    0x2358
=== CODE BLOCK END ===

=== CODE BLOCK ADDRESS 0x2358 ===
  0x2358	call   	dword ptr [0x1462]
  === BLOCK LINK ===
    0x235e
=== CODE BLOCK END ===

=== CODE BLOCK ADDRESS 0x235e ===
  0x235e	mov    	eax, dword ptr [0x2cbc]
  0x2364	jmp    	0x23c4
  === BLOCK LINK ===
    0x2366
=== CODE BLOCK END ===

=== CODE BLOCK ADDRESS 0x2366 ===
  0x2366	cmp    	cl, 0x22
  0x2369	jne    	0x2378
  === BLOCK LINK ===
    0x236b
=== CODE BLOCK END ===

=== CODE BLOCK ADDRESS 0x236b ===
  0x236b	xor    	eax, eax
  0x236d	test   	edi, edi
  0x236f	sete   	al
  0x2372	mov    	edi, eax
  0x2374	mov    	dword ptr [esp + 0x20], eax
  === BLOCK LINK ===
    0x2378
=== CODE BLOCK END ===

=== CODE BLOCK ADDRESS 0x2378 ===
  0x2378	call   	dword ptr [0x13fa]
  === BLOCK LINK ===
    0x237e
=== CODE BLOCK END ===

=== CODE BLOCK ADDRESS 0x237e ===
  0x237e	test   	eax, eax
  0x2380	je     	0x238a
  === BLOCK LINK ===
    0x2382
=== CODE BLOCK END ===

=== CODE BLOCK ADDRESS 0x2382 ===
  0x2382	dec    	eax
  0x2383	inc    	ebx
  0x2385	dec    	eax
  0x2386	mov    	dword ptr [esp + 0x28], ebx
  0x238a	dec    	eax
  === BLOCK LINK ===
    0x238b
=== CODE BLOCK END ===

=== CODE BLOCK ADDRESS 0x238b ===
  0x238b	inc    	ebx
  0x238d	dec    	eax
  0x238e	mov    	dword ptr [esp + 0x28], ebx
  0x2392	jmp    	0x22ed
  === BLOCK LINK ===
    0x2397
=== CODE BLOCK END ===

=== CODE BLOCK ADDRESS 0x2397 ===
  0x2397	mov    	dword ptr [0x2c83], eax
  0x239d	cmp    	dword ptr [0x2c9c], 0
  0x23a4	jne    	0x23af
  === BLOCK LINK ===
    0x23a6
=== CODE BLOCK END ===

=== CODE BLOCK ADDRESS 0x23a6 ===
  0x23a6	mov    	ecx, eax
  0x23a8	call   	dword ptr [0x141a]
  === BLOCK LINK ===
    0x23ae
=== CODE BLOCK END ===

=== CODE BLOCK ADDRESS 0x23ae ===
  0x23ae	int3   	
  0x23af	cmp    	dword ptr [0x2c6e], 0
  0x23b6	jne    	0x23c4
  === BLOCK LINK ===
    0x23b8
=== CODE BLOCK END ===

=== CODE BLOCK ADDRESS 0x23b8 ===
  0x23b8	call   	dword ptr [0x1402]
  === BLOCK LINK ===
    0x23be
=== CODE BLOCK END ===

=== CODE BLOCK ADDRESS 0x23be ===
  0x23be	mov    	eax, dword ptr [0x2c5c]
  0x23c4	dec    	esp
  0x23c5	lea    	ebx, [esp + 0xb0]
  0x23cc	dec    	ecx
  0x23cd	mov    	ebx, dword ptr [ebx + 0x10]
  === BLOCK LINK ===
    0x23d0
=== CODE BLOCK END ===

=== CODE BLOCK ADDRESS 0x23d0 ===
  0x23d0	dec    	ecx
  0x23d1	mov    	edi, dword ptr [ebx + 0x18]
  0x23d4	dec    	ecx
  0x23d5	mov    	esp, ebx
  0x23d7	inc    	ecx
  === BLOCK LINK ===
    0x23d8
=== CODE BLOCK END ===

=== CODE BLOCK ADDRESS 0x23d8 ===
  0x23d8	pop    	esi
  0x23d9	ret    	
  0x23da	int3   	
  0x23db	int3   	
  0x23dc	int3   	
  === BLOCK LINK ===
    0x23dd
=== CODE BLOCK END ===

=== CODE BLOCK ADDRESS 0x111a ===
  0x111a	mov    	eax, edi
  0x111c	dec    	eax
  0x111d	add    	esp, 0x28
  0x1120	pop    	edi
  === BLOCK LINK ===
    0x1121
=== CODE BLOCK END ===

=== CODE BLOCK ADDRESS 0x23dd ===
  0x23dd	int3   	
  0x23de	int3   	
  0x23df	int3   	
  0x23e0	jmp    	dword ptr [0x13f2]
  === BLOCK LINK ===
    0x23e6
=== CODE BLOCK END ===

=== CODE BLOCK ADDRESS 0x23e6 ===
  0x23e6	int3   	
  0x23e7	int3   	
  0x23e8	int3   	
  0x23e9	int3   	
  0x23ea	int3   	
  === BLOCK LINK ===
    0x23eb
=== CODE BLOCK END ===

=== CODE BLOCK ADDRESS 0x23eb ===
  0x23eb	int3   	
  0x23ec	int3   	
  0x23ed	int3   	
  0x23ee	int3   	
  0x23ef	int3   	
  === BLOCK LINK ===
    0x23f0
=== CODE BLOCK END ===

=== CODE BLOCK ADDRESS 0x23f0 ===
  0x23f0	int3   	
  0x23f1	int3   	
  0x23f2	int3   	
  0x23f3	int3   	
  0x23f4	int3   	
  === BLOCK LINK ===
    0x23f5
=== CODE BLOCK END ===

=== CODE BLOCK ADDRESS 0x23f5 ===
  0x23f5	int3   	
  0x23f6	nop    	word ptr [eax + eax]
  0x2400	dec    	eax
  0x2401	cmp    	ecx, dword ptr [0x2c01]
  0x2407	jne    	0x2419
  === BLOCK LINK ===
    0x2409
=== CODE BLOCK END ===

=== CODE BLOCK ADDRESS 0x2409 ===
  0x2409	dec    	eax
  0x240a	rol    	ecx, 0x10
  0x240d	test   	cx, 0xffff
  0x2412	jne    	0x2415
  === BLOCK LINK ===
    0x2414
=== CODE BLOCK END ===

=== CODE BLOCK ADDRESS 0x2414 ===
  0x2414	ret    	
  0x2415	dec    	eax
  0x2416	ror    	ecx, 0x10
  0x2419	jmp    	0x2780
  === BLOCK LINK ===
    0x241e
=== CODE BLOCK END ===

=== CODE BLOCK ADDRESS 0x241e ===
  0x241e	int3   	
  0x241f	int3   	
  0x2420	int3   	
  0x2421	int3   	
  0x2422	int3   	
  === BLOCK LINK ===
    0x2423
=== CODE BLOCK END ===

=== CODE BLOCK ADDRESS 0x2423 ===
  0x2423	int3   	
  0x2424	int3   	
  0x2425	int3   	
  0x2426	int3   	
  0x2427	int3   	
  === BLOCK LINK ===
    0x2428
=== CODE BLOCK END ===

=== CODE BLOCK ADDRESS 0x2428 ===
  0x2428	int3   	
  0x2429	int3   	
  0x242a	int3   	
  0x242b	int3   	
  0x242c	int3   	
  === BLOCK LINK ===
    0x242d
=== CODE BLOCK END ===

=== CODE BLOCK ADDRESS 0x242d ===
  0x242d	int3   	
  0x242e	int3   	
  0x242f	int3   	
  0x2430	dec    	eax
  0x2431	sub    	esp, 0x28
  === BLOCK LINK ===
    0x2434
=== CODE BLOCK END ===

=== CODE BLOCK ADDRESS 0x2434 ===
  0x2434	dec    	eax
  0x2435	mov    	eax, dword ptr [ecx]
  0x2437	cmp    	dword ptr [eax], 0xe06d7363
  0x243d	jne    	0x2462
  === BLOCK LINK ===
    0x243f
=== CODE BLOCK END ===

=== CODE BLOCK ADDRESS 0x243f ===
  0x243f	cmp    	dword ptr [eax + 0x18], 4
  0x2443	jne    	0x2462
  === BLOCK LINK ===
    0x2445
=== CODE BLOCK END ===

=== CODE BLOCK ADDRESS 0x2445 ===
  0x2445	mov    	ecx, dword ptr [eax + 0x20]
  0x2448	lea    	eax, [ecx - 0x19930520]
  0x244e	cmp    	eax, 2
  0x2451	jbe    	0x245b
  === BLOCK LINK ===
    0x2453
=== CODE BLOCK END ===

=== CODE BLOCK ADDRESS 0x2453 ===
  0x2453	cmp    	ecx, 0x1994000
  0x2459	jne    	0x2462
  === BLOCK LINK ===
    0x245b
=== CODE BLOCK END ===

=== CODE BLOCK ADDRESS 0x245b ===
  0x245b	call   	dword ptr [0x1347]
  === BLOCK LINK ===
    0x2461
=== CODE BLOCK END ===

=== CODE BLOCK ADDRESS 0x2461 ===
  0x2461	int3   	
  0x2462	xor    	eax, eax
  0x2464	dec    	eax
  0x2465	add    	esp, 0x28
  0x2468	ret    	
  === BLOCK LINK ===
    0x2469
=== CODE BLOCK END ===

=== CODE BLOCK ADDRESS 0x2469 ===
  0x2469	int3   	
  0x246a	int3   	
  0x246b	int3   	
  0x246c	int3   	
  0x246d	int3   	
  === BLOCK LINK ===
    0x246e
=== CODE BLOCK END ===

=== CODE BLOCK ADDRESS 0x246e ===
  0x246e	int3   	
  0x246f	int3   	
  0x2470	dec    	eax
  0x2471	sub    	esp, 0x28
  0x2474	dec    	eax
  === BLOCK LINK ===
    0x2475
=== CODE BLOCK END ===

=== CODE BLOCK ADDRESS 0x2475 ===
  0x2475	lea    	ecx, [0xffffffb5]
  0x247b	call   	dword ptr [0x123f]
  === BLOCK LINK ===
    0x2481
=== CODE BLOCK END ===

=== CODE BLOCK ADDRESS 0x2481 ===
  0x2481	xor    	eax, eax
  0x2483	dec    	eax
  0x2484	add    	esp, 0x28
  0x2487	ret    	
  0x2488	int3   	
  === BLOCK LINK ===
    0x2489
=== CODE BLOCK END ===

=== CODE BLOCK ADDRESS 0x2489 ===
  0x2489	int3   	
  0x248a	int3   	
  0x248b	int3   	
  0x248c	int3   	
  0x248d	int3   	
  === BLOCK LINK ===
    0x248e
=== CODE BLOCK END ===

=== CODE BLOCK ADDRESS 0x248e ===
  0x248e	jmp    	dword ptr [0x134c]
  === BLOCK LINK ===
    0x2494
=== CODE BLOCK END ===

=== CODE BLOCK ADDRESS 0x2494 ===
  0x2494	int3   	
  0x2495	int3   	
  0x2496	int3   	
  0x2497	int3   	
  0x2498	int3   	
  === BLOCK LINK ===
    0x2499
=== CODE BLOCK END ===

=== CODE BLOCK ADDRESS 0x2499 ===
  0x2499	int3   	
  0x249a	int3   	
  0x249b	int3   	
  0x249c	dec    	eax
  0x249d	sub    	esp, 0x18
  === BLOCK LINK ===
    0x24a0
=== CODE BLOCK END ===

=== CODE BLOCK ADDRESS 0x24a0 ===
  0x24a0	xor    	edx, edx
  0x24a2	dec    	eax
  0x24a3	lea    	eax, [ecx - 1]
  0x24a6	dec    	eax
  0x24a7	cmp    	eax, -3
  === BLOCK LINK ===
    0x24aa
=== CODE BLOCK END ===

=== CODE BLOCK ADDRESS 0x24aa ===
  0x24aa	ja     	0x24e8
  === BLOCK LINK ===
    0x24ac
=== CODE BLOCK END ===

=== CODE BLOCK ADDRESS 0x24ac ===
  0x24ac	mov    	eax, 0x5a4d
  0x24b1	cmp    	word ptr [ecx], ax
  0x24b4	jne    	0x24e0
  === BLOCK LINK ===
    0x24b6
=== CODE BLOCK END ===

=== CODE BLOCK ADDRESS 0x24b6 ===
  0x24b6	cmp    	dword ptr [ecx + 0x3c], edx
  0x24b9	jl     	0x24e0
  === BLOCK LINK ===
    0x24bb
=== CODE BLOCK END ===

=== CODE BLOCK ADDRESS 0x24bb ===
  0x24bb	cmp    	dword ptr [ecx + 0x3c], 0x10000000
  0x24c2	jae    	0x24e0
  === BLOCK LINK ===
    0x24c4
=== CODE BLOCK END ===

=== CODE BLOCK ADDRESS 0x24c4 ===
  0x24c4	dec    	eax
  0x24c5	arpl   	word ptr [ecx + 0x3c], ax
  0x24c8	dec    	eax
  0x24c9	add    	eax, ecx
  0x24cb	dec    	eax
  === BLOCK LINK ===
    0x24cc
=== CODE BLOCK END ===

=== CODE BLOCK ADDRESS 0x24cc ===
  0x24cc	mov    	dword ptr [esp], eax
  0x24cf	cmp    	dword ptr [eax], 0x4550
  0x24d5	dec    	eax
  0x24d6	cmovne  	eax, edx
  0x24d9	dec    	eax
  === BLOCK LINK ===
    0x24da
=== CODE BLOCK END ===

=== CODE BLOCK ADDRESS 0x24da ===
  0x24da	mov    	edx, eax
  0x24dc	dec    	eax
  0x24dd	mov    	dword ptr [esp], eax
  0x24e0	jmp    	0x24e8
  === BLOCK LINK ===
    0x24e2
=== CODE BLOCK END ===

=== CODE BLOCK ADDRESS 0x24e2 ===
  0x24e2	xor    	edx, edx
  0x24e4	dec    	eax
  0x24e5	mov    	dword ptr [esp], edx
  0x24e8	dec    	eax
  0x24e9	mov    	eax, edx
  === BLOCK LINK ===
    0x24eb
=== CODE BLOCK END ===

=== CODE BLOCK ADDRESS 0x24eb ===
  0x24eb	dec    	eax
  0x24ec	add    	esp, 0x18
  0x24ef	ret    	
  0x24f0	int3   	
  0x24f1	int3   	
  === BLOCK LINK ===
    0x24f2
=== CODE BLOCK END ===

=== CODE BLOCK ADDRESS 0x24f2 ===
  0x24f2	int3   	
  0x24f3	int3   	
  0x24f4	int3   	
  0x24f5	int3   	
  0x24f6	int3   	
  === BLOCK LINK ===
    0x24f7
=== CODE BLOCK END ===

=== CODE BLOCK ADDRESS 0x24f7 ===
  0x24f7	int3   	
  0x24f8	inc    	eax
  0x24f9	push   	ebx
  0x24fa	dec    	eax
  0x24fb	sub    	esp, 0x20
  === BLOCK LINK ===
    0x24fe
=== CODE BLOCK END ===

=== CODE BLOCK ADDRESS 0x24fe ===
  0x24fe	mov    	ebx, ecx
  0x2500	xor    	ecx, ecx
  0x2502	call   	dword ptr [0x11c8]
  === BLOCK LINK ===
    0x2508
=== CODE BLOCK END ===

=== CODE BLOCK ADDRESS 0x2508 ===
  0x2508	dec    	eax
  0x2509	test   	eax, eax
  0x250b	je     	0x2535
  === BLOCK LINK ===
    0x250d
=== CODE BLOCK END ===

=== CODE BLOCK ADDRESS 0x250d ===
  0x250d	dec    	eax
  0x250e	mov    	ecx, eax
  0x2510	call   	0x249c
  === BLOCK LINK ===
    0x2515
=== CODE BLOCK END ===

=== CODE BLOCK ADDRESS 0x2515 ===
  0x2515	dec    	eax
  0x2516	test   	eax, eax
  0x2518	je     	0x2535
  === BLOCK LINK ===
    0x251a
=== CODE BLOCK END ===

=== CODE BLOCK ADDRESS 0x251a ===
  0x251a	mov    	ecx, 2
  0x251f	cmp    	word ptr [eax + 0x5c], cx
  0x2523	jne    	0x2529
  === BLOCK LINK ===
    0x2525
=== CODE BLOCK END ===

=== CODE BLOCK ADDRESS 0x2525 ===
  0x2525	mov    	eax, ecx
  0x2527	jmp    	0x2537
  === BLOCK LINK ===
    0x2529
=== CODE BLOCK END ===

=== CODE BLOCK ADDRESS 0x2529 ===
  0x2529	cmp    	word ptr [eax + 0x5c], 3
  0x252e	mov    	eax, 1
  0x2533	je     	0x2537
  === BLOCK LINK ===
    0x2535
=== CODE BLOCK END ===

=== CODE BLOCK ADDRESS 0x2535 ===
  0x2535	mov    	eax, ebx
  0x2537	dec    	eax
  0x2538	add    	esp, 0x20
  0x253b	pop    	ebx
  0x253c	ret    	
  === BLOCK LINK ===
    0x253d
=== CODE BLOCK END ===

=== CODE BLOCK ADDRESS 0x253d ===
  0x253d	int3   	
  0x253e	int3   	
  0x253f	int3   	
  0x2540	int3   	
  0x2541	int3   	
  === BLOCK LINK ===
    0x2542
=== CODE BLOCK END ===

=== CODE BLOCK ADDRESS 0x2542 ===
  0x2542	int3   	
  0x2543	jmp    	dword ptr [0x1237]
  === BLOCK LINK ===
    0x2549
=== CODE BLOCK END ===

=== CODE BLOCK ADDRESS 0x2549 ===
  0x2549	int3   	
  0x254a	int3   	
  0x254b	int3   	
  0x254c	int3   	
  0x254d	int3   	
  === BLOCK LINK ===
    0x254e
=== CODE BLOCK END ===

=== CODE BLOCK ADDRESS 0x254e ===
  0x254e	int3   	
  0x254f	int3   	
  0x2550	xor    	eax, eax
  0x2552	ret    	
  0x2553	int3   	
  === BLOCK LINK ===
    0x2554
=== CODE BLOCK END ===

=== CODE BLOCK ADDRESS 0x2554 ===
  0x2554	int3   	
  0x2555	int3   	
  0x2556	int3   	
  0x2557	int3   	
  0x2558	int3   	
  === BLOCK LINK ===
    0x2559
=== CODE BLOCK END ===

=== CODE BLOCK ADDRESS 0x2559 ===
  0x2559	int3   	
  0x255a	int3   	
  0x255b	int3   	
  0x255c	int3   	
  0x255d	int3   	
  === BLOCK LINK ===
    0x255e
=== CODE BLOCK END ===

=== CODE BLOCK ADDRESS 0x255e ===
  0x255e	int3   	
  0x255f	int3   	
  0x2560	dec    	esp
  0x2561	arpl   	word ptr [ecx + 0x3c], ax
  0x2564	inc    	ebp
  === BLOCK LINK ===
    0x2565
=== CODE BLOCK END ===

=== CODE BLOCK ADDRESS 0x2565 ===
  0x2565	xor    	ecx, ecx
  0x2567	dec    	esp
  0x2568	add    	eax, ecx
  0x256a	dec    	esp
  0x256b	mov    	edx, edx
  === BLOCK LINK ===
    0x256d
=== CODE BLOCK END ===

=== CODE BLOCK ADDRESS 0x256d ===
  0x256d	inc    	ecx
  0x256e	movzx  	eax, word ptr [eax + 0x14]
  0x2572	inc    	ebp
  0x2573	movzx  	ebx, word ptr [eax + 6]
  0x2577	dec    	eax
  === BLOCK LINK ===
    0x2578
=== CODE BLOCK END ===

=== CODE BLOCK ADDRESS 0x2578 ===
  0x2578	add    	eax, 0x18
  0x257b	dec    	ecx
  0x257c	add    	eax, eax
  0x257e	inc    	ebp
  0x257f	test   	ebx, ebx
  === BLOCK LINK ===
    0x2581
=== CODE BLOCK END ===

=== CODE BLOCK ADDRESS 0x2581 ===
  0x2581	je     	0x25a1
  === BLOCK LINK ===
    0x2583
=== CODE BLOCK END ===

=== CODE BLOCK ADDRESS 0x2583 ===
  0x2583	mov    	edx, dword ptr [eax + 0xc]
  0x2586	dec    	esp
  0x2587	cmp    	edx, edx
  0x2589	jb     	0x2595
  === BLOCK LINK ===
    0x258b
=== CODE BLOCK END ===

=== CODE BLOCK ADDRESS 0x258b ===
  0x258b	mov    	ecx, dword ptr [eax + 8]
  0x258e	add    	ecx, edx
  0x2590	dec    	esp
  0x2591	cmp    	edx, ecx
  0x2593	jb     	0x25a3
  === BLOCK LINK ===
    0x2595
=== CODE BLOCK END ===

=== CODE BLOCK ADDRESS 0x2595 ===
  0x2595	inc    	ecx
  0x2596	inc    	ecx
  0x2598	dec    	eax
  0x2599	add    	eax, 0x28
  0x259c	inc    	ebp
  === BLOCK LINK ===
    0x259d
=== CODE BLOCK END ===

=== CODE BLOCK ADDRESS 0x259d ===
  0x259d	cmp    	ecx, ebx
  0x259f	jb     	0x2583
  === BLOCK LINK ===
    0x25a1
=== CODE BLOCK END ===

=== CODE BLOCK ADDRESS 0x25a1 ===
  0x25a1	xor    	eax, eax
  0x25a3	ret    	
  0x25a4	int3   	
  0x25a5	int3   	
  0x25a6	int3   	
  === BLOCK LINK ===
    0x25a7
=== CODE BLOCK END ===

=== CODE BLOCK ADDRESS 0x1008 ===
  0x1008	mov    	edx, 0x104
  0x100d	dec    	ebp
  === BLOCK LINK ===
    0x100e
=== CODE BLOCK END ===

=== CODE BLOCK ADDRESS 0x25a7 ===
  0x25a7	int3   	
  0x25a8	int3   	
  0x25a9	int3   	
  0x25aa	int3   	
  0x25ab	int3   	
  === BLOCK LINK ===
    0x25ac
=== CODE BLOCK END ===

=== CODE BLOCK ADDRESS 0x25ac ===
  0x25ac	int3   	
  0x25ad	int3   	
  0x25ae	int3   	
  0x25af	int3   	
  0x25b0	dec    	eax
  === BLOCK LINK ===
    0x25b1
=== CODE BLOCK END ===

=== CODE BLOCK ADDRESS 0x25b1 ===
  0x25b1	mov    	dword ptr [esp + 8], ebx
  0x25b5	push   	edi
  0x25b6	dec    	eax
  0x25b7	sub    	esp, 0x20
  0x25ba	dec    	eax
  === BLOCK LINK ===
    0x25bb
=== CODE BLOCK END ===

=== CODE BLOCK ADDRESS 0x25bb ===
  0x25bb	mov    	ebx, ecx
  0x25bd	dec    	eax
  0x25be	lea    	edi, [0xffffda3c]
  0x25c4	dec    	eax
  0x25c5	mov    	ecx, edi
  === BLOCK LINK ===
    0x25c7
=== CODE BLOCK END ===

=== CODE BLOCK ADDRESS 0x25c7 ===
  0x25c7	call   	0x2610
  === BLOCK LINK ===
    0x25cc
=== CODE BLOCK END ===

=== CODE BLOCK ADDRESS 0x25cc ===
  0x25cc	test   	eax, eax
  0x25ce	je     	0x25f2
  === BLOCK LINK ===
    0x25d0
=== CODE BLOCK END ===

=== CODE BLOCK ADDRESS 0x25d0 ===
  0x25d0	dec    	eax
  0x25d1	sub    	ebx, edi
  0x25d3	dec    	eax
  0x25d4	mov    	edx, ebx
  0x25d6	dec    	eax
  === BLOCK LINK ===
    0x25d7
=== CODE BLOCK END ===

=== CODE BLOCK ADDRESS 0x25d7 ===
  0x25d7	mov    	ecx, edi
  0x25d9	call   	0x2560
  === BLOCK LINK ===
    0x25de
=== CODE BLOCK END ===

=== CODE BLOCK ADDRESS 0x25de ===
  0x25de	dec    	eax
  0x25df	test   	eax, eax
  0x25e1	je     	0x25f2
  === BLOCK LINK ===
    0x25e3
=== CODE BLOCK END ===

=== CODE BLOCK ADDRESS 0x25e3 ===
  0x25e3	mov    	eax, dword ptr [eax + 0x24]
  0x25e6	shr    	eax, 0x1f
  0x25e9	not    	eax
  0x25eb	and    	eax, 1
  0x25ee	jmp    	0x25f2
  === BLOCK LINK ===
    0x25f0
=== CODE BLOCK END ===

=== CODE BLOCK ADDRESS 0x25f0 ===
  0x25f0	xor    	eax, eax
  0x25f2	dec    	eax
  0x25f3	mov    	ebx, dword ptr [esp + 0x30]
  0x25f7	dec    	eax
  0x25f8	add    	esp, 0x20
  === BLOCK LINK ===
    0x25fb
=== CODE BLOCK END ===

=== CODE BLOCK ADDRESS 0x25fb ===
  0x25fb	pop    	edi
  0x25fc	ret    	
  0x25fd	int3   	
  0x25fe	int3   	
  0x25ff	int3   	
  === BLOCK LINK ===
    0x2600
=== CODE BLOCK END ===

=== CODE BLOCK ADDRESS 0x2600 ===
  0x2600	int3   	
  0x2601	int3   	
  0x2602	int3   	
  0x2603	int3   	
  0x2604	int3   	
  === BLOCK LINK ===
    0x2605
=== CODE BLOCK END ===

=== CODE BLOCK ADDRESS 0x2605 ===
  0x2605	int3   	
  0x2606	int3   	
  0x2607	int3   	
  0x2608	int3   	
  0x2609	int3   	
  === BLOCK LINK ===
    0x260a
=== CODE BLOCK END ===

=== CODE BLOCK ADDRESS 0x260a ===
  0x260a	int3   	
  0x260b	int3   	
  0x260c	int3   	
  0x260d	int3   	
  0x260e	int3   	
  === BLOCK LINK ===
    0x260f
=== CODE BLOCK END ===

=== CODE BLOCK ADDRESS 0x260f ===
  0x260f	int3   	
  0x2610	mov    	eax, 0x5a4d
  0x2615	cmp    	word ptr [ecx], ax
  0x2618	jne    	0x263a
  === BLOCK LINK ===
    0x261a
=== CODE BLOCK END ===

=== CODE BLOCK ADDRESS 0x261a ===
  0x261a	dec    	eax
  0x261b	arpl   	word ptr [ecx + 0x3c], ax
  0x261e	dec    	eax
  0x261f	add    	eax, ecx
  0x2621	cmp    	dword ptr [eax], 0x4550
  === BLOCK LINK ===
    0x2627
=== CODE BLOCK END ===

=== CODE BLOCK ADDRESS 0x2627 ===
  0x2627	jne    	0x263a
  === BLOCK LINK ===
    0x2629
=== CODE BLOCK END ===

=== CODE BLOCK ADDRESS 0x2629 ===
  0x2629	mov    	ecx, 0x20b
  0x262e	cmp    	word ptr [eax + 0x18], cx
  0x2632	jne    	0x263a
  === BLOCK LINK ===
    0x2634
=== CODE BLOCK END ===

=== CODE BLOCK ADDRESS 0x2634 ===
  0x2634	mov    	eax, 1
  0x2639	ret    	
  0x263a	xor    	eax, eax
  0x263c	ret    	
  0x263d	int3   	
  === BLOCK LINK ===
    0x263e
=== CODE BLOCK END ===

=== CODE BLOCK ADDRESS 0x1489 ===
  0x1489	dec    	eax
  0x148a	mov    	ecx, dword ptr [ebp + 0x260]
  === BLOCK LINK ===
    0x1490
=== CODE BLOCK END ===

=== CODE BLOCK ADDRESS 0x263e ===
  0x263e	int3   	
  0x263f	int3   	
  0x2640	int3   	
  0x2641	int3   	
  0x2642	int3   	
  === BLOCK LINK ===
    0x2643
=== CODE BLOCK END ===

=== CODE BLOCK ADDRESS 0x2643 ===
  0x2643	int3   	
  0x2644	dec    	eax
  0x2645	mov    	dword ptr [esp + 0x20], ebx
  0x2649	push   	ebp
  0x264a	dec    	eax
  === BLOCK LINK ===
    0x264b
=== CODE BLOCK END ===

=== CODE BLOCK ADDRESS 0x264b ===
  0x264b	mov    	ebp, esp
  0x264d	dec    	eax
  0x264e	sub    	esp, 0x20
  0x2651	dec    	eax
  0x2652	and    	dword ptr [ebp + 0x18], 0
  === BLOCK LINK ===
    0x2656
=== CODE BLOCK END ===

=== CODE BLOCK ADDRESS 0x2656 ===
  0x2656	dec    	eax
  0x2657	mov    	ebx, 0x2ddfa232
  0x265c	cdq    	
  0x265d	sub    	eax, dword ptr [eax]
  0x265f	add    	byte ptr [eax - 0x75], cl
  === BLOCK LINK ===
    0x2662
=== CODE BLOCK END ===

=== CODE BLOCK ADDRESS 0x2662 ===
  0x2662	add    	eax, 0x29a1
  0x2667	dec    	eax
  0x2668	cmp    	eax, ebx
  0x266a	jne    	0x2703
  === BLOCK LINK ===
    0x2670
=== CODE BLOCK END ===

=== CODE BLOCK ADDRESS 0x2670 ===
  0x2670	dec    	eax
  0x2671	lea    	ecx, [ebp + 0x18]
  0x2674	call   	dword ptr [0x10ce]
  === BLOCK LINK ===
    0x267a
=== CODE BLOCK END ===

=== CODE BLOCK ADDRESS 0x267a ===
  0x267a	dec    	eax
  0x267b	mov    	eax, dword ptr [ebp + 0x18]
  0x267e	dec    	eax
  0x267f	mov    	dword ptr [ebp + 0x10], eax
  0x2682	call   	dword ptr [0x1070]
  === BLOCK LINK ===
    0x2688
=== CODE BLOCK END ===

=== CODE BLOCK ADDRESS 0x2688 ===
  0x2688	mov    	eax, eax
  0x268a	dec    	eax
  0x268b	xor    	dword ptr [ebp + 0x10], eax
  0x268e	call   	dword ptr [0x105c]
  === BLOCK LINK ===
    0x2694
=== CODE BLOCK END ===

=== CODE BLOCK ADDRESS 0x2694 ===
  0x2694	mov    	eax, eax
  0x2696	dec    	eax
  0x2697	xor    	dword ptr [ebp + 0x10], eax
  0x269a	call   	dword ptr [0x10a0]
  === BLOCK LINK ===
    0x26a0
=== CODE BLOCK END ===

=== CODE BLOCK ADDRESS 0x26a0 ===
  0x26a0	mov    	eax, eax
  0x26a2	dec    	eax
  0x26a3	shl    	eax, 0x18
  0x26a6	dec    	eax
  0x26a7	xor    	dword ptr [ebp + 0x10], eax
  === BLOCK LINK ===
    0x26aa
=== CODE BLOCK END ===

=== CODE BLOCK ADDRESS 0x26aa ===
  0x26aa	call   	dword ptr [0x1090]
  === BLOCK LINK ===
    0x26b0
=== CODE BLOCK END ===

=== CODE BLOCK ADDRESS 0x26b0 ===
  0x26b0	mov    	eax, eax
  0x26b2	dec    	eax
  0x26b3	lea    	ecx, [ebp + 0x10]
  0x26b6	dec    	eax
  0x26b7	xor    	eax, dword ptr [ebp + 0x10]
  === BLOCK LINK ===
    0x26ba
=== CODE BLOCK END ===

=== CODE BLOCK ADDRESS 0x26ba ===
  0x26ba	dec    	eax
  0x26bb	xor    	eax, ecx
  0x26bd	dec    	eax
  0x26be	lea    	ecx, [ebp + 0x20]
  0x26c1	dec    	eax
  === BLOCK LINK ===
    0x26c2
=== CODE BLOCK END ===

=== CODE BLOCK ADDRESS 0x26c2 ===
  0x26c2	mov    	dword ptr [ebp + 0x10], eax
  0x26c5	call   	dword ptr [0x1045]
  === BLOCK LINK ===
    0x26cb
=== CODE BLOCK END ===

=== CODE BLOCK ADDRESS 0x26cb ===
  0x26cb	mov    	eax, dword ptr [ebp + 0x20]
  0x26ce	dec    	eax
  0x26cf	mov    	ecx, 0xffffffff
  0x26d4	.byte  	0xff
  0x26d5	inc    	dword ptr [eax]
  === BLOCK LINK ===
    0x26d7
=== CODE BLOCK END ===

=== CODE BLOCK ADDRESS 0x26d7 ===
  0x26d7	add    	byte ptr [eax - 0x3f], cl
  0x26da	loopne  	0x26fc
  === BLOCK LINK ===
    0x26dc
=== CODE BLOCK END ===

=== CODE BLOCK ADDRESS 0x26dc ===
  0x26dc	dec    	eax
  0x26dd	xor    	eax, dword ptr [ebp + 0x20]
  0x26e0	dec    	eax
  0x26e1	xor    	eax, dword ptr [ebp + 0x10]
  0x26e4	dec    	eax
  === BLOCK LINK ===
    0x26e5
=== CODE BLOCK END ===

=== CODE BLOCK ADDRESS 0x26e5 ===
  0x26e5	and    	eax, ecx
  0x26e7	dec    	eax
  0x26e8	mov    	ecx, eax
  0x26ea	dec    	eax
  0x26eb	cmp    	eax, ebx
  === BLOCK LINK ===
    0x26ed
=== CODE BLOCK END ===

=== CODE BLOCK ADDRESS 0x26ed ===
  0x26ed	jne    	0x26fc
  === BLOCK LINK ===
    0x26ef
=== CODE BLOCK END ===

=== CODE BLOCK ADDRESS 0x26ef ===
  0x26ef	dec    	eax
  0x26f0	mov    	eax, 0x2ddfa233
  0x26f5	cdq    	
  0x26f6	sub    	eax, dword ptr [eax]
  0x26f8	add    	byte ptr [eax - 0x75], cl
  === BLOCK LINK ===
    0x26fb
=== CODE BLOCK END ===

=== CODE BLOCK ADDRESS 0x26fb ===
  0x26fb	enter  	-0x76b8, 0xd
  0x26ff	add    	eax, 0x48000029
  0x2704	mov    	ebx, dword ptr [esp + 0x48]
  0x2708	dec    	eax
  0x2709	not    	eax
  === BLOCK LINK ===
    0x270b
=== CODE BLOCK END ===

=== CODE BLOCK ADDRESS 0x270b ===
  0x270b	dec    	eax
  0x270c	mov    	dword ptr [0x28fe], eax
  0x2712	dec    	eax
  0x2713	add    	esp, 0x20
  0x2716	pop    	ebp
  === BLOCK LINK ===
    0x2717
=== CODE BLOCK END ===

=== CODE BLOCK ADDRESS 0x2717 ===
  0x2717	ret    	
  0x2718	int3   	
  0x2719	int3   	
  0x271a	int3   	
  0x271b	int3   	
  === BLOCK LINK ===
    0x271c
=== CODE BLOCK END ===

=== CODE BLOCK ADDRESS 0x131a ===
  0x131a	test   	edi, edi
  0x131c	je     	0x134f
  === BLOCK LINK ===
    0x131e
=== CODE BLOCK END ===

=== CODE BLOCK ADDRESS 0x271c ===
  0x271c	int3   	
  0x271d	int3   	
  0x271e	jmp    	dword ptr [0x1034]
  === BLOCK LINK ===
    0x2724
=== CODE BLOCK END ===

=== CODE BLOCK ADDRESS 0x2724 ===
  0x2724	int3   	
  0x2725	int3   	
  0x2726	int3   	
  0x2727	int3   	
  0x2728	int3   	
  === BLOCK LINK ===
    0x2729
=== CODE BLOCK END ===

=== CODE BLOCK ADDRESS 0x2729 ===
  0x2729	int3   	
  0x272a	int3   	
  0x272b	int3   	
  0x272c	int3   	
  0x272d	int3   	
  === BLOCK LINK ===
    0x272e
=== CODE BLOCK END ===

=== CODE BLOCK ADDRESS 0x272e ===
  0x272e	int3   	
  0x272f	int3   	
  0x2730	ret    	0
  0x2733	int3   	
  0x2734	int3   	
  === BLOCK LINK ===
    0x2735
=== CODE BLOCK END ===

=== CODE BLOCK ADDRESS 0x2735 ===
  0x2735	int3   	
  0x2736	int3   	
  0x2737	int3   	
  0x2738	int3   	
  0x2739	int3   	
  === BLOCK LINK ===
    0x273a
=== CODE BLOCK END ===

=== CODE BLOCK ADDRESS 0x273a ===
  0x273a	int3   	
  0x273b	int3   	
  0x273c	inc    	eax
  0x273d	push   	ebx
  0x273e	dec    	eax
  === BLOCK LINK ===
    0x273f
=== CODE BLOCK END ===

=== CODE BLOCK ADDRESS 0x273f ===
  0x273f	sub    	esp, 0x20
  0x2742	dec    	eax
  0x2743	mov    	ebx, ecx
  0x2745	xor    	ecx, ecx
  0x2747	call   	dword ptr [0xf73]
  === BLOCK LINK ===
    0x274d
=== CODE BLOCK END ===

=== CODE BLOCK ADDRESS 0x274d ===
  0x274d	dec    	eax
  0x274e	mov    	ecx, ebx
  0x2750	call   	dword ptr [0xf62]
  === BLOCK LINK ===
    0x2756
=== CODE BLOCK END ===

=== CODE BLOCK ADDRESS 0x2756 ===
  0x2756	call   	dword ptr [0xf84]
  === BLOCK LINK ===
    0x275c
=== CODE BLOCK END ===

=== CODE BLOCK ADDRESS 0x275c ===
  0x275c	dec    	eax
  0x275d	mov    	ecx, eax
  0x275f	mov    	edx, 0xc0000409
  0x2764	dec    	eax
  0x2765	add    	esp, 0x20
  === BLOCK LINK ===
    0x2768
=== CODE BLOCK END ===

=== CODE BLOCK ADDRESS 0x2768 ===
  0x2768	pop    	ebx
  0x2769	dec    	eax
  0x276a	jmp    	dword ptr [0xf78]
  === BLOCK LINK ===
    0x2770
=== CODE BLOCK END ===

=== CODE BLOCK ADDRESS 0x2770 ===
  0x2770	int3   	
  0x2771	int3   	
  0x2772	int3   	
  0x2773	int3   	
  0x2774	int3   	
  === BLOCK LINK ===
    0x2775
=== CODE BLOCK END ===

=== CODE BLOCK ADDRESS 0x2775 ===
  0x2775	int3   	
  0x2776	int3   	
  0x2777	int3   	
  0x2778	int3   	
  0x2779	int3   	
  === BLOCK LINK ===
    0x277a
=== CODE BLOCK END ===

=== CODE BLOCK ADDRESS 0x277a ===
  0x277a	int3   	
  0x277b	int3   	
  0x277c	int3   	
  0x277d	int3   	
  0x277e	int3   	
  === BLOCK LINK ===
    0x277f
=== CODE BLOCK END ===

=== CODE BLOCK ADDRESS 0x277f ===
  0x277f	int3   	
  0x2780	dec    	eax
  0x2781	mov    	dword ptr [esp + 8], ecx
  0x2785	dec    	eax
  0x2786	sub    	esp, 0x88
  === BLOCK LINK ===
    0x278c
=== CODE BLOCK END ===

=== CODE BLOCK ADDRESS 0x278c ===
  0x278c	dec    	eax
  0x278d	lea    	ecx, [0x296d]
  0x2793	call   	dword ptr [0xf97]
  === BLOCK LINK ===
    0x2799
=== CODE BLOCK END ===

=== CODE BLOCK ADDRESS 0x2799 ===
  0x2799	dec    	eax
  0x279a	mov    	eax, dword ptr [0x2a58]
  0x27a0	dec    	eax
  0x27a1	mov    	dword ptr [esp + 0x48], eax
  0x27a5	inc    	ebp
  === BLOCK LINK ===
    0x27a6
=== CODE BLOCK END ===

=== CODE BLOCK ADDRESS 0x27a6 ===
  0x27a6	xor    	eax, eax
  0x27a8	dec    	eax
  0x27a9	lea    	edx, [esp + 0x50]
  0x27ad	dec    	eax
  0x27ae	mov    	ecx, dword ptr [esp + 0x48]
  === BLOCK LINK ===
    0x27b2
=== CODE BLOCK END ===

=== CODE BLOCK ADDRESS 0x27b2 ===
  0x27b2	call   	dword ptr [0xf70]
  === BLOCK LINK ===
    0x27b8
=== CODE BLOCK END ===

=== CODE BLOCK ADDRESS 0x27b8 ===
  0x27b8	dec    	eax
  0x27b9	mov    	dword ptr [esp + 0x40], eax
  0x27bd	dec    	eax
  0x27be	cmp    	dword ptr [esp + 0x40], 0
  0x27c3	je     	0x2807
  === BLOCK LINK ===
    0x27c5
=== CODE BLOCK END ===

=== CODE BLOCK ADDRESS 0x27c5 ===
  0x27c5	dec    	eax
  0x27c6	mov    	dword ptr [esp + 0x38], 0
  0x27ce	dec    	eax
  0x27cf	lea    	eax, [esp + 0x58]
  0x27d3	dec    	eax
  === BLOCK LINK ===
    0x27d4
=== CODE BLOCK END ===

=== CODE BLOCK ADDRESS 0x27d4 ===
  0x27d4	mov    	dword ptr [esp + 0x30], eax
  0x27d8	dec    	eax
  0x27d9	lea    	eax, [esp + 0x60]
  0x27dd	dec    	eax
  0x27de	mov    	dword ptr [esp + 0x28], eax
  === BLOCK LINK ===
    0x27e2
=== CODE BLOCK END ===

=== CODE BLOCK ADDRESS 0x27e2 ===
  0x27e2	dec    	eax
  0x27e3	lea    	eax, [0x2917]
  0x27e9	dec    	eax
  0x27ea	mov    	dword ptr [esp + 0x20], eax
  0x27ee	dec    	esp
  === BLOCK LINK ===
    0x27ef
=== CODE BLOCK END ===

=== CODE BLOCK ADDRESS 0x27ef ===
  0x27ef	mov    	ecx, dword ptr [esp + 0x40]
  0x27f3	dec    	esp
  0x27f4	mov    	eax, dword ptr [esp + 0x48]
  0x27f8	dec    	eax
  0x27f9	mov    	edx, dword ptr [esp + 0x50]
  === BLOCK LINK ===
    0x27fd
=== CODE BLOCK END ===

=== CODE BLOCK ADDRESS 0x27fd ===
  0x27fd	xor    	ecx, ecx
  0x27ff	call   	dword ptr [0xf1b]
  === BLOCK LINK ===
    0x2805
=== CODE BLOCK END ===

=== CODE BLOCK ADDRESS 0x2805 ===
  0x2805	jmp    	0x282a
  === BLOCK LINK ===
    0x2807
=== CODE BLOCK END ===

=== CODE BLOCK ADDRESS 0x2807 ===
  0x2807	dec    	eax
  0x2808	mov    	eax, dword ptr [0x298a]
  0x280e	dec    	eax
  0x280f	mov    	eax, dword ptr [eax]
  0x2811	dec    	eax
  === BLOCK LINK ===
    0x2812
=== CODE BLOCK END ===

=== CODE BLOCK ADDRESS 0x2812 ===
  0x2812	mov    	dword ptr [0x29e0], eax
  0x2818	dec    	eax
  0x2819	mov    	eax, dword ptr [0x2979]
  0x281f	dec    	eax
  0x2820	add    	eax, 8
  === BLOCK LINK ===
    0x2823
=== CODE BLOCK END ===

=== CODE BLOCK ADDRESS 0x2823 ===
  0x2823	dec    	eax
  0x2824	mov    	dword ptr [0x296e], eax
  0x282a	dec    	eax
  0x282b	mov    	eax, dword ptr [0x29c7]
  0x2831	dec    	eax
  === BLOCK LINK ===
    0x2832
=== CODE BLOCK END ===

=== CODE BLOCK ADDRESS 0x2832 ===
  0x2832	mov    	dword ptr [0x2838], eax
  0x2838	dec    	eax
  0x2839	mov    	eax, dword ptr [esp + 0x90]
  0x2840	dec    	eax
  0x2841	mov    	dword ptr [0x2939], eax
  === BLOCK LINK ===
    0x2847
=== CODE BLOCK END ===

=== CODE BLOCK ADDRESS 0x2847 ===
  0x2847	mov    	dword ptr [0x280f], 0xc0000409
  0x2851	mov    	dword ptr [0x2809], 1
  0x285b	mov    	dword ptr [0x2813], 3
  0x2865	mov    	eax, 8
  0x286a	dec    	eax
  === BLOCK LINK ===
    0x286b
=== CODE BLOCK END ===

=== CODE BLOCK ADDRESS 0x286b ===
  0x286b	imul   	eax, eax, 0
  0x286e	dec    	eax
  0x286f	lea    	ecx, [0x280b]
  0x2875	dec    	eax
  0x2876	mov    	dword ptr [ecx + eax], 2
  === BLOCK LINK ===
    0x287d
=== CODE BLOCK END ===

=== CODE BLOCK ADDRESS 0x287d ===
  0x287d	mov    	eax, 8
  0x2882	dec    	eax
  0x2883	imul   	eax, eax, 1
  0x2886	dec    	eax
  0x2887	lea    	ecx, [0x27f3]
  === BLOCK LINK ===
    0x288d
=== CODE BLOCK END ===

=== CODE BLOCK ADDRESS 0x288d ===
  0x288d	dec    	eax
  0x288e	mov    	edx, dword ptr [0x2774]
  0x2894	dec    	eax
  0x2895	mov    	dword ptr [ecx + eax], edx
  0x2898	mov    	eax, 8
  === BLOCK LINK ===
    0x289d
=== CODE BLOCK END ===

=== CODE BLOCK ADDRESS 0x289d ===
  0x289d	dec    	eax
  0x289e	imul   	eax, eax, 2
  0x28a1	dec    	eax
  0x28a2	lea    	ecx, [0x27d8]
  0x28a8	dec    	eax
  === BLOCK LINK ===
    0x28a9
=== CODE BLOCK END ===

=== CODE BLOCK ADDRESS 0x28a9 ===
  0x28a9	mov    	edx, dword ptr [0x2761]
  0x28af	dec    	eax
  0x28b0	mov    	dword ptr [ecx + eax], edx
  0x28b3	mov    	eax, 8
  0x28b8	dec    	eax
  === BLOCK LINK ===
    0x28b9
=== CODE BLOCK END ===

=== CODE BLOCK ADDRESS 0x28b9 ===
  0x28b9	imul   	eax, eax, 0
  0x28bc	dec    	eax
  0x28bd	mov    	ecx, dword ptr [0x2745]
  0x28c3	dec    	eax
  0x28c4	mov    	dword ptr [esp + eax + 0x68], ecx
  === BLOCK LINK ===
    0x28c8
=== CODE BLOCK END ===

=== CODE BLOCK ADDRESS 0x28c8 ===
  0x28c8	mov    	eax, 8
  0x28cd	dec    	eax
  0x28ce	imul   	eax, eax, 1
  0x28d1	dec    	eax
  0x28d2	mov    	ecx, dword ptr [0x2738]
  === BLOCK LINK ===
    0x28d8
=== CODE BLOCK END ===

=== CODE BLOCK ADDRESS 0x28d8 ===
  0x28d8	dec    	eax
  0x28d9	mov    	dword ptr [esp + eax + 0x68], ecx
  0x28dd	dec    	eax
  0x28de	lea    	ecx, [0x71c]
  0x28e4	call   	0x273c
  === BLOCK LINK ===
    0x28e9
=== CODE BLOCK END ===

=== CODE BLOCK ADDRESS 0x28e9 ===
  0x28e9	dec    	eax
  0x28ea	add    	esp, 0x88
  0x28f0	ret    	
  0x28f1	int3   	
  0x28f2	int3   	
  === BLOCK LINK ===
    0x28f3
=== CODE BLOCK END ===

=== CODE BLOCK ADDRESS 0x28f3 ===
  0x28f3	int3   	
  0x28f4	int3   	
  0x28f5	int3   	
  0x28f6	int3   	
  0x28f7	int3   	
  === BLOCK LINK ===
    0x28f8
=== CODE BLOCK END ===

=== CODE BLOCK ADDRESS 0x28f8 ===
  0x28f8	int3   	
  0x28f9	int3   	
  0x28fa	int3   	
  0x28fb	int3   	
  0x28fc	int3   	
  === BLOCK LINK ===
    0x28fd
=== CODE BLOCK END ===

=== CODE BLOCK ADDRESS 0x28fd ===
  0x28fd	int3   	
  0x28fe	int3   	
  0x28ff	int3   	
  0x2900	int3   	
  0x2901	int3   	
  === BLOCK LINK ===
    0x2902
=== CODE BLOCK END ===

=== CODE BLOCK ADDRESS 0x2902 ===
  0x2902	int3   	
  0x2903	int3   	
  0x2904	int3   	
  0x2905	int3   	
  0x2906	int3   	
  === BLOCK LINK ===
    0x2907
=== CODE BLOCK END ===

=== CODE BLOCK ADDRESS 0x2907 ===
  0x2907	int3   	
  0x2908	int3   	
  0x2909	int3   	
  0x290a	int3   	
  0x290b	int3   	
  === BLOCK LINK ===
    0x290c
=== CODE BLOCK END ===

=== CODE BLOCK ADDRESS 0x290c ===
  0x290c	int3   	
  0x290d	int3   	
  0x290e	int3   	
  0x290f	int3   	
  0x2910	jmp    	dword ptr [0xd2a]
  === BLOCK LINK ===
    0x2916
=== CODE BLOCK END ===

=== CODE BLOCK ADDRESS 0x2916 ===
  0x2916	int3   	
  0x2917	int3   	
  0x2918	int3   	
  0x2919	int3   	
  0x291a	int3   	
  === BLOCK LINK ===
    0x291b
=== CODE BLOCK END ===

=== CODE BLOCK ADDRESS 0x291b ===
  0x291b	int3   	
  0x291c	int3   	
  0x291d	int3   	
  0x291e	int3   	
  0x291f	int3   	
  === BLOCK LINK ===
    0x2920
=== CODE BLOCK END ===

=== CODE BLOCK ADDRESS 0x2920 ===
  0x2920	jmp    	dword ptr [0xd12]
  === BLOCK LINK ===
    0x2926
=== CODE BLOCK END ===

=== CODE BLOCK ADDRESS 0x2926 ===
  0x2926	int3   	
  0x2927	int3   	
  0x2928	int3   	
  0x2929	int3   	
  0x292a	int3   	
  === BLOCK LINK ===
    0x292b
=== CODE BLOCK END ===

=== CODE BLOCK ADDRESS 0x292b ===
  0x292b	int3   	
  0x292c	dec    	eax
  0x292d	lea    	eax, [0x46d5]
  0x2933	jmp    	0x2938
  === BLOCK LINK ===
    0x2938
=== CODE BLOCK END ===

=== CODE BLOCK ADDRESS 0x2938 ===
  0x2938	dec    	eax
  0x2939	mov    	dword ptr [esp + 8], ecx
  0x293d	dec    	eax
  0x293e	mov    	dword ptr [esp + 0x10], edx
  0x2942	dec    	esp
  === BLOCK LINK ===
    0x2943
=== CODE BLOCK END ===

=== CODE BLOCK ADDRESS 0x2943 ===
  0x2943	mov    	dword ptr [esp + 0x18], eax
  0x2947	dec    	esp
  0x2948	mov    	dword ptr [esp + 0x20], ecx
  0x294c	dec    	eax
  0x294d	sub    	esp, 0x68
  === BLOCK LINK ===
    0x2950
=== CODE BLOCK END ===

=== CODE BLOCK ADDRESS 0x2950 ===
  0x2950	movdqa  	xmmword ptr [esp + 0x20], xmm0
  0x2956	movdqa  	xmmword ptr [esp + 0x30], xmm1
  0x295c	movdqa  	xmmword ptr [esp + 0x40], xmm2
  0x2962	movdqa  	xmmword ptr [esp + 0x50], xmm3
  0x2968	dec    	eax
  === BLOCK LINK ===
    0x2969
=== CODE BLOCK END ===

=== CODE BLOCK ADDRESS 0x2969 ===
  0x2969	mov    	edx, eax
  0x296b	dec    	eax
  0x296c	lea    	ecx, [0x1732]
  0x2972	call   	0x2000
  === BLOCK LINK ===
    0x2977
=== CODE BLOCK END ===

=== CODE BLOCK ADDRESS 0x2977 ===
  0x2977	movdqa  	xmm0, xmmword ptr [esp + 0x20]
  0x297d	movdqa  	xmm1, xmmword ptr [esp + 0x30]
  0x2983	movdqa  	xmm2, xmmword ptr [esp + 0x40]
  0x2989	movdqa  	xmm3, xmmword ptr [esp + 0x50]
  0x298f	dec    	eax
  === BLOCK LINK ===
    0x2990
=== CODE BLOCK END ===

=== CODE BLOCK ADDRESS 0x2990 ===
  0x2990	mov    	ecx, dword ptr [esp + 0x70]
  0x2994	dec    	eax
  0x2995	mov    	edx, dword ptr [esp + 0x78]
  0x2999	dec    	esp
  0x299a	mov    	eax, dword ptr [esp + 0x80]
  === BLOCK LINK ===
    0x29a1
=== CODE BLOCK END ===

=== CODE BLOCK ADDRESS 0x29a1 ===
  0x29a1	dec    	esp
  0x29a2	mov    	ecx, dword ptr [esp + 0x88]
  0x29a9	dec    	eax
  0x29aa	add    	esp, 0x68
  0x29ad	jmp    	0x29af
  === BLOCK LINK ===
    0x29af
=== CODE BLOCK END ===

=== CODE BLOCK ADDRESS 0x29af ===
  0x29af	jmp    	eax
  === BLOCK LINK ===
    0x29b1
=== CODE BLOCK END ===

=== CODE BLOCK ADDRESS 0x29b1 ===
  0x29b1	int3   	
  0x29b2	int3   	
  0x29b3	int3   	
  0x29b4	int3   	
  0x29b5	int3   	
  === BLOCK LINK ===
    0x29b6
=== CODE BLOCK END ===

=== CODE BLOCK ADDRESS 0x29b6 ===
  0x29b6	int3   	
  0x29b7	dec    	eax
  0x29b8	lea    	eax, [0x4642]
  0x29be	jmp    	0x2938
  === BLOCK LINK ===
    0x29c3
=== CODE BLOCK END ===

=== CODE BLOCK ADDRESS 0x29c3 ===
  0x29c3	int3   	
  0x29c4	int3   	
  0x29c5	int3   	
  0x29c6	int3   	
  0x29c7	int3   	
  === BLOCK LINK ===
    0x29c8
=== CODE BLOCK END ===

=== CODE BLOCK ADDRESS 0x29c8 ===
  0x29c8	int3   	
  0x29c9	int3   	
  0x29ca	int3   	
  0x29cb	int3   	
  0x29cc	dec    	eax
  === BLOCK LINK ===
    0x29cd
=== CODE BLOCK END ===

=== CODE BLOCK ADDRESS 0x29cd ===
  0x29cd	sub    	esp, 0x28
  0x29d0	dec    	ebp
  0x29d1	mov    	eax, dword ptr [ecx + 0x38]
  0x29d4	dec    	eax
  0x29d5	mov    	ecx, edx
  === BLOCK LINK ===
    0x29d7
=== CODE BLOCK END ===

=== CODE BLOCK ADDRESS 0x29d7 ===
  0x29d7	dec    	ecx
  0x29d8	mov    	edx, ecx
  0x29da	call   	0x29f0
  === BLOCK LINK ===
    0x29df
=== CODE BLOCK END ===

=== CODE BLOCK ADDRESS 0x29df ===
  0x29df	mov    	eax, 1
  0x29e4	dec    	eax
  0x29e5	add    	esp, 0x28
  0x29e8	ret    	
  0x29e9	int3   	
  === BLOCK LINK ===
    0x29ea
=== CODE BLOCK END ===

=== CODE BLOCK ADDRESS 0x1348 ===
  0x1348	mov    	eax, edi
  0x134a	jmp    	0x1489
  === BLOCK LINK ===
    0x134f
=== CODE BLOCK END ===

=== CODE BLOCK ADDRESS 0x29ea ===
  0x29ea	int3   	
  0x29eb	int3   	
  0x29ec	int3   	
  0x29ed	int3   	
  0x29ee	int3   	
  === BLOCK LINK ===
    0x29ef
=== CODE BLOCK END ===

=== CODE BLOCK ADDRESS 0x29ef ===
  0x29ef	int3   	
  0x29f0	inc    	eax
  0x29f1	push   	ebx
  0x29f2	inc    	ebp
  0x29f3	mov    	ebx, dword ptr [eax]
  === BLOCK LINK ===
    0x29f5
=== CODE BLOCK END ===

=== CODE BLOCK ADDRESS 0x29f5 ===
  0x29f5	dec    	eax
  0x29f6	mov    	ebx, edx
  0x29f8	inc    	ecx
  0x29f9	and    	ebx, 0xfffffff8
  0x29fc	dec    	esp
  === BLOCK LINK ===
    0x29fd
=== CODE BLOCK END ===

=== CODE BLOCK ADDRESS 0x29fd ===
  0x29fd	mov    	ecx, ecx
  0x29ff	inc    	ecx
  0x2a00	test   	byte ptr [eax], 4
  0x2a03	dec    	esp
  0x2a04	mov    	edx, ecx
  === BLOCK LINK ===
    0x2a06
=== CODE BLOCK END ===

=== CODE BLOCK ADDRESS 0x2a06 ===
  0x2a06	je     	0x2a1b
  === BLOCK LINK ===
    0x2a08
=== CODE BLOCK END ===

=== CODE BLOCK ADDRESS 0x2a08 ===
  0x2a08	inc    	ecx
  0x2a09	mov    	eax, dword ptr [eax + 8]
  0x2a0c	dec    	ebp
  0x2a0d	arpl   	word ptr [eax + 4], dx
  0x2a10	neg    	eax
  === BLOCK LINK ===
    0x2a12
=== CODE BLOCK END ===

=== CODE BLOCK ADDRESS 0x2a12 ===
  0x2a12	dec    	esp
  0x2a13	add    	edx, ecx
  0x2a15	dec    	eax
  0x2a16	arpl   	ax, cx
  0x2a18	dec    	esp
  === BLOCK LINK ===
    0x2a19
=== CODE BLOCK END ===

=== CODE BLOCK ADDRESS 0x2a19 ===
  0x2a19	and    	edx, ecx
  0x2a1b	dec    	ecx
  0x2a1c	arpl   	bx, ax
  0x2a1e	dec    	edx
  0x2a1f	mov    	edx, dword ptr [eax + edx]
  === BLOCK LINK ===
    0x2a22
=== CODE BLOCK END ===

=== CODE BLOCK ADDRESS 0x2a22 ===
  0x2a22	dec    	eax
  0x2a23	mov    	eax, dword ptr [ebx + 0x10]
  0x2a26	mov    	ecx, dword ptr [eax + 8]
  0x2a29	dec    	eax
  0x2a2a	mov    	eax, dword ptr [ebx + 8]
  === BLOCK LINK ===
    0x2a2d
=== CODE BLOCK END ===

=== CODE BLOCK ADDRESS 0x2a2d ===
  0x2a2d	test   	byte ptr [ecx + eax + 3], 0xf
  0x2a32	je     	0x2a3f
  === BLOCK LINK ===
    0x2a34
=== CODE BLOCK END ===

=== CODE BLOCK ADDRESS 0x2a34 ===
  0x2a34	movzx  	eax, byte ptr [ecx + eax + 3]
  0x2a39	and    	eax, 0xfffffff0
  0x2a3c	dec    	esp
  0x2a3d	add    	ecx, eax
  0x2a3f	dec    	esp
  === BLOCK LINK ===
    0x2a40
=== CODE BLOCK END ===

=== CODE BLOCK ADDRESS 0x2a40 ===
  0x2a40	xor    	ecx, edx
  0x2a42	dec    	ecx
  0x2a43	mov    	ecx, ecx
  0x2a45	pop    	ebx
  0x2a46	jmp    	0x2400
  === BLOCK LINK ===
    0x2a4b
=== CODE BLOCK END ===

=== CODE BLOCK ADDRESS 0x2a4b ===
  0x2a4b	int3   	
  0x2a4c	int3   	
  0x2a4d	int3   	
  0x2a4e	int3   	
  0x2a4f	int3   	
  === BLOCK LINK ===
    0x2a50
=== CODE BLOCK END ===

=== CODE BLOCK ADDRESS 0x2a50 ===
  0x2a50	int3   	
  0x2a51	int3   	
  0x2a52	int3   	
  0x2a53	int3   	
  0x2a54	dec    	eax
  === BLOCK LINK ===
    0x2a55
=== CODE BLOCK END ===

=== CODE BLOCK ADDRESS 0x2a55 ===
  0x2a55	mov    	eax, esp
  0x2a57	dec    	eax
  0x2a58	mov    	dword ptr [eax + 8], ebx
  0x2a5b	dec    	eax
  0x2a5c	mov    	dword ptr [eax + 0x10], ebp
  === BLOCK LINK ===
    0x2a5f
=== CODE BLOCK END ===

=== CODE BLOCK ADDRESS 0x2a5f ===
  0x2a5f	dec    	eax
  0x2a60	mov    	dword ptr [eax + 0x18], esi
  0x2a63	dec    	eax
  0x2a64	mov    	dword ptr [eax + 0x20], edi
  0x2a67	inc    	ecx
  === BLOCK LINK ===
    0x2a68
=== CODE BLOCK END ===

=== CODE BLOCK ADDRESS 0x2a68 ===
  0x2a68	push   	esi
  0x2a69	dec    	eax
  0x2a6a	sub    	esp, 0x20
  0x2a6d	dec    	ebp
  0x2a6e	mov    	edx, dword ptr [ecx + 0x38]
  === BLOCK LINK ===
    0x2a71
=== CODE BLOCK END ===

=== CODE BLOCK ADDRESS 0x2a71 ===
  0x2a71	dec    	eax
  0x2a72	mov    	esi, edx
  0x2a74	dec    	ebp
  0x2a75	mov    	esi, eax
  0x2a77	dec    	eax
  === BLOCK LINK ===
    0x2a78
=== CODE BLOCK END ===

=== CODE BLOCK ADDRESS 0x2a78 ===
  0x2a78	mov    	ebp, ecx
  0x2a7a	dec    	ecx
  0x2a7b	mov    	edx, ecx
  0x2a7d	dec    	eax
  0x2a7e	mov    	ecx, esi
  === BLOCK LINK ===
    0x2a80
=== CODE BLOCK END ===

=== CODE BLOCK ADDRESS 0x2a80 ===
  0x2a80	dec    	ecx
  0x2a81	mov    	edi, ecx
  0x2a83	inc    	ecx
  0x2a84	mov    	ebx, dword ptr [edx]
  0x2a86	dec    	eax
  === BLOCK LINK ===
    0x2a87
=== CODE BLOCK END ===

=== CODE BLOCK ADDRESS 0x2a87 ===
  0x2a87	shl    	ebx, 4
  0x2a8a	dec    	ecx
  0x2a8b	add    	ebx, edx
  0x2a8d	dec    	esp
  0x2a8e	lea    	eax, [ebx + 4]
  === BLOCK LINK ===
    0x2a91
=== CODE BLOCK END ===

=== CODE BLOCK ADDRESS 0x2a91 ===
  0x2a91	call   	0x29f0
  === BLOCK LINK ===
    0x2a96
=== CODE BLOCK END ===

=== CODE BLOCK ADDRESS 0x2a96 ===
  0x2a96	mov    	eax, dword ptr [ebp + 4]
  0x2a99	and    	al, 0x66
  0x2a9b	neg    	al
  0x2a9d	mov    	eax, 1
  0x2aa2	sbb    	edx, edx
  === BLOCK LINK ===
    0x2aa4
=== CODE BLOCK END ===

=== CODE BLOCK ADDRESS 0x2aa4 ===
  0x2aa4	neg    	edx
  0x2aa6	add    	edx, eax
  0x2aa8	test   	dword ptr [ebx + 4], edx
  0x2aab	je     	0x2abf
  === BLOCK LINK ===
    0x2aad
=== CODE BLOCK END ===

=== CODE BLOCK ADDRESS 0x2aad ===
  0x2aad	dec    	esp
  0x2aae	mov    	ecx, edi
  0x2ab0	dec    	ebp
  0x2ab1	mov    	eax, esi
  0x2ab3	dec    	eax
  === BLOCK LINK ===
    0x2ab4
=== CODE BLOCK END ===

=== CODE BLOCK ADDRESS 0x2ab4 ===
  0x2ab4	mov    	edx, esi
  0x2ab6	dec    	eax
  0x2ab7	mov    	ecx, ebp
  0x2ab9	call   	dword ptr [0xd19]
  === BLOCK LINK ===
    0x2abf
=== CODE BLOCK END ===

=== CODE BLOCK ADDRESS 0x2abf ===
  0x2abf	dec    	eax
  0x2ac0	mov    	ebx, dword ptr [esp + 0x30]
  0x2ac4	dec    	eax
  0x2ac5	mov    	ebp, dword ptr [esp + 0x38]
  0x2ac9	dec    	eax
  === BLOCK LINK ===
    0x2aca
=== CODE BLOCK END ===

=== CODE BLOCK ADDRESS 0x2aca ===
  0x2aca	mov    	esi, dword ptr [esp + 0x40]
  0x2ace	dec    	eax
  0x2acf	mov    	edi, dword ptr [esp + 0x48]
  0x2ad3	dec    	eax
  0x2ad4	add    	esp, 0x20
  === BLOCK LINK ===
    0x2ad7
=== CODE BLOCK END ===

=== CODE BLOCK ADDRESS 0x2ad7 ===
  0x2ad7	inc    	ecx
  0x2ad8	pop    	esi
  0x2ad9	ret    	
  0x2ada	int3   	
  0x2adb	int3   	
  === BLOCK LINK ===
    0x2adc
=== CODE BLOCK END ===

=== CODE BLOCK ADDRESS 0x2adc ===
  0x2adc	int3   	
  0x2add	int3   	
  0x2ade	int3   	
  0x2adf	int3   	
  0x2ae0	jmp    	dword ptr [0xcea]
  === BLOCK LINK ===
    0x2ae6
=== CODE BLOCK END ===

=== CODE BLOCK ADDRESS 0x2ae6 ===
  0x2ae6	int3   	
  0x2ae7	int3   	
  0x2ae8	int3   	
  0x2ae9	int3   	
  0x2aea	int3   	
  === BLOCK LINK ===
    0x2aeb
=== CODE BLOCK END ===

=== CODE BLOCK ADDRESS 0x2aeb ===
  0x2aeb	int3   	
  0x2aec	jmp    	dword ptr [0xcbe]
  === BLOCK LINK ===
    0x2af2
=== CODE BLOCK END ===

=== CODE BLOCK ADDRESS 0x2af2 ===
  0x2af2	int3   	
  0x2af3	int3   	
  0x2af4	int3   	
  0x2af5	int3   	
  0x2af6	int3   	
  === BLOCK LINK ===
    0x2af7
=== CODE BLOCK END ===

=== CODE BLOCK ADDRESS 0x2af7 ===
  0x2af7	int3   	
  0x2af8	int3   	
  0x2af9	int3   	
  0x2afa	int3   	
  0x2afb	int3   	
  === BLOCK LINK ===
    0x2afc
=== CODE BLOCK END ===

=== CODE BLOCK ADDRESS 0x2afc ===
  0x2afc	int3   	
  0x2afd	int3   	
  0x2afe	int3   	
  0x2aff	int3   	
  0x2b00	int3   	
  === BLOCK LINK ===
    0x2b01
=== CODE BLOCK END ===

=== CODE BLOCK ADDRESS 0x2b01 ===
  0x2b01	int3   	
  0x2b02	int3   	
  0x2b03	int3   	
  0x2b04	int3   	
  0x2b05	int3   	
  === BLOCK LINK ===
    0x2b06
=== CODE BLOCK END ===

=== CODE BLOCK ADDRESS 0x2b06 ===
  0x2b06	nop    	word ptr [eax + eax]
  0x2b10	jmp    	eax
  === BLOCK LINK ===
    0x2b12
=== CODE BLOCK END ===

=== CODE BLOCK ADDRESS 0x2b12 ===
  0x2b12	int3   	
  0x2b13	int3   	
  0x2b14	int3   	
  0x2b15	int3   	
  0x2b16	int3   	
  === BLOCK LINK ===
    0x2b17
=== CODE BLOCK END ===

=== CODE BLOCK ADDRESS 0x2b17 ===
  0x2b17	int3   	
  0x2b18	int3   	
  0x2b19	int3   	
  0x2b1a	int3   	
  0x2b1b	int3   	
  === BLOCK LINK ===
    0x2b1c
=== CODE BLOCK END ===

=== CODE BLOCK ADDRESS 0x2b1c ===
  0x2b1c	int3   	
  0x2b1d	int3   	
  0x2b1e	int3   	
  0x2b1f	int3   	
  0x2b20	inc    	eax
  === BLOCK LINK ===
    0x2b21
=== CODE BLOCK END ===

=== CODE BLOCK ADDRESS 0x2b21 ===
  0x2b21	push   	ebp
  0x2b22	dec    	eax
  0x2b23	sub    	esp, 0x20
  0x2b26	dec    	eax
  0x2b27	mov    	ebp, edx
  === BLOCK LINK ===
    0x2b29
=== CODE BLOCK END ===

=== CODE BLOCK ADDRESS 0x2b29 ===
  0x2b29	cmp    	dword ptr [ebp + 0x20], 0
  0x2b2d	je     	0x2b3c
  === BLOCK LINK ===
    0x2b2f
=== CODE BLOCK END ===

=== CODE BLOCK ADDRESS 0x2b2f ===
  0x2b2f	dec    	eax
  0x2b30	call   	dword ptr [0xb32]
  === BLOCK LINK ===
    0x2b36
=== CODE BLOCK END ===

=== CODE BLOCK ADDRESS 0x2b36 ===
  0x2b36	nop    	dword ptr [eax + eax]
  0x2b3b	nop    	
  0x2b3c	dec    	eax
  0x2b3d	add    	esp, 0x20
  0x2b40	pop    	ebp
  === BLOCK LINK ===
    0x2b41
=== CODE BLOCK END ===

=== CODE BLOCK ADDRESS 0x2b41 ===
  0x2b41	ret    	
  0x2b42	int3   	
  0x2b43	int3   	
  0x2b44	int3   	
  0x2b45	int3   	
  === BLOCK LINK ===
    0x2b46
=== CODE BLOCK END ===

=== CODE BLOCK ADDRESS 0x2b46 ===
  0x2b46	int3   	
  0x2b47	int3   	
  0x2b48	int3   	
  0x2b49	inc    	eax
  0x2b4a	push   	ebp
  === BLOCK LINK ===
    0x2b4b
=== CODE BLOCK END ===

=== CODE BLOCK ADDRESS 0x2b4b ===
  0x2b4b	dec    	eax
  0x2b4c	sub    	esp, 0x30
  0x2b4f	dec    	eax
  0x2b50	mov    	ebp, edx
  0x2b52	dec    	eax
  === BLOCK LINK ===
    0x2b53
=== CODE BLOCK END ===

=== CODE BLOCK ADDRESS 0x2b53 ===
  0x2b53	add    	esp, 0x30
  0x2b56	pop    	ebp
  0x2b57	ret    	
  0x2b58	int3   	
  0x2b59	int3   	
  === BLOCK LINK ===
    0x2b5a
=== CODE BLOCK END ===

=== CODE BLOCK ADDRESS 0x13d3 ===
  0x13d3	dec    	eax
  0x13d4	lea    	eax, [esp + 0x50]
  === BLOCK LINK ===
    0x13d8
=== CODE BLOCK END ===

=== CODE BLOCK ADDRESS 0x2b5a ===
  0x2b5a	int3   	
  0x2b5b	int3   	
  0x2b5c	int3   	
  0x2b5d	int3   	
  0x2b5e	int3   	
  === BLOCK LINK ===
    0x2b5f
=== CODE BLOCK END ===

=== CODE BLOCK ADDRESS 0x2b5f ===
  0x2b5f	inc    	eax
  0x2b60	push   	ebx
  0x2b61	push   	ebp
  0x2b62	dec    	eax
  0x2b63	sub    	esp, 0x58
  === BLOCK LINK ===
    0x2b66
=== CODE BLOCK END ===

=== CODE BLOCK ADDRESS 0x2b66 ===
  0x2b66	dec    	eax
  0x2b67	mov    	ebp, edx
  0x2b69	dec    	eax
  0x2b6a	mov    	ecx, dword ptr [ebp + 0x58]
  0x2b6d	dec    	eax
  === BLOCK LINK ===
    0x2b6e
=== CODE BLOCK END ===

=== CODE BLOCK ADDRESS 0x2b6e ===
  0x2b6e	test   	ecx, ecx
  0x2b70	je     	0x2b7f
  === BLOCK LINK ===
    0x2b72
=== CODE BLOCK END ===

=== CODE BLOCK ADDRESS 0x2b72 ===
  0x2b72	dec    	eax
  0x2b73	call   	dword ptr [0xa8f]
  === BLOCK LINK ===
    0x2b79
=== CODE BLOCK END ===

=== CODE BLOCK ADDRESS 0x2b79 ===
  0x2b79	nop    	dword ptr [eax + eax]
  0x2b7e	nop    	
  0x2b7f	dec    	eax
  0x2b80	mov    	ebx, dword ptr [ebp + 0x68]
  0x2b83	dec    	eax
  === BLOCK LINK ===
    0x2b84
=== CODE BLOCK END ===

=== CODE BLOCK ADDRESS 0x2b84 ===
  0x2b84	test   	ebx, ebx
  0x2b86	je     	0x2ba6
  === BLOCK LINK ===
    0x2b88
=== CODE BLOCK END ===

=== CODE BLOCK ADDRESS 0x2b88 ===
  0x2b88	inc    	esp
  0x2b89	mov    	eax, dword ptr [ebp + 0x54]
  0x2b8c	xor    	edx, edx
  0x2b8e	dec    	eax
  0x2b8f	mov    	ecx, ebx
  === BLOCK LINK ===
    0x2b91
=== CODE BLOCK END ===

=== CODE BLOCK ADDRESS 0x2b91 ===
  0x2b91	call   	0x2aec
  === BLOCK LINK ===
    0x2b96
=== CODE BLOCK END ===

=== CODE BLOCK ADDRESS 0x2b96 ===
  0x2b96	dec    	eax
  0x2b97	mov    	ecx, ebx
  0x2b99	dec    	eax
  0x2b9a	call   	dword ptr [0xa68]
  === BLOCK LINK ===
    0x2ba0
=== CODE BLOCK END ===

=== CODE BLOCK ADDRESS 0x2ba0 ===
  0x2ba0	nop    	dword ptr [eax + eax]
  0x2ba5	nop    	
  0x2ba6	dec    	eax
  0x2ba7	mov    	ebx, dword ptr [ebp + 0x60]
  0x2baa	dec    	eax
  === BLOCK LINK ===
    0x2bab
=== CODE BLOCK END ===

=== CODE BLOCK ADDRESS 0x2bab ===
  0x2bab	test   	ebx, ebx
  0x2bad	je     	0x2bd0
  === BLOCK LINK ===
    0x2baf
=== CODE BLOCK END ===

=== CODE BLOCK ADDRESS 0x2baf ===
  0x2baf	inc    	esp
  0x2bb0	mov    	eax, dword ptr [ebp + 0xf8]
  0x2bb6	xor    	edx, edx
  0x2bb8	dec    	eax
  0x2bb9	mov    	ecx, ebx
  === BLOCK LINK ===
    0x2bbb
=== CODE BLOCK END ===

=== CODE BLOCK ADDRESS 0x2bbb ===
  0x2bbb	call   	0x2aec
  === BLOCK LINK ===
    0x2bc0
=== CODE BLOCK END ===

=== CODE BLOCK ADDRESS 0x2bc0 ===
  0x2bc0	dec    	eax
  0x2bc1	mov    	ecx, ebx
  0x2bc3	dec    	eax
  0x2bc4	call   	dword ptr [0xa3e]
  === BLOCK LINK ===
    0x2bca
=== CODE BLOCK END ===

=== CODE BLOCK ADDRESS 0x2bca ===
  0x2bca	nop    	dword ptr [eax + eax]
  0x2bcf	nop    	
  0x2bd0	dec    	eax
  0x2bd1	mov    	ecx, dword ptr [0x2a01]
  0x2bd7	dec    	eax
  === BLOCK LINK ===
    0x2bd8
=== CODE BLOCK END ===

=== CODE BLOCK ADDRESS 0x2bd8 ===
  0x2bd8	call   	dword ptr [0x9fa]
  === BLOCK LINK ===
    0x2bde
=== CODE BLOCK END ===

=== CODE BLOCK ADDRESS 0x2bde ===
  0x2bde	nop    	dword ptr [eax + eax]
  0x2be3	nop    	
  0x2be4	dec    	eax
  0x2be5	add    	esp, 0x58
  0x2be8	pop    	ebp
  === BLOCK LINK ===
    0x2be9
=== CODE BLOCK END ===

=== CODE BLOCK ADDRESS 0x2be9 ===
  0x2be9	pop    	ebx
  0x2bea	ret    	
  0x2beb	int3   	
  0x2bec	int3   	
  0x2bed	int3   	
  === BLOCK LINK ===
    0x2bee
=== CODE BLOCK END ===

=== CODE BLOCK ADDRESS 0x2bee ===
  0x2bee	int3   	
  0x2bef	int3   	
  0x2bf0	int3   	
  0x2bf1	int3   	
  0x2bf2	inc    	eax
  === BLOCK LINK ===
    0x2bf3
=== CODE BLOCK END ===

=== CODE BLOCK ADDRESS 0x2bf3 ===
  0x2bf3	push   	ebp
  0x2bf4	push   	edi
  0x2bf5	dec    	eax
  0x2bf6	sub    	esp, 0x48
  0x2bf9	dec    	eax
  === BLOCK LINK ===
    0x2bfa
=== CODE BLOCK END ===

=== CODE BLOCK ADDRESS 0x2bfa ===
  0x2bfa	mov    	ebp, edx
  0x2bfc	dec    	eax
  0x2bfd	mov    	edi, dword ptr [ebp + 0x50]
  0x2c00	dec    	eax
  0x2c01	test   	edi, edi
  === BLOCK LINK ===
    0x2c03
=== CODE BLOCK END ===

=== CODE BLOCK ADDRESS 0x2c03 ===
  0x2c03	je     	0x2c23
  === BLOCK LINK ===
    0x2c05
=== CODE BLOCK END ===

=== CODE BLOCK ADDRESS 0x2c05 ===
  0x2c05	inc    	esp
  0x2c06	mov    	eax, dword ptr [ebp + 0x40]
  0x2c09	xor    	edx, edx
  0x2c0b	dec    	eax
  0x2c0c	mov    	ecx, edi
  === BLOCK LINK ===
    0x2c0e
=== CODE BLOCK END ===

=== CODE BLOCK ADDRESS 0x2c0e ===
  0x2c0e	call   	0x2aec
  === BLOCK LINK ===
    0x2c13
=== CODE BLOCK END ===

=== CODE BLOCK ADDRESS 0x2c13 ===
  0x2c13	dec    	eax
  0x2c14	mov    	ecx, edi
  0x2c16	dec    	eax
  0x2c17	call   	dword ptr [0x9eb]
  === BLOCK LINK ===
    0x2c1d
=== CODE BLOCK END ===

=== CODE BLOCK ADDRESS 0x2c1d ===
  0x2c1d	nop    	dword ptr [eax + eax]
  0x2c22	nop    	
  0x2c23	dec    	eax
  0x2c24	mov    	edi, dword ptr [ebp + 0x58]
  0x2c27	dec    	eax
  === BLOCK LINK ===
    0x2c28
=== CODE BLOCK END ===

=== CODE BLOCK ADDRESS 0x2c28 ===
  0x2c28	test   	edi, edi
  0x2c2a	je     	0x2c4d
  === BLOCK LINK ===
    0x2c2c
=== CODE BLOCK END ===

=== CODE BLOCK ADDRESS 0x2c2c ===
  0x2c2c	inc    	esp
  0x2c2d	mov    	eax, dword ptr [ebp + 0x130]
  0x2c33	xor    	edx, edx
  0x2c35	dec    	eax
  0x2c36	mov    	ecx, edi
  === BLOCK LINK ===
    0x2c38
=== CODE BLOCK END ===

=== CODE BLOCK ADDRESS 0x2c38 ===
  0x2c38	call   	0x2aec
  === BLOCK LINK ===
    0x2c3d
=== CODE BLOCK END ===

=== CODE BLOCK ADDRESS 0x2c3d ===
  0x2c3d	dec    	eax
  0x2c3e	mov    	ecx, edi
  0x2c40	dec    	eax
  0x2c41	call   	dword ptr [0x9c1]
  === BLOCK LINK ===
    0x2c47
=== CODE BLOCK END ===

=== CODE BLOCK ADDRESS 0x2c47 ===
  0x2c47	nop    	dword ptr [eax + eax]
  0x2c4c	nop    	
  0x2c4d	dec    	eax
  0x2c4e	mov    	edi, dword ptr [ebp + 0x48]
  0x2c51	dec    	eax
  === BLOCK LINK ===
    0x2c52
=== CODE BLOCK END ===

=== CODE BLOCK ADDRESS 0x2c52 ===
  0x2c52	test   	edi, edi
  0x2c54	je     	0x2c74
  === BLOCK LINK ===
    0x2c56
=== CODE BLOCK END ===

=== CODE BLOCK ADDRESS 0x2c56 ===
  0x2c56	inc    	esp
  0x2c57	mov    	eax, dword ptr [ebp + 0x44]
  0x2c5a	xor    	edx, edx
  0x2c5c	dec    	eax
  0x2c5d	mov    	ecx, edi
  === BLOCK LINK ===
    0x2c5f
=== CODE BLOCK END ===

=== CODE BLOCK ADDRESS 0x2c5f ===
  0x2c5f	call   	0x2aec
  === BLOCK LINK ===
    0x2c64
=== CODE BLOCK END ===

=== CODE BLOCK ADDRESS 0x2c64 ===
  0x2c64	dec    	eax
  0x2c65	mov    	ecx, edi
  0x2c67	dec    	eax
  0x2c68	call   	dword ptr [0x99a]
  === BLOCK LINK ===
    0x2c6e
=== CODE BLOCK END ===

=== CODE BLOCK ADDRESS 0x2c6e ===
  0x2c6e	nop    	dword ptr [eax + eax]
  0x2c73	nop    	
  0x2c74	dec    	eax
  0x2c75	mov    	ecx, dword ptr [0x295d]
  0x2c7b	dec    	eax
  === BLOCK LINK ===
    0x2c7c
=== CODE BLOCK END ===

=== CODE BLOCK ADDRESS 0x2c7c ===
  0x2c7c	call   	dword ptr [0x956]
  === BLOCK LINK ===
    0x2c82
=== CODE BLOCK END ===

=== CODE BLOCK ADDRESS 0x2c82 ===
  0x2c82	nop    	dword ptr [eax + eax]
  0x2c87	nop    	
  0x2c88	dec    	eax
  0x2c89	add    	esp, 0x48
  0x2c8c	pop    	edi
  === BLOCK LINK ===
    0x2c8d
=== CODE BLOCK END ===

=== CODE BLOCK ADDRESS 0x2c8d ===
  0x2c8d	pop    	ebp
  0x2c8e	ret    	
  0x2c8f	int3   	
  0x2c90	int3   	
  0x2c91	int3   	
  === BLOCK LINK ===
    0x2c92
=== CODE BLOCK END ===

=== CODE BLOCK ADDRESS 0x2c92 ===
  0x2c92	int3   	
  0x2c93	int3   	
  0x2c94	int3   	
  0x2c95	int3   	
  0x2c96	inc    	eax
  === BLOCK LINK ===
    0x2c97
=== CODE BLOCK END ===

=== CODE BLOCK ADDRESS 0x2c97 ===
  0x2c97	push   	ebp
  0x2c98	dec    	eax
  0x2c99	sub    	esp, 0x30
  0x2c9c	dec    	eax
  0x2c9d	mov    	ebp, edx
  === BLOCK LINK ===
    0x2c9f
=== CODE BLOCK END ===

=== CODE BLOCK ADDRESS 0x2c9f ===
  0x2c9f	dec    	eax
  0x2ca0	mov    	ecx, dword ptr [0x2932]
  0x2ca6	dec    	eax
  0x2ca7	test   	ecx, ecx
  0x2ca9	je     	0x2cb8
  === BLOCK LINK ===
    0x2cab
=== CODE BLOCK END ===

=== CODE BLOCK ADDRESS 0x2cab ===
  0x2cab	dec    	eax
  0x2cac	call   	dword ptr [0x92e]
  === BLOCK LINK ===
    0x2cb2
=== CODE BLOCK END ===

=== CODE BLOCK ADDRESS 0x2cb2 ===
  0x2cb2	nop    	dword ptr [eax + eax]
  0x2cb7	nop    	
  0x2cb8	mov    	ecx, 0x3e8
  0x2cbd	dec    	eax
  0x2cbe	call   	dword ptr [0x904]
  === BLOCK LINK ===
    0x2cc4
=== CODE BLOCK END ===

=== CODE BLOCK ADDRESS 0x2cc4 ===
  0x2cc4	nop    	dword ptr [eax + eax]
  0x2cc9	cmp    	dword ptr [ebp + 0x38], 0
  0x2ccd	je     	0x2ceb
  === BLOCK LINK ===
    0x2ccf
=== CODE BLOCK END ===

=== CODE BLOCK ADDRESS 0x2ccf ===
  0x2ccf	dec    	esp
  0x2cd0	lea    	eax, [ebp + 0x40]
  0x2cd3	dec    	eax
  0x2cd4	mov    	edx, dword ptr [ebp + 0x30]
  0x2cd7	dec    	eax
  === BLOCK LINK ===
    0x2cd8
=== CODE BLOCK END ===

=== CODE BLOCK ADDRESS 0x2cd8 ===
  0x2cd8	lea    	ecx, [0x632]
  0x2cde	dec    	eax
  0x2cdf	call   	dword ptr [0x973]
  === BLOCK LINK ===
    0x2ce5
=== CODE BLOCK END ===

=== CODE BLOCK ADDRESS 0x2ce5 ===
  0x2ce5	nop    	dword ptr [eax + eax]
  0x2cea	nop    	
  0x2ceb	dec    	eax
  0x2cec	cmp    	dword ptr [ebp + 0x30], 0
  0x2cf0	je     	0x2d03
  === BLOCK LINK ===
    0x2cf2
=== CODE BLOCK END ===

=== CODE BLOCK ADDRESS 0x2cf2 ===
  0x2cf2	dec    	eax
  0x2cf3	lea    	ecx, [ebp + 0x30]
  0x2cf6	dec    	eax
  0x2cf7	call   	dword ptr [0x9ab]
  === BLOCK LINK ===
    0x2cfd
=== CODE BLOCK END ===

=== CODE BLOCK ADDRESS 0x2cfd ===
  0x2cfd	nop    	dword ptr [eax + eax]
  0x2d02	nop    	
  0x2d03	cmp    	dword ptr [ebp + 0x3c], 0
  0x2d07	je     	0x2d23
  === BLOCK LINK ===
    0x2d09
=== CODE BLOCK END ===

=== CODE BLOCK ADDRESS 0x2d09 ===
  0x2d09	xor    	edx, edx
  0x2d0b	inc    	esp
  0x2d0c	lea    	eax, [edx + 1]
  0x2d0f	dec    	eax
  0x2d10	lea    	ecx, [0x5fa]
  === BLOCK LINK ===
    0x2d16
=== CODE BLOCK END ===

=== CODE BLOCK ADDRESS 0x2d16 ===
  0x2d16	dec    	eax
  0x2d17	call   	dword ptr [0x963]
  === BLOCK LINK ===
    0x2d1d
=== CODE BLOCK END ===

=== CODE BLOCK ADDRESS 0x2d1d ===
  0x2d1d	nop    	dword ptr [eax + eax]
  0x2d22	nop    	
  0x2d23	dec    	eax
  0x2d24	add    	esp, 0x30
  0x2d27	pop    	ebp
  === BLOCK LINK ===
    0x2d28
=== CODE BLOCK END ===

=== CODE BLOCK ADDRESS 0x2d28 ===
  0x2d28	ret    	
  0x2d29	int3   	
  0x2d2a	int3   	
  0x2d2b	int3   	
  0x2d2c	int3   	
  === BLOCK LINK ===
    0x2d2d
=== CODE BLOCK END ===

=== CODE BLOCK ADDRESS 0x2d2d ===
  0x2d2d	int3   	
  0x2d2e	int3   	
  0x2d2f	int3   	
  0x2d30	inc    	eax
  0x2d31	push   	ebp
  === BLOCK LINK ===
    0x2d32
=== CODE BLOCK END ===

=== CODE BLOCK ADDRESS 0x2d32 ===
  0x2d32	dec    	eax
  0x2d33	sub    	esp, 0x20
  0x2d36	dec    	eax
  0x2d37	mov    	ebp, edx
  0x2d39	dec    	eax
  === BLOCK LINK ===
    0x2d3a
=== CODE BLOCK END ===

=== CODE BLOCK ADDRESS 0x2d3a ===
  0x2d3a	mov    	eax, dword ptr [ecx]
  0x2d3c	dec    	eax
  0x2d3d	mov    	edx, ecx
  0x2d3f	mov    	ecx, dword ptr [eax]
  0x2d41	call   	0x248e
  === BLOCK LINK ===
    0x2d46
=== CODE BLOCK END ===

=== CODE BLOCK ADDRESS 0x2d46 ===
  0x2d46	nop    	
  0x2d47	dec    	eax
  0x2d48	add    	esp, 0x20
  0x2d4b	pop    	ebp
  0x2d4c	ret    	
  === BLOCK LINK ===
    0x2d4d
=== CODE BLOCK END ===

=== CODE BLOCK ADDRESS 0x2d4d ===
  0x2d4d	int3   	
  0x2d4e	int3   	
  0x2d4f	int3   	
  0x2d50	int3   	
  0x2d51	int3   	
  === BLOCK LINK ===
    0x2d52
=== CODE BLOCK END ===

=== CODE BLOCK ADDRESS 0x2d52 ===
  0x2d52	int3   	
  0x2d53	int3   	
  0x2d54	int3   	
  0x2d55	int3   	
  0x2d56	int3   	
  === BLOCK LINK ===
    0x2d57
=== CODE BLOCK END ===

=== CODE BLOCK ADDRESS 0x2d57 ===
  0x2d57	int3   	
  0x2d58	int3   	
  0x2d59	int3   	
  0x2d5a	int3   	
  0x2d5b	int3   	
  === BLOCK LINK ===
    0x2d5c
=== CODE BLOCK END ===

=== CODE BLOCK ADDRESS 0x2d5c ===
  0x2d5c	int3   	
  0x2d5d	int3   	
  0x2d5e	int3   	
  0x2d5f	int3   	
  0x2d60	inc    	eax
  === BLOCK LINK ===
    0x2d61
=== CODE BLOCK END ===

=== CODE BLOCK ADDRESS 0x2d61 ===
  0x2d61	push   	ebp
  0x2d62	dec    	eax
  0x2d63	sub    	esp, 0x20
  0x2d66	dec    	eax
  0x2d67	mov    	ebp, edx
  === BLOCK LINK ===
    0x2d69
=== CODE BLOCK END ===

=== CODE BLOCK ADDRESS 0x2d69 ===
  0x2d69	dec    	eax
  0x2d6a	mov    	eax, dword ptr [ecx]
  0x2d6c	xor    	ecx, ecx
  0x2d6e	cmp    	dword ptr [eax], 0xc0000005
  0x2d74	sete   	cl
  === BLOCK LINK ===
    0x2d77
=== CODE BLOCK END ===

=== CODE BLOCK ADDRESS 0x2d77 ===
  0x2d77	mov    	eax, ecx
  0x2d79	dec    	eax
  0x2d7a	add    	esp, 0x20
  0x2d7d	pop    	ebp
  0x2d7e	ret    	
  === BLOCK LINK ===
    0x2d7f
=== CODE BLOCK END ===

=== CODE BLOCK ADDRESS 0x13a2 ===
  0x13a2	dec    	eax
  0x13a3	lea    	eax, [esi + 0x7ffffefa]
  === BLOCK LINK ===
    0x13a9
=== CODE BLOCK END ===

=== CODE BLOCK ADDRESS 0x2d7f ===
  0x2d7f	int3   	
  0x2d80	add    	byte ptr [eax], al
  0x2d82	add    	byte ptr [eax], al
  0x2d84	add    	byte ptr [eax], al
  0x2d86	add    	byte ptr [eax], al
  === BLOCK LINK ===
    0x2d88
=== CODE BLOCK END ===

=== CODE BLOCK ADDRESS 0x2d88 ===
  0x2d88	add    	byte ptr [eax], al
  0x2d8a	add    	byte ptr [eax], al
  0x2d8c	add    	byte ptr [eax], al
  0x2d8e	add    	byte ptr [eax], al
  0x2d90	add    	byte ptr [eax], al
  === BLOCK LINK ===
    0x2d92
=== CODE BLOCK END ===

=== CODE BLOCK ADDRESS 0x2d92 ===
  0x2d92	add    	byte ptr [eax], al
  0x2d94	add    	byte ptr [eax], al
  0x2d96	add    	byte ptr [eax], al
  0x2d98	add    	byte ptr [eax], al
  0x2d9a	add    	byte ptr [eax], al
  === BLOCK LINK ===
    0x2d9c
=== CODE BLOCK END ===

=== CODE BLOCK ADDRESS 0x2d9c ===
  0x2d9c	add    	byte ptr [eax], al
  0x2d9e	add    	byte ptr [eax], al
  0x2da0	add    	byte ptr [eax], al
  0x2da2	add    	byte ptr [eax], al
  0x2da4	add    	byte ptr [eax], al
  === BLOCK LINK ===
    0x2da6
=== CODE BLOCK END ===

=== CODE BLOCK ADDRESS 0x2da6 ===
  0x2da6	add    	byte ptr [eax], al
  0x2da8	add    	byte ptr [eax], al
  0x2daa	add    	byte ptr [eax], al
  0x2dac	add    	byte ptr [eax], al
  0x2dae	add    	byte ptr [eax], al
  === BLOCK LINK ===
    0x2db0
=== CODE BLOCK END ===

=== CODE BLOCK ADDRESS 0x2db0 ===
  0x2db0	add    	byte ptr [eax], al
  0x2db2	add    	byte ptr [eax], al
  0x2db4	add    	byte ptr [eax], al
  0x2db6	add    	byte ptr [eax], al
  0x2db8	add    	byte ptr [eax], al
  === BLOCK LINK ===
    0x2dba
=== CODE BLOCK END ===

=== CODE BLOCK ADDRESS 0x2dba ===
  0x2dba	add    	byte ptr [eax], al
  0x2dbc	add    	byte ptr [eax], al
  0x2dbe	add    	byte ptr [eax], al
  0x2dc0	add    	byte ptr [eax], al
  0x2dc2	add    	byte ptr [eax], al
  === BLOCK LINK ===
    0x2dc4
=== CODE BLOCK END ===

=== CODE BLOCK ADDRESS 0x2dc4 ===
  0x2dc4	add    	byte ptr [eax], al
  0x2dc6	add    	byte ptr [eax], al
  0x2dc8	add    	byte ptr [eax], al
  0x2dca	add    	byte ptr [eax], al
  0x2dcc	add    	byte ptr [eax], al
  === BLOCK LINK ===
    0x2dce
=== CODE BLOCK END ===

=== CODE BLOCK ADDRESS 0x2dce ===
  0x2dce	add    	byte ptr [eax], al
  0x2dd0	add    	byte ptr [eax], al
  0x2dd2	add    	byte ptr [eax], al
  0x2dd4	add    	byte ptr [eax], al
  0x2dd6	add    	byte ptr [eax], al
  === BLOCK LINK ===
    0x2dd8
=== CODE BLOCK END ===

=== CODE BLOCK ADDRESS 0x2dd8 ===
  0x2dd8	add    	byte ptr [eax], al
  0x2dda	add    	byte ptr [eax], al
  0x2ddc	add    	byte ptr [eax], al
  0x2dde	add    	byte ptr [eax], al
  0x2de0	add    	byte ptr [eax], al
  === BLOCK LINK ===
    0x2de2
=== CODE BLOCK END ===

=== CODE BLOCK ADDRESS 0x2de2 ===
  0x2de2	add    	byte ptr [eax], al
  0x2de4	add    	byte ptr [eax], al
  0x2de6	add    	byte ptr [eax], al
  0x2de8	add    	byte ptr [eax], al
  0x2dea	add    	byte ptr [eax], al
  === BLOCK LINK ===
    0x2dec
=== CODE BLOCK END ===

=== CODE BLOCK ADDRESS 0x2dec ===
  0x2dec	add    	byte ptr [eax], al
  0x2dee	add    	byte ptr [eax], al
  0x2df0	add    	byte ptr [eax], al
  0x2df2	add    	byte ptr [eax], al
  0x2df4	add    	byte ptr [eax], al
  === BLOCK LINK ===
    0x2df6
=== CODE BLOCK END ===

=== CODE BLOCK ADDRESS 0x2df6 ===
  0x2df6	add    	byte ptr [eax], al
  0x2df8	add    	byte ptr [eax], al
  0x2dfa	add    	byte ptr [eax], al
  0x2dfc	add    	byte ptr [eax], al
=== CODE BLOCK END ===

=== DATA BLOCK ADDRESS 0x3000 ===
  0x3000	60 50 00 40 01 00 00 00 00 51 00 40 01 00 00 00 	`P0@00000Q0@0000
  0x3010	10 33 00 40 01 00 00 00 30 11 00 40 01 00 00 00 	030@0000000@0000
  0x3020	70 11 00 40 01 00 00 00 00 00 00 00 00 00 00 00 	p00@000000000000
  0x3030	00 00 00 00 00 00 00 00 00 00 00 00 00 00 00 00 	0000000000000000
  0x3040	00 00 00 00 00 00 00 00 00 00 00 00 00 00 00 00 	0000000000000000
  0x3050	62 3a 00 40 01 00 00 00 01 00 00 00 00 00 0a 00 	b:0@000000000000
  0x3060	00 00 00 00 00 00 00 00 6e 02 01 08 00 00 00 00 	00000000n0000000
  0x3070	00 00 00 00 00 00 00 00 00 00 00 00 00 00 00 00 	0000000000000000
  0x3080	00 00 00 00 00 00 00 00 01 00 00 02 00 00 00 00 	0000000000000000
  0x3090	00 00 00 00 00 00 00 00 f0 33 00 40 01 00 00 00 	00000000030@0000
  0x30a0	00 00 00 00 00 00 00 00 20 29 00 40 01 00 00 00 	00000000 )0@0000
  0x30b0	20 29 00 40 01 00 00 00 00 00 00 00 00 00 00 00 	 )0@000000000000
  0x30c0	10 29 00 40 01 00 00 00 10 29 00 40 01 00 00 00 	0)0@00000)0@0000
  0x30d0	00 00 00 00 00 00 00 00 c0 15 00 40 01 00 00 00 	00000000000@0000
  0x30e0	70 18 00 40 01 00 00 00 00 00 00 00 00 00 00 00 	p00@000000000000
  0x30f0	35 07 03 00 10 00 00 00 00 00 00 00 00 00 00 00 	5000000000000000
  0x3100	00 00 00 00 00 00 00 00 50 32 00 40 01 00 00 00 	00000000P20@0000
  0x3110	04 00 00 00 00 00 00 00 90 00 06 00 00 00 00 00 	0000000000000000
  0x3120	14 00 00 00 00 00 00 00 93 00 00 00 00 00 00 00 	0000000000000000
  0x3130	41 00 00 00 01 00 00 00 28 3a 00 40 01 00 00 00 	A0000000(:0@0000
  0x3140	01 00 00 00 00 00 00 00 50 3b 00 40 01 00 00 00 	00000000P;0@0000
  0x3150	02 00 00 00 00 00 00 00 a8 30 00 40 01 00 00 00 	00000000000@0000
  0x3160	00 00 00 00 00 00 00 00 00 00 00 00 00 00 00 00 	0000000000000000
  0x3170	35 07 03 00 18 00 00 00 00 00 00 00 00 00 00 00 	5000000000000000
  0x3180	00 00 00 00 00 00 00 00 30 34 00 40 01 00 00 00 	00000000040@0000
  0x3190	05 00 00 00 00 00 00 00 05 00 00 00 00 00 00 00 	0000000000000000
  0x31a0	05 00 00 00 00 00 00 00 90 00 04 00 00 00 00 00 	0000000000000000
  0x31b0	14 00 00 00 00 00 00 00 93 00 00 00 00 00 00 00 	0000000000000000
  0x31c0	43 01 00 00 02 00 00 00 38 3a 00 40 01 00 00 00 	C00000008:0@0000
  0x31d0	38 3a 00 40 01 00 00 00 00 00 00 00 00 00 00 00 	8:0@000000000000
  0x31e0	40 00 2c 01 30 00 00 00 10 00 00 00 08 00 00 00 	@0,0000000000000
  0x31f0	00 00 00 00 05 00 08 00 72 00 00 00 00 00 00 00 	00000000r0000000
  0x3200	40 34 00 40 01 00 00 00 0b 00 00 00 08 00 00 00 	@40@000000000000
  0x3210	70 31 00 40 01 00 00 00 0b 01 00 00 10 00 00 00 	p10@000000000000
  0x3220	24 3a 00 40 01 00 00 00 c8 00 00 00 18 00 00 00 	$:0@000000000000
  0x3230	24 3a 00 40 01 00 00 00 c8 00 00 00 20 00 00 00 	$:0@00000000 000
  0x3240	24 3a 00 40 01 00 00 00 f0 00 00 00 28 00 00 00 	$:0@00000000(000
  0x3250	21 20 00 00 00 00 00 00 c0 31 00 40 01 00 00 00 	! 000000010@0000
  0x3260	04 5d 88 8a eb 1c c9 11 9f e8 08 00 2b 10 48 60 	0]0000000000+0H`
  0x3270	02 00 00 00 00 00 00 00 50 31 00 40 01 00 00 00 	00000000P10@0000
  0x3280	c2 3a 00 40 01 00 00 00 54 3b 00 40 01 00 00 00 	0:0@0000T;0@0000
  0x3290	62 3a 00 40 01 00 00 00 00 00 00 00 00 00 00 00 	b:0@000000000000
  0x32a0	00 00 00 00 00 00 00 00 00 00 00 00 00 00 00 00 	0000000000000000
  0x32b0	33 05 71 71 ba be 37 49 83 19 b5 db ef 9c cc 36 	30qq007I00000006
  0x32c0	01 00 00 00 00 00 00 00 70 33 00 40 01 00 00 00 	00000000p30@0000
  0x32d0	00 00 00 00 00 00 00 00 00 33 00 40 01 00 00 00 	00000000030@0000
  0x32e0	00 00 00 00 00 00 00 00 00 00 00 00 00 00 00 00 	0000000000000000
  0x32f0	00 00 00 00 00 00 00 00 00 00 00 00 00 00 00 00 	0000000000000000
  0x3300	90 33 00 40 01 00 00 00 e0 31 00 40 01 00 00 00 	030@0000010@0000
  0x3310	60 00 00 00 05 81 a7 3c a3 a3 68 4a b4 58 1a 60 	`000000<00hJ0X0`
  0x3320	6b ab 8f d6 01 00 00 00 04 5d 88 8a eb 1c c9 11 	k00000000]000000
  0x3330	9f e8 08 00 2b 10 48 60 02 00 00 00 00 00 00 00 	0000+0H`00000000
  0x3340	50 31 00 40 01 00 00 00 00 00 00 00 00 00 00 00 	P10@000000000000
  0x3350	00 00 00 00 00 00 00 00 00 00 00 00 00 00 00 00 	0000000000000000
  0x3360	f0 33 00 40 01 00 00 00 00 00 00 06 00 00 00 00 	030@000000000000
  0x3370	02 00 00 00 00 00 00 00 c0 30 00 40 01 00 00 00 	00000000000@0000
  0x3380	00 00 00 00 00 00 00 00 00 00 00 00 00 00 00 00 	0000000000000000
  0x3390	40 00 6e 01 28 00 00 00 18 00 00 00 08 00 00 00 	@0n0(00000000000
  0x33a0	00 00 00 00 04 00 08 00 72 00 00 00 00 00 00 00 	00000000r0000000
  0x33b0	70 31 00 40 01 00 00 00 0b 01 00 00 08 00 00 00 	p10@000000000000
  0x33c0	58 3b 00 40 01 00 00 00 8a 00 00 00 10 00 00 00 	X;0@000000000000
  0x33d0	f0 30 00 40 01 00 00 00 13 81 00 00 18 00 00 00 	000@000000000000
  0x33e0	24 3a 00 40 01 00 00 00 f0 00 00 00 20 00 00 00 	$:0@00000000 000
  0x33f0	10 30 00 40 01 00 00 00 d8 30 00 40 01 00 00 00 	000@0000000@0000
  0x3400	c2 3a 00 40 01 00 00 00 54 3b 00 40 01 00 00 00 	0:0@0000T;0@0000
  0x3410	00 00 00 00 00 00 00 00 38 3b 00 40 01 00 00 00 	000000008;0@0000
  0x3420	02 00 00 00 00 00 00 00 60 32 00 40 01 00 00 00 	00000000`20@0000
  0x3430	21 20 00 00 00 00 00 00 30 31 00 40 01 00 00 00 	! 000000010@0000
  0x3440	21 00 00 00 00 00 00 00 4c 3b 00 40 01 00 00 00 	!0000000L;0@0000
  0x3450	18 01 00 00 00 00 00 00 00 00 00 00 00 00 00 00 	0000000000000000
  0x3460	00 00 00 00 00 00 00 00 00 00 00 00 00 00 00 00 	0000000000000000
  0x3470	00 00 00 00 00 00 00 00 00 00 00 00 00 00 00 00 	0000000000000000
  0x3480	00 00 00 00 00 00 00 00 00 00 00 00 00 00 00 00 	0000000000000000
  0x3490	00 00 00 00 00 00 00 00 00 00 00 00 00 00 00 00 	0000000000000000
  0x34a0	00 00 00 00 00 00 00 00 08 50 00 40 01 00 00 00 	000000000P0@0000
  0x34b0	00 00 00 00 00 00 00 00 00 00 00 00 00 00 00 00 	0000000000000000
  0x34c0	00 38 00 40 01 00 00 00 08 38 00 40 01 00 00 00 	080@0000080@0000
  0x34d0	48 38 00 40 01 00 00 00 10 00 00 00 00 00 00 00 	H80@000000000000
  0x34e0	00 75 01 00 00 00 00 00 00 00 00 00 00 00 00 00 	0u00000000000000
  0x34f0	88 38 00 40 01 00 00 00 01 00 00 00 00 00 00 00 	080@000000000000
  0x3500	00 00 00 00 00 00 00 00 00 00 00 00 00 00 00 00 	0000000000000000
  0x3510	00 00 00 00 00 00 00 00 00 00 00 00 00 00 00 00 	0000000000000000
  0x3520	00 00 00 00 00 00 00 00 00 00 00 00 00 00 00 00 	0000000000000000
  0x3530	00 00 00 00 00 00 00 00 00 00 00 00 00 00 00 00 	0000000000000000
  0x3540	00 00 00 00 00 00 00 00 00 00 00 00 00 00 00 00 	0000000000000000
  0x3550	00 00 00 00 00 00 00 00 00 00 00 00 00 00 00 00 	0000000000000000
  0x3560	00 00 00 00 00 00 00 00 e4 44 00 00 00 00 00 00 	000000000D000000
  0x3570	f8 44 00 00 00 00 00 00 08 45 00 00 00 00 00 00 	0D0000000E000000
  0x3580	20 45 00 00 00 00 00 00 32 45 00 00 00 00 00 00 	 E0000002E000000
  0x3590	d0 44 00 00 00 00 00 00 00 00 00 00 00 00 00 00 	0D00000000000000
  0x35a0	4e 45 00 00 00 00 00 00 5a 45 00 00 00 00 00 00 	NE000000ZE000000
  0x35b0	76 45 00 00 00 00 00 00 8c 45 00 00 00 00 00 00 	vE0000000E000000
  0x35c0	9a 45 00 00 00 00 00 00 aa 45 00 00 00 00 00 00 	0E0000000E000000
  0x35d0	b2 45 00 00 00 00 00 00 c2 45 00 00 00 00 00 00 	0E0000000E000000
  0x35e0	ce 45 00 00 00 00 00 00 dc 45 00 00 00 00 00 00 	0E0000000E000000
  0x35f0	ec 45 00 00 00 00 00 00 02 46 00 00 00 00 00 00 	0E0000000F000000
  0x3600	0e 46 00 00 00 00 00 00 20 46 00 00 00 00 00 00 	0F000000 F000000
  0x3610	2c 46 00 00 00 00 00 00 3e 46 00 00 00 00 00 00 	,F000000>F000000
  0x3620	e2 4a 00 00 00 00 00 00 fa 4a 00 00 00 00 00 00 	0J0000000J000000
  0x3630	00 00 00 00 00 00 00 00 7c 48 00 00 00 00 00 00 	00000000|H000000
  0x3640	68 48 00 00 00 00 00 00 50 48 00 00 00 00 00 00 	hH000000PH000000
  0x3650	3e 48 00 00 00 00 00 00 2c 48 00 00 00 00 00 00 	>H000000,H000000
  0x3660	1a 48 00 00 00 00 00 00 08 48 00 00 00 00 00 00 	0H0000000H000000
  0x3670	f0 47 00 00 00 00 00 00 d8 47 00 00 00 00 00 00 	0G0000000G000000
  0x3680	c0 47 00 00 00 00 00 00 a8 47 00 00 00 00 00 00 	0G0000000G000000
  0x3690	8c 47 00 00 00 00 00 00 7a 47 00 00 00 00 00 00 	0G000000zG000000
  0x36a0	5e 47 00 00 00 00 00 00 46 47 00 00 00 00 00 00 	^G000000FG000000
  0x36b0	00 00 00 00 00 00 00 00 84 49 00 00 00 00 00 00 	000000000I000000
  0x36c0	a0 48 00 00 00 00 00 00 00 00 00 00 00 00 00 00 	0H00000000000000
  0x36d0	be 48 00 00 00 00 00 00 00 00 00 00 00 00 00 00 	0H00000000000000
  0x36e0	a0 49 00 00 00 00 00 00 b4 49 00 00 00 00 00 00 	0I0000000I000000
  0x36f0	02 49 00 00 00 00 00 00 ec 48 00 00 00 00 00 00 	0I0000000H000000
  0x3700	8e 48 00 00 00 00 00 00 00 00 00 00 00 00 00 00 	0H00000000000000
  0x3710	d2 48 00 00 00 00 00 00 00 00 00 00 00 00 00 00 	0H00000000000000
  0x3720	70 49 00 00 00 00 00 00 56 49 00 00 00 00 00 00 	pI000000VI000000
  0x3730	42 49 00 00 00 00 00 00 00 00 00 00 00 00 00 00 	BI00000000000000
  0x3740	32 49 00 00 00 00 00 00 18 49 00 00 00 00 00 00 	2I0000000I000000
  0x3750	00 00 00 00 00 00 00 00 fa 46 00 00 00 00 00 00 	000000000F000000
  0x3760	06 47 00 00 00 00 00 00 72 46 00 00 00 00 00 00 	0G000000rF000000
  0x3770	e6 46 00 00 00 00 00 00 d8 46 00 00 00 00 00 00 	0F0000000F000000
  0x3780	8e 46 00 00 00 00 00 00 9c 46 00 00 00 00 00 00 	0F0000000F000000
  0x3790	ac 46 00 00 00 00 00 00 10 47 00 00 00 00 00 00 	0F0000000G000000
  0x37a0	1a 47 00 00 00 00 00 00 32 47 00 00 00 00 00 00 	0G0000002G000000
  0x37b0	1c 4b 00 00 00 00 00 00 be 46 00 00 00 00 00 00 	0K0000000F000000
  0x37c0	ce 46 00 00 00 00 00 00 c6 46 00 00 00 00 00 00 	0F0000000F000000
  0x37d0	12 4b 00 00 00 00 00 00 5a 46 00 00 00 00 00 00 	0K000000ZF000000
  0x37e0	80 46 00 00 00 00 00 00 00 00 00 00 00 00 00 00 	0F00000000000000
  0x37f0	c0 4a 00 00 00 00 00 00 00 00 00 00 00 00 00 00 	0J00000000000000
  0x3800	30 27 00 40 01 00 00 00 10 2b 00 40 01 00 00 00 	0'0@00000+0@0000
  0x3810	00 00 00 00 00 00 00 00 30 21 00 40 01 00 00 00 	000000000!0@0000
  0x3820	00 00 00 00 00 00 00 00 00 00 00 00 00 00 00 00 	0000000000000000
  0x3830	50 20 00 40 01 00 00 00 70 24 00 40 01 00 00 00 	P 0@0000p$0@0000
  0x3840	00 00 00 00 00 00 00 00 30 11 00 00 70 11 00 00 	000000000000p000
  0x3850	50 15 00 00 c0 15 00 00 70 18 00 00 00 20 00 00 	P0000000p0000 00
  0x3860	50 20 00 00 30 21 00 00 80 21 00 00 30 24 00 00 	P 000!000!000$00
  0x3870	70 24 00 00 50 25 00 00 30 27 00 00 80 27 00 00 	p$00P%000'000'00
  0x3880	10 29 00 00 20 29 00 00 28 36 00 00 00 00 00 00 	0)00 )00(6000000
  0x3890	4d 50 52 2e 64 6c 6c 00 00 00 00 00 00 00 00 00 	MPR.dll000000000
  0x38a0	53 00 79 00 73 00 74 00 65 00 6d 00 5c 00 43 00 	S0y0s0t0e0m000C0
  0x38b0	75 00 72 00 72 00 65 00 6e 00 74 00 43 00 6f 00 	u0r0r0e0n0t0C0o0
  0x38c0	6e 00 74 00 72 00 6f 00 6c 00 53 00 65 00 74 00 	n0t0r0o0l0S0e0t0
  0x38d0	5c 00 53 00 65 00 72 00 76 00 69 00 63 00 65 00 	00S0e0r0v0i0c0e0
  0x38e0	73 00 5c 00 00 00 00 00 5c 00 6e 00 65 00 74 00 	s000000000n0e0t0
  0x38f0	77 00 6f 00 72 00 6b 00 70 00 72 00 6f 00 76 00 	w0o0r0k0p0r0o0v0
  0x3900	69 00 64 00 65 00 72 00 00 00 00 00 00 00 00 00 	i0d0e0r000000000
  0x3910	50 00 72 00 6f 00 76 00 69 00 64 00 65 00 72 00 	P0r0o0v0i0d0e0r0
  0x3920	50 00 61 00 74 00 68 00 00 00 00 00 00 00 00 00 	P0a0t0h000000000
  0x3930	4e 50 50 61 73 73 77 6f 72 64 43 68 61 6e 67 65 	NPPasswordChange
  0x3940	4e 6f 74 69 66 79 00 00 57 00 69 00 6e 00 73 00 	Notify00W0i0n0s0
  0x3950	74 00 61 00 30 00 00 00 4d 00 53 00 56 00 31 00 	t0a00000M0S0V010
  0x3960	5f 00 30 00 3a 00 49 00 6e 00 74 00 65 00 72 00 	_000:0I0n0t0e0r0
  0x3970	61 00 63 00 74 00 69 00 76 00 65 00 00 00 00 00 	a0c0t0i0v0e00000
  0x3980	4d 00 69 00 63 00 72 00 6f 00 73 00 6f 00 66 00 	M0i0c0r0o0s0o0f0
  0x3990	74 00 20 00 57 00 69 00 6e 00 64 00 6f 00 77 00 	t0 0W0i0n0d0o0w0
  0x39a0	73 00 20 00 4e 00 65 00 74 00 77 00 6f 00 72 00 	s0 0N0e0t0w0o0r0
  0x39b0	6b 00 00 00 00 00 00 00 6e 00 63 00 61 00 6c 00 	k0000000n0c0a0l0
  0x39c0	72 00 70 00 63 00 00 00 00 00 00 00 00 00 00 00 	r0p0c00000000000
  0x39d0	31 00 66 00 32 00 61 00 30 00 34 00 37 00 62 00 	10f020a0004070b0
  0x39e0	2d 00 39 00 36 00 64 00 38 00 2d 00 34 00 38 00 	-09060d080-04080
  0x39f0	38 00 65 00 2d 00 62 00 63 00 39 00 62 00 2d 00 	80e0-0b0c090b0-0
  0x3a00	31 00 64 00 35 00 65 00 25 00 30 00 38 00 58 00 	10d050e0%00080X0
  0x3a10	00 00 00 00 00 00 00 00 01 01 00 00 00 00 00 05 	0000000000000000
  0x3a20	12 00 00 00 05 00 00 00 01 00 00 00 03 06 00 00 	0000000000000000
  0x3a30	08 00 00 00 00 00 00 00 01 00 00 00 04 11 00 00 	0000000000000000
  0x3a40	03 03 00 00 00 00 00 00 02 07 00 00 00 00 00 00 	0000000000000000
  0x3a50	02 00 00 00 00 00 00 00 00 00 00 00 00 00 00 00 	0000000000000000
  0x3a60	00 00 00 00 11 00 0e 00 1b 00 01 00 19 00 08 00 	0000000000000000
  0x3a70	01 00 01 5b 1a 03 18 00 00 00 08 00 08 08 08 40 	000[00000000000@
  0x3a80	36 5b 12 20 e4 ff 15 03 08 00 08 08 5c 5b 11 04 	6[0 000000000[00
  0x3a90	14 00 1c 01 02 00 17 55 00 00 01 00 17 55 00 00 	0000000U00000U00
  0x3aa0	01 00 06 5b 1a 03 10 00 00 00 06 00 06 42 36 5b 	000[000000000B6[
  0x3ab0	12 20 e0 ff 12 08 25 5c 00 00 00 00 00 00 00 00 	0 0000%000000000
  0x3ac0	00 00 00 48 00 00 00 00 00 00 28 00 32 00 00 00 	000H000000(02000
  0x3ad0	18 00 08 00 47 04 0a 07 01 00 01 00 00 00 00 00 	0000G00000000000
  0x3ae0	0b 01 08 00 12 00 8a 00 10 00 24 00 13 41 18 00 	0000000000$00A00
  0x3af0	42 00 70 00 20 00 08 00 00 48 00 00 00 00 01 00 	B0p0 0000H000000
  0x3b00	30 00 32 00 00 00 10 00 08 00 46 05 0a 05 00 00 	0020000000F00000
  0x3b10	01 00 00 00 00 00 0b 00 08 00 52 00 0b 01 10 00 	0000000000R00000
  0x3b20	12 00 48 00 18 00 08 00 48 00 20 00 08 00 70 00 	00H00000H0 000p0
  0x3b30	28 00 08 00 00 00 00 00 33 05 71 71 ba be 37 49 	(000000030qq007I
  0x3b40	83 19 b5 db ef 9c cc 36 01 00 00 00 64 00 02 00 	000000060000d000
  0x3b50	02 00 00 00 00 00 36 00 30 03 00 00 08 00 00 00 	0000006000000000
  0x3b60	00 00 00 00 00 00 00 00 00 00 00 00 00 00 00 00 	0000000000000000
  0x3b70	00 00 00 00 80 cb f4 70 00 00 00 00 02 00 00 00 	0000000p00000000
  0x3b80	25 00 00 00 c4 3b 00 00 c4 2d 00 00 00 00 00 00 	%0000;000-000000
  0x3b90	80 cb f4 70 00 00 00 00 0d 00 00 00 78 02 00 00 	000p00000000x000
  0x3ba0	ec 3b 00 00 ec 2d 00 00 00 00 00 00 80 cb f4 70 	0;000-000000000p
  0x3bb0	00 00 00 00 10 00 00 00 24 00 00 00 64 3e 00 00 	00000000$000d>00
  0x3bc0	64 30 00 00 52 53 44 53 ac 0d b0 9a 2e 4c 09 b7 	d000RSDS0000.L00
  0x3bd0	48 95 f4 01 56 ca f8 f3 01 00 00 00 6d 70 6e 6f 	H000V0000000mpno
  0x3be0	74 69 66 79 2e 70 64 62 00 00 00 00 47 43 54 4c 	tify.pdb0000GCTL
  0x3bf0	00 10 00 00 00 1b 00 00 2e 74 65 78 74 24 6d 6e 	00000000.text$mn
  0x3c00	00 00 00 00 00 2b 00 00 20 00 00 00 2e 74 65 78 	00000+00 000.tex
  0x3c10	74 24 6d 6e 24 30 30 00 20 2b 00 00 60 02 00 00 	t$mn$000 +00`000
  0x3c20	2e 74 65 78 74 24 78 00 00 30 00 00 68 05 00 00 	.text$x00000h000
  0x3c30	2e 72 64 61 74 61 24 62 72 63 00 00 68 35 00 00 	.rdata$brc00h500
  0x3c40	98 02 00 00 2e 69 64 61 74 61 24 35 00 00 00 00 	0000.idata$50000
  0x3c50	00 38 00 00 10 00 00 00 2e 30 30 63 66 67 00 00 	08000000.00cfg00
  0x3c60	10 38 00 00 08 00 00 00 2e 43 52 54 24 58 43 41 	08000000.CRT$XCA
  0x3c70	00 00 00 00 18 38 00 00 08 00 00 00 2e 43 52 54 	000008000000.CRT
  0x3c80	24 58 43 41 41 00 00 00 20 38 00 00 08 00 00 00 	$XCAA000 8000000
  0x3c90	2e 43 52 54 24 58 43 5a 00 00 00 00 28 38 00 00 	.CRT$XCZ0000(800
  0x3ca0	08 00 00 00 2e 43 52 54 24 58 49 41 00 00 00 00 	0000.CRT$XIA0000
  0x3cb0	30 38 00 00 08 00 00 00 2e 43 52 54 24 58 49 41 	08000000.CRT$XIA
  0x3cc0	41 00 00 00 38 38 00 00 08 00 00 00 2e 43 52 54 	A00088000000.CRT
  0x3cd0	24 58 49 59 00 00 00 00 40 38 00 00 08 00 00 00 	$XIY0000@8000000
  0x3ce0	2e 43 52 54 24 58 49 5a 00 00 00 00 48 38 00 00 	.CRT$XIZ0000H800
  0x3cf0	40 00 00 00 2e 67 66 69 64 73 00 00 88 38 00 00 	@000.gfids000800
  0x3d00	08 00 00 00 2e 67 69 61 74 73 00 00 90 38 00 00 	0000.giats000800
  0x3d10	34 03 00 00 2e 72 64 61 74 61 00 00 c4 3b 00 00 	4000.rdata000;00
  0x3d20	c4 02 00 00 2e 72 64 61 74 61 24 7a 7a 7a 64 62 	0000.rdata$zzzdb
  0x3d30	67 00 00 00 88 3e 00 00 1c 02 00 00 2e 78 64 61 	g0000>000000.xda
  0x3d40	74 61 00 00 a4 40 00 00 20 00 00 00 2e 64 69 64 	ta000@00 000.did
  0x3d50	61 74 24 32 00 00 00 00 c4 40 00 00 24 00 00 00 	at$200000@00$000
  0x3d60	2e 64 69 64 61 74 24 33 00 00 00 00 e8 40 00 00 	.didat$300000@00
  0x3d70	18 00 00 00 2e 64 69 64 61 74 24 34 00 00 00 00 	0000.didat$40000
  0x3d80	00 41 00 00 30 00 00 00 2e 64 69 64 61 74 24 36 	0A000000.didat$6
  0x3d90	00 00 00 00 30 41 00 00 18 00 00 00 2e 64 69 64 	00000A000000.did
  0x3da0	61 74 24 37 00 00 00 00 48 41 00 00 dc 00 00 00 	at$70000HA000000
  0x3db0	2e 69 64 61 74 61 24 32 00 00 00 00 24 42 00 00 	.idata$20000$B00
  0x3dc0	14 00 00 00 2e 69 64 61 74 61 24 33 00 00 00 00 	0000.idata$30000
  0x3dd0	38 42 00 00 98 02 00 00 2e 69 64 61 74 61 24 34 	8B000000.idata$4
  0x3de0	00 00 00 00 d0 44 00 00 56 06 00 00 2e 69 64 61 	00000D00V000.ida
  0x3df0	74 61 24 36 00 00 00 00 00 50 00 00 20 00 00 00 	ta$600000P00 000
  0x3e00	2e 64 61 74 61 00 00 00 20 50 00 00 68 06 00 00 	.data000 P00h000
  0x3e10	2e 62 73 73 00 00 00 00 00 60 00 00 b0 01 00 00 	.bss00000`000000
  0x3e20	2e 70 64 61 74 61 00 00 00 70 00 00 18 00 00 00 	.pdata000p000000
  0x3e30	2e 64 69 64 61 74 24 35 00 00 00 00 00 80 00 00 	.didat$500000000
  0x3e40	a0 00 00 00 2e 72 73 72 63 24 30 31 00 00 00 00 	0000.rsrc$010000
  0x3e50	a0 80 00 00 a8 06 00 00 2e 72 73 72 63 24 30 32 	00000000.rsrc$02
  0x3e60	00 00 00 00 20 00 00 00 ac 0d b0 9a 2e 4c 09 b7 	0000 0000000.L00
  0x3e70	48 95 f4 01 56 ca f8 f3 be 6f a1 29 07 6a 57 df 	H000V0000o0)0jW0
  0x3e80	51 12 bf 68 80 cb f4 70 01 12 05 00 12 42 0e 70 	Q00h000p00000B0p
  0x3e90	0d 60 0c 50 0b 30 00 00 01 06 02 00 06 32 02 30 	0`0P000000000200
  0x3ea0	19 32 0b 00 21 64 75 00 21 34 74 00 21 01 6e 00 	0200!du0!4t0!0n0
  0x3eb0	12 f0 10 e0 0e c0 0c 70 0b 50 00 00 cc 29 00 00 	0000000p0P000)00
  0x3ec0	60 03 00 00 11 08 02 00 08 52 04 30 e0 23 00 00 	`00000000R000#00
  0x3ed0	01 00 00 00 d1 14 00 00 2c 15 00 00 20 2b 00 00 	00000000,000 +00
  0x3ee0	00 00 00 00 01 06 02 00 06 32 02 50 11 07 01 00 	00000000020P0000
  0x3ef0	07 82 00 00 e0 23 00 00 01 00 00 00 5a 15 00 00 	00000#000000Z000
  0x3f00	a8 15 00 00 49 2b 00 00 00 00 00 00 01 06 02 00 	0000I+0000000000
  0x3f10	06 52 02 50 11 1f 0b 00 1f 64 21 00 1f 34 1e 00 	0R0P00000d!00400
  0x3f20	1f 01 18 00 18 f0 16 e0 14 d0 12 c0 10 70 00 00 	0000000000000p00
  0x3f30	e0 23 00 00 01 00 00 00 03 16 00 00 cc 17 00 00 	0#00000000000000
  0x3f40	5f 2b 00 00 00 00 00 00 01 07 03 00 07 a2 03 50 	_+0000000000000P
  0x3f50	02 30 00 00 11 1b 0b 00 1b 64 25 00 1b 34 24 00 	000000000d%004$0
  0x3f60	1b 01 1e 00 14 f0 12 e0 10 d0 0e c0 0c 70 00 00 	0000000000000p00
  0x3f70	e0 23 00 00 01 00 00 00 bb 18 00 00 2f 1b 00 00 	0#0000000000/000
  0x3f80	f2 2b 00 00 00 00 00 00 01 07 03 00 07 82 03 70 	0+0000000000000p
  0x3f90	02 50 00 00 19 1f 05 00 0d 34 1a 00 0d 01 18 00 	0P00000004000000
  0x3fa0	06 60 00 00 54 2a 00 00 01 00 00 00 ff 1b 00 00 	0`00T*0000000000
  0x3fb0	7b 1d 00 00 96 2c 00 00 00 00 00 00 b2 00 00 00 	{0000,0000000000
  0x3fc0	01 16 0a 00 16 34 0e 00 16 52 12 f0 10 e0 0e d0 	000004000R000000
  0x3fd0	0c c0 0a 70 09 60 08 50 01 04 01 00 04 62 00 00 	000p0`0P00000b00
  0x3fe0	01 04 01 00 04 42 00 00 09 13 07 00 13 74 19 00 	00000B0000000t00
  0x3ff0	13 34 18 00 13 01 16 00 0c e0 00 00 e0 23 00 00 	0400000000000#00
  0x4000	01 00 00 00 bc 21 00 00 97 23 00 00 30 2d 00 00 	00000!000#000-00
  0x4010	97 23 00 00 00 00 00 00 01 00 00 00 09 04 01 00 	0#00000000000000
  0x4020	04 22 00 00 e0 23 00 00 01 00 00 00 ac 24 00 00 	0"000#0000000$00
  0x4030	e2 24 00 00 01 00 00 00 e2 24 00 00 09 0a 04 00 	0$0000000$000000
  0x4040	0a 34 06 00 0a 32 06 70 e0 23 00 00 01 00 00 00 	0400020p0#000000
  0x4050	bd 25 00 00 f0 25 00 00 60 2d 00 00 f0 25 00 00 	0%000%00`-000%00
  0x4060	01 0d 04 00 0d 34 09 00 0d 32 06 50 01 0c 02 00 	00000400020P0000
  0x4070	0c 01 11 00 00 00 00 00 01 00 00 00 01 18 01 00 	0000000000000000
  0x4080	18 c2 00 00 01 02 01 00 02 30 00 00 01 19 0a 00 	0000000000000000
  0x4090	19 74 09 00 19 64 08 00 19 54 07 00 19 34 06 00 	0t000d000T000400
  0x40a0	19 32 15 e0 01 00 00 00 90 38 00 00 d0 55 00 00 	0200000008000U00
  0x40b0	00 70 00 00 e8 40 00 00 30 41 00 00 00 00 00 00 	0p000@000A000000
  0x40c0	00 00 00 00 00 00 00 00 00 00 00 00 00 00 00 00 	0000000000000000
  0x40d0	00 00 00 00 00 00 00 00 00 00 00 00 00 00 00 00 	0000000000000000
  0x40e0	00 00 00 00 00 00 00 00 12 41 00 00 00 00 00 00 	000000000A000000
  0x40f0	00 41 00 00 00 00 00 00 00 00 00 00 00 00 00 00 	0A00000000000000
  0x4100	3d 00 57 4e 65 74 4c 6f 67 6f 6e 4e 6f 74 69 66 	=0WNetLogonNotif
  0x4110	79 00 40 00 57 4e 65 74 50 61 73 73 77 6f 72 64 	y0@0WNetPassword
  0x4120	43 68 61 6e 67 65 4e 6f 74 69 66 79 00 00 00 00 	ChangeNotify0000
  0x4130	00 00 00 00 00 00 00 00 00 00 00 00 00 00 00 00 	0000000000000000
  0x4140	00 00 00 00 00 00 00 00 38 42 00 00 00 00 00 00 	000000008B000000
  0x4150	00 00 00 00 40 45 00 00 68 35 00 00 70 42 00 00 	0000@E00h500pB00
  0x4160	00 00 00 00 00 00 00 00 4c 46 00 00 a0 35 00 00 	00000000LF000500
  0x4170	28 44 00 00 00 00 00 00 00 00 00 00 26 47 00 00 	(D0000000000&G00
  0x4180	58 37 00 00 08 43 00 00 00 00 00 00 00 00 00 00 	X7000C0000000000
  0x4190	c8 49 00 00 38 36 00 00 b0 43 00 00 00 00 00 00 	0I0086000C000000
  0x41a0	00 00 00 00 d4 49 00 00 e0 36 00 00 88 43 00 00 	00000I0006000C00
  0x41b0	00 00 00 00 00 00 00 00 fe 49 00 00 b8 36 00 00 	000000000I000600
  0x41c0	a0 43 00 00 00 00 00 00 00 00 00 00 28 4a 00 00 	0C0000000000(J00
  0x41d0	d0 36 00 00 e0 43 00 00 00 00 00 00 00 00 00 00 	06000C0000000000
  0x41e0	52 4a 00 00 10 37 00 00 10 44 00 00 00 00 00 00 	RJ0007000D000000
  0x41f0	00 00 00 00 76 4a 00 00 40 37 00 00 f0 43 00 00 	0000vJ00@7000C00
  0x4200	00 00 00 00 00 00 00 00 9a 4a 00 00 20 37 00 00 	000000000J00 700
  0x4210	c0 44 00 00 00 00 00 00 00 00 00 00 d8 4a 00 00 	0D00000000000J00
  0x4220	f0 37 00 00 00 00 00 00 00 00 00 00 00 00 00 00 	0700000000000000
  0x4230	00 00 00 00 00 00 00 00 e4 44 00 00 00 00 00 00 	000000000D000000
  0x4240	f8 44 00 00 00 00 00 00 08 45 00 00 00 00 00 00 	0D0000000E000000
  0x4250	20 45 00 00 00 00 00 00 32 45 00 00 00 00 00 00 	 E0000002E000000
  0x4260	d0 44 00 00 00 00 00 00 00 00 00 00 00 00 00 00 	0D00000000000000
  0x4270	4e 45 00 00 00 00 00 00 5a 45 00 00 00 00 00 00 	NE000000ZE000000
  0x4280	76 45 00 00 00 00 00 00 8c 45 00 00 00 00 00 00 	vE0000000E000000
  0x4290	9a 45 00 00 00 00 00 00 aa 45 00 00 00 00 00 00 	0E0000000E000000
  0x42a0	b2 45 00 00 00 00 00 00 c2 45 00 00 00 00 00 00 	0E0000000E000000
  0x42b0	ce 45 00 00 00 00 00 00 dc 45 00 00 00 00 00 00 	0E0000000E000000
  0x42c0	ec 45 00 00 00 00 00 00 02 46 00 00 00 00 00 00 	0E0000000F000000
  0x42d0	0e 46 00 00 00 00 00 00 20 46 00 00 00 00 00 00 	0F000000 F000000
  0x42e0	2c 46 00 00 00 00 00 00 3e 46 00 00 00 00 00 00 	,F000000>F000000
  0x42f0	e2 4a 00 00 00 00 00 00 fa 4a 00 00 00 00 00 00 	0J0000000J000000
  0x4300	00 00 00 00 00 00 00 00 7c 48 00 00 00 00 00 00 	00000000|H000000
  0x4310	68 48 00 00 00 00 00 00 50 48 00 00 00 00 00 00 	hH000000PH000000
  0x4320	3e 48 00 00 00 00 00 00 2c 48 00 00 00 00 00 00 	>H000000,H000000
  0x4330	1a 48 00 00 00 00 00 00 08 48 00 00 00 00 00 00 	0H0000000H000000
  0x4340	f0 47 00 00 00 00 00 00 d8 47 00 00 00 00 00 00 	0G0000000G000000
  0x4350	c0 47 00 00 00 00 00 00 a8 47 00 00 00 00 00 00 	0G0000000G000000
  0x4360	8c 47 00 00 00 00 00 00 7a 47 00 00 00 00 00 00 	0G000000zG000000
  0x4370	5e 47 00 00 00 00 00 00 46 47 00 00 00 00 00 00 	^G000000FG000000
  0x4380	00 00 00 00 00 00 00 00 84 49 00 00 00 00 00 00 	000000000I000000
  0x4390	a0 48 00 00 00 00 00 00 00 00 00 00 00 00 00 00 	0H00000000000000
  0x43a0	be 48 00 00 00 00 00 00 00 00 00 00 00 00 00 00 	0H00000000000000
  0x43b0	a0 49 00 00 00 00 00 00 b4 49 00 00 00 00 00 00 	0I0000000I000000
  0x43c0	02 49 00 00 00 00 00 00 ec 48 00 00 00 00 00 00 	0I0000000H000000
  0x43d0	8e 48 00 00 00 00 00 00 00 00 00 00 00 00 00 00 	0H00000000000000
  0x43e0	d2 48 00 00 00 00 00 00 00 00 00 00 00 00 00 00 	0H00000000000000
  0x43f0	70 49 00 00 00 00 00 00 56 49 00 00 00 00 00 00 	pI000000VI000000
  0x4400	42 49 00 00 00 00 00 00 00 00 00 00 00 00 00 00 	BI00000000000000
  0x4410	32 49 00 00 00 00 00 00 18 49 00 00 00 00 00 00 	2I0000000I000000
  0x4420	00 00 00 00 00 00 00 00 fa 46 00 00 00 00 00 00 	000000000F000000
  0x4430	06 47 00 00 00 00 00 00 72 46 00 00 00 00 00 00 	0G000000rF000000
  0x4440	e6 46 00 00 00 00 00 00 d8 46 00 00 00 00 00 00 	0F0000000F000000
  0x4450	8e 46 00 00 00 00 00 00 9c 46 00 00 00 00 00 00 	0F0000000F000000
  0x4460	ac 46 00 00 00 00 00 00 10 47 00 00 00 00 00 00 	0F0000000G000000
  0x4470	1a 47 00 00 00 00 00 00 32 47 00 00 00 00 00 00 	0G0000002G000000
  0x4480	1c 4b 00 00 00 00 00 00 be 46 00 00 00 00 00 00 	0K0000000F000000
  0x4490	ce 46 00 00 00 00 00 00 c6 46 00 00 00 00 00 00 	0F0000000F000000
  0x44a0	12 4b 00 00 00 00 00 00 5a 46 00 00 00 00 00 00 	0K000000ZF000000
  0x44b0	80 46 00 00 00 00 00 00 00 00 00 00 00 00 00 00 	0F00000000000000
  0x44c0	c0 4a 00 00 00 00 00 00 00 00 00 00 00 00 00 00 	0J00000000000000
  0x44d0	99 02 52 65 67 51 75 65 72 79 56 61 6c 75 65 45 	00RegQueryValueE
  0x44e0	78 57 00 00 a3 00 43 72 65 64 49 73 50 72 6f 74 	xW0000CredIsProt
  0x44f0	65 63 74 65 64 57 00 00 8c 02 52 65 67 4f 70 65 	ectedW0000RegOpe
  0x4500	6e 4b 65 79 45 78 57 00 5f 00 43 68 65 63 6b 54 	nKeyExW0_0CheckT
  0x4510	6f 6b 65 6e 4d 65 6d 62 65 72 73 68 69 70 00 00 	okenMembership00
  0x4520	b6 00 43 72 65 64 55 6e 70 72 6f 74 65 63 74 57 	00CredUnprotectW
  0x4530	00 00 5b 02 52 65 67 43 6c 6f 73 65 4b 65 79 00 	00[0RegCloseKey0
  0x4540	41 44 56 41 50 49 33 32 2e 64 6c 6c 00 00 54 03 	ADVAPI32.dll00T0
  0x4550	48 65 61 70 46 72 65 65 00 00 6a 01 45 78 70 61 	HeapFree00j0Expa
  0x4560	6e 64 45 6e 76 69 72 6f 6e 6d 65 6e 74 53 74 72 	ndEnvironmentStr
  0x4570	69 6e 67 73 57 00 e8 05 57 61 69 74 46 6f 72 53 	ingsW000WaitForS
  0x4580	69 6e 67 6c 65 4f 62 6a 65 63 74 00 d0 03 4c 6f 	ingleObject000Lo
  0x4590	63 61 6c 41 6c 6c 6f 63 00 00 c1 00 43 72 65 61 	calAlloc0000Crea
  0x45a0	74 65 45 76 65 6e 74 57 00 00 8d 05 53 6c 65 65 	teEventW0000Slee
  0x45b0	70 00 69 02 47 65 74 4c 61 73 74 45 72 72 6f 72 	p0i0GetLastError
  0x45c0	00 00 25 05 53 65 74 45 76 65 6e 74 00 00 88 00 	00%0SetEvent0000
  0x45d0	43 6c 6f 73 65 48 61 6e 64 6c 65 00 ca 03 4c 6f 	CloseHandle000Lo
  0x45e0	61 64 4c 69 62 72 61 72 79 57 00 00 58 03 48 65 	adLibraryW00X0He
  0x45f0	61 70 53 65 74 49 6e 66 6f 72 6d 61 74 69 6f 6e 	apSetInformation
  0x4600	00 00 50 03 48 65 61 70 41 6c 6c 6f 63 00 b7 02 	00P0HeapAlloc000
  0x4610	47 65 74 50 72 6f 63 41 64 64 72 65 73 73 00 00 	GetProcAddress00
  0x4620	d5 03 4c 6f 63 61 6c 46 72 65 65 00 bd 02 47 65 	00LocalFree000Ge
  0x4630	74 50 72 6f 63 65 73 73 48 65 61 70 00 00 b3 01 	tProcessHeap0000
  0x4640	46 72 65 65 4c 69 62 72 61 72 79 00 4b 45 52 4e 	FreeLibrary0KERN
  0x4650	45 4c 33 32 2e 64 6c 6c 00 00 57 00 5f 5f 43 5f 	EL32.dll00W0__C_
  0x4660	73 70 65 63 69 66 69 63 5f 68 61 6e 64 6c 65 72 	specific_handler
  0x4670	00 00 69 03 5f 76 73 6e 77 70 72 69 6e 74 66 00 	00i0_vsnwprintf0
  0x4680	55 00 5f 58 63 70 74 46 69 6c 74 65 72 00 ae 00 	U0_XcptFilter000
  0x4690	5f 61 6d 73 67 5f 65 78 69 74 00 00 7f 00 5f 5f 	_amsg_exit0000__
  0x46a0	67 65 74 6d 61 69 6e 61 72 67 73 00 8e 00 5f 5f 	getmainargs000__
  0x46b0	73 65 74 5f 61 70 70 5f 74 79 70 65 00 00 32 04 	set_app_type0020
  0x46c0	65 78 69 74 00 00 0e 01 5f 65 78 69 74 00 c1 00 	exit0000_exit000
  0x46d0	5f 63 65 78 69 74 00 00 99 01 5f 69 73 6d 62 62 	_cexit0000_ismbb
  0x46e0	6c 65 61 64 00 00 90 00 5f 5f 73 65 74 75 73 65 	lead0000__setuse
  0x46f0	72 6d 61 74 68 65 72 72 00 00 7d 01 5f 69 6e 69 	rmatherr00}0_ini
  0x4700	74 74 65 72 6d 00 a2 00 5f 61 63 6d 64 6c 6e 00 	tterm000_acmdln0
  0x4710	27 01 5f 66 6d 6f 64 65 00 00 d2 00 5f 63 6f 6d 	'0_fmode0000_com
  0x4720	6d 6f 64 65 00 00 6d 73 76 63 72 74 2e 64 6c 6c 	mode00msvcrt.dll
  0x4730	00 00 2f 00 3f 74 65 72 6d 69 6e 61 74 65 40 40 	00/0?terminate@@
  0x4740	59 41 58 58 5a 00 8c 01 52 70 63 42 69 6e 64 69 	YAXXZ000RpcBindi
  0x4750	6e 67 56 65 63 74 6f 72 46 72 65 65 00 00 7a 01 	ngVectorFree00z0
  0x4760	52 70 63 42 69 6e 64 69 6e 67 49 6e 71 41 75 74 	RpcBindingInqAut
  0x4770	68 43 6c 69 65 6e 74 57 00 00 22 02 55 75 69 64 	hClientW00"0Uuid
  0x4780	46 72 6f 6d 53 74 72 69 6e 67 57 00 25 00 49 5f 	FromStringW0%0I_
  0x4790	52 70 63 42 69 6e 64 69 6e 67 49 73 43 6c 69 65 	RpcBindingIsClie
  0x47a0	6e 74 4c 6f 63 61 6c 00 f6 01 52 70 63 53 65 72 	ntLocal000RpcSer
  0x47b0	76 65 72 55 73 65 50 72 6f 74 73 65 71 57 00 00 	verUseProtseqW00
  0x47c0	e4 01 52 70 63 53 65 72 76 65 72 55 6e 72 65 67 	00RpcServerUnreg
  0x47d0	69 73 74 65 72 49 66 00 e1 01 52 70 63 53 65 72 	isterIf000RpcSer
  0x47e0	76 65 72 52 65 67 69 73 74 65 72 49 66 45 78 00 	verRegisterIfEx0
  0x47f0	a6 01 52 70 63 49 6d 70 65 72 73 6f 6e 61 74 65 	00RpcImpersonate
  0x4800	43 6c 69 65 6e 74 00 00 ca 01 52 70 63 52 65 76 	Client0000RpcRev
  0x4810	65 72 74 54 6f 53 65 6c 66 00 db 01 52 70 63 53 	ertToSelf000RpcS
  0x4820	65 72 76 65 72 4c 69 73 74 65 6e 00 97 01 52 70 	erverListen000Rp
  0x4830	63 45 70 55 6e 72 65 67 69 73 74 65 72 00 95 01 	cEpUnregister000
  0x4840	52 70 63 45 70 52 65 67 69 73 74 65 72 57 00 00 	RpcEpRegisterW00
  0x4850	ce 01 52 70 63 53 65 72 76 65 72 49 6e 71 42 69 	00RpcServerInqBi
  0x4860	6e 64 69 6e 67 73 00 00 32 01 4e 64 72 53 65 72 	ndings0020NdrSer
  0x4870	76 65 72 43 61 6c 6c 41 6c 6c 00 00 31 01 4e 64 	verCallAll0010Nd
  0x4880	72 53 65 72 76 65 72 43 61 6c 6c 32 00 00 20 00 	rServerCall200 0
  0x4890	47 65 74 53 74 61 72 74 75 70 49 6e 66 6f 57 00 	GetStartupInfoW0
  0x48a0	0f 00 53 65 74 55 6e 68 61 6e 64 6c 65 64 45 78 	00SetUnhandledEx
  0x48b0	63 65 70 74 69 6f 6e 46 69 6c 74 65 72 00 14 00 	ceptionFilter000
  0x48c0	47 65 74 4d 6f 64 75 6c 65 48 61 6e 64 6c 65 57 	GetModuleHandleW
  0x48d0	00 00 00 00 51 75 65 72 79 50 65 72 66 6f 72 6d 	0000QueryPerform
  0x48e0	61 6e 63 65 43 6f 75 6e 74 65 72 00 0d 00 47 65 	anceCounter000Ge
  0x48f0	74 43 75 72 72 65 6e 74 50 72 6f 63 65 73 73 49 	tCurrentProcessI
  0x4900	64 00 11 00 47 65 74 43 75 72 72 65 6e 74 54 68 	d000GetCurrentTh
  0x4910	72 65 61 64 49 64 00 00 16 00 47 65 74 53 79 73 	readId0000GetSys
  0x4920	74 65 6d 54 69 6d 65 41 73 46 69 6c 65 54 69 6d 	temTimeAsFileTim
  0x4930	65 00 1a 00 47 65 74 54 69 63 6b 43 6f 75 6e 74 	e000GetTickCount
  0x4940	00 00 02 00 52 74 6c 43 61 70 74 75 72 65 43 6f 	0000RtlCaptureCo
  0x4950	6e 74 65 78 74 00 0a 00 52 74 6c 4c 6f 6f 6b 75 	ntext000RtlLooku
  0x4960	70 46 75 6e 63 74 69 6f 6e 45 6e 74 72 79 00 00 	pFunctionEntry00
  0x4970	10 00 52 74 6c 56 69 72 74 75 61 6c 55 6e 77 69 	00RtlVirtualUnwi
  0x4980	6e 64 00 00 11 00 55 6e 68 61 6e 64 6c 65 64 45 	nd0000UnhandledE
  0x4990	78 63 65 70 74 69 6f 6e 46 69 6c 74 65 72 00 00 	xceptionFilter00
  0x49a0	0c 00 47 65 74 43 75 72 72 65 6e 74 50 72 6f 63 	00GetCurrentProc
  0x49b0	65 73 73 00 4e 00 54 65 72 6d 69 6e 61 74 65 50 	ess0N0TerminateP
  0x49c0	72 6f 63 65 73 73 00 00 52 50 43 52 54 34 2e 64 	rocess00RPCRT4.d
  0x49d0	6c 6c 00 00 61 70 69 2d 6d 73 2d 77 69 6e 2d 63 	ll00api-ms-win-c
  0x49e0	6f 72 65 2d 70 72 6f 63 65 73 73 74 68 72 65 61 	ore-processthrea
  0x49f0	64 73 2d 6c 31 2d 31 2d 30 2e 64 6c 6c 00 61 70 	ds-l1-1-0.dll0ap
  0x4a00	69 2d 6d 73 2d 77 69 6e 2d 63 6f 72 65 2d 65 72 	i-ms-win-core-er
  0x4a10	72 6f 72 68 61 6e 64 6c 69 6e 67 2d 6c 31 2d 31 	rorhandling-l1-1
  0x4a20	2d 30 2e 64 6c 6c 00 00 61 70 69 2d 6d 73 2d 77 	-0.dll00api-ms-w
  0x4a30	69 6e 2d 63 6f 72 65 2d 6c 69 62 72 61 72 79 6c 	in-core-libraryl
  0x4a40	6f 61 64 65 72 2d 6c 31 2d 32 2d 30 2e 64 6c 6c 	oader-l1-2-0.dll
  0x4a50	00 00 61 70 69 2d 6d 73 2d 77 69 6e 2d 63 6f 72 	00api-ms-win-cor
  0x4a60	65 2d 70 72 6f 66 69 6c 65 2d 6c 31 2d 31 2d 30 	e-profile-l1-1-0
  0x4a70	2e 64 6c 6c 00 00 61 70 69 2d 6d 73 2d 77 69 6e 	.dll00api-ms-win
  0x4a80	2d 63 6f 72 65 2d 73 79 73 69 6e 66 6f 2d 6c 31 	-core-sysinfo-l1
  0x4a90	2d 31 2d 30 2e 64 6c 6c 00 00 61 70 69 2d 6d 73 	-1-0.dll00api-ms
  0x4aa0	2d 77 69 6e 2d 63 6f 72 65 2d 72 74 6c 73 75 70 	-win-core-rtlsup
  0x4ab0	70 6f 72 74 2d 6c 31 2d 31 2d 30 2e 64 6c 6c 00 	port-l1-1-0.dll0
  0x4ac0	fd 04 52 74 6c 4e 74 53 74 61 74 75 73 54 6f 44 	00RtlNtStatusToD
  0x4ad0	6f 73 45 72 72 6f 72 00 6e 74 64 6c 6c 2e 64 6c 	osError0ntdll.dl
  0x4ae0	6c 00 ce 04 52 65 73 6f 6c 76 65 44 65 6c 61 79 	l000ResolveDelay
  0x4af0	4c 6f 61 64 65 64 41 50 49 00 10 01 44 65 6c 61 	LoadedAPI000Dela
  0x4b00	79 4c 6f 61 64 46 61 69 6c 75 72 65 48 6f 6f 6b 	yLoadFailureHook
  0x4b10	00 00 92 04 6d 65 6d 63 70 79 00 00 96 04 6d 65 	0000memcpy0000me
  0x4b20	6d 73 65 74 00 00 00 00 00 00 00 00 00 00 00 00 	mset000000000000
  0x4b30	00 00 00 00 00 00 00 00 00 00 00 00 00 00 00 00 	0000000000000000
  0x4b40	00 00 00 00 00 00 00 00 00 00 00 00 00 00 00 00 	0000000000000000
  0x4b50	00 00 00 00 00 00 00 00 00 00 00 00 00 00 00 00 	0000000000000000
  0x4b60	00 00 00 00 00 00 00 00 00 00 00 00 00 00 00 00 	0000000000000000
  0x4b70	00 00 00 00 00 00 00 00 00 00 00 00 00 00 00 00 	0000000000000000
  0x4b80	00 00 00 00 00 00 00 00 00 00 00 00 00 00 00 00 	0000000000000000
  0x4b90	00 00 00 00 00 00 00 00 00 00 00 00 00 00 00 00 	0000000000000000
  0x4ba0	00 00 00 00 00 00 00 00 00 00 00 00 00 00 00 00 	0000000000000000
  0x4bb0	00 00 00 00 00 00 00 00 00 00 00 00 00 00 00 00 	0000000000000000
  0x4bc0	00 00 00 00 00 00 00 00 00 00 00 00 00 00 00 00 	0000000000000000
  0x4bd0	00 00 00 00 00 00 00 00 00 00 00 00 00 00 00 00 	0000000000000000
  0x4be0	00 00 00 00 00 00 00 00 00 00 00 00 00 00 00 00 	0000000000000000
  0x4bf0	00 00 00 00 00 00 00 00 00 00 00 00 00 00 00 00 	0000000000000000
=== DATA BLOCK END ===

=== DATA BLOCK ADDRESS 0x5000 ===
  0x5000	01 00 00 00 00 00 00 00 32 a2 df 2d 99 2b 00 00 	00000000200-0+00
  0x5010	cd 5d 20 d2 66 d4 ff ff 00 00 00 00 00 00 00 00 	0] 0f00000000000
  0x5020	00 00 00 00 00 00 00 00 00 00 00 00 00 00 00 00 	0000000000000000
  0x5030	00 00 00 00 00 00 00 00 00 00 00 00 00 00 00 00 	0000000000000000
  0x5040	00 00 00 00 00 00 00 00 00 00 00 00 00 00 00 00 	0000000000000000
  0x5050	00 00 00 00 00 00 00 00 00 00 00 00 00 00 00 00 	0000000000000000
  0x5060	00 00 00 00 00 00 00 00 00 00 00 00 00 00 00 00 	0000000000000000
  0x5070	00 00 00 00 00 00 00 00 00 00 00 00 00 00 00 00 	0000000000000000
  0x5080	00 00 00 00 00 00 00 00 00 00 00 00 00 00 00 00 	0000000000000000
  0x5090	00 00 00 00 00 00 00 00 00 00 00 00 00 00 00 00 	0000000000000000
  0x50a0	00 00 00 00 00 00 00 00 00 00 00 00 00 00 00 00 	0000000000000000
  0x50b0	00 00 00 00 00 00 00 00 00 00 00 00 00 00 00 00 	0000000000000000
  0x50c0	00 00 00 00 00 00 00 00 00 00 00 00 00 00 00 00 	0000000000000000
  0x50d0	00 00 00 00 00 00 00 00 00 00 00 00 00 00 00 00 	0000000000000000
  0x50e0	00 00 00 00 00 00 00 00 00 00 00 00 00 00 00 00 	0000000000000000
  0x50f0	00 00 00 00 00 00 00 00 00 00 00 00 00 00 00 00 	0000000000000000
  0x5100	00 00 00 00 00 00 00 00 00 00 00 00 00 00 00 00 	0000000000000000
  0x5110	00 00 00 00 00 00 00 00 00 00 00 00 00 00 00 00 	0000000000000000
  0x5120	00 00 00 00 00 00 00 00 00 00 00 00 00 00 00 00 	0000000000000000
  0x5130	00 00 00 00 00 00 00 00 00 00 00 00 00 00 00 00 	0000000000000000
  0x5140	00 00 00 00 00 00 00 00 00 00 00 00 00 00 00 00 	0000000000000000
  0x5150	00 00 00 00 00 00 00 00 00 00 00 00 00 00 00 00 	0000000000000000
  0x5160	00 00 00 00 00 00 00 00 00 00 00 00 00 00 00 00 	0000000000000000
  0x5170	00 00 00 00 00 00 00 00 00 00 00 00 00 00 00 00 	0000000000000000
  0x5180	00 00 00 00 00 00 00 00 00 00 00 00 00 00 00 00 	0000000000000000
  0x5190	00 00 00 00 00 00 00 00 00 00 00 00 00 00 00 00 	0000000000000000
  0x51a0	00 00 00 00 00 00 00 00 00 00 00 00 00 00 00 00 	0000000000000000
  0x51b0	00 00 00 00 00 00 00 00 00 00 00 00 00 00 00 00 	0000000000000000
  0x51c0	00 00 00 00 00 00 00 00 00 00 00 00 00 00 00 00 	0000000000000000
  0x51d0	00 00 00 00 00 00 00 00 00 00 00 00 00 00 00 00 	0000000000000000
  0x51e0	00 00 00 00 00 00 00 00 00 00 00 00 00 00 00 00 	0000000000000000
  0x51f0	00 00 00 00 00 00 00 00 00 00 00 00 00 00 00 00 	0000000000000000
=== DATA BLOCK END ===

=== DATA BLOCK ADDRESS 0x6000 ===
  0x6000	a8 10 00 00 26 11 00 00 88 3e 00 00 30 11 00 00 	0000&0000>000000
  0x6010	5e 11 00 00 98 3e 00 00 70 11 00 00 9e 11 00 00 	^0000>00p0000000
  0x6020	98 3e 00 00 a4 11 00 00 b5 14 00 00 a0 3e 00 00 	0>00000000000>00
  0x6030	bc 14 00 00 47 15 00 00 c4 3e 00 00 50 15 00 00 	0000G0000>00P000
  0x6040	ae 15 00 00 ec 3e 00 00 c0 15 00 00 5c 18 00 00 	00000>0000000000
  0x6050	14 3f 00 00 70 18 00 00 c9 1b 00 00 54 3f 00 00 	0?00p0000000T?00
  0x6060	d0 1b 00 00 2a 1e 00 00 94 3f 00 00 30 1e 00 00 	0000*0000?000000
  0x6070	eb 1f 00 00 c0 3f 00 00 00 20 00 00 3d 20 00 00 	00000?000 00= 00
  0x6080	d8 3f 00 00 50 20 00 00 23 21 00 00 e0 3f 00 00 	0?00P 00#!000?00
  0x6090	30 21 00 00 79 21 00 00 d8 3f 00 00 80 21 00 00 	0!00y!000?000!00
  0x60a0	92 21 00 00 e0 3f 00 00 98 21 00 00 da 23 00 00 	0!000?000!000#00
  0x60b0	e8 3f 00 00 00 24 00 00 1e 24 00 00 18 40 00 00 	0?000$000$000@00
  0x60c0	30 24 00 00 69 24 00 00 e0 3f 00 00 70 24 00 00 	0$00i$000?00p$00
  0x60d0	88 24 00 00 e0 3f 00 00 9c 24 00 00 f0 24 00 00 	0$000?000$000$00
  0x60e0	1c 40 00 00 f8 24 00 00 3d 25 00 00 98 3e 00 00 	0@000$00=%000>00
  0x60f0	b0 25 00 00 fd 25 00 00 3c 40 00 00 44 26 00 00 	0%000%00<@00D&00
  0x6100	18 27 00 00 60 40 00 00 3c 27 00 00 70 27 00 00 	0'00`@00<'00p'00
  0x6110	98 3e 00 00 80 27 00 00 f1 28 00 00 6c 40 00 00 	0>000'000(00l@00
  0x6120	38 29 00 00 af 29 00 00 7c 40 00 00 cc 29 00 00 	8)000)00|@000)00
  0x6130	e9 29 00 00 e0 3f 00 00 f0 29 00 00 4b 2a 00 00 	0)000?000)00K*00
  0x6140	84 40 00 00 54 2a 00 00 da 2a 00 00 8c 40 00 00 	0@00T*000*000@00
  0x6150	10 2b 00 00 12 2b 00 00 78 40 00 00 20 2b 00 00 	0+000+00x@00 +00
  0x6160	43 2b 00 00 e4 3e 00 00 49 2b 00 00 59 2b 00 00 	C+000>00I+00Y+00
  0x6170	0c 3f 00 00 5f 2b 00 00 ec 2b 00 00 48 3f 00 00 	0?00_+000+00H?00
  0x6180	f2 2b 00 00 90 2c 00 00 88 3f 00 00 96 2c 00 00 	0+000,000?000,00
  0x6190	2a 2d 00 00 0c 3f 00 00 30 2d 00 00 4e 2d 00 00 	*-000?000-00N-00
  0x61a0	e4 3e 00 00 60 2d 00 00 80 2d 00 00 e4 3e 00 00 	0>00`-000-000>00
  0x61b0	00 00 00 00 00 00 00 00 00 00 00 00 00 00 00 00 	0000000000000000
  0x61c0	00 00 00 00 00 00 00 00 00 00 00 00 00 00 00 00 	0000000000000000
  0x61d0	00 00 00 00 00 00 00 00 00 00 00 00 00 00 00 00 	0000000000000000
  0x61e0	00 00 00 00 00 00 00 00 00 00 00 00 00 00 00 00 	0000000000000000
  0x61f0	00 00 00 00 00 00 00 00 00 00 00 00 00 00 00 00 	0000000000000000
=== DATA BLOCK END ===
