===== Assembly blocks =====

=== CODE BLOCK ADDRESS 0x1000 ===
  0x1000	int3   	
  0x1001	int3   	
  0x1002	int3   	
  0x1003	int3   	
  0x1004	int3   	
  === BLOCK LINK ===
    0x1005
=== CODE BLOCK END ===

=== CODE BLOCK ADDRESS 0x1005 ===
  0x1005	int3   	
  0x1006	int3   	
  0x1007	int3   	
  0x1008	int3   	
  0x1009	int3   	
  === BLOCK LINK ===
    0x100a
=== CODE BLOCK END ===

=== CODE BLOCK ADDRESS 0x100a ===
  0x100a	int3   	
  0x100b	int3   	
  0x100c	int3   	
  0x100d	int3   	
  0x100e	int3   	
  === BLOCK LINK ===
    0x100f
=== CODE BLOCK END ===

=== CODE BLOCK ADDRESS 0x100f ===
  0x100f	int3   	
  0x1010	inc    	eax
  0x1011	push   	ebx
  0x1012	dec    	eax
  0x1013	sub    	esp, 0x70
  === BLOCK LINK ===
    0x1016
=== CODE BLOCK END ===

=== CODE BLOCK ADDRESS 0x1016 ===
  0x1016	dec    	ecx
  0x1017	mov    	ebx, eax
  0x1019	dec    	eax
  0x101a	call   	dword ptr [0x2170]
  === BLOCK LINK ===
    0x1020
=== CODE BLOCK END ===

=== CODE BLOCK ADDRESS 0x1020 ===
  0x1020	nop    	dword ptr [eax + eax]
  0x1025	dec    	eax
  0x1026	mov    	ecx, eax
  0x1028	mov    	edx, 0x80
  0x102d	dec    	eax
  === BLOCK LINK ===
    0x102e
=== CODE BLOCK END ===

=== CODE BLOCK ADDRESS 0x102e ===
  0x102e	call   	dword ptr [0x217c]
  === BLOCK LINK ===
    0x1034
=== CODE BLOCK END ===

=== CODE BLOCK ADDRESS 0x1034 ===
  0x1034	nop    	dword ptr [eax + eax]
  0x1039	mov    	edx, 6
  0x103e	xor    	ecx, ecx
  0x1040	dec    	eax
  0x1041	call   	dword ptr [0x20e1]
  === BLOCK LINK ===
    0x1047
=== CODE BLOCK END ===

=== CODE BLOCK ADDRESS 0x1047 ===
  0x1047	nop    	dword ptr [eax + eax]
  0x104c	test   	eax, eax
  0x104e	js     	0x1ff0
  === BLOCK LINK ===
    0x1054
    0x1ff0
=== CODE BLOCK END ===

=== CODE BLOCK ADDRESS 0x1054 ===
  0x1054	dec    	eax
  0x1055	mov    	dword ptr [esp + 0x80], ebp
  0x105c	xor    	ebp, ebp
  0x105e	dec    	eax
  0x105f	mov    	dword ptr [esp + 0x88], esi
  === BLOCK LINK ===
    0x1066
=== CODE BLOCK END ===

=== CODE BLOCK ADDRESS 0x1066 ===
  0x1066	xor    	esi, esi
  0x1068	dec    	esp
  0x1069	mov    	dword ptr [esp + 0x68], esp
  0x106d	inc    	ebp
  0x106e	xor    	esp, esp
  === BLOCK LINK ===
    0x1070
=== CODE BLOCK END ===

=== CODE BLOCK ADDRESS 0x1070 ===
  0x1070	dec    	esp
  0x1071	mov    	dword ptr [esp + 0x60], ebp
  0x1075	inc    	ebp
  0x1076	xor    	ebp, ebp
  0x1078	cmp    	word ptr [ebx], si
  === BLOCK LINK ===
    0x107b
=== CODE BLOCK END ===

=== CODE BLOCK ADDRESS 0x107b ===
  0x107b	je     	0x121c
  === BLOCK LINK ===
    0x1081
    0x121c
=== CODE BLOCK END ===

=== CODE BLOCK ADDRESS 0x1081 ===
  0x1081	dec    	esp
  0x1082	lea    	ecx, [esp + 0x40]
  0x1086	dec    	eax
  0x1087	mov    	ecx, ebx
  0x1089	dec    	esp
  === BLOCK LINK ===
    0x108a
=== CODE BLOCK END ===

=== CODE BLOCK ADDRESS 0x108a ===
  0x108a	lea    	eax, [esp + 0x38]
  0x108e	call   	0x13d0
  === BLOCK LINK ===
    0x1093
    0x13d0
=== CODE BLOCK END ===

=== CODE BLOCK ADDRESS 0x1093 ===
  0x1093	test   	eax, eax
  0x1095	js     	0x121c
  === BLOCK LINK ===
    0x109b
    0x121c
=== CODE BLOCK END ===

=== CODE BLOCK ADDRESS 0x109b ===
  0x109b	dec    	eax
  0x109c	mov    	dword ptr [esp + 0x90], edi
  0x10a3	xor    	edi, edi
  0x10a5	dec    	esp
  0x10a6	mov    	dword ptr [esp + 0x58], esi
  === BLOCK LINK ===
    0x10aa
=== CODE BLOCK END ===

=== CODE BLOCK ADDRESS 0x10aa ===
  0x10aa	dec    	esp
  0x10ab	mov    	esi, dword ptr [esp + 0x40]
  0x10af	dec    	esp
  0x10b0	mov    	dword ptr [esp + 0x50], edi
  0x10b4	dec    	esp
  === BLOCK LINK ===
    0x10b5
=== CODE BLOCK END ===

=== CODE BLOCK ADDRESS 0x10b5 ===
  0x10b5	mov    	edi, dword ptr [esp + 0x38]
  0x10b9	dec    	ebp
  0x10ba	test   	esi, esi
  0x10bc	je     	0x110b
  === BLOCK LINK ===
    0x10be
    0x110b
=== CODE BLOCK END ===

=== CODE BLOCK ADDRESS 0x10be ===
  0x10be	dec    	ecx
  0x10bf	mov    	ebx, dword ptr [edi + edi*8]
  0x10c2	dec    	eax
  0x10c3	mov    	eax, 0xffffffff
  0x10c9	nop    	dword ptr [eax]
  === BLOCK LINK ===
    0x10d0
=== CODE BLOCK END ===

=== CODE BLOCK ADDRESS 0x10d0 ===
  0x10d0	dec    	eax
  0x10d1	inc    	eax
  0x10d3	cmp    	word ptr [ebx + eax*2], si
  0x10d7	jne    	0x10d0
  === BLOCK LINK ===
    0x10d9
    0x10d0
=== CODE BLOCK END ===

=== CODE BLOCK ADDRESS 0x10d9 ===
  0x10d9	dec    	eax
  0x10da	cmp    	eax, 0x15
  0x10dd	jb     	0x1103
  === BLOCK LINK ===
    0x10df
    0x1103
=== CODE BLOCK END ===

=== CODE BLOCK ADDRESS 0x10df ===
  0x10df	inc    	ecx
  0x10e0	mov    	eax, 0x15
  0x10e5	dec    	eax
  0x10e6	lea    	ecx, [0x2264]
  0x10ec	dec    	eax
  === BLOCK LINK ===
    0x10ed
=== CODE BLOCK END ===

=== CODE BLOCK ADDRESS 0x10ed ===
  0x10ed	mov    	edx, ebx
  0x10ef	dec    	eax
  0x10f0	call   	dword ptr [0x218a]
  === BLOCK LINK ===
    0x10f6
=== CODE BLOCK END ===

=== CODE BLOCK ADDRESS 0x10f6 ===
  0x10f6	nop    	dword ptr [eax + eax]
  0x10fb	test   	eax, eax
  0x10fd	je     	0x12b4
  === BLOCK LINK ===
    0x1103
    0x12b4
=== CODE BLOCK END ===

=== CODE BLOCK ADDRESS 0x1103 ===
  0x1103	dec    	eax
  0x1104	inc    	edi
  0x1106	dec    	ecx
  0x1107	cmp    	edi, esi
  0x1109	jb     	0x10be
  === BLOCK LINK ===
    0x110b
    0x10be
=== CODE BLOCK END ===

=== CODE BLOCK ADDRESS 0x110b ===
  0x110b	xor    	edi, edi
  0x110d	dec    	ebp
  0x110e	test   	esi, esi
  0x1110	je     	0x115b
  === BLOCK LINK ===
    0x1112
    0x115b
=== CODE BLOCK END ===

=== CODE BLOCK ADDRESS 0x1112 ===
  0x1112	dec    	ecx
  0x1113	mov    	ebx, dword ptr [edi + edi*8]
  0x1116	dec    	eax
  0x1117	mov    	eax, 0xffffffff
  0x111d	nop    	dword ptr [eax]
  === BLOCK LINK ===
    0x1120
=== CODE BLOCK END ===

=== CODE BLOCK ADDRESS 0x1120 ===
  0x1120	dec    	eax
  0x1121	inc    	eax
  0x1123	cmp    	word ptr [ebx + eax*2], si
  0x1127	jne    	0x1120
  === BLOCK LINK ===
    0x1129
    0x1120
=== CODE BLOCK END ===

=== CODE BLOCK ADDRESS 0x1129 ===
  0x1129	dec    	eax
  0x112a	cmp    	eax, 7
  0x112d	jb     	0x1153
  === BLOCK LINK ===
    0x112f
    0x1153
=== CODE BLOCK END ===

=== CODE BLOCK ADDRESS 0x112f ===
  0x112f	inc    	ecx
  0x1130	mov    	eax, 7
  0x1135	dec    	eax
  0x1136	lea    	ecx, [0x2204]
  0x113c	dec    	eax
  === BLOCK LINK ===
    0x113d
=== CODE BLOCK END ===

=== CODE BLOCK ADDRESS 0x113d ===
  0x113d	mov    	edx, ebx
  0x113f	dec    	eax
  0x1140	call   	dword ptr [0x213a]
  === BLOCK LINK ===
    0x1146
=== CODE BLOCK END ===

=== CODE BLOCK ADDRESS 0x1146 ===
  0x1146	nop    	dword ptr [eax + eax]
  0x114b	test   	eax, eax
  0x114d	je     	0x12f9
  === BLOCK LINK ===
    0x1153
    0x12f9
=== CODE BLOCK END ===

=== CODE BLOCK ADDRESS 0x1153 ===
  0x1153	dec    	eax
  0x1154	inc    	edi
  0x1156	dec    	ecx
  0x1157	cmp    	edi, esi
  0x1159	jb     	0x1112
  === BLOCK LINK ===
    0x115b
    0x1112
=== CODE BLOCK END ===

=== CODE BLOCK ADDRESS 0x115b ===
  0x115b	xor    	edi, edi
  0x115d	dec    	ebp
  0x115e	test   	esi, esi
  0x1160	je     	0x11ab
  === BLOCK LINK ===
    0x1162
    0x11ab
=== CODE BLOCK END ===

=== CODE BLOCK ADDRESS 0x1162 ===
  0x1162	dec    	ecx
  0x1163	mov    	ebx, dword ptr [edi + edi*8]
  0x1166	dec    	eax
  0x1167	mov    	eax, 0xffffffff
  0x116d	nop    	dword ptr [eax]
  === BLOCK LINK ===
    0x1170
=== CODE BLOCK END ===

=== CODE BLOCK ADDRESS 0x1170 ===
  0x1170	dec    	eax
  0x1171	inc    	eax
  0x1173	cmp    	word ptr [ebx + eax*2], si
  0x1177	jne    	0x1170
  === BLOCK LINK ===
    0x1179
    0x1170
=== CODE BLOCK END ===

=== CODE BLOCK ADDRESS 0x1179 ===
  0x1179	dec    	eax
  0x117a	cmp    	eax, 8
  0x117d	jb     	0x11a3
  === BLOCK LINK ===
    0x117f
    0x11a3
=== CODE BLOCK END ===

=== CODE BLOCK ADDRESS 0x117f ===
  0x117f	inc    	ecx
  0x1180	mov    	eax, 8
  0x1185	dec    	eax
  0x1186	lea    	ecx, [0x219c]
  0x118c	dec    	eax
  === BLOCK LINK ===
    0x118d
=== CODE BLOCK END ===

=== CODE BLOCK ADDRESS 0x118d ===
  0x118d	mov    	edx, ebx
  0x118f	dec    	eax
  0x1190	call   	dword ptr [0x20ea]
  === BLOCK LINK ===
    0x1196
=== CODE BLOCK END ===

=== CODE BLOCK ADDRESS 0x1196 ===
  0x1196	nop    	dword ptr [eax + eax]
  0x119b	test   	eax, eax
  0x119d	je     	0x133e
  === BLOCK LINK ===
    0x11a3
    0x133e
=== CODE BLOCK END ===

=== CODE BLOCK ADDRESS 0x11a3 ===
  0x11a3	dec    	eax
  0x11a4	inc    	edi
  0x11a6	dec    	ecx
  0x11a7	cmp    	edi, esi
  0x11a9	jb     	0x1162
  === BLOCK LINK ===
    0x11ab
    0x1162
=== CODE BLOCK END ===

=== CODE BLOCK ADDRESS 0x11ab ===
  0x11ab	xor    	edi, edi
  0x11ad	dec    	ebp
  0x11ae	test   	esi, esi
  0x11b0	je     	0x11fb
  === BLOCK LINK ===
    0x11b2
    0x11fb
=== CODE BLOCK END ===

=== CODE BLOCK ADDRESS 0x11b2 ===
  0x11b2	dec    	ecx
  0x11b3	mov    	ebx, dword ptr [edi + edi*8]
  0x11b6	dec    	eax
  0x11b7	mov    	eax, 0xffffffff
  0x11bd	nop    	dword ptr [eax]
  === BLOCK LINK ===
    0x11c0
=== CODE BLOCK END ===

=== CODE BLOCK ADDRESS 0x11c0 ===
  0x11c0	dec    	eax
  0x11c1	inc    	eax
  0x11c3	cmp    	word ptr [ebx + eax*2], si
  0x11c7	jne    	0x11c0
  === BLOCK LINK ===
    0x11c9
    0x11c0
=== CODE BLOCK END ===

=== CODE BLOCK ADDRESS 0x11c9 ===
  0x11c9	dec    	eax
  0x11ca	cmp    	eax, 8
  0x11cd	jb     	0x11f3
  === BLOCK LINK ===
    0x11cf
=== CODE BLOCK END ===

=== CODE BLOCK ADDRESS 0x11cf ===
  0x11cf	inc    	ecx
  0x11d0	mov    	eax, 8
  0x11d5	dec    	eax
  0x11d6	lea    	ecx, [0x2134]
  0x11dc	dec    	eax
  === BLOCK LINK ===
    0x11dd
=== CODE BLOCK END ===

=== CODE BLOCK ADDRESS 0x11dd ===
  0x11dd	mov    	edx, ebx
  0x11df	dec    	eax
  0x11e0	call   	dword ptr [0x209a]
  === BLOCK LINK ===
    0x11e6
=== CODE BLOCK END ===

=== CODE BLOCK ADDRESS 0x11e6 ===
  0x11e6	nop    	dword ptr [eax + eax]
  0x11eb	test   	eax, eax
  0x11ed	je     	0x1382
  === BLOCK LINK ===
    0x11f3
=== CODE BLOCK END ===

=== CODE BLOCK ADDRESS 0x11f3 ===
  0x11f3	dec    	eax
  0x11f4	inc    	edi
  0x11f6	dec    	ecx
  0x11f7	cmp    	edi, esi
  0x11f9	jb     	0x11b2
  === BLOCK LINK ===
    0x11fb
=== CODE BLOCK END ===

=== CODE BLOCK ADDRESS 0x11fb ===
  0x11fb	dec    	ecx
  0x11fc	mov    	ecx, edi
  0x11fe	dec    	eax
  0x11ff	call   	dword ptr [0x1f5b]
  === BLOCK LINK ===
    0x1205
=== CODE BLOCK END ===

=== CODE BLOCK ADDRESS 0x1205 ===
  0x1205	nop    	dword ptr [eax + eax]
  0x120a	dec    	esp
  0x120b	mov    	edi, dword ptr [esp + 0x50]
  0x120f	dec    	esp
  0x1210	mov    	esi, dword ptr [esp + 0x58]
  === BLOCK LINK ===
    0x1214
=== CODE BLOCK END ===

=== CODE BLOCK ADDRESS 0x1214 ===
  0x1214	dec    	eax
  0x1215	mov    	edi, dword ptr [esp + 0x90]
  === BLOCK LINK ===
    0x121c
=== CODE BLOCK END ===

=== CODE BLOCK ADDRESS 0x1223 ===
  0x1223	dec    	esp
  0x1224	lea    	ecx, [0x2156]
  0x122a	dec    	eax
  0x122b	mov    	dword ptr [esp + 0x20], eax
  0x122f	dec    	eax
  === BLOCK LINK ===
    0x1230
=== CODE BLOCK END ===

=== CODE BLOCK ADDRESS 0x1230 ===
  0x1230	lea    	ecx, [0x215a]
  0x1236	inc    	esp
  0x1237	lea    	eax, [edx + 1]
  0x123a	dec    	eax
  0x123b	call   	dword ptr [0x1ef7]
  === BLOCK LINK ===
    0x1241
=== CODE BLOCK END ===

=== CODE BLOCK ADDRESS 0x1241 ===
  0x1241	nop    	dword ptr [eax + eax]
  0x1246	mov    	ebx, eax
  0x1248	test   	eax, eax
  0x124a	js     	0x127d
  === BLOCK LINK ===
    0x124c
=== CODE BLOCK END ===

=== CODE BLOCK ADDRESS 0x124c ===
  0x124c	dec    	eax
  0x124d	mov    	ecx, dword ptr [esp + 0x30]
  0x1251	inc    	esp
  0x1252	mov    	ecx, ebp
  0x1254	inc    	ebp
  === BLOCK LINK ===
    0x1255
=== CODE BLOCK END ===

=== CODE BLOCK ADDRESS 0x1255 ===
  0x1255	mov    	eax, ebp
  0x1257	mov    	dword ptr [esp + 0x20], esi
  0x125b	dec    	eax
  0x125c	mov    	edx, dword ptr [ecx]
  0x125e	dec    	eax
  === BLOCK LINK ===
    0x125f
=== CODE BLOCK END ===

=== CODE BLOCK ADDRESS 0x125f ===
  0x125f	mov    	eax, dword ptr [edx + 0x18]
  0x1262	inc    	ecx
  0x1263	mov    	edx, esp
  0x1265	call   	dword ptr [0x2045]
  === BLOCK LINK ===
    0x126b
=== CODE BLOCK END ===

=== CODE BLOCK ADDRESS 0x126b ===
  0x126b	dec    	eax
  0x126c	mov    	ecx, dword ptr [esp + 0x30]
  0x1270	dec    	eax
  0x1271	mov    	edx, dword ptr [ecx]
  0x1273	dec    	eax
  === BLOCK LINK ===
    0x1274
=== CODE BLOCK END ===

=== CODE BLOCK ADDRESS 0x1274 ===
  0x1274	mov    	eax, dword ptr [edx + 0x10]
  0x1277	call   	dword ptr [0x2033]
  === BLOCK LINK ===
    0x127d
=== CODE BLOCK END ===

=== CODE BLOCK ADDRESS 0x127d ===
  0x127d	dec    	eax
  0x127e	call   	dword ptr [0x1eac]
  === BLOCK LINK ===
    0x1284
=== CODE BLOCK END ===

=== CODE BLOCK ADDRESS 0x1284 ===
  0x1284	nop    	dword ptr [eax + eax]
  0x1289	dec    	esp
  0x128a	mov    	ebp, dword ptr [esp + 0x60]
  0x128e	dec    	esp
  0x128f	mov    	esp, dword ptr [esp + 0x68]
  === BLOCK LINK ===
    0x1293
=== CODE BLOCK END ===

=== CODE BLOCK ADDRESS 0x1293 ===
  0x1293	dec    	eax
  0x1294	mov    	esi, dword ptr [esp + 0x88]
  0x129b	dec    	eax
  0x129c	mov    	ebp, dword ptr [esp + 0x80]
  0x12a3	test   	ebx, ebx
  === BLOCK LINK ===
    0x12a5
=== CODE BLOCK END ===

=== CODE BLOCK ADDRESS 0x12a5 ===
  0x12a5	js     	0x1ff0
  === BLOCK LINK ===
    0x12ab
=== CODE BLOCK END ===

=== CODE BLOCK ADDRESS 0x12ab ===
  0x12ab	xor    	eax, eax
  0x12ad	dec    	eax
  0x12ae	add    	esp, 0x70
  0x12b1	pop    	ebx
  0x12b2	ret    	
  === BLOCK LINK ===
    0x12b3
=== CODE BLOCK END ===

=== CODE BLOCK ADDRESS 0x1ff0 ===
=== CODE BLOCK END ===

=== CODE BLOCK ADDRESS 0x12b3 ===
  0x12b3	int3   	
  === BLOCK LINK ===
    0x12b4
=== CODE BLOCK END ===

=== CODE BLOCK ADDRESS 0x12bd ===
  0x12bd	call   	dword ptr [0x1fc5]
  === BLOCK LINK ===
    0x12c3
=== CODE BLOCK END ===

=== CODE BLOCK ADDRESS 0x12c3 ===
  0x12c3	nop    	dword ptr [eax + eax]
  0x12c8	dec    	eax
  0x12c9	test   	eax, eax
  0x12cb	je     	0x1103
  === BLOCK LINK ===
    0x12d1
=== CODE BLOCK END ===

=== CODE BLOCK ADDRESS 0x12d1 ===
  0x12d1	cmp    	word ptr [eax + 2], si
  0x12d5	je     	0x1103
  === BLOCK LINK ===
    0x12db
=== CODE BLOCK END ===

=== CODE BLOCK ADDRESS 0x12db ===
  0x12db	xor    	edx, edx
  0x12dd	dec    	eax
  0x12de	lea    	ecx, [eax + 2]
  0x12e1	inc    	esp
  0x12e2	lea    	eax, [edx + 0x10]
  === BLOCK LINK ===
    0x12e5
=== CODE BLOCK END ===

=== CODE BLOCK ADDRESS 0x12e5 ===
  0x12e5	dec    	eax
  0x12e6	call   	dword ptr [0x1fac]
  === BLOCK LINK ===
    0x12ec
=== CODE BLOCK END ===

=== CODE BLOCK ADDRESS 0x12ec ===
  0x12ec	nop    	dword ptr [eax + eax]
  0x12f1	inc    	esp
  0x12f2	mov    	ebp, eax
  0x12f4	jmp    	0x110b
  === BLOCK LINK ===
    0x12f9
=== CODE BLOCK END ===

=== CODE BLOCK ADDRESS 0x12f9 ===
  0x12f9	mov    	edx, 0x3a
  0x12fe	dec    	eax
  0x12ff	mov    	ecx, ebx
  0x1301	dec    	eax
  0x1302	call   	dword ptr [0x1f80]
  === BLOCK LINK ===
    0x1308
=== CODE BLOCK END ===

=== CODE BLOCK ADDRESS 0x1308 ===
  0x1308	nop    	dword ptr [eax + eax]
  0x130d	dec    	eax
  0x130e	test   	eax, eax
  0x1310	je     	0x1153
  === BLOCK LINK ===
    0x1316
=== CODE BLOCK END ===

=== CODE BLOCK ADDRESS 0x1316 ===
  0x1316	cmp    	word ptr [eax + 2], si
  0x131a	je     	0x1153
  === BLOCK LINK ===
    0x1320
=== CODE BLOCK END ===

=== CODE BLOCK ADDRESS 0x1320 ===
  0x1320	xor    	edx, edx
  0x1322	dec    	eax
  0x1323	lea    	ecx, [eax + 2]
  0x1326	inc    	esp
  0x1327	lea    	eax, [edx + 0x10]
  === BLOCK LINK ===
    0x132a
=== CODE BLOCK END ===

=== CODE BLOCK ADDRESS 0x132a ===
  0x132a	dec    	eax
  0x132b	call   	dword ptr [0x1f67]
  === BLOCK LINK ===
    0x1331
=== CODE BLOCK END ===

=== CODE BLOCK ADDRESS 0x1331 ===
  0x1331	nop    	dword ptr [eax + eax]
  0x1336	inc    	esp
  0x1337	mov    	esp, eax
  0x1339	jmp    	0x115b
  === BLOCK LINK ===
    0x133e
=== CODE BLOCK END ===

=== CODE BLOCK ADDRESS 0x133e ===
  0x133e	mov    	edx, 0x3a
  0x1343	dec    	eax
  0x1344	mov    	ecx, ebx
  0x1346	dec    	eax
  0x1347	call   	dword ptr [0x1f3b]
  === BLOCK LINK ===
    0x134d
=== CODE BLOCK END ===

=== CODE BLOCK ADDRESS 0x134d ===
  0x134d	nop    	dword ptr [eax + eax]
  0x1352	dec    	eax
  0x1353	test   	eax, eax
  0x1355	je     	0x11a3
  === BLOCK LINK ===
    0x135b
=== CODE BLOCK END ===

=== CODE BLOCK ADDRESS 0x135b ===
  0x135b	cmp    	word ptr [eax + 2], si
  0x135f	je     	0x11a3
  === BLOCK LINK ===
    0x1365
=== CODE BLOCK END ===

=== CODE BLOCK ADDRESS 0x1365 ===
  0x1365	xor    	edx, edx
  0x1367	dec    	eax
  0x1368	lea    	ecx, [eax + 2]
  0x136b	inc    	esp
  0x136c	lea    	eax, [edx + 0x10]
  === BLOCK LINK ===
    0x136f
=== CODE BLOCK END ===

=== CODE BLOCK ADDRESS 0x136f ===
  0x136f	dec    	eax
  0x1370	call   	dword ptr [0x1f22]
  === BLOCK LINK ===
    0x1376
=== CODE BLOCK END ===

=== CODE BLOCK ADDRESS 0x1376 ===
  0x1376	nop    	dword ptr [eax + eax]
  0x137b	mov    	ebp, eax
  0x137d	jmp    	0x11ab
  === BLOCK LINK ===
    0x1382
=== CODE BLOCK END ===

=== CODE BLOCK ADDRESS 0x1382 ===
  0x1382	mov    	edx, 0x3a
  0x1387	dec    	eax
  0x1388	mov    	ecx, ebx
  0x138a	dec    	eax
  0x138b	call   	dword ptr [0x1ef7]
  === BLOCK LINK ===
    0x1391
=== CODE BLOCK END ===

=== CODE BLOCK ADDRESS 0x1391 ===
  0x1391	nop    	dword ptr [eax + eax]
  0x1396	dec    	eax
  0x1397	test   	eax, eax
  0x1399	je     	0x11f3
  === BLOCK LINK ===
    0x139f
=== CODE BLOCK END ===

=== CODE BLOCK ADDRESS 0x139f ===
  0x139f	cmp    	word ptr [eax + 2], si
  0x13a3	je     	0x11f3
  === BLOCK LINK ===
    0x13a9
=== CODE BLOCK END ===

=== CODE BLOCK ADDRESS 0x13a9 ===
  0x13a9	xor    	edx, edx
  0x13ab	dec    	eax
  0x13ac	lea    	ecx, [eax + 2]
  0x13af	inc    	esp
  0x13b0	lea    	eax, [edx + 0x10]
  === BLOCK LINK ===
    0x13b3
=== CODE BLOCK END ===

=== CODE BLOCK ADDRESS 0x13b3 ===
  0x13b3	dec    	eax
  0x13b4	call   	dword ptr [0x1ede]
  === BLOCK LINK ===
    0x13ba
=== CODE BLOCK END ===

=== CODE BLOCK ADDRESS 0x13ba ===
  0x13ba	nop    	dword ptr [eax + eax]
  0x13bf	mov    	esi, eax
  0x13c1	jmp    	0x11fb
  === BLOCK LINK ===
    0x13c6
=== CODE BLOCK END ===

=== CODE BLOCK ADDRESS 0x13c6 ===
  0x13c6	int3   	
  0x13c7	int3   	
  0x13c8	int3   	
  0x13c9	int3   	
  0x13ca	int3   	
  === BLOCK LINK ===
    0x13cb
=== CODE BLOCK END ===

=== CODE BLOCK ADDRESS 0x13cb ===
  0x13cb	int3   	
  0x13cc	int3   	
  0x13cd	int3   	
  0x13ce	int3   	
  0x13cf	int3   	
  === BLOCK LINK ===
    0x13d0
=== CODE BLOCK END ===

=== CODE BLOCK ADDRESS 0x13d0 ===
  0x13d0	inc    	eax
  0x13d1	push   	ebp
  0x13d2	push   	esi
  0x13d3	inc    	ecx
  0x13d4	push   	esi
  === BLOCK LINK ===
    0x13d5
=== CODE BLOCK END ===

=== CODE BLOCK ADDRESS 0x13d5 ===
  0x13d5	dec    	eax
  0x13d6	sub    	esp, 0x30
  0x13d9	dec    	eax
  0x13da	mov    	ebp, ecx
  0x13dc	dec    	eax
  === BLOCK LINK ===
    0x13dd
=== CODE BLOCK END ===

=== CODE BLOCK ADDRESS 0x13dd ===
  0x13dd	lea    	eax, [esp + 0x68]
  0x13e1	xor    	ecx, ecx
  0x13e3	dec    	eax
  0x13e4	mov    	dword ptr [esp + 0x28], eax
  0x13e8	dec    	ecx
  === BLOCK LINK ===
    0x13e9
=== CODE BLOCK END ===

=== CODE BLOCK ADDRESS 0x13e9 ===
  0x13e9	mov    	dword ptr [eax], ecx
  0x13eb	dec    	ecx
  0x13ec	mov    	esi, ecx
  0x13ee	dec    	ecx
  0x13ef	mov    	dword ptr [ecx], ecx
  === BLOCK LINK ===
    0x13f1
=== CODE BLOCK END ===

=== CODE BLOCK ADDRESS 0x13f1 ===
  0x13f1	dec    	ebp
  0x13f2	mov    	esi, eax
  0x13f4	dec    	eax
  0x13f5	mov    	dword ptr [esp + 0x60], ecx
  0x13f9	dec    	esp
  === BLOCK LINK ===
    0x13fa
=== CODE BLOCK END ===

=== CODE BLOCK ADDRESS 0x13fa ===
  0x13fa	lea    	ecx, [esp + 0x60]
  0x13fe	dec    	eax
  0x13ff	mov    	dword ptr [esp + 0x68], ecx
  0x1403	inc    	ebp
  0x1404	xor    	eax, eax
  === BLOCK LINK ===
    0x1406
=== CODE BLOCK END ===

=== CODE BLOCK ADDRESS 0x1406 ===
  0x1406	dec    	eax
  0x1407	mov    	dword ptr [esp + 0x20], ecx
  0x140b	dec    	eax
  0x140c	mov    	ecx, ebp
  0x140e	call   	0x14d0
  === BLOCK LINK ===
    0x1413
=== CODE BLOCK END ===

=== CODE BLOCK ADDRESS 0x1413 ===
  0x1413	test   	eax, eax
  0x1415	js     	0x14aa
  === BLOCK LINK ===
    0x141b
=== CODE BLOCK END ===

=== CODE BLOCK ADDRESS 0x141b ===
  0x141b	mov    	eax, 8
  0x1420	dec    	eax
  0x1421	mov    	dword ptr [esp + 0x58], edi
  0x1425	dec    	eax
  0x1426	mul    	dword ptr [esp + 0x60]
  === BLOCK LINK ===
    0x142a
=== CODE BLOCK END ===

=== CODE BLOCK ADDRESS 0x142a ===
  0x142a	dec    	eax
  0x142b	mov    	edi, eax
  0x142d	dec    	eax
  0x142e	test   	edx, edx
  0x1430	jne    	0x14bb
  === BLOCK LINK ===
    0x1436
=== CODE BLOCK END ===

=== CODE BLOCK ADDRESS 0x1436 ===
  0x1436	mov    	eax, 2
  0x143b	dec    	eax
  0x143c	mul    	dword ptr [esp + 0x68]
  0x1440	dec    	eax
  0x1441	test   	edx, edx
  === BLOCK LINK ===
    0x1443
=== CODE BLOCK END ===

=== CODE BLOCK ADDRESS 0x1443 ===
  0x1443	jne    	0x14bb
  === BLOCK LINK ===
    0x1445
=== CODE BLOCK END ===

=== CODE BLOCK ADDRESS 0x1445 ===
  0x1445	dec    	eax
  0x1446	lea    	edx, [eax + edi]
  0x1449	dec    	eax
  0x144a	cmp    	edx, edi
  0x144c	jb     	0x14bb
  === BLOCK LINK ===
    0x144e
=== CODE BLOCK END ===

=== CODE BLOCK ADDRESS 0x144e ===
  0x144e	xor    	ecx, ecx
  0x1450	dec    	eax
  0x1451	mov    	dword ptr [esp + 0x50], ebx
  0x1455	dec    	eax
  0x1456	call   	dword ptr [0x1d0c]
  === BLOCK LINK ===
    0x145c
=== CODE BLOCK END ===

=== CODE BLOCK ADDRESS 0x145c ===
  0x145c	nop    	dword ptr [eax + eax]
  0x1461	dec    	eax
  0x1462	mov    	ebx, eax
  0x1464	dec    	eax
  0x1465	test   	eax, eax
  === BLOCK LINK ===
    0x1467
=== CODE BLOCK END ===

=== CODE BLOCK ADDRESS 0x1467 ===
  0x1467	je     	0x14b4
  === BLOCK LINK ===
    0x1469
=== CODE BLOCK END ===

=== CODE BLOCK ADDRESS 0x1469 ===
  0x1469	dec    	eax
  0x146a	lea    	ecx, [esp + 0x68]
  0x146e	dec    	eax
  0x146f	add    	eax, edi
  0x1471	dec    	eax
  === BLOCK LINK ===
    0x1472
=== CODE BLOCK END ===

=== CODE BLOCK ADDRESS 0x1472 ===
  0x1472	mov    	dword ptr [esp + 0x28], ecx
  0x1476	dec    	esp
  0x1477	lea    	ecx, [esp + 0x60]
  0x147b	dec    	eax
  0x147c	mov    	ecx, ebp
  === BLOCK LINK ===
    0x147e
=== CODE BLOCK END ===

=== CODE BLOCK ADDRESS 0x147e ===
  0x147e	dec    	eax
  0x147f	mov    	dword ptr [esp + 0x20], eax
  0x1483	dec    	esp
  0x1484	mov    	eax, ebx
  0x1486	call   	0x14d0
  === BLOCK LINK ===
    0x148b
=== CODE BLOCK END ===

=== CODE BLOCK ADDRESS 0x148b ===
  0x148b	mov    	edi, eax
  0x148d	test   	eax, eax
  0x148f	js     	0x1ffa
  === BLOCK LINK ===
    0x1495
=== CODE BLOCK END ===

=== CODE BLOCK ADDRESS 0x1495 ===
  0x1495	dec    	eax
  0x1496	mov    	ecx, dword ptr [esp + 0x60]
  0x149a	dec    	eax
  0x149b	mov    	dword ptr [esi], ecx
  0x149d	dec    	ecx
  === BLOCK LINK ===
    0x149e
=== CODE BLOCK END ===

=== CODE BLOCK ADDRESS 0x149e ===
  0x149e	mov    	dword ptr [esi], ebx
  0x14a0	dec    	eax
  0x14a1	mov    	ebx, dword ptr [esp + 0x50]
  0x14a5	dec    	eax
  0x14a6	mov    	edi, dword ptr [esp + 0x58]
  === BLOCK LINK ===
    0x14aa
=== CODE BLOCK END ===

=== CODE BLOCK ADDRESS 0x14aa ===
  0x14aa	dec    	eax
  0x14ab	add    	esp, 0x30
  0x14ae	inc    	ecx
  0x14af	pop    	esi
  0x14b0	pop    	esi
  === BLOCK LINK ===
    0x14b1
=== CODE BLOCK END ===

=== CODE BLOCK ADDRESS 0x14b1 ===
  0x14b1	pop    	ebp
  0x14b2	ret    	
  0x14b3	int3   	
  0x14b4	mov    	eax, 0x8007000e
  0x14b9	jmp    	0x14a0
  === BLOCK LINK ===
    0x14bb
=== CODE BLOCK END ===

=== CODE BLOCK ADDRESS 0x121c ===
  0x121c	xor    	edx, edx
  0x121e	dec    	eax
  0x121f	lea    	eax, [esp + 0x30]
  === BLOCK LINK ===
    0x1223
=== CODE BLOCK END ===

=== CODE BLOCK ADDRESS 0x14bb ===
  0x14bb	mov    	eax, 0x80070216
  0x14c0	jmp    	0x14a5
  === BLOCK LINK ===
    0x14c2
=== CODE BLOCK END ===

=== CODE BLOCK ADDRESS 0x14c2 ===
  0x14c2	int3   	
  0x14c3	int3   	
  0x14c4	int3   	
  0x14c5	int3   	
  0x14c6	int3   	
  === BLOCK LINK ===
    0x14c7
=== CODE BLOCK END ===

=== CODE BLOCK ADDRESS 0x14c7 ===
  0x14c7	int3   	
  0x14c8	int3   	
  0x14c9	int3   	
  0x14ca	int3   	
  0x14cb	int3   	
  === BLOCK LINK ===
    0x14cc
=== CODE BLOCK END ===

=== CODE BLOCK ADDRESS 0x14cc ===
  0x14cc	int3   	
  0x14cd	int3   	
  0x14ce	int3   	
  0x14cf	int3   	
  0x14d0	inc    	eax
  === BLOCK LINK ===
    0x14d1
=== CODE BLOCK END ===

=== CODE BLOCK ADDRESS 0x14d1 ===
  0x14d1	push   	esi
  0x14d2	inc    	ecx
  0x14d3	push   	ebp
  0x14d4	inc    	ecx
  0x14d5	push   	edi
  === BLOCK LINK ===
    0x14d6
=== CODE BLOCK END ===

=== CODE BLOCK ADDRESS 0x14d6 ===
  0x14d6	dec    	eax
  0x14d7	sub    	esp, 0x10
  0x14da	movzx  	eax, word ptr [ecx]
  0x14dd	dec    	eax
  0x14de	mov    	esi, ecx
  === BLOCK LINK ===
    0x14e0
=== CODE BLOCK END ===

=== CODE BLOCK ADDRESS 0x14e0 ===
  0x14e0	mov    	ecx, 0x20
  0x14e5	dec    	ebp
  0x14e6	mov    	ebp, ecx
  0x14e8	dec    	ebp
  0x14e9	mov    	edi, eax
  === BLOCK LINK ===
    0x14eb
=== CODE BLOCK END ===

=== CODE BLOCK ADDRESS 0x14eb ===
  0x14eb	cmp    	cx, ax
  0x14ee	je     	0x20dc
  === BLOCK LINK ===
    0x14f4
=== CODE BLOCK END ===

=== CODE BLOCK ADDRESS 0x14f4 ===
  0x14f4	mov    	ecx, 9
  0x14f9	cmp    	cx, ax
  0x14fc	je     	0x20dc
  === BLOCK LINK ===
    0x1502
=== CODE BLOCK END ===

=== CODE BLOCK ADDRESS 0x1502 ===
  0x1502	dec    	eax
  0x1503	mov    	dword ptr [esp + 0x30], ebx
  0x1507	xor    	edx, edx
  0x1509	dec    	eax
  0x150a	mov    	ebx, dword ptr [esp + 0x50]
  === BLOCK LINK ===
    0x150e
=== CODE BLOCK END ===

=== CODE BLOCK ADDRESS 0x150e ===
  0x150e	inc    	esp
  0x150f	mov    	eax, edx
  0x1511	dec    	eax
  0x1512	mov    	dword ptr [esp + 0x38], ebp
  0x1516	mov    	ebp, edx
  === BLOCK LINK ===
    0x1518
=== CODE BLOCK END ===

=== CODE BLOCK ADDRESS 0x1518 ===
  0x1518	dec    	eax
  0x1519	mov    	dword ptr [esp + 0x40], edi
  0x151d	dec    	esp
  0x151e	mov    	dword ptr [esp + 8], esp
  0x1522	dec    	esp
  === BLOCK LINK ===
    0x1523
=== CODE BLOCK END ===

=== CODE BLOCK ADDRESS 0x1523 ===
  0x1523	mov    	dword ptr [esp], esi
  0x1526	inc    	esp
  0x1527	mov    	esi, edx
  0x1529	cmp    	dx, ax
  0x152c	je     	0x2010
  === BLOCK LINK ===
    0x1532
=== CODE BLOCK END ===

=== CODE BLOCK ADDRESS 0x1532 ===
  0x1532	inc    	ecx
  0x1533	mov    	ah, 1
  0x1535	mov    	ecx, edx
  0x1537	mov    	eax, 0x22
  0x153c	inc    	ebp
  === BLOCK LINK ===
    0x153d
=== CODE BLOCK END ===

=== CODE BLOCK ADDRESS 0x153d ===
  0x153d	test   	ah, ah
  0x153f	je     	0x1656
  === BLOCK LINK ===
    0x1545
=== CODE BLOCK END ===

=== CODE BLOCK ADDRESS 0x1545 ===
  0x1545	dec    	esp
  0x1546	mov    	ecx, edx
  0x1548	inc    	eax
  0x1549	xor    	bh, bh
  0x154b	nop    	dword ptr [eax + eax]
  === BLOCK LINK ===
    0x1550
=== CODE BLOCK END ===

=== CODE BLOCK ADDRESS 0x1550 ===
  0x1550	inc    	esi
  0x1551	movzx  	edx, word ptr [esi + eax*2]
  0x1555	inc    	ecx
  0x1556	mov    	ebx, 1
  0x155b	inc    	eax
  === BLOCK LINK ===
    0x155c
=== CODE BLOCK END ===

=== CODE BLOCK ADDRESS 0x155c ===
  0x155c	test   	bh, bh
  0x155e	jne    	0x2039
  === BLOCK LINK ===
    0x1564
=== CODE BLOCK END ===

=== CODE BLOCK ADDRESS 0x1564 ===
  0x1564	inc    	cx
  0x1566	cmp    	edx, 0x22
  0x1569	jbe    	0x15a6
  === BLOCK LINK ===
    0x156b
=== CODE BLOCK END ===

=== CODE BLOCK ADDRESS 0x156b ===
  0x156b	dec    	eax
  0x156c	test   	ebx, ebx
  0x156e	je     	0x1575
  === BLOCK LINK ===
    0x1570
=== CODE BLOCK END ===

=== CODE BLOCK ADDRESS 0x1570 ===
  0x1570	inc    	si
  0x1572	mov    	dword ptr [ebx + ecx*2], edx
  0x1575	dec    	ecx
  0x1576	lea    	eax, [ecx + 1]
  0x1579	dec    	ecx
  === BLOCK LINK ===
    0x157a
=== CODE BLOCK END ===

=== CODE BLOCK ADDRESS 0x157a ===
  0x157a	cmp    	eax, ecx
  0x157c	jb     	0x2083
  === BLOCK LINK ===
    0x1582
=== CODE BLOCK END ===

=== CODE BLOCK ADDRESS 0x1582 ===
  0x1582	dec    	esp
  0x1583	mov    	ecx, eax
  0x1585	mov    	eax, edx
  0x1587	test   	eax, eax
  0x1589	js     	0x1668
  === BLOCK LINK ===
    0x158f
=== CODE BLOCK END ===

=== CODE BLOCK ADDRESS 0x158f ===
  0x158f	dec    	ebx
  0x1590	lea    	eax, [ebx + eax]
  0x1593	dec    	ecx
  0x1594	cmp    	eax, eax
  0x1596	jb     	0x20d2
  === BLOCK LINK ===
    0x159c
=== CODE BLOCK END ===

=== CODE BLOCK ADDRESS 0x159c ===
  0x159c	dec    	esp
  0x159d	mov    	eax, eax
  0x159f	mov    	eax, 0x22
  0x15a4	jmp    	0x1550
  === BLOCK LINK ===
    0x15a6
=== CODE BLOCK END ===

=== CODE BLOCK ADDRESS 0x15a6 ===
  0x15a6	inc    	bp
  0x15a8	test   	edx, edx
  0x15aa	je     	0x15b7
  === BLOCK LINK ===
    0x15ac
=== CODE BLOCK END ===

=== CODE BLOCK ADDRESS 0x15ac ===
  0x15ac	inc    	cx
  0x15ae	cmp    	edx, 0x20
  0x15b1	jne    	0x2018
  === BLOCK LINK ===
    0x15b7
=== CODE BLOCK END ===

=== CODE BLOCK ADDRESS 0x15b7 ===
  0x15b7	dec    	eax
  0x15b8	test   	ebx, ebx
  0x15ba	je     	0x15c1
  === BLOCK LINK ===
    0x15bc
=== CODE BLOCK END ===

=== CODE BLOCK ADDRESS 0x15bc ===
  0x15bc	inc    	dx
  0x15be	mov    	dword ptr [ebx + ecx*2], edx
  0x15c1	dec    	ecx
  0x15c2	lea    	eax, [ecx + 1]
  0x15c5	dec    	ecx
  === BLOCK LINK ===
    0x15c6
=== CODE BLOCK END ===

=== CODE BLOCK ADDRESS 0x15c6 ===
  0x15c6	cmp    	eax, ecx
  0x15c8	jb     	0x209b
  === BLOCK LINK ===
    0x15ce
=== CODE BLOCK END ===

=== CODE BLOCK ADDRESS 0x15ce ===
  0x15ce	dec    	esp
  0x15cf	mov    	ecx, eax
  0x15d1	mov    	eax, edx
  0x15d3	test   	eax, eax
  0x15d5	js     	0x1668
  === BLOCK LINK ===
    0x15db
=== CODE BLOCK END ===

=== CODE BLOCK ADDRESS 0x15db ===
  0x15db	dec    	ebp
  0x15dc	test   	edi, edi
  0x15de	jne    	0x163e
  === BLOCK LINK ===
    0x15e0
=== CODE BLOCK END ===

=== CODE BLOCK ADDRESS 0x15e0 ===
  0x15e0	dec    	ecx
  0x15e1	inc    	esi
  0x15e3	dec    	ecx
  0x15e4	lea    	eax, [ecx + ebp]
  0x15e7	dec    	eax
  === BLOCK LINK ===
    0x15e8
=== CODE BLOCK END ===

=== CODE BLOCK ADDRESS 0x15e8 ===
  0x15e8	cmp    	eax, ebp
  0x15ea	jb     	0x20d2
  === BLOCK LINK ===
    0x15f0
=== CODE BLOCK END ===

=== CODE BLOCK ADDRESS 0x15f0 ===
  0x15f0	dec    	eax
  0x15f1	mov    	ebp, eax
  0x15f3	xor    	cl, cl
  0x15f5	inc    	ecx
  0x15f6	mov    	ecx, 0x20
  === BLOCK LINK ===
    0x15fb
=== CODE BLOCK END ===

=== CODE BLOCK ADDRESS 0x15fb ===
  0x15fb	inc    	edx
  0x15fc	movzx  	eax, word ptr [esi + eax*2]
  0x1600	inc    	sp
  0x1602	cmp    	ecx, eax
  0x1604	je     	0x162a
  === BLOCK LINK ===
    0x1606
=== CODE BLOCK END ===

=== CODE BLOCK ADDRESS 0x1606 ===
  0x1606	inc    	ecx
  0x1607	mov    	ecx, 9
  0x160c	inc    	sp
  0x160e	cmp    	ecx, eax
  0x1610	je     	0x20b6
  === BLOCK LINK ===
    0x1616
=== CODE BLOCK END ===

=== CODE BLOCK ADDRESS 0x1616 ===
  0x1616	cmp    	dx, ax
  0x1619	je     	0x164b
  === BLOCK LINK ===
    0x161b
=== CODE BLOCK END ===

=== CODE BLOCK ADDRESS 0x161b ===
  0x161b	inc    	ecx
  0x161c	mov    	ah, 1
  0x161e	mov    	ecx, edx
  0x1620	test   	ecx, ecx
  0x1622	jns    	0x1537
  === BLOCK LINK ===
    0x1628
=== CODE BLOCK END ===

=== CODE BLOCK ADDRESS 0x1628 ===
  0x1628	jmp    	0x1666
  === BLOCK LINK ===
    0x162a
=== CODE BLOCK END ===

=== CODE BLOCK ADDRESS 0x162a ===
  0x162a	dec    	ecx
  0x162b	lea    	eax, [eax + 1]
  0x162e	mov    	cl, 1
  0x1630	dec    	ecx
  0x1631	cmp    	eax, eax
  === BLOCK LINK ===
    0x1633
=== CODE BLOCK END ===

=== CODE BLOCK ADDRESS 0x1633 ===
  0x1633	jb     	0x20c1
  === BLOCK LINK ===
    0x1639
=== CODE BLOCK END ===

=== CODE BLOCK ADDRESS 0x1639 ===
  0x1639	dec    	esp
  0x163a	mov    	eax, eax
  0x163c	jmp    	0x15fb
  === BLOCK LINK ===
    0x163e
=== CODE BLOCK END ===

=== CODE BLOCK ADDRESS 0x163e ===
  0x163e	dec    	ecx
  0x163f	mov    	dword ptr [edi], ebx
  0x1641	dec    	ecx
  0x1642	add    	edi, 8
  0x1645	dec    	edx
  === BLOCK LINK ===
    0x1646
=== CODE BLOCK END ===

=== CODE BLOCK ADDRESS 0x1646 ===
  0x1646	lea    	ebx, [ebx + ecx*2]
  0x1649	jmp    	0x15e0
  === BLOCK LINK ===
    0x164b
=== CODE BLOCK END ===

=== CODE BLOCK ADDRESS 0x164b ===
  0x164b	test   	cl, cl
  0x164d	jne    	0x168b
  === BLOCK LINK ===
    0x164f
=== CODE BLOCK END ===

=== CODE BLOCK ADDRESS 0x164f ===
  0x164f	inc    	ebp
  0x1650	xor    	ah, ah
  0x1652	mov    	ecx, edx
  0x1654	jmp    	0x1620
  === BLOCK LINK ===
    0x1656
=== CODE BLOCK END ===

=== CODE BLOCK ADDRESS 0x1656 ===
  0x1656	test   	ecx, ecx
  0x1658	js     	0x1666
  === BLOCK LINK ===
    0x165a
=== CODE BLOCK END ===

=== CODE BLOCK ADDRESS 0x165a ===
  0x165a	dec    	eax
  0x165b	mov    	eax, dword ptr [esp + 0x58]
  0x165f	dec    	ebp
  0x1660	mov    	dword ptr [ebp], esi
  0x1663	dec    	eax
  === BLOCK LINK ===
    0x1664
=== CODE BLOCK END ===

=== CODE BLOCK ADDRESS 0x1664 ===
  0x1664	mov    	dword ptr [eax], ebp
  0x1666	mov    	eax, ecx
  0x1668	dec    	esp
  0x1669	mov    	esp, dword ptr [esp + 8]
  0x166d	dec    	eax
  === BLOCK LINK ===
    0x166e
=== CODE BLOCK END ===

=== CODE BLOCK ADDRESS 0x166e ===
  0x166e	mov    	edi, dword ptr [esp + 0x40]
  0x1672	dec    	eax
  0x1673	mov    	ebp, dword ptr [esp + 0x38]
  0x1677	dec    	eax
  0x1678	mov    	ebx, dword ptr [esp + 0x30]
  === BLOCK LINK ===
    0x167c
=== CODE BLOCK END ===

=== CODE BLOCK ADDRESS 0x167c ===
  0x167c	dec    	esp
  0x167d	mov    	esi, dword ptr [esp]
  0x1680	dec    	eax
  0x1681	add    	esp, 0x10
  0x1684	inc    	ecx
  === BLOCK LINK ===
    0x1685
=== CODE BLOCK END ===

=== CODE BLOCK ADDRESS 0x1685 ===
  0x1685	pop    	edi
  0x1686	inc    	ecx
  0x1687	pop    	ebp
  0x1688	pop    	esi
  0x1689	ret    	
  === BLOCK LINK ===
    0x168a
=== CODE BLOCK END ===

=== CODE BLOCK ADDRESS 0x168a ===
  0x168a	int3   	
  0x168b	mov    	ecx, 0x80070057
  0x1690	jmp    	0x1620
  === BLOCK LINK ===
    0x1692
=== CODE BLOCK END ===

=== CODE BLOCK ADDRESS 0x1692 ===
  0x1692	int3   	
  0x1693	int3   	
  0x1694	int3   	
  0x1695	int3   	
  0x1696	int3   	
  === BLOCK LINK ===
    0x1697
=== CODE BLOCK END ===

=== CODE BLOCK ADDRESS 0x1697 ===
  0x1697	int3   	
  0x1698	int3   	
  0x1699	int3   	
  0x169a	int3   	
  0x169b	int3   	
  === BLOCK LINK ===
    0x169c
=== CODE BLOCK END ===

=== CODE BLOCK ADDRESS 0x169c ===
  0x169c	int3   	
  0x169d	int3   	
  0x169e	int3   	
  0x169f	int3   	
  0x16a0	dec    	eax
  === BLOCK LINK ===
    0x16a1
=== CODE BLOCK END ===

=== CODE BLOCK ADDRESS 0x16a1 ===
  0x16a1	sub    	esp, 0x28
  0x16a4	mov    	eax, 0x5a4d
  0x16a9	cmp    	word ptr [0xffffe950], ax
  0x16b0	je     	0x16b6
  === BLOCK LINK ===
    0x16b2
=== CODE BLOCK END ===

=== CODE BLOCK ADDRESS 0x16b2 ===
  0x16b2	xor    	eax, eax
  0x16b4	jmp    	0x1709
  === BLOCK LINK ===
    0x16b6
=== CODE BLOCK END ===

=== CODE BLOCK ADDRESS 0x16b6 ===
  0x16b6	dec    	eax
  0x16b7	arpl   	word ptr [0xffffe97f], cx
  0x16bd	dec    	eax
  0x16be	lea    	eax, [0xffffe93c]
  0x16c4	dec    	eax
  === BLOCK LINK ===
    0x16c5
=== CODE BLOCK END ===

=== CODE BLOCK ADDRESS 0x16c5 ===
  0x16c5	add    	ecx, eax
  0x16c7	cmp    	dword ptr [ecx], 0x4550
  0x16cd	jne    	0x16b2
  === BLOCK LINK ===
    0x16cf
=== CODE BLOCK END ===

=== CODE BLOCK ADDRESS 0x16cf ===
  0x16cf	mov    	eax, 0x10b
  0x16d4	cmp    	word ptr [ecx + 0x18], ax
  0x16d8	je     	0x16f8
  === BLOCK LINK ===
    0x16da
=== CODE BLOCK END ===

=== CODE BLOCK ADDRESS 0x16da ===
  0x16da	mov    	eax, 0x20b
  0x16df	cmp    	word ptr [ecx + 0x18], ax
  0x16e3	jne    	0x16b2
  === BLOCK LINK ===
    0x16e5
=== CODE BLOCK END ===

=== CODE BLOCK ADDRESS 0x16e5 ===
  0x16e5	xor    	eax, eax
  0x16e7	cmp    	dword ptr [ecx + 0x84], 0xe
  0x16ee	jbe    	0x1709
  === BLOCK LINK ===
    0x16f0
=== CODE BLOCK END ===

=== CODE BLOCK ADDRESS 0x16f0 ===
  0x16f0	cmp    	dword ptr [ecx + 0xf8], eax
  0x16f6	jmp    	0x1706
  === BLOCK LINK ===
    0x16f8
=== CODE BLOCK END ===

=== CODE BLOCK ADDRESS 0x16f8 ===
  0x16f8	xor    	eax, eax
  0x16fa	cmp    	dword ptr [ecx + 0x74], 0xe
  0x16fe	jbe    	0x1709
  === BLOCK LINK ===
    0x1700
=== CODE BLOCK END ===

=== CODE BLOCK ADDRESS 0x1700 ===
  0x1700	cmp    	dword ptr [ecx + 0xe8], eax
  0x1706	setne  	al
  0x1709	mov    	ecx, 2
  0x170e	mov    	dword ptr [0x293c], eax
  0x1714	call   	0x1b68
  === BLOCK LINK ===
    0x1719
=== CODE BLOCK END ===

=== CODE BLOCK ADDRESS 0x1719 ===
  0x1719	mov    	ecx, eax
  0x171b	call   	dword ptr [0x1b3f]
  === BLOCK LINK ===
    0x1721
=== CODE BLOCK END ===

=== CODE BLOCK ADDRESS 0x1721 ===
  0x1721	dec    	eax
  0x1722	mov    	ecx, dword ptr [0x1b00]
  0x1728	dec    	eax
  0x1729	or     	eax, 0xffffffff
  0x172c	dec    	eax
  === BLOCK LINK ===
    0x172d
=== CODE BLOCK END ===

=== CODE BLOCK ADDRESS 0x172d ===
  0x172d	mov    	dword ptr [0x2ead], eax
  0x1733	dec    	eax
  0x1734	mov    	dword ptr [0x2eae], eax
  0x173a	mov    	eax, dword ptr [0x2924]
  0x1740	mov    	dword ptr [ecx], eax
  === BLOCK LINK ===
    0x1742
=== CODE BLOCK END ===

=== CODE BLOCK ADDRESS 0x1742 ===
  0x1742	dec    	eax
  0x1743	mov    	ecx, dword ptr [0x1ad7]
  0x1749	mov    	eax, dword ptr [0x2909]
  0x174f	mov    	dword ptr [ecx], eax
  0x1751	call   	0x1bc0
  === BLOCK LINK ===
    0x1756
=== CODE BLOCK END ===

=== CODE BLOCK ADDRESS 0x1756 ===
  0x1756	cmp    	dword ptr [0x28a3], 0
  0x175d	jne    	0x176c
  === BLOCK LINK ===
    0x175f
=== CODE BLOCK END ===

=== CODE BLOCK ADDRESS 0x175f ===
  0x175f	dec    	eax
  0x1760	lea    	ecx, [0x45a]
  0x1766	call   	dword ptr [0x1ad4]
  === BLOCK LINK ===
    0x176c
=== CODE BLOCK END ===

=== CODE BLOCK ADDRESS 0x176c ===
  0x176c	xor    	eax, eax
  0x176e	dec    	eax
  0x176f	add    	esp, 0x28
  0x1772	ret    	
  0x1773	int3   	
  === BLOCK LINK ===
    0x1774
=== CODE BLOCK END ===

=== CODE BLOCK ADDRESS 0x1774 ===
  0x1774	int3   	
  0x1775	int3   	
  0x1776	int3   	
  0x1777	int3   	
  0x1778	int3   	
  === BLOCK LINK ===
    0x1779
=== CODE BLOCK END ===

=== CODE BLOCK ADDRESS 0x1779 ===
  0x1779	int3   	
  0x177a	int3   	
  0x177b	int3   	
  0x177c	int3   	
  0x177d	int3   	
  === BLOCK LINK ===
    0x177e
=== CODE BLOCK END ===

=== CODE BLOCK ADDRESS 0x177e ===
  0x177e	int3   	
  0x177f	int3   	
  0x1780	dec    	eax
  0x1781	sub    	esp, 0x38
  0x1784	mov    	eax, dword ptr [0x28d6]
  === BLOCK LINK ===
    0x178a
=== CODE BLOCK END ===

=== CODE BLOCK ADDRESS 0x178a ===
  0x178a	dec    	esp
  0x178b	lea    	eax, [0x28b7]
  0x1791	inc    	esp
  0x1792	mov    	ecx, dword ptr [0x28c4]
  0x1798	dec    	eax
  === BLOCK LINK ===
    0x1799
=== CODE BLOCK END ===

=== CODE BLOCK ADDRESS 0x1799 ===
  0x1799	lea    	edx, [0x28a1]
  0x179f	mov    	dword ptr [0x28af], eax
  0x17a5	dec    	eax
  0x17a6	lea    	ecx, [0x288c]
  0x17ac	dec    	eax
  === BLOCK LINK ===
    0x17ad
=== CODE BLOCK END ===

=== CODE BLOCK ADDRESS 0x17ad ===
  0x17ad	lea    	eax, [0x28a1]
  0x17b3	dec    	eax
  0x17b4	mov    	dword ptr [esp + 0x20], eax
  0x17b8	call   	dword ptr [0x1aaa]
  === BLOCK LINK ===
    0x17be
=== CODE BLOCK END ===

=== CODE BLOCK ADDRESS 0x17be ===
  0x17be	mov    	dword ptr [0x2878], eax
  0x17c4	dec    	eax
  0x17c5	add    	esp, 0x38
  0x17c8	ret    	
  0x17c9	int3   	
  === BLOCK LINK ===
    0x17ca
=== CODE BLOCK END ===

=== CODE BLOCK ADDRESS 0x17ca ===
  0x17ca	int3   	
  0x17cb	int3   	
  0x17cc	int3   	
  0x17cd	int3   	
  0x17ce	int3   	
  === BLOCK LINK ===
    0x17cf
=== CODE BLOCK END ===

=== CODE BLOCK ADDRESS 0x17cf ===
  0x17cf	int3   	
  0x17d0	dec    	eax
  0x17d1	mov    	eax, esp
  0x17d3	dec    	eax
  0x17d4	mov    	dword ptr [eax + 8], ebx
  === BLOCK LINK ===
    0x17d7
=== CODE BLOCK END ===

=== CODE BLOCK ADDRESS 0x17d7 ===
  0x17d7	dec    	eax
  0x17d8	mov    	dword ptr [eax + 0x10], esi
  0x17db	dec    	eax
  0x17dc	mov    	dword ptr [eax + 0x18], edi
  0x17df	dec    	esp
  === BLOCK LINK ===
    0x17e0
=== CODE BLOCK END ===

=== CODE BLOCK ADDRESS 0x17e0 ===
  0x17e0	mov    	dword ptr [eax + 0x20], esi
  0x17e3	inc    	ecx
  0x17e4	push   	edi
  0x17e5	dec    	eax
  0x17e6	sub    	esp, 0xb0
  === BLOCK LINK ===
    0x17ec
=== CODE BLOCK END ===

=== CODE BLOCK ADDRESS 0x17ec ===
  0x17ec	inc    	ebp
  0x17ed	xor    	esi, esi
  0x17ef	inc    	esp
  0x17f0	mov    	dword ptr [esp + 0x20], esi
  0x17f4	dec    	eax
  === BLOCK LINK ===
    0x17f5
=== CODE BLOCK END ===

=== CODE BLOCK ADDRESS 0x17f5 ===
  0x17f5	lea    	ecx, [eax - 0x78]
  0x17f8	call   	dword ptr [0x19a2]
  === BLOCK LINK ===
    0x17fe
=== CODE BLOCK END ===

=== CODE BLOCK ADDRESS 0x17fe ===
  0x17fe	nop    	
  0x17ff	dec    	eax
  0x1801	mov    	eax, dword ptr [0x30]
  0x1808	dec    	eax
  0x1809	mov    	ebx, dword ptr [eax + 8]
  === BLOCK LINK ===
    0x180c
=== CODE BLOCK END ===

=== CODE BLOCK ADDRESS 0x180c ===
  0x180c	inc    	ecx
  0x180d	mov    	esi, esi
  0x180f	xor    	eax, eax
  0x1811	.byte  	0xf0
  0x1812	dec    	eax
  === BLOCK LINK ===
    0x1813
=== CODE BLOCK END ===

=== CODE BLOCK ADDRESS 0x1813 ===
  0x1813	cmpxchg  	dword ptr [0x2dd6], ebx
  0x181a	je     	0x1837
  === BLOCK LINK ===
    0x181c
=== CODE BLOCK END ===

=== CODE BLOCK ADDRESS 0x181c ===
  0x181c	dec    	eax
  0x181d	cmp    	eax, ebx
  0x181f	jne    	0x182a
  === BLOCK LINK ===
    0x1821
=== CODE BLOCK END ===

=== CODE BLOCK ADDRESS 0x1821 ===
  0x1821	mov    	ebx, 1
  0x1826	mov    	esi, ebx
  0x1828	jmp    	0x183c
  === BLOCK LINK ===
    0x182a
=== CODE BLOCK END ===

=== CODE BLOCK ADDRESS 0x182a ===
  0x182a	mov    	ecx, 0x3e8
  0x182f	call   	dword ptr [0x19bb]
  === BLOCK LINK ===
    0x1835
=== CODE BLOCK END ===

=== CODE BLOCK ADDRESS 0x1835 ===
  0x1835	jmp    	0x180f
  === BLOCK LINK ===
    0x1837
=== CODE BLOCK END ===

=== CODE BLOCK ADDRESS 0x1837 ===
  0x1837	mov    	ebx, 1
  0x183c	mov    	eax, dword ptr [0x2db6]
  0x1842	cmp    	eax, ebx
  0x1844	jne    	0x1854
  === BLOCK LINK ===
    0x1846
=== CODE BLOCK END ===

=== CODE BLOCK ADDRESS 0x1846 ===
  0x1846	mov    	edi, 0x1f
  0x184b	mov    	ecx, edi
  0x184d	call   	0x1bb3
  === BLOCK LINK ===
    0x1852
=== CODE BLOCK END ===

=== CODE BLOCK ADDRESS 0x1852 ===
  0x1852	jmp    	0x18c0
  === BLOCK LINK ===
    0x1854
=== CODE BLOCK END ===

=== CODE BLOCK ADDRESS 0x1854 ===
  0x1854	mov    	eax, dword ptr [0x2d9e]
  0x185a	test   	eax, eax
  0x185c	jne    	0x18b5
  === BLOCK LINK ===
    0x185e
=== CODE BLOCK END ===

=== CODE BLOCK ADDRESS 0x185e ===
  0x185e	mov    	dword ptr [0x2d94], ebx
  0x1864	dec    	esp
  0x1865	lea    	edi, [0x1a7d]
  0x186b	dec    	eax
  0x186c	lea    	edi, [0x1a5e]
  === BLOCK LINK ===
    0x1872
=== CODE BLOCK END ===

=== CODE BLOCK ADDRESS 0x1872 ===
  0x1872	dec    	eax
  0x1873	mov    	dword ptr [esp + 0x30], edi
  0x1877	inc    	ecx
  0x1878	mov    	eax, esi
  0x187a	mov    	dword ptr [esp + 0x24], eax
  === BLOCK LINK ===
    0x187e
=== CODE BLOCK END ===

=== CODE BLOCK ADDRESS 0x187e ===
  0x187e	dec    	ecx
  0x187f	cmp    	edi, edi
  0x1881	jae    	0x18a7
  === BLOCK LINK ===
    0x1883
=== CODE BLOCK END ===

=== CODE BLOCK ADDRESS 0x1883 ===
  0x1883	test   	eax, eax
  0x1885	jne    	0x18ab
  === BLOCK LINK ===
    0x1887
=== CODE BLOCK END ===

=== CODE BLOCK ADDRESS 0x1887 ===
  0x1887	dec    	esp
  0x1888	cmp    	dword ptr [edi], esi
  0x188a	je     	0x189c
  === BLOCK LINK ===
    0x188c
=== CODE BLOCK END ===

=== CODE BLOCK ADDRESS 0x188c ===
  0x188c	dec    	eax
  0x188d	mov    	eax, dword ptr [edi]
  0x188f	dec    	eax
  0x1890	mov    	ecx, dword ptr [0x1a1a]
  0x1896	call   	ecx
  === BLOCK LINK ===
    0x1898
=== CODE BLOCK END ===

=== CODE BLOCK ADDRESS 0x1898 ===
  0x1898	mov    	dword ptr [esp + 0x24], eax
  0x189c	dec    	eax
  0x189d	add    	edi, 8
  0x18a0	dec    	eax
  0x18a1	mov    	dword ptr [esp + 0x30], edi
  === BLOCK LINK ===
    0x18a5
=== CODE BLOCK END ===

=== CODE BLOCK ADDRESS 0x18a5 ===
  0x18a5	jmp    	0x187e
  === BLOCK LINK ===
    0x18a7
=== CODE BLOCK END ===

=== CODE BLOCK ADDRESS 0x18a7 ===
  0x18a7	test   	eax, eax
  0x18a9	je     	0x18bb
  === BLOCK LINK ===
    0x18ab
=== CODE BLOCK END ===

=== CODE BLOCK ADDRESS 0x18ab ===
  0x18ab	mov    	eax, 0xff
  0x18b0	jmp    	0x1a16
  === BLOCK LINK ===
    0x18b5
=== CODE BLOCK END ===

=== CODE BLOCK ADDRESS 0x18b5 ===
  0x18b5	mov    	dword ptr [0x2779], ebx
  0x18bb	mov    	edi, 0x1f
  0x18c0	mov    	eax, dword ptr [0x2d32]
  0x18c6	cmp    	eax, ebx
  0x18c8	jne    	0x18e7
  === BLOCK LINK ===
    0x18ca
=== CODE BLOCK END ===

=== CODE BLOCK ADDRESS 0x18ca ===
  0x18ca	dec    	eax
  0x18cb	lea    	edx, [0x19f7]
  0x18d1	dec    	eax
  0x18d2	lea    	ecx, [0x19e0]
  0x18d8	call   	0x1d8e
  === BLOCK LINK ===
    0x18dd
=== CODE BLOCK END ===

=== CODE BLOCK ADDRESS 0x18dd ===
  0x18dd	mov    	dword ptr [0x2d11], 2
  0x18e7	test   	esi, esi
  0x18e9	jne    	0x18f5
  === BLOCK LINK ===
    0x18eb
=== CODE BLOCK END ===

=== CODE BLOCK ADDRESS 0x18eb ===
  0x18eb	dec    	ecx
  0x18ec	mov    	eax, esi
  0x18ee	dec    	eax
  0x18ef	xchg   	dword ptr [0x2cfb], eax
  0x18f5	dec    	esp
  === BLOCK LINK ===
    0x18f6
=== CODE BLOCK END ===

=== CODE BLOCK ADDRESS 0x18f6 ===
  0x18f6	cmp    	dword ptr [0x2d04], esi
  0x18fc	je     	0x1928
  === BLOCK LINK ===
    0x18fe
=== CODE BLOCK END ===

=== CODE BLOCK ADDRESS 0x18fe ===
  0x18fe	dec    	eax
  0x18ff	lea    	ecx, [0x2cfb]
  0x1905	call   	0x1c20
  === BLOCK LINK ===
    0x190a
=== CODE BLOCK END ===

=== CODE BLOCK ADDRESS 0x190a ===
  0x190a	test   	eax, eax
  0x190c	je     	0x1928
  === BLOCK LINK ===
    0x190e
=== CODE BLOCK END ===

=== CODE BLOCK ADDRESS 0x190e ===
  0x190e	inc    	ebp
  0x190f	xor    	eax, eax
  0x1911	inc    	ecx
  0x1912	lea    	edx, [eax + 2]
  0x1915	xor    	ecx, ecx
  === BLOCK LINK ===
    0x1917
=== CODE BLOCK END ===

=== CODE BLOCK ADDRESS 0x1917 ===
  0x1917	dec    	eax
  0x1918	mov    	eax, dword ptr [0x2ce2]
  0x191e	dec    	esp
  0x191f	mov    	ecx, dword ptr [0x198b]
  0x1925	inc    	ecx
  === BLOCK LINK ===
    0x1926
=== CODE BLOCK END ===

=== CODE BLOCK ADDRESS 0x1926 ===
  0x1926	call   	ecx
  === BLOCK LINK ===
    0x1928
=== CODE BLOCK END ===

=== CODE BLOCK ADDRESS 0x1928 ===
  0x1928	dec    	eax
  0x1929	mov    	eax, dword ptr [0x1901]
  0x192f	dec    	eax
  0x1930	mov    	ecx, dword ptr [eax]
  0x1932	dec    	eax
  === BLOCK LINK ===
    0x1933
=== CODE BLOCK END ===

=== CODE BLOCK ADDRESS 0x1933 ===
  0x1933	test   	ecx, ecx
  0x1935	jne    	0x1941
  === BLOCK LINK ===
    0x1937
=== CODE BLOCK END ===

=== CODE BLOCK ADDRESS 0x1937 ===
  0x1937	mov    	eax, 0xff
  0x193c	jmp    	0x1a16
  === BLOCK LINK ===
    0x1941
=== CODE BLOCK END ===

=== CODE BLOCK ADDRESS 0x1941 ===
  0x1941	dec    	eax
  0x1942	mov    	dword ptr [esp + 0x28], ecx
  0x1946	mov    	edx, dword ptr [esp + 0x20]
  0x194a	movzx  	eax, word ptr [ecx]
  0x194d	cmp    	ax, 0x20
  === BLOCK LINK ===
    0x1951
=== CODE BLOCK END ===

=== CODE BLOCK ADDRESS 0x1951 ===
  0x1951	ja     	0x19c7
  === BLOCK LINK ===
    0x1953
=== CODE BLOCK END ===

=== CODE BLOCK ADDRESS 0x1953 ===
  0x1953	test   	ax, ax
  0x1956	je     	0x195c
  === BLOCK LINK ===
    0x1958
=== CODE BLOCK END ===

=== CODE BLOCK ADDRESS 0x1958 ===
  0x1958	test   	edx, edx
  0x195a	jne    	0x19c7
  === BLOCK LINK ===
    0x195c
=== CODE BLOCK END ===

=== CODE BLOCK ADDRESS 0x195c ===
  0x195c	sub    	ax, bx
  0x195f	cmp    	ax, di
  0x1962	ja     	0x1972
  === BLOCK LINK ===
    0x1964
=== CODE BLOCK END ===

=== CODE BLOCK ADDRESS 0x1964 ===
  0x1964	dec    	eax
  0x1965	add    	ecx, 2
  0x1968	dec    	eax
  0x1969	mov    	dword ptr [esp + 0x28], ecx
  0x196d	movzx  	eax, word ptr [ecx]
  === BLOCK LINK ===
    0x1970
=== CODE BLOCK END ===

=== CODE BLOCK ADDRESS 0x1970 ===
  0x1970	jmp    	0x195c
  === BLOCK LINK ===
    0x1972
=== CODE BLOCK END ===

=== CODE BLOCK ADDRESS 0x1972 ===
  0x1972	test   	byte ptr [esp + 0x7c], bl
  0x1976	movzx  	eax, word ptr [esp + 0x80]
  0x197e	inc    	ecx
  0x197f	mov    	ecx, 0xa
  0x1984	inc    	esp
  === BLOCK LINK ===
    0x1985
=== CODE BLOCK END ===

=== CODE BLOCK ADDRESS 0x1985 ===
  0x1985	cmovne  	ecx, eax
  0x1988	dec    	esp
  0x1989	mov    	eax, ecx
  0x198b	xor    	edx, edx
  0x198d	dec    	eax
  === BLOCK LINK ===
    0x198e
=== CODE BLOCK END ===

=== CODE BLOCK ADDRESS 0x198e ===
  0x198e	lea    	ecx, [0xffffe66c]
  0x1994	call   	0x1010
  === BLOCK LINK ===
    0x1999
=== CODE BLOCK END ===

=== CODE BLOCK ADDRESS 0x1999 ===
  0x1999	mov    	dword ptr [0x2691], eax
  0x199f	inc    	esp
  0x19a0	cmp    	dword ptr [0x26aa], esi
  0x19a6	jne    	0x19b0
  === BLOCK LINK ===
    0x19a8
=== CODE BLOCK END ===

=== CODE BLOCK ADDRESS 0x19a8 ===
  0x19a8	mov    	ecx, eax
  0x19aa	call   	dword ptr [0x18a8]
  === BLOCK LINK ===
    0x19b0
=== CODE BLOCK END ===

=== CODE BLOCK ADDRESS 0x19b0 ===
  0x19b0	inc    	esp
  0x19b1	cmp    	dword ptr [0x267d], esi
  0x19b7	jne    	0x19c5
  === BLOCK LINK ===
    0x19b9
=== CODE BLOCK END ===

=== CODE BLOCK ADDRESS 0x19b9 ===
  0x19b9	call   	dword ptr [0x1889]
  === BLOCK LINK ===
    0x19bf
=== CODE BLOCK END ===

=== CODE BLOCK ADDRESS 0x19bf ===
  0x19bf	mov    	eax, dword ptr [0x266b]
  0x19c5	jmp    	0x1a16
  === BLOCK LINK ===
    0x19c7
=== CODE BLOCK END ===

=== CODE BLOCK ADDRESS 0x19c7 ===
  0x19c7	cmp    	ax, 0x22
  0x19cb	jne    	0x19db
  === BLOCK LINK ===
    0x19cd
=== CODE BLOCK END ===

=== CODE BLOCK ADDRESS 0x19cd ===
  0x19cd	inc    	ecx
  0x19ce	mov    	eax, esi
  0x19d0	test   	edx, edx
  0x19d2	sete   	al
  0x19d5	mov    	edx, eax
  === BLOCK LINK ===
    0x19d7
=== CODE BLOCK END ===

=== CODE BLOCK ADDRESS 0x19d7 ===
  0x19d7	mov    	dword ptr [esp + 0x20], eax
  0x19db	dec    	eax
  0x19dc	add    	ecx, 2
  0x19df	dec    	eax
  0x19e0	mov    	dword ptr [esp + 0x28], ecx
  === BLOCK LINK ===
    0x19e4
=== CODE BLOCK END ===

=== CODE BLOCK ADDRESS 0x19e4 ===
  0x19e4	jmp    	0x194a
  === BLOCK LINK ===
    0x19e9
=== CODE BLOCK END ===

=== CODE BLOCK ADDRESS 0x19e9 ===
  0x19e9	mov    	dword ptr [0x2641], eax
  0x19ef	cmp    	dword ptr [0x265a], 0
  0x19f6	jne    	0x1a01
  === BLOCK LINK ===
    0x19f8
=== CODE BLOCK END ===

=== CODE BLOCK ADDRESS 0x19f8 ===
  0x19f8	mov    	ecx, eax
  0x19fa	call   	dword ptr [0x1850]
  === BLOCK LINK ===
    0x1a00
=== CODE BLOCK END ===

=== CODE BLOCK ADDRESS 0x1a00 ===
  0x1a00	int3   	
  0x1a01	cmp    	dword ptr [0x262c], 0
  0x1a08	jne    	0x1a16
  === BLOCK LINK ===
    0x1a0a
=== CODE BLOCK END ===

=== CODE BLOCK ADDRESS 0x1a0a ===
  0x1a0a	call   	dword ptr [0x1838]
  === BLOCK LINK ===
    0x1a10
=== CODE BLOCK END ===

=== CODE BLOCK ADDRESS 0x1a10 ===
  0x1a10	mov    	eax, dword ptr [0x261a]
  0x1a16	dec    	esp
  0x1a17	lea    	ebx, [esp + 0xb0]
  0x1a1e	dec    	ecx
  0x1a1f	mov    	ebx, dword ptr [ebx + 0x10]
  === BLOCK LINK ===
    0x1a22
=== CODE BLOCK END ===

=== CODE BLOCK ADDRESS 0x1a22 ===
  0x1a22	dec    	ecx
  0x1a23	mov    	esi, dword ptr [ebx + 0x18]
  0x1a26	dec    	ecx
  0x1a27	mov    	edi, dword ptr [ebx + 0x20]
  0x1a2a	dec    	ebp
  === BLOCK LINK ===
    0x1a2b
=== CODE BLOCK END ===

=== CODE BLOCK ADDRESS 0x1a2b ===
  0x1a2b	mov    	esi, dword ptr [ebx + 0x28]
  0x1a2e	dec    	ecx
  0x1a2f	mov    	esp, ebx
  0x1a31	inc    	ecx
  0x1a32	pop    	edi
  === BLOCK LINK ===
    0x1a33
=== CODE BLOCK END ===

=== CODE BLOCK ADDRESS 0x1a33 ===
  0x1a33	ret    	
  0x1a34	int3   	
  0x1a35	int3   	
  0x1a36	int3   	
  0x1a37	int3   	
  === BLOCK LINK ===
    0x1a38
=== CODE BLOCK END ===

=== CODE BLOCK ADDRESS 0x1a38 ===
  0x1a38	int3   	
  0x1a39	int3   	
  0x1a3a	int3   	
  0x1a3b	int3   	
  0x1a3c	int3   	
  === BLOCK LINK ===
    0x1a3d
=== CODE BLOCK END ===

=== CODE BLOCK ADDRESS 0x1a3d ===
  0x1a3d	int3   	
  0x1a3e	int3   	
  0x1a3f	int3   	
  0x1a40	dec    	eax
  0x1a41	sub    	esp, 0x28
  === BLOCK LINK ===
    0x1a44
=== CODE BLOCK END ===

=== CODE BLOCK ADDRESS 0x1a44 ===
  0x1a44	call   	0x1cb4
  === BLOCK LINK ===
    0x1a49
=== CODE BLOCK END ===

=== CODE BLOCK ADDRESS 0x1a49 ===
  0x1a49	dec    	eax
  0x1a4a	add    	esp, 0x28
  0x1a4d	jmp    	0x17d0
  === BLOCK LINK ===
    0x1a52
=== CODE BLOCK END ===

=== CODE BLOCK ADDRESS 0x1a52 ===
  0x1a52	int3   	
  0x1a53	int3   	
  0x1a54	int3   	
  0x1a55	int3   	
  0x1a56	int3   	
  === BLOCK LINK ===
    0x1a57
=== CODE BLOCK END ===

=== CODE BLOCK ADDRESS 0x1a57 ===
  0x1a57	int3   	
  0x1a58	int3   	
  0x1a59	int3   	
  0x1a5a	int3   	
  0x1a5b	int3   	
  === BLOCK LINK ===
    0x1a5c
=== CODE BLOCK END ===

=== CODE BLOCK ADDRESS 0x1a5c ===
  0x1a5c	int3   	
  0x1a5d	int3   	
  0x1a5e	int3   	
  0x1a5f	int3   	
  0x1a60	int3   	
  === BLOCK LINK ===
    0x1a61
=== CODE BLOCK END ===

=== CODE BLOCK ADDRESS 0x1a61 ===
  0x1a61	int3   	
  0x1a62	int3   	
  0x1a63	int3   	
  0x1a64	int3   	
  0x1a65	int3   	
  === BLOCK LINK ===
    0x1a66
=== CODE BLOCK END ===

=== CODE BLOCK ADDRESS 0x1a66 ===
  0x1a66	nop    	word ptr [eax + eax]
  0x1a70	dec    	eax
  0x1a71	cmp    	ecx, dword ptr [0x2591]
  0x1a77	jne    	0x1a89
  === BLOCK LINK ===
    0x1a79
=== CODE BLOCK END ===

=== CODE BLOCK ADDRESS 0x1a79 ===
  0x1a79	dec    	eax
  0x1a7a	rol    	ecx, 0x10
  0x1a7d	test   	cx, 0xffff
  0x1a82	jne    	0x1a85
  === BLOCK LINK ===
    0x1a84
=== CODE BLOCK END ===

=== CODE BLOCK ADDRESS 0x1a84 ===
  0x1a84	ret    	
  0x1a85	dec    	eax
  0x1a86	ror    	ecx, 0x10
  0x1a89	jmp    	0x1e00
  === BLOCK LINK ===
    0x1a8e
=== CODE BLOCK END ===

=== CODE BLOCK ADDRESS 0x1a8e ===
  0x1a8e	int3   	
  0x1a8f	int3   	
  0x1a90	int3   	
  0x1a91	int3   	
  0x1a92	int3   	
  === BLOCK LINK ===
    0x1a93
=== CODE BLOCK END ===

=== CODE BLOCK ADDRESS 0x1a93 ===
  0x1a93	int3   	
  0x1a94	int3   	
  0x1a95	int3   	
  0x1a96	int3   	
  0x1a97	int3   	
  === BLOCK LINK ===
    0x1a98
=== CODE BLOCK END ===

=== CODE BLOCK ADDRESS 0x1a98 ===
  0x1a98	int3   	
  0x1a99	int3   	
  0x1a9a	int3   	
  0x1a9b	int3   	
  0x1a9c	int3   	
  === BLOCK LINK ===
    0x1a9d
=== CODE BLOCK END ===

=== CODE BLOCK ADDRESS 0x1a9d ===
  0x1a9d	int3   	
  0x1a9e	int3   	
  0x1a9f	int3   	
  0x1aa0	dec    	eax
  0x1aa1	sub    	esp, 0x28
  === BLOCK LINK ===
    0x1aa4
=== CODE BLOCK END ===

=== CODE BLOCK ADDRESS 0x1aa4 ===
  0x1aa4	dec    	eax
  0x1aa5	mov    	eax, dword ptr [ecx]
  0x1aa7	cmp    	dword ptr [eax], 0xe06d7363
  0x1aad	jne    	0x1ad2
  === BLOCK LINK ===
    0x1aaf
=== CODE BLOCK END ===

=== CODE BLOCK ADDRESS 0x1aaf ===
  0x1aaf	cmp    	dword ptr [eax + 0x18], 4
  0x1ab3	jne    	0x1ad2
  === BLOCK LINK ===
    0x1ab5
=== CODE BLOCK END ===

=== CODE BLOCK ADDRESS 0x1ab5 ===
  0x1ab5	mov    	ecx, dword ptr [eax + 0x20]
  0x1ab8	lea    	eax, [ecx - 0x19930520]
  0x1abe	cmp    	eax, 2
  0x1ac1	jbe    	0x1acb
  === BLOCK LINK ===
    0x1ac3
=== CODE BLOCK END ===

=== CODE BLOCK ADDRESS 0x1ac3 ===
  0x1ac3	cmp    	ecx, 0x1994000
  0x1ac9	jne    	0x1ad2
  === BLOCK LINK ===
    0x1acb
=== CODE BLOCK END ===

=== CODE BLOCK ADDRESS 0x1acb ===
  0x1acb	call   	dword ptr [0x1747]
  === BLOCK LINK ===
    0x1ad1
=== CODE BLOCK END ===

=== CODE BLOCK ADDRESS 0x1ad1 ===
  0x1ad1	int3   	
  0x1ad2	xor    	eax, eax
  0x1ad4	dec    	eax
  0x1ad5	add    	esp, 0x28
  0x1ad8	ret    	
  === BLOCK LINK ===
    0x1ad9
=== CODE BLOCK END ===

=== CODE BLOCK ADDRESS 0x12b4 ===
  0x12b4	mov    	edx, 0x3a
  0x12b9	dec    	eax
  0x12ba	mov    	ecx, ebx
  0x12bc	dec    	eax
  === BLOCK LINK ===
    0x12bd
=== CODE BLOCK END ===

=== CODE BLOCK ADDRESS 0x1ad9 ===
  0x1ad9	int3   	
  0x1ada	int3   	
  0x1adb	int3   	
  0x1adc	int3   	
  0x1add	int3   	
  === BLOCK LINK ===
    0x1ade
=== CODE BLOCK END ===

=== CODE BLOCK ADDRESS 0x1ade ===
  0x1ade	int3   	
  0x1adf	int3   	
  0x1ae0	dec    	eax
  0x1ae1	sub    	esp, 0x28
  0x1ae4	dec    	eax
  === BLOCK LINK ===
    0x1ae5
=== CODE BLOCK END ===

=== CODE BLOCK ADDRESS 0x1ae5 ===
  0x1ae5	lea    	ecx, [0xffffffb5]
  0x1aeb	call   	dword ptr [0x1657]
  === BLOCK LINK ===
    0x1af1
=== CODE BLOCK END ===

=== CODE BLOCK ADDRESS 0x1af1 ===
  0x1af1	xor    	eax, eax
  0x1af3	dec    	eax
  0x1af4	add    	esp, 0x28
  0x1af7	ret    	
  0x1af8	int3   	
  === BLOCK LINK ===
    0x1af9
=== CODE BLOCK END ===

=== CODE BLOCK ADDRESS 0x1af9 ===
  0x1af9	int3   	
  0x1afa	int3   	
  0x1afb	int3   	
  0x1afc	int3   	
  0x1afd	int3   	
  === BLOCK LINK ===
    0x1afe
=== CODE BLOCK END ===

=== CODE BLOCK ADDRESS 0x1afe ===
  0x1afe	jmp    	dword ptr [0x1774]
  === BLOCK LINK ===
    0x1b04
=== CODE BLOCK END ===

=== CODE BLOCK ADDRESS 0x1b04 ===
  0x1b04	int3   	
  0x1b05	int3   	
  0x1b06	int3   	
  0x1b07	int3   	
  0x1b08	int3   	
  === BLOCK LINK ===
    0x1b09
=== CODE BLOCK END ===

=== CODE BLOCK ADDRESS 0x1b09 ===
  0x1b09	int3   	
  0x1b0a	int3   	
  0x1b0b	int3   	
  0x1b0c	dec    	eax
  0x1b0d	sub    	esp, 0x18
  === BLOCK LINK ===
    0x1b10
=== CODE BLOCK END ===

=== CODE BLOCK ADDRESS 0x1b10 ===
  0x1b10	xor    	edx, edx
  0x1b12	dec    	eax
  0x1b13	lea    	eax, [ecx - 1]
  0x1b16	dec    	eax
  0x1b17	cmp    	eax, -3
  === BLOCK LINK ===
    0x1b1a
=== CODE BLOCK END ===

=== CODE BLOCK ADDRESS 0x1b1a ===
  0x1b1a	ja     	0x1b58
  === BLOCK LINK ===
    0x1b1c
=== CODE BLOCK END ===

=== CODE BLOCK ADDRESS 0x1b1c ===
  0x1b1c	mov    	eax, 0x5a4d
  0x1b21	cmp    	word ptr [ecx], ax
  0x1b24	jne    	0x1b50
  === BLOCK LINK ===
    0x1b26
=== CODE BLOCK END ===

=== CODE BLOCK ADDRESS 0x1b26 ===
  0x1b26	cmp    	dword ptr [ecx + 0x3c], edx
  0x1b29	jl     	0x1b50
  === BLOCK LINK ===
    0x1b2b
=== CODE BLOCK END ===

=== CODE BLOCK ADDRESS 0x1b2b ===
  0x1b2b	cmp    	dword ptr [ecx + 0x3c], 0x10000000
  0x1b32	jae    	0x1b50
  === BLOCK LINK ===
    0x1b34
=== CODE BLOCK END ===

=== CODE BLOCK ADDRESS 0x1b34 ===
  0x1b34	dec    	eax
  0x1b35	arpl   	word ptr [ecx + 0x3c], ax
  0x1b38	dec    	eax
  0x1b39	add    	eax, ecx
  0x1b3b	dec    	eax
  === BLOCK LINK ===
    0x1b3c
=== CODE BLOCK END ===

=== CODE BLOCK ADDRESS 0x1b3c ===
  0x1b3c	mov    	dword ptr [esp], eax
  0x1b3f	cmp    	dword ptr [eax], 0x4550
  0x1b45	dec    	eax
  0x1b46	cmovne  	eax, edx
  0x1b49	dec    	eax
  === BLOCK LINK ===
    0x1b4a
=== CODE BLOCK END ===

=== CODE BLOCK ADDRESS 0x1b4a ===
  0x1b4a	mov    	edx, eax
  0x1b4c	dec    	eax
  0x1b4d	mov    	dword ptr [esp], eax
  0x1b50	jmp    	0x1b58
  === BLOCK LINK ===
    0x1b52
=== CODE BLOCK END ===

=== CODE BLOCK ADDRESS 0x1b52 ===
  0x1b52	xor    	edx, edx
  0x1b54	dec    	eax
  0x1b55	mov    	dword ptr [esp], edx
  0x1b58	dec    	eax
  0x1b59	mov    	eax, edx
  === BLOCK LINK ===
    0x1b5b
=== CODE BLOCK END ===

=== CODE BLOCK ADDRESS 0x1b5b ===
  0x1b5b	dec    	eax
  0x1b5c	add    	esp, 0x18
  0x1b5f	ret    	
  0x1b60	int3   	
  0x1b61	int3   	
  === BLOCK LINK ===
    0x1b62
=== CODE BLOCK END ===

=== CODE BLOCK ADDRESS 0x1b62 ===
  0x1b62	int3   	
  0x1b63	int3   	
  0x1b64	int3   	
  0x1b65	int3   	
  0x1b66	int3   	
  === BLOCK LINK ===
    0x1b67
=== CODE BLOCK END ===

=== CODE BLOCK ADDRESS 0x1b67 ===
  0x1b67	int3   	
  0x1b68	inc    	eax
  0x1b69	push   	ebx
  0x1b6a	dec    	eax
  0x1b6b	sub    	esp, 0x20
  === BLOCK LINK ===
    0x1b6e
=== CODE BLOCK END ===

=== CODE BLOCK ADDRESS 0x1b6e ===
  0x1b6e	mov    	ebx, ecx
  0x1b70	xor    	ecx, ecx
  0x1b72	call   	dword ptr [0x1600]
  === BLOCK LINK ===
    0x1b78
=== CODE BLOCK END ===

=== CODE BLOCK ADDRESS 0x1b78 ===
  0x1b78	dec    	eax
  0x1b79	test   	eax, eax
  0x1b7b	je     	0x1ba5
  === BLOCK LINK ===
    0x1b7d
=== CODE BLOCK END ===

=== CODE BLOCK ADDRESS 0x1b7d ===
  0x1b7d	dec    	eax
  0x1b7e	mov    	ecx, eax
  0x1b80	call   	0x1b0c
  === BLOCK LINK ===
    0x1b85
=== CODE BLOCK END ===

=== CODE BLOCK ADDRESS 0x1b85 ===
  0x1b85	dec    	eax
  0x1b86	test   	eax, eax
  0x1b88	je     	0x1ba5
  === BLOCK LINK ===
    0x1b8a
=== CODE BLOCK END ===

=== CODE BLOCK ADDRESS 0x1b8a ===
  0x1b8a	mov    	ecx, 2
  0x1b8f	cmp    	word ptr [eax + 0x5c], cx
  0x1b93	jne    	0x1b99
  === BLOCK LINK ===
    0x1b95
=== CODE BLOCK END ===

=== CODE BLOCK ADDRESS 0x1b95 ===
  0x1b95	mov    	eax, ecx
  0x1b97	jmp    	0x1ba7
  === BLOCK LINK ===
    0x1b99
=== CODE BLOCK END ===

=== CODE BLOCK ADDRESS 0x1b99 ===
  0x1b99	cmp    	word ptr [eax + 0x5c], 3
  0x1b9e	mov    	eax, 1
  0x1ba3	je     	0x1ba7
  === BLOCK LINK ===
    0x1ba5
=== CODE BLOCK END ===

=== CODE BLOCK ADDRESS 0x1ba5 ===
  0x1ba5	mov    	eax, ebx
  0x1ba7	dec    	eax
  0x1ba8	add    	esp, 0x20
  0x1bab	pop    	ebx
  0x1bac	ret    	
  === BLOCK LINK ===
    0x1bad
=== CODE BLOCK END ===

=== CODE BLOCK ADDRESS 0x1bad ===
  0x1bad	int3   	
  0x1bae	int3   	
  0x1baf	int3   	
  0x1bb0	int3   	
  0x1bb1	int3   	
  === BLOCK LINK ===
    0x1bb2
=== CODE BLOCK END ===

=== CODE BLOCK ADDRESS 0x1bb2 ===
  0x1bb2	int3   	
  0x1bb3	jmp    	dword ptr [0x16b7]
  === BLOCK LINK ===
    0x1bb9
=== CODE BLOCK END ===

=== CODE BLOCK ADDRESS 0x1bb9 ===
  0x1bb9	int3   	
  0x1bba	int3   	
  0x1bbb	int3   	
  0x1bbc	int3   	
  0x1bbd	int3   	
  === BLOCK LINK ===
    0x1bbe
=== CODE BLOCK END ===

=== CODE BLOCK ADDRESS 0x1bbe ===
  0x1bbe	int3   	
  0x1bbf	int3   	
  0x1bc0	xor    	eax, eax
  0x1bc2	ret    	
  0x1bc3	int3   	
  === BLOCK LINK ===
    0x1bc4
=== CODE BLOCK END ===

=== CODE BLOCK ADDRESS 0x1bc4 ===
  0x1bc4	int3   	
  0x1bc5	int3   	
  0x1bc6	int3   	
  0x1bc7	int3   	
  0x1bc8	int3   	
  === BLOCK LINK ===
    0x1bc9
=== CODE BLOCK END ===

=== CODE BLOCK ADDRESS 0x1bc9 ===
  0x1bc9	int3   	
  0x1bca	int3   	
  0x1bcb	int3   	
  0x1bcc	int3   	
  0x1bcd	int3   	
  === BLOCK LINK ===
    0x1bce
=== CODE BLOCK END ===

=== CODE BLOCK ADDRESS 0x1bce ===
  0x1bce	int3   	
  0x1bcf	int3   	
  0x1bd0	dec    	esp
  0x1bd1	arpl   	word ptr [ecx + 0x3c], ax
  0x1bd4	inc    	ebp
  === BLOCK LINK ===
    0x1bd5
=== CODE BLOCK END ===

=== CODE BLOCK ADDRESS 0x1bd5 ===
  0x1bd5	xor    	ecx, ecx
  0x1bd7	dec    	esp
  0x1bd8	add    	eax, ecx
  0x1bda	dec    	esp
  0x1bdb	mov    	edx, edx
  === BLOCK LINK ===
    0x1bdd
=== CODE BLOCK END ===

=== CODE BLOCK ADDRESS 0x1bdd ===
  0x1bdd	inc    	ecx
  0x1bde	movzx  	eax, word ptr [eax + 0x14]
  0x1be2	inc    	ebp
  0x1be3	movzx  	ebx, word ptr [eax + 6]
  0x1be7	dec    	eax
  === BLOCK LINK ===
    0x1be8
=== CODE BLOCK END ===

=== CODE BLOCK ADDRESS 0x1be8 ===
  0x1be8	add    	eax, 0x18
  0x1beb	dec    	ecx
  0x1bec	add    	eax, eax
  0x1bee	inc    	ebp
  0x1bef	test   	ebx, ebx
  === BLOCK LINK ===
    0x1bf1
=== CODE BLOCK END ===

=== CODE BLOCK ADDRESS 0x1bf1 ===
  0x1bf1	je     	0x1c11
  === BLOCK LINK ===
    0x1bf3
=== CODE BLOCK END ===

=== CODE BLOCK ADDRESS 0x1bf3 ===
  0x1bf3	mov    	edx, dword ptr [eax + 0xc]
  0x1bf6	dec    	esp
  0x1bf7	cmp    	edx, edx
  0x1bf9	jb     	0x1c05
  === BLOCK LINK ===
    0x1bfb
=== CODE BLOCK END ===

=== CODE BLOCK ADDRESS 0x1bfb ===
  0x1bfb	mov    	ecx, dword ptr [eax + 8]
  0x1bfe	add    	ecx, edx
  0x1c00	dec    	esp
  0x1c01	cmp    	edx, ecx
  0x1c03	jb     	0x1c13
  === BLOCK LINK ===
    0x1c05
=== CODE BLOCK END ===

=== CODE BLOCK ADDRESS 0x1c05 ===
  0x1c05	inc    	ecx
  0x1c06	inc    	ecx
  0x1c08	dec    	eax
  0x1c09	add    	eax, 0x28
  0x1c0c	inc    	ebp
  === BLOCK LINK ===
    0x1c0d
=== CODE BLOCK END ===

=== CODE BLOCK ADDRESS 0x1c0d ===
  0x1c0d	cmp    	ecx, ebx
  0x1c0f	jb     	0x1bf3
  === BLOCK LINK ===
    0x1c11
=== CODE BLOCK END ===

=== CODE BLOCK ADDRESS 0x1c11 ===
  0x1c11	xor    	eax, eax
  0x1c13	ret    	
  0x1c14	int3   	
  0x1c15	int3   	
  0x1c16	int3   	
  === BLOCK LINK ===
    0x1c17
=== CODE BLOCK END ===

=== CODE BLOCK ADDRESS 0x1c17 ===
  0x1c17	int3   	
  0x1c18	int3   	
  0x1c19	int3   	
  0x1c1a	int3   	
  0x1c1b	int3   	
  === BLOCK LINK ===
    0x1c1c
=== CODE BLOCK END ===

=== CODE BLOCK ADDRESS 0x1c1c ===
  0x1c1c	int3   	
  0x1c1d	int3   	
  0x1c1e	int3   	
  0x1c1f	int3   	
  0x1c20	dec    	eax
  === BLOCK LINK ===
    0x1c21
=== CODE BLOCK END ===

=== CODE BLOCK ADDRESS 0x1c21 ===
  0x1c21	mov    	dword ptr [esp + 8], ebx
  0x1c25	push   	edi
  0x1c26	dec    	eax
  0x1c27	sub    	esp, 0x20
  0x1c2a	dec    	eax
  === BLOCK LINK ===
    0x1c2b
=== CODE BLOCK END ===

=== CODE BLOCK ADDRESS 0x1c2b ===
  0x1c2b	mov    	ebx, ecx
  0x1c2d	dec    	eax
  0x1c2e	lea    	edi, [0xffffe3cc]
  0x1c34	dec    	eax
  0x1c35	mov    	ecx, edi
  === BLOCK LINK ===
    0x1c37
=== CODE BLOCK END ===

=== CODE BLOCK ADDRESS 0x1c37 ===
  0x1c37	call   	0x1c80
  === BLOCK LINK ===
    0x1c3c
=== CODE BLOCK END ===

=== CODE BLOCK ADDRESS 0x1c3c ===
  0x1c3c	test   	eax, eax
  0x1c3e	je     	0x1c62
  === BLOCK LINK ===
    0x1c40
=== CODE BLOCK END ===

=== CODE BLOCK ADDRESS 0x1c40 ===
  0x1c40	dec    	eax
  0x1c41	sub    	ebx, edi
  0x1c43	dec    	eax
  0x1c44	mov    	edx, ebx
  0x1c46	dec    	eax
  === BLOCK LINK ===
    0x1c47
=== CODE BLOCK END ===

=== CODE BLOCK ADDRESS 0x1c47 ===
  0x1c47	mov    	ecx, edi
  0x1c49	call   	0x1bd0
  === BLOCK LINK ===
    0x1c4e
=== CODE BLOCK END ===

=== CODE BLOCK ADDRESS 0x1c4e ===
  0x1c4e	dec    	eax
  0x1c4f	test   	eax, eax
  0x1c51	je     	0x1c62
  === BLOCK LINK ===
    0x1c53
=== CODE BLOCK END ===

=== CODE BLOCK ADDRESS 0x1c53 ===
  0x1c53	mov    	eax, dword ptr [eax + 0x24]
  0x1c56	shr    	eax, 0x1f
  0x1c59	not    	eax
  0x1c5b	and    	eax, 1
  0x1c5e	jmp    	0x1c62
  === BLOCK LINK ===
    0x1c60
=== CODE BLOCK END ===

=== CODE BLOCK ADDRESS 0x1c60 ===
  0x1c60	xor    	eax, eax
  0x1c62	dec    	eax
  0x1c63	mov    	ebx, dword ptr [esp + 0x30]
  0x1c67	dec    	eax
  0x1c68	add    	esp, 0x20
  === BLOCK LINK ===
    0x1c6b
=== CODE BLOCK END ===

=== CODE BLOCK ADDRESS 0x1c6b ===
  0x1c6b	pop    	edi
  0x1c6c	ret    	
  0x1c6d	int3   	
  0x1c6e	int3   	
  0x1c6f	int3   	
  === BLOCK LINK ===
    0x1c70
=== CODE BLOCK END ===

=== CODE BLOCK ADDRESS 0x1c70 ===
  0x1c70	int3   	
  0x1c71	int3   	
  0x1c72	int3   	
  0x1c73	int3   	
  0x1c74	int3   	
  === BLOCK LINK ===
    0x1c75
=== CODE BLOCK END ===

=== CODE BLOCK ADDRESS 0x1c75 ===
  0x1c75	int3   	
  0x1c76	int3   	
  0x1c77	int3   	
  0x1c78	int3   	
  0x1c79	int3   	
  === BLOCK LINK ===
    0x1c7a
=== CODE BLOCK END ===

=== CODE BLOCK ADDRESS 0x1c7a ===
  0x1c7a	int3   	
  0x1c7b	int3   	
  0x1c7c	int3   	
  0x1c7d	int3   	
  0x1c7e	int3   	
  === BLOCK LINK ===
    0x1c7f
=== CODE BLOCK END ===

=== CODE BLOCK ADDRESS 0x1c7f ===
  0x1c7f	int3   	
  0x1c80	mov    	eax, 0x5a4d
  0x1c85	cmp    	word ptr [ecx], ax
  0x1c88	jne    	0x1caa
  === BLOCK LINK ===
    0x1c8a
=== CODE BLOCK END ===

=== CODE BLOCK ADDRESS 0x1c8a ===
  0x1c8a	dec    	eax
  0x1c8b	arpl   	word ptr [ecx + 0x3c], ax
  0x1c8e	dec    	eax
  0x1c8f	add    	eax, ecx
  0x1c91	cmp    	dword ptr [eax], 0x4550
  === BLOCK LINK ===
    0x1c97
=== CODE BLOCK END ===

=== CODE BLOCK ADDRESS 0x1c97 ===
  0x1c97	jne    	0x1caa
  === BLOCK LINK ===
    0x1c99
=== CODE BLOCK END ===

=== CODE BLOCK ADDRESS 0x1c99 ===
  0x1c99	mov    	ecx, 0x20b
  0x1c9e	cmp    	word ptr [eax + 0x18], cx
  0x1ca2	jne    	0x1caa
  === BLOCK LINK ===
    0x1ca4
=== CODE BLOCK END ===

=== CODE BLOCK ADDRESS 0x1ca4 ===
  0x1ca4	mov    	eax, 1
  0x1ca9	ret    	
  0x1caa	xor    	eax, eax
  0x1cac	ret    	
  0x1cad	int3   	
  === BLOCK LINK ===
    0x1cae
=== CODE BLOCK END ===

=== CODE BLOCK ADDRESS 0x1cae ===
  0x1cae	int3   	
  0x1caf	int3   	
  0x1cb0	int3   	
  0x1cb1	int3   	
  0x1cb2	int3   	
  === BLOCK LINK ===
    0x1cb3
=== CODE BLOCK END ===

=== CODE BLOCK ADDRESS 0x1cb3 ===
  0x1cb3	int3   	
  0x1cb4	dec    	eax
  0x1cb5	mov    	dword ptr [esp + 0x20], ebx
  0x1cb9	push   	ebp
  0x1cba	dec    	eax
  === BLOCK LINK ===
    0x1cbb
=== CODE BLOCK END ===

=== CODE BLOCK ADDRESS 0x1cbb ===
  0x1cbb	mov    	ebp, esp
  0x1cbd	dec    	eax
  0x1cbe	sub    	esp, 0x20
  0x1cc1	dec    	eax
  0x1cc2	and    	dword ptr [ebp + 0x18], 0
  === BLOCK LINK ===
    0x1cc6
=== CODE BLOCK END ===

=== CODE BLOCK ADDRESS 0x1cc6 ===
  0x1cc6	dec    	eax
  0x1cc7	mov    	ebx, 0x2ddfa232
  0x1ccc	cdq    	
  0x1ccd	sub    	eax, dword ptr [eax]
  0x1ccf	add    	byte ptr [eax - 0x75], cl
  === BLOCK LINK ===
    0x1cd2
=== CODE BLOCK END ===

=== CODE BLOCK ADDRESS 0x1cd2 ===
  0x1cd2	add    	eax, 0x2331
  0x1cd7	dec    	eax
  0x1cd8	cmp    	eax, ebx
  0x1cda	jne    	0x1d73
  === BLOCK LINK ===
    0x1ce0
=== CODE BLOCK END ===

=== CODE BLOCK ADDRESS 0x1ce0 ===
  0x1ce0	dec    	eax
  0x1ce1	lea    	ecx, [ebp + 0x18]
  0x1ce4	call   	dword ptr [0x151e]
  === BLOCK LINK ===
    0x1cea
=== CODE BLOCK END ===

=== CODE BLOCK ADDRESS 0x1cea ===
  0x1cea	dec    	eax
  0x1ceb	mov    	eax, dword ptr [ebp + 0x18]
  0x1cee	dec    	eax
  0x1cef	mov    	dword ptr [ebp + 0x10], eax
  0x1cf2	call   	dword ptr [0x1490]
  === BLOCK LINK ===
    0x1cf8
=== CODE BLOCK END ===

=== CODE BLOCK ADDRESS 0x1cf8 ===
  0x1cf8	mov    	eax, eax
  0x1cfa	dec    	eax
  0x1cfb	xor    	dword ptr [ebp + 0x10], eax
  0x1cfe	call   	dword ptr [0x14a4]
  === BLOCK LINK ===
    0x1d04
=== CODE BLOCK END ===

=== CODE BLOCK ADDRESS 0x1d04 ===
  0x1d04	mov    	eax, eax
  0x1d06	dec    	eax
  0x1d07	xor    	dword ptr [ebp + 0x10], eax
  0x1d0a	call   	dword ptr [0x14f0]
  === BLOCK LINK ===
    0x1d10
=== CODE BLOCK END ===

=== CODE BLOCK ADDRESS 0x1d10 ===
  0x1d10	mov    	eax, eax
  0x1d12	dec    	eax
  0x1d13	shl    	eax, 0x18
  0x1d16	dec    	eax
  0x1d17	xor    	dword ptr [ebp + 0x10], eax
  === BLOCK LINK ===
    0x1d1a
=== CODE BLOCK END ===

=== CODE BLOCK ADDRESS 0x1d1a ===
  0x1d1a	call   	dword ptr [0x14e0]
  === BLOCK LINK ===
    0x1d20
=== CODE BLOCK END ===

=== CODE BLOCK ADDRESS 0x1d20 ===
  0x1d20	mov    	eax, eax
  0x1d22	dec    	eax
  0x1d23	lea    	ecx, [ebp + 0x10]
  0x1d26	dec    	eax
  0x1d27	xor    	eax, dword ptr [ebp + 0x10]
  === BLOCK LINK ===
    0x1d2a
=== CODE BLOCK END ===

=== CODE BLOCK ADDRESS 0x1d2a ===
  0x1d2a	dec    	eax
  0x1d2b	xor    	eax, ecx
  0x1d2d	dec    	eax
  0x1d2e	lea    	ecx, [ebp + 0x20]
  0x1d31	dec    	eax
  === BLOCK LINK ===
    0x1d32
=== CODE BLOCK END ===

=== CODE BLOCK ADDRESS 0x1d32 ===
  0x1d32	mov    	dword ptr [ebp + 0x10], eax
  0x1d35	call   	dword ptr [0x1485]
  === BLOCK LINK ===
    0x1d3b
=== CODE BLOCK END ===

=== CODE BLOCK ADDRESS 0x1d3b ===
  0x1d3b	mov    	eax, dword ptr [ebp + 0x20]
  0x1d3e	dec    	eax
  0x1d3f	mov    	ecx, 0xffffffff
  0x1d44	.byte  	0xff
  0x1d45	inc    	dword ptr [eax]
  === BLOCK LINK ===
    0x1d47
=== CODE BLOCK END ===

=== CODE BLOCK ADDRESS 0x1d47 ===
  0x1d47	add    	byte ptr [eax - 0x3f], cl
  0x1d4a	loopne  	0x1d6c
  === BLOCK LINK ===
    0x1d4c
=== CODE BLOCK END ===

=== CODE BLOCK ADDRESS 0x1d4c ===
  0x1d4c	dec    	eax
  0x1d4d	xor    	eax, dword ptr [ebp + 0x20]
  0x1d50	dec    	eax
  0x1d51	xor    	eax, dword ptr [ebp + 0x10]
  0x1d54	dec    	eax
  === BLOCK LINK ===
    0x1d55
=== CODE BLOCK END ===

=== CODE BLOCK ADDRESS 0x1d55 ===
  0x1d55	and    	eax, ecx
  0x1d57	dec    	eax
  0x1d58	mov    	ecx, eax
  0x1d5a	dec    	eax
  0x1d5b	cmp    	eax, ebx
  === BLOCK LINK ===
    0x1d5d
=== CODE BLOCK END ===

=== CODE BLOCK ADDRESS 0x1d5d ===
  0x1d5d	jne    	0x1d6c
  === BLOCK LINK ===
    0x1d5f
=== CODE BLOCK END ===

=== CODE BLOCK ADDRESS 0x1d5f ===
  0x1d5f	dec    	eax
  0x1d60	mov    	eax, 0x2ddfa233
  0x1d65	cdq    	
  0x1d66	sub    	eax, dword ptr [eax]
  0x1d68	add    	byte ptr [eax - 0x75], cl
  === BLOCK LINK ===
    0x1d6b
=== CODE BLOCK END ===

=== CODE BLOCK ADDRESS 0x1d6b ===
  0x1d6b	enter  	-0x76b8, 0xd
  0x1d6f	xchg   	eax, ebp
  0x1d70	and    	al, byte ptr [eax]
  0x1d72	add    	byte ptr [eax - 0x75], cl
  0x1d75	pop    	esp
  === BLOCK LINK ===
    0x1d76
=== CODE BLOCK END ===

=== CODE BLOCK ADDRESS 0x1d76 ===
  0x1d76	and    	al, 0x48
  0x1d78	dec    	eax
  0x1d79	not    	eax
  0x1d7b	dec    	eax
  0x1d7c	mov    	dword ptr [0x228e], eax
  === BLOCK LINK ===
    0x1d82
=== CODE BLOCK END ===

=== CODE BLOCK ADDRESS 0x1d82 ===
  0x1d82	dec    	eax
  0x1d83	add    	esp, 0x20
  0x1d86	pop    	ebp
  0x1d87	ret    	
  0x1d88	int3   	
  === BLOCK LINK ===
    0x1d89
=== CODE BLOCK END ===

=== CODE BLOCK ADDRESS 0x1d89 ===
  0x1d89	int3   	
  0x1d8a	int3   	
  0x1d8b	int3   	
  0x1d8c	int3   	
  0x1d8d	int3   	
  === BLOCK LINK ===
    0x1d8e
=== CODE BLOCK END ===

=== CODE BLOCK ADDRESS 0x1d8e ===
  0x1d8e	jmp    	dword ptr [0x14fc]
  === BLOCK LINK ===
    0x1d94
=== CODE BLOCK END ===

=== CODE BLOCK ADDRESS 0x1d94 ===
  0x1d94	int3   	
  0x1d95	int3   	
  0x1d96	int3   	
  0x1d97	int3   	
  0x1d98	int3   	
  === BLOCK LINK ===
    0x1d99
=== CODE BLOCK END ===

=== CODE BLOCK ADDRESS 0x1d99 ===
  0x1d99	int3   	
  0x1d9a	jmp    	dword ptr [0x1498]
  === BLOCK LINK ===
    0x1da0
=== CODE BLOCK END ===

=== CODE BLOCK ADDRESS 0x1da0 ===
  0x1da0	int3   	
  0x1da1	int3   	
  0x1da2	int3   	
  0x1da3	int3   	
  0x1da4	int3   	
  === BLOCK LINK ===
    0x1da5
=== CODE BLOCK END ===

=== CODE BLOCK ADDRESS 0x1da5 ===
  0x1da5	int3   	
  0x1da6	int3   	
  0x1da7	int3   	
  0x1da8	int3   	
  0x1da9	int3   	
  === BLOCK LINK ===
    0x1daa
=== CODE BLOCK END ===

=== CODE BLOCK ADDRESS 0x1daa ===
  0x1daa	int3   	
  0x1dab	int3   	
  0x1dac	int3   	
  0x1dad	int3   	
  0x1dae	int3   	
  === BLOCK LINK ===
    0x1daf
=== CODE BLOCK END ===

=== CODE BLOCK ADDRESS 0x1daf ===
  0x1daf	int3   	
  0x1db0	ret    	0
  0x1db3	int3   	
  0x1db4	int3   	
  0x1db5	int3   	
  === BLOCK LINK ===
    0x1db6
=== CODE BLOCK END ===

=== CODE BLOCK ADDRESS 0x1db6 ===
  0x1db6	int3   	
  0x1db7	int3   	
  0x1db8	int3   	
  0x1db9	int3   	
  0x1dba	int3   	
  === BLOCK LINK ===
    0x1dbb
=== CODE BLOCK END ===

=== CODE BLOCK ADDRESS 0x1dbb ===
  0x1dbb	int3   	
  0x1dbc	inc    	eax
  0x1dbd	push   	ebx
  0x1dbe	dec    	eax
  0x1dbf	sub    	esp, 0x20
  === BLOCK LINK ===
    0x1dc2
=== CODE BLOCK END ===

=== CODE BLOCK ADDRESS 0x1dc2 ===
  0x1dc2	dec    	eax
  0x1dc3	mov    	ebx, ecx
  0x1dc5	xor    	ecx, ecx
  0x1dc7	call   	dword ptr [0x137b]
  === BLOCK LINK ===
    0x1dcd
=== CODE BLOCK END ===

=== CODE BLOCK ADDRESS 0x1dcd ===
  0x1dcd	dec    	eax
  0x1dce	mov    	ecx, ebx
  0x1dd0	call   	dword ptr [0x137a]
  === BLOCK LINK ===
    0x1dd6
=== CODE BLOCK END ===

=== CODE BLOCK ADDRESS 0x1dd6 ===
  0x1dd6	call   	dword ptr [0x13b4]
  === BLOCK LINK ===
    0x1ddc
=== CODE BLOCK END ===

=== CODE BLOCK ADDRESS 0x1ddc ===
  0x1ddc	dec    	eax
  0x1ddd	mov    	ecx, eax
  0x1ddf	mov    	edx, 0xc0000409
  0x1de4	dec    	eax
  0x1de5	add    	esp, 0x20
  === BLOCK LINK ===
    0x1de8
=== CODE BLOCK END ===

=== CODE BLOCK ADDRESS 0x1de8 ===
  0x1de8	pop    	ebx
  0x1de9	dec    	eax
  0x1dea	jmp    	dword ptr [0x13a8]
  === BLOCK LINK ===
    0x1df0
=== CODE BLOCK END ===

=== CODE BLOCK ADDRESS 0x1df0 ===
  0x1df0	int3   	
  0x1df1	int3   	
  0x1df2	int3   	
  0x1df3	int3   	
  0x1df4	int3   	
  === BLOCK LINK ===
    0x1df5
=== CODE BLOCK END ===

=== CODE BLOCK ADDRESS 0x1df5 ===
  0x1df5	int3   	
  0x1df6	int3   	
  0x1df7	int3   	
  0x1df8	int3   	
  0x1df9	int3   	
  === BLOCK LINK ===
    0x1dfa
=== CODE BLOCK END ===

=== CODE BLOCK ADDRESS 0x1dfa ===
  0x1dfa	int3   	
  0x1dfb	int3   	
  0x1dfc	int3   	
  0x1dfd	int3   	
  0x1dfe	int3   	
  === BLOCK LINK ===
    0x1dff
=== CODE BLOCK END ===

=== CODE BLOCK ADDRESS 0x1dff ===
  0x1dff	int3   	
  0x1e00	dec    	eax
  0x1e01	mov    	dword ptr [esp + 8], ecx
  0x1e05	dec    	eax
  0x1e06	sub    	esp, 0x88
  === BLOCK LINK ===
    0x1e0c
=== CODE BLOCK END ===

=== CODE BLOCK ADDRESS 0x1e0c ===
  0x1e0c	dec    	eax
  0x1e0d	lea    	ecx, [0x22fd]
  0x1e13	call   	dword ptr [0x13c7]
  === BLOCK LINK ===
    0x1e19
=== CODE BLOCK END ===

=== CODE BLOCK ADDRESS 0x1e19 ===
  0x1e19	dec    	eax
  0x1e1a	mov    	eax, dword ptr [0x23e8]
  0x1e20	dec    	eax
  0x1e21	mov    	dword ptr [esp + 0x48], eax
  0x1e25	inc    	ebp
  === BLOCK LINK ===
    0x1e26
=== CODE BLOCK END ===

=== CODE BLOCK ADDRESS 0x1e26 ===
  0x1e26	xor    	eax, eax
  0x1e28	dec    	eax
  0x1e29	lea    	edx, [esp + 0x50]
  0x1e2d	dec    	eax
  0x1e2e	mov    	ecx, dword ptr [esp + 0x48]
  === BLOCK LINK ===
    0x1e32
=== CODE BLOCK END ===

=== CODE BLOCK ADDRESS 0x1e32 ===
  0x1e32	call   	dword ptr [0x13a0]
  === BLOCK LINK ===
    0x1e38
=== CODE BLOCK END ===

=== CODE BLOCK ADDRESS 0x1e38 ===
  0x1e38	dec    	eax
  0x1e39	mov    	dword ptr [esp + 0x40], eax
  0x1e3d	dec    	eax
  0x1e3e	cmp    	dword ptr [esp + 0x40], 0
  0x1e43	je     	0x1e87
  === BLOCK LINK ===
    0x1e45
=== CODE BLOCK END ===

=== CODE BLOCK ADDRESS 0x1e45 ===
  0x1e45	dec    	eax
  0x1e46	mov    	dword ptr [esp + 0x38], 0
  0x1e4e	dec    	eax
  0x1e4f	lea    	eax, [esp + 0x58]
  0x1e53	dec    	eax
  === BLOCK LINK ===
    0x1e54
=== CODE BLOCK END ===

=== CODE BLOCK ADDRESS 0x1e54 ===
  0x1e54	mov    	dword ptr [esp + 0x30], eax
  0x1e58	dec    	eax
  0x1e59	lea    	eax, [esp + 0x60]
  0x1e5d	dec    	eax
  0x1e5e	mov    	dword ptr [esp + 0x28], eax
  === BLOCK LINK ===
    0x1e62
=== CODE BLOCK END ===

=== CODE BLOCK ADDRESS 0x1e62 ===
  0x1e62	dec    	eax
  0x1e63	lea    	eax, [0x22a7]
  0x1e69	dec    	eax
  0x1e6a	mov    	dword ptr [esp + 0x20], eax
  0x1e6e	dec    	esp
  === BLOCK LINK ===
    0x1e6f
=== CODE BLOCK END ===

=== CODE BLOCK ADDRESS 0x1e6f ===
  0x1e6f	mov    	ecx, dword ptr [esp + 0x40]
  0x1e73	dec    	esp
  0x1e74	mov    	eax, dword ptr [esp + 0x48]
  0x1e78	dec    	eax
  0x1e79	mov    	edx, dword ptr [esp + 0x50]
  === BLOCK LINK ===
    0x1e7d
=== CODE BLOCK END ===

=== CODE BLOCK ADDRESS 0x1e7d ===
  0x1e7d	xor    	ecx, ecx
  0x1e7f	call   	dword ptr [0x134b]
  === BLOCK LINK ===
    0x1e85
=== CODE BLOCK END ===

=== CODE BLOCK ADDRESS 0x1e85 ===
  0x1e85	jmp    	0x1eaa
  === BLOCK LINK ===
    0x1e87
=== CODE BLOCK END ===

=== CODE BLOCK ADDRESS 0x1e87 ===
  0x1e87	dec    	eax
  0x1e88	mov    	eax, dword ptr [0x231a]
  0x1e8e	dec    	eax
  0x1e8f	mov    	eax, dword ptr [eax]
  0x1e91	dec    	eax
  === BLOCK LINK ===
    0x1e92
=== CODE BLOCK END ===

=== CODE BLOCK ADDRESS 0x1e92 ===
  0x1e92	mov    	dword ptr [0x2370], eax
  0x1e98	dec    	eax
  0x1e99	mov    	eax, dword ptr [0x2309]
  0x1e9f	dec    	eax
  0x1ea0	add    	eax, 8
  === BLOCK LINK ===
    0x1ea3
=== CODE BLOCK END ===

=== CODE BLOCK ADDRESS 0x1ea3 ===
  0x1ea3	dec    	eax
  0x1ea4	mov    	dword ptr [0x22fe], eax
  0x1eaa	dec    	eax
  0x1eab	mov    	eax, dword ptr [0x2357]
  0x1eb1	dec    	eax
  === BLOCK LINK ===
    0x1eb2
=== CODE BLOCK END ===

=== CODE BLOCK ADDRESS 0x1eb2 ===
  0x1eb2	mov    	dword ptr [0x21c8], eax
  0x1eb8	dec    	eax
  0x1eb9	mov    	eax, dword ptr [esp + 0x90]
  0x1ec0	dec    	eax
  0x1ec1	mov    	dword ptr [0x22c9], eax
  === BLOCK LINK ===
    0x1ec7
=== CODE BLOCK END ===

=== CODE BLOCK ADDRESS 0x1ec7 ===
  0x1ec7	mov    	dword ptr [0x219f], 0xc0000409
  0x1ed1	mov    	dword ptr [0x2199], 1
  0x1edb	mov    	dword ptr [0x21a3], 3
  0x1ee5	mov    	eax, 8
  0x1eea	dec    	eax
  === BLOCK LINK ===
    0x1eeb
=== CODE BLOCK END ===

=== CODE BLOCK ADDRESS 0x1eeb ===
  0x1eeb	imul   	eax, eax, 0
  0x1eee	dec    	eax
  0x1eef	lea    	ecx, [0x219b]
  0x1ef5	dec    	eax
  0x1ef6	mov    	dword ptr [ecx + eax], 2
  === BLOCK LINK ===
    0x1efd
=== CODE BLOCK END ===

=== CODE BLOCK ADDRESS 0x1efd ===
  0x1efd	mov    	eax, 8
  0x1f02	dec    	eax
  0x1f03	imul   	eax, eax, 1
  0x1f06	dec    	eax
  0x1f07	lea    	ecx, [0x2183]
  === BLOCK LINK ===
    0x1f0d
=== CODE BLOCK END ===

=== CODE BLOCK ADDRESS 0x1f0d ===
  0x1f0d	dec    	eax
  0x1f0e	mov    	edx, dword ptr [0x20f4]
  0x1f14	dec    	eax
  0x1f15	mov    	dword ptr [ecx + eax], edx
  0x1f18	mov    	eax, 8
  === BLOCK LINK ===
    0x1f1d
=== CODE BLOCK END ===

=== CODE BLOCK ADDRESS 0x1f1d ===
  0x1f1d	dec    	eax
  0x1f1e	imul   	eax, eax, 2
  0x1f21	dec    	eax
  0x1f22	lea    	ecx, [0x2168]
  0x1f28	dec    	eax
  === BLOCK LINK ===
    0x1f29
=== CODE BLOCK END ===

=== CODE BLOCK ADDRESS 0x1f29 ===
  0x1f29	mov    	edx, dword ptr [0x20e1]
  0x1f2f	dec    	eax
  0x1f30	mov    	dword ptr [ecx + eax], edx
  0x1f33	mov    	eax, 8
  0x1f38	dec    	eax
  === BLOCK LINK ===
    0x1f39
=== CODE BLOCK END ===

=== CODE BLOCK ADDRESS 0x1f39 ===
  0x1f39	imul   	eax, eax, 0
  0x1f3c	dec    	eax
  0x1f3d	mov    	ecx, dword ptr [0x20c5]
  0x1f43	dec    	eax
  0x1f44	mov    	dword ptr [esp + eax + 0x68], ecx
  === BLOCK LINK ===
    0x1f48
=== CODE BLOCK END ===

=== CODE BLOCK ADDRESS 0x1f48 ===
  0x1f48	mov    	eax, 8
  0x1f4d	dec    	eax
  0x1f4e	imul   	eax, eax, 1
  0x1f51	dec    	eax
  0x1f52	mov    	ecx, dword ptr [0x20b8]
  === BLOCK LINK ===
    0x1f58
=== CODE BLOCK END ===

=== CODE BLOCK ADDRESS 0x1f58 ===
  0x1f58	dec    	eax
  0x1f59	mov    	dword ptr [esp + eax + 0x68], ecx
  0x1f5d	dec    	eax
  0x1f5e	lea    	ecx, [0x109c]
  0x1f64	call   	0x1dbc
  === BLOCK LINK ===
    0x1f69
=== CODE BLOCK END ===

=== CODE BLOCK ADDRESS 0x1f69 ===
  0x1f69	dec    	eax
  0x1f6a	add    	esp, 0x88
  0x1f70	ret    	
  0x1f71	int3   	
  0x1f72	int3   	
  === BLOCK LINK ===
    0x1f73
=== CODE BLOCK END ===

=== CODE BLOCK ADDRESS 0x1f73 ===
  0x1f73	int3   	
  0x1f74	int3   	
  0x1f75	int3   	
  0x1f76	int3   	
  0x1f77	int3   	
  === BLOCK LINK ===
    0x1f78
=== CODE BLOCK END ===

=== CODE BLOCK ADDRESS 0x1f78 ===
  0x1f78	int3   	
  0x1f79	int3   	
  0x1f7a	int3   	
  0x1f7b	int3   	
  0x1f7c	int3   	
  === BLOCK LINK ===
    0x1f7d
=== CODE BLOCK END ===

=== CODE BLOCK ADDRESS 0x1f7d ===
  0x1f7d	int3   	
  0x1f7e	int3   	
  0x1f7f	int3   	
  0x1f80	int3   	
  0x1f81	int3   	
  === BLOCK LINK ===
    0x1f82
=== CODE BLOCK END ===

=== CODE BLOCK ADDRESS 0x1f82 ===
  0x1f82	int3   	
  0x1f83	int3   	
  0x1f84	int3   	
  0x1f85	int3   	
  0x1f86	nop    	word ptr [eax + eax]
  === BLOCK LINK ===
    0x1f90
=== CODE BLOCK END ===

=== CODE BLOCK ADDRESS 0x1f90 ===
  0x1f90	jmp    	eax
  === BLOCK LINK ===
    0x1f92
=== CODE BLOCK END ===

=== CODE BLOCK ADDRESS 0x1f92 ===
  0x1f92	int3   	
  0x1f93	int3   	
  0x1f94	int3   	
  0x1f95	int3   	
  0x1f96	int3   	
  === BLOCK LINK ===
    0x1f97
=== CODE BLOCK END ===

=== CODE BLOCK ADDRESS 0x1f97 ===
  0x1f97	int3   	
  0x1f98	int3   	
  0x1f99	int3   	
  0x1f9a	int3   	
  0x1f9b	int3   	
  === BLOCK LINK ===
    0x1f9c
=== CODE BLOCK END ===

=== CODE BLOCK ADDRESS 0x1f9c ===
  0x1f9c	int3   	
  0x1f9d	int3   	
  0x1f9e	int3   	
  0x1f9f	int3   	
  0x1fa0	inc    	eax
  === BLOCK LINK ===
    0x1fa1
=== CODE BLOCK END ===

=== CODE BLOCK ADDRESS 0x1fa1 ===
  0x1fa1	push   	ebp
  0x1fa2	dec    	eax
  0x1fa3	sub    	esp, 0x20
  0x1fa6	dec    	eax
  0x1fa7	mov    	ebp, edx
  === BLOCK LINK ===
    0x1fa9
=== CODE BLOCK END ===

=== CODE BLOCK ADDRESS 0x1fa9 ===
  0x1fa9	dec    	eax
  0x1faa	mov    	eax, dword ptr [ecx]
  0x1fac	dec    	eax
  0x1fad	mov    	edx, ecx
  0x1faf	mov    	ecx, dword ptr [eax]
  === BLOCK LINK ===
    0x1fb1
=== CODE BLOCK END ===

=== CODE BLOCK ADDRESS 0x1fb1 ===
  0x1fb1	call   	0x1afe
  === BLOCK LINK ===
    0x1fb6
=== CODE BLOCK END ===

=== CODE BLOCK ADDRESS 0x1fb6 ===
  0x1fb6	nop    	
  0x1fb7	dec    	eax
  0x1fb8	add    	esp, 0x20
  0x1fbb	pop    	ebp
  0x1fbc	ret    	
  === BLOCK LINK ===
    0x1fbd
=== CODE BLOCK END ===

=== CODE BLOCK ADDRESS 0x1fbd ===
  0x1fbd	int3   	
  0x1fbe	int3   	
  0x1fbf	int3   	
  0x1fc0	int3   	
  0x1fc1	int3   	
  === BLOCK LINK ===
    0x1fc2
=== CODE BLOCK END ===

=== CODE BLOCK ADDRESS 0x1fc2 ===
  0x1fc2	int3   	
  0x1fc3	int3   	
  0x1fc4	int3   	
  0x1fc5	int3   	
  0x1fc6	int3   	
  === BLOCK LINK ===
    0x1fc7
=== CODE BLOCK END ===

=== CODE BLOCK ADDRESS 0x1fc7 ===
  0x1fc7	int3   	
  0x1fc8	int3   	
  0x1fc9	int3   	
  0x1fca	int3   	
  0x1fcb	int3   	
  === BLOCK LINK ===
    0x1fcc
=== CODE BLOCK END ===

=== CODE BLOCK ADDRESS 0x1fcc ===
  0x1fcc	int3   	
  0x1fcd	int3   	
  0x1fce	int3   	
  0x1fcf	int3   	
  0x1fd0	inc    	eax
  === BLOCK LINK ===
    0x1fd1
=== CODE BLOCK END ===

=== CODE BLOCK ADDRESS 0x1fd1 ===
  0x1fd1	push   	ebp
  0x1fd2	dec    	eax
  0x1fd3	sub    	esp, 0x20
  0x1fd6	dec    	eax
  0x1fd7	mov    	ebp, edx
  === BLOCK LINK ===
    0x1fd9
=== CODE BLOCK END ===

=== CODE BLOCK ADDRESS 0x1fd9 ===
  0x1fd9	dec    	eax
  0x1fda	mov    	eax, dword ptr [ecx]
  0x1fdc	xor    	ecx, ecx
  0x1fde	cmp    	dword ptr [eax], 0xc0000005
  0x1fe4	sete   	cl
  === BLOCK LINK ===
    0x1fe7
=== CODE BLOCK END ===

=== CODE BLOCK ADDRESS 0x1fe7 ===
  0x1fe7	mov    	eax, ecx
  0x1fe9	dec    	eax
  0x1fea	add    	esp, 0x20
  0x1fed	pop    	ebp
  0x1fee	ret    	
  === BLOCK LINK ===
    0x1fef
=== CODE BLOCK END ===

=== CODE BLOCK ADDRESS 0x1fef ===
  0x1fef	int3   	
  0x1ff0	mov    	eax, 1
  0x1ff5	jmp    	0x12ad
  === BLOCK LINK ===
    0x1ffa
=== CODE BLOCK END ===

=== CODE BLOCK ADDRESS 0x1ffa ===
  0x1ffa	dec    	eax
  0x1ffb	mov    	ecx, ebx
  0x1ffd	dec    	eax
  0x1ffe	call   	dword ptr [0x115c]
  === BLOCK LINK ===
    0x2004
=== CODE BLOCK END ===

=== CODE BLOCK ADDRESS 0x2004 ===
  0x2004	nop    	dword ptr [eax + eax]
  0x2009	mov    	eax, edi
  0x200b	jmp    	0x14a0
  === BLOCK LINK ===
    0x2010
=== CODE BLOCK END ===

=== CODE BLOCK ADDRESS 0x2010 ===
  0x2010	inc    	ebp
  0x2011	xor    	ah, ah
  0x2013	jmp    	0x1535
  === BLOCK LINK ===
    0x2018
=== CODE BLOCK END ===

=== CODE BLOCK ADDRESS 0x2018 ===
  0x2018	inc    	cx
  0x201a	cmp    	edx, 9
  0x201d	je     	0x15b7
  === BLOCK LINK ===
    0x2023
=== CODE BLOCK END ===

=== CODE BLOCK ADDRESS 0x2023 ===
  0x2023	inc    	cx
  0x2025	cmp    	edx, 0x22
  0x2028	jne    	0x156b
  === BLOCK LINK ===
    0x202e
=== CODE BLOCK END ===

=== CODE BLOCK ADDRESS 0x202e ===
  0x202e	inc    	ecx
  0x202f	movzx  	edi, bl
  0x2032	mov    	eax, edx
  0x2034	jmp    	0x1587
  === BLOCK LINK ===
    0x2039
=== CODE BLOCK END ===

=== CODE BLOCK ADDRESS 0x2039 ===
  0x2039	inc    	bp
  0x203b	test   	edx, edx
  0x203d	je     	0x20ac
  === BLOCK LINK ===
    0x203f
=== CODE BLOCK END ===

=== CODE BLOCK ADDRESS 0x203f ===
  0x203f	inc    	cx
  0x2041	cmp    	edx, 0x22
  0x2044	jne    	0x156b
  === BLOCK LINK ===
    0x204a
=== CODE BLOCK END ===

=== CODE BLOCK ADDRESS 0x204a ===
  0x204a	inc    	edx
  0x204b	movzx  	edx, word ptr [esi + eax*2 + 2]
  0x2050	cmp    	ax, dx
  0x2053	mov    	eax, 2
  0x2058	dec    	esp
  === BLOCK LINK ===
    0x2059
=== CODE BLOCK END ===

=== CODE BLOCK ADDRESS 0x2059 ===
  0x2059	cmove  	ebx, eax
  0x205c	inc    	eax
  0x205d	movzx  	eax, bh
  0x2060	xor    	ecx, ecx
  0x2062	mov    	edi, 0x22
  === BLOCK LINK ===
    0x2067
=== CODE BLOCK END ===

=== CODE BLOCK ADDRESS 0x2067 ===
  0x2067	cmp    	di, dx
  0x206a	cmove  	ecx, eax
  0x206d	xor    	eax, eax
  0x206f	movzx  	edi, cl
  0x2072	mov    	ecx, 0x22
  === BLOCK LINK ===
    0x2077
=== CODE BLOCK END ===

=== CODE BLOCK ADDRESS 0x2077 ===
  0x2077	cmp    	cx, dx
  0x207a	jne    	0x2094
  === BLOCK LINK ===
    0x207c
=== CODE BLOCK END ===

=== CODE BLOCK ADDRESS 0x207c ===
  0x207c	xor    	edx, edx
  0x207e	jmp    	0x156b
  === BLOCK LINK ===
    0x2083
=== CODE BLOCK END ===

=== CODE BLOCK ADDRESS 0x2083 ===
  0x2083	mov    	eax, 0x80070216
  0x2088	dec    	ecx
  0x2089	mov    	ecx, 0xffffffff
  0x208f	jmp    	0x1587
  === BLOCK LINK ===
    0x2094
=== CODE BLOCK END ===

=== CODE BLOCK ADDRESS 0x2094 ===
  0x2094	xor    	edx, edx
  0x2096	jmp    	0x1587
  === BLOCK LINK ===
    0x209b
=== CODE BLOCK END ===

=== CODE BLOCK ADDRESS 0x209b ===
  0x209b	mov    	eax, 0x80070216
  0x20a0	dec    	ecx
  0x20a1	mov    	ecx, 0xffffffff
  0x20a7	jmp    	0x15d3
  === BLOCK LINK ===
    0x20ac
=== CODE BLOCK END ===

=== CODE BLOCK ADDRESS 0x20ac ===
  0x20ac	mov    	eax, 0x80070057
  0x20b1	jmp    	0x15d3
  === BLOCK LINK ===
    0x20b6
=== CODE BLOCK END ===

=== CODE BLOCK ADDRESS 0x20b6 ===
  0x20b6	inc    	ecx
  0x20b7	mov    	ecx, 0x20
  0x20bc	jmp    	0x162a
  === BLOCK LINK ===
    0x20c1
=== CODE BLOCK END ===

=== CODE BLOCK ADDRESS 0x20c1 ===
  0x20c1	mov    	ecx, 0x80070216
  0x20c6	dec    	ecx
  0x20c7	mov    	eax, 0xffffffff
  0x20cd	jmp    	0x1620
  === BLOCK LINK ===
    0x20d2
=== CODE BLOCK END ===

=== CODE BLOCK ADDRESS 0x20d2 ===
  0x20d2	mov    	eax, 0x80070216
  0x20d7	jmp    	0x1668
  === BLOCK LINK ===
    0x20dc
=== CODE BLOCK END ===

=== CODE BLOCK ADDRESS 0x20dc ===
  0x20dc	mov    	eax, 0x80070057
  0x20e1	jmp    	0x1680
  === BLOCK LINK ===
    0x20e6
=== CODE BLOCK END ===

=== CODE BLOCK ADDRESS 0x20e6 ===
  0x20e6	add    	byte ptr [eax], al
  0x20e8	add    	byte ptr [eax], al
  0x20ea	add    	byte ptr [eax], al
  0x20ec	add    	byte ptr [eax], al
  0x20ee	add    	byte ptr [eax], al
  === BLOCK LINK ===
    0x20f0
=== CODE BLOCK END ===

=== CODE BLOCK ADDRESS 0x20f0 ===
  0x20f0	add    	byte ptr [eax], al
  0x20f2	add    	byte ptr [eax], al
  0x20f4	add    	byte ptr [eax], al
  0x20f6	add    	byte ptr [eax], al
  0x20f8	add    	byte ptr [eax], al
  === BLOCK LINK ===
    0x20fa
=== CODE BLOCK END ===

=== CODE BLOCK ADDRESS 0x20fa ===
  0x20fa	add    	byte ptr [eax], al
  0x20fc	add    	byte ptr [eax], al
  0x20fe	add    	byte ptr [eax], al
  0x2100	add    	byte ptr [eax], al
  0x2102	add    	byte ptr [eax], al
  === BLOCK LINK ===
    0x2104
=== CODE BLOCK END ===

=== CODE BLOCK ADDRESS 0x2104 ===
  0x2104	add    	byte ptr [eax], al
  0x2106	add    	byte ptr [eax], al
  0x2108	add    	byte ptr [eax], al
  0x210a	add    	byte ptr [eax], al
  0x210c	add    	byte ptr [eax], al
  === BLOCK LINK ===
    0x210e
=== CODE BLOCK END ===

=== CODE BLOCK ADDRESS 0x210e ===
  0x210e	add    	byte ptr [eax], al
  0x2110	add    	byte ptr [eax], al
  0x2112	add    	byte ptr [eax], al
  0x2114	add    	byte ptr [eax], al
  0x2116	add    	byte ptr [eax], al
  === BLOCK LINK ===
    0x2118
=== CODE BLOCK END ===

=== CODE BLOCK ADDRESS 0x2118 ===
  0x2118	add    	byte ptr [eax], al
  0x211a	add    	byte ptr [eax], al
  0x211c	add    	byte ptr [eax], al
  0x211e	add    	byte ptr [eax], al
  0x2120	add    	byte ptr [eax], al
  === BLOCK LINK ===
    0x2122
=== CODE BLOCK END ===

=== CODE BLOCK ADDRESS 0x2122 ===
  0x2122	add    	byte ptr [eax], al
  0x2124	add    	byte ptr [eax], al
  0x2126	add    	byte ptr [eax], al
  0x2128	add    	byte ptr [eax], al
  0x212a	add    	byte ptr [eax], al
  === BLOCK LINK ===
    0x212c
=== CODE BLOCK END ===

=== CODE BLOCK ADDRESS 0x212c ===
  0x212c	add    	byte ptr [eax], al
  0x212e	add    	byte ptr [eax], al
  0x2130	add    	byte ptr [eax], al
  0x2132	add    	byte ptr [eax], al
  0x2134	add    	byte ptr [eax], al
  === BLOCK LINK ===
    0x2136
=== CODE BLOCK END ===

=== CODE BLOCK ADDRESS 0x2136 ===
  0x2136	add    	byte ptr [eax], al
  0x2138	add    	byte ptr [eax], al
  0x213a	add    	byte ptr [eax], al
  0x213c	add    	byte ptr [eax], al
  0x213e	add    	byte ptr [eax], al
  === BLOCK LINK ===
    0x2140
=== CODE BLOCK END ===

=== CODE BLOCK ADDRESS 0x2140 ===
  0x2140	add    	byte ptr [eax], al
  0x2142	add    	byte ptr [eax], al
  0x2144	add    	byte ptr [eax], al
  0x2146	add    	byte ptr [eax], al
  0x2148	add    	byte ptr [eax], al
  === BLOCK LINK ===
    0x214a
=== CODE BLOCK END ===

=== CODE BLOCK ADDRESS 0x214a ===
  0x214a	add    	byte ptr [eax], al
  0x214c	add    	byte ptr [eax], al
  0x214e	add    	byte ptr [eax], al
  0x2150	add    	byte ptr [eax], al
  0x2152	add    	byte ptr [eax], al
  === BLOCK LINK ===
    0x2154
=== CODE BLOCK END ===

=== CODE BLOCK ADDRESS 0x2154 ===
  0x2154	add    	byte ptr [eax], al
  0x2156	add    	byte ptr [eax], al
  0x2158	add    	byte ptr [eax], al
  0x215a	add    	byte ptr [eax], al
  0x215c	add    	byte ptr [eax], al
  === BLOCK LINK ===
    0x215e
=== CODE BLOCK END ===

=== CODE BLOCK ADDRESS 0x215e ===
  0x215e	add    	byte ptr [eax], al
  0x2160	add    	byte ptr [eax], al
  0x2162	add    	byte ptr [eax], al
  0x2164	add    	byte ptr [eax], al
  0x2166	add    	byte ptr [eax], al
  === BLOCK LINK ===
    0x2168
=== CODE BLOCK END ===

=== CODE BLOCK ADDRESS 0x2168 ===
  0x2168	add    	byte ptr [eax], al
  0x216a	add    	byte ptr [eax], al
  0x216c	add    	byte ptr [eax], al
  0x216e	add    	byte ptr [eax], al
  0x2170	add    	byte ptr [eax], al
  === BLOCK LINK ===
    0x2172
=== CODE BLOCK END ===

=== CODE BLOCK ADDRESS 0x2172 ===
  0x2172	add    	byte ptr [eax], al
  0x2174	add    	byte ptr [eax], al
  0x2176	add    	byte ptr [eax], al
  0x2178	add    	byte ptr [eax], al
  0x217a	add    	byte ptr [eax], al
  === BLOCK LINK ===
    0x217c
=== CODE BLOCK END ===

=== CODE BLOCK ADDRESS 0x217c ===
  0x217c	add    	byte ptr [eax], al
  0x217e	add    	byte ptr [eax], al
  0x2180	add    	byte ptr [eax], al
  0x2182	add    	byte ptr [eax], al
  0x2184	add    	byte ptr [eax], al
  === BLOCK LINK ===
    0x2186
=== CODE BLOCK END ===

=== CODE BLOCK ADDRESS 0x2186 ===
  0x2186	add    	byte ptr [eax], al
  0x2188	add    	byte ptr [eax], al
  0x218a	add    	byte ptr [eax], al
  0x218c	add    	byte ptr [eax], al
  0x218e	add    	byte ptr [eax], al
  === BLOCK LINK ===
    0x2190
=== CODE BLOCK END ===

=== CODE BLOCK ADDRESS 0x2190 ===
  0x2190	add    	byte ptr [eax], al
  0x2192	add    	byte ptr [eax], al
  0x2194	add    	byte ptr [eax], al
  0x2196	add    	byte ptr [eax], al
  0x2198	add    	byte ptr [eax], al
  === BLOCK LINK ===
    0x219a
=== CODE BLOCK END ===

=== CODE BLOCK ADDRESS 0x219a ===
  0x219a	add    	byte ptr [eax], al
  0x219c	add    	byte ptr [eax], al
  0x219e	add    	byte ptr [eax], al
  0x21a0	add    	byte ptr [eax], al
  0x21a2	add    	byte ptr [eax], al
  === BLOCK LINK ===
    0x21a4
=== CODE BLOCK END ===

=== CODE BLOCK ADDRESS 0x21a4 ===
  0x21a4	add    	byte ptr [eax], al
  0x21a6	add    	byte ptr [eax], al
  0x21a8	add    	byte ptr [eax], al
  0x21aa	add    	byte ptr [eax], al
  0x21ac	add    	byte ptr [eax], al
  === BLOCK LINK ===
    0x21ae
=== CODE BLOCK END ===

=== CODE BLOCK ADDRESS 0x21ae ===
  0x21ae	add    	byte ptr [eax], al
  0x21b0	add    	byte ptr [eax], al
  0x21b2	add    	byte ptr [eax], al
  0x21b4	add    	byte ptr [eax], al
  0x21b6	add    	byte ptr [eax], al
  === BLOCK LINK ===
    0x21b8
=== CODE BLOCK END ===

=== CODE BLOCK ADDRESS 0x21b8 ===
  0x21b8	add    	byte ptr [eax], al
  0x21ba	add    	byte ptr [eax], al
  0x21bc	add    	byte ptr [eax], al
  0x21be	add    	byte ptr [eax], al
  0x21c0	add    	byte ptr [eax], al
  === BLOCK LINK ===
    0x21c2
=== CODE BLOCK END ===

=== CODE BLOCK ADDRESS 0x21c2 ===
  0x21c2	add    	byte ptr [eax], al
  0x21c4	add    	byte ptr [eax], al
  0x21c6	add    	byte ptr [eax], al
  0x21c8	add    	byte ptr [eax], al
  0x21ca	add    	byte ptr [eax], al
  === BLOCK LINK ===
    0x21cc
=== CODE BLOCK END ===

=== CODE BLOCK ADDRESS 0x21cc ===
  0x21cc	add    	byte ptr [eax], al
  0x21ce	add    	byte ptr [eax], al
  0x21d0	add    	byte ptr [eax], al
  0x21d2	add    	byte ptr [eax], al
  0x21d4	add    	byte ptr [eax], al
  === BLOCK LINK ===
    0x21d6
=== CODE BLOCK END ===

=== CODE BLOCK ADDRESS 0x21d6 ===
  0x21d6	add    	byte ptr [eax], al
  0x21d8	add    	byte ptr [eax], al
  0x21da	add    	byte ptr [eax], al
  0x21dc	add    	byte ptr [eax], al
  0x21de	add    	byte ptr [eax], al
  === BLOCK LINK ===
    0x21e0
=== CODE BLOCK END ===

=== CODE BLOCK ADDRESS 0x21e0 ===
  0x21e0	add    	byte ptr [eax], al
  0x21e2	add    	byte ptr [eax], al
  0x21e4	add    	byte ptr [eax], al
  0x21e6	add    	byte ptr [eax], al
  0x21e8	add    	byte ptr [eax], al
  === BLOCK LINK ===
    0x21ea
=== CODE BLOCK END ===

=== CODE BLOCK ADDRESS 0x21ea ===
  0x21ea	add    	byte ptr [eax], al
  0x21ec	add    	byte ptr [eax], al
  0x21ee	add    	byte ptr [eax], al
  0x21f0	add    	byte ptr [eax], al
  0x21f2	add    	byte ptr [eax], al
  === BLOCK LINK ===
    0x21f4
=== CODE BLOCK END ===

=== CODE BLOCK ADDRESS 0x21f4 ===
  0x21f4	add    	byte ptr [eax], al
  0x21f6	add    	byte ptr [eax], al
  0x21f8	add    	byte ptr [eax], al
  0x21fa	add    	byte ptr [eax], al
  0x21fc	add    	byte ptr [eax], al
  === BLOCK LINK ===
    0x21fe
=== CODE BLOCK END ===

=== CODE BLOCK ADDRESS 0x21fe ===
=== CODE BLOCK END ===

=== DATA BLOCK ADDRESS 0x3000 ===
  0x3000	70 40 00 40 01 00 00 00 10 41 00 40 01 00 00 00 	p@0@00000A0@0000
  0x3010	18 01 00 00 00 00 00 00 00 00 00 00 00 00 00 00 	0000000000000000
  0x3020	00 00 00 00 00 00 00 00 00 00 00 00 00 00 00 00 	0000000000000000
  0x3030	00 00 00 00 00 00 00 00 00 00 00 00 00 00 00 00 	0000000000000000
  0x3040	00 00 00 00 00 00 00 00 00 00 00 00 00 00 00 00 	0000000000000000
  0x3050	00 00 00 00 00 00 00 00 00 00 00 00 00 00 00 00 	0000000000000000
  0x3060	00 00 00 00 00 00 00 00 08 40 00 40 01 00 00 00 	000000000@0@0000
  0x3070	00 00 00 00 00 00 00 00 00 00 00 00 00 00 00 00 	0000000000000000
  0x3080	a8 32 00 40 01 00 00 00 b0 32 00 40 01 00 00 00 	020@0000020@0000
  0x3090	f0 32 00 40 01 00 00 00 08 00 00 00 00 00 00 00 	020@000000000000
  0x30a0	00 75 01 00 00 00 00 00 00 00 00 00 00 00 00 00 	0u00000000000000
  0x30b0	00 00 00 00 00 00 00 00 00 00 00 00 00 00 00 00 	0000000000000000
  0x30c0	00 00 00 00 00 00 00 00 00 00 00 00 00 00 00 00 	0000000000000000
  0x30d0	00 00 00 00 00 00 00 00 00 00 00 00 00 00 00 00 	0000000000000000
  0x30e0	00 00 00 00 00 00 00 00 00 00 00 00 00 00 00 00 	0000000000000000
  0x30f0	00 00 00 00 00 00 00 00 00 00 00 00 00 00 00 00 	0000000000000000
  0x3100	00 00 00 00 00 00 00 00 00 00 00 00 00 00 00 00 	0000000000000000
  0x3110	00 00 00 00 00 00 00 00 00 00 00 00 00 00 00 00 	0000000000000000
  0x3120	00 00 00 00 00 00 00 00 c2 3c 00 00 00 00 00 00 	000000000<000000
  0x3130	90 3c 00 00 00 00 00 00 a2 3c 00 00 00 00 00 00 	0<0000000<000000
  0x3140	00 00 00 00 00 00 00 00 ee 3c 00 00 00 00 00 00 	000000000<000000
  0x3150	d2 3d 00 00 00 00 00 00 00 00 00 00 00 00 00 00 	0=00000000000000
  0x3160	b6 3c 00 00 00 00 00 00 02 3e 00 00 00 00 00 00 	0<0000000>000000
  0x3170	00 00 00 00 00 00 00 00 0c 3d 00 00 00 00 00 00 	000000000=000000
  0x3180	00 00 00 00 00 00 00 00 3a 3d 00 00 00 00 00 00 	00000000:=000000
  0x3190	7c 3c 00 00 00 00 00 00 ee 3d 00 00 00 00 00 00 	|<0000000=000000
  0x31a0	dc 3c 00 00 00 00 00 00 50 3d 00 00 00 00 00 00 	0<000000P=000000
  0x31b0	68 3c 00 00 00 00 00 00 00 00 00 00 00 00 00 00 	h<00000000000000
  0x31c0	20 3d 00 00 00 00 00 00 00 00 00 00 00 00 00 00 	 =00000000000000
  0x31d0	be 3d 00 00 00 00 00 00 a4 3d 00 00 00 00 00 00 	0=0000000=000000
  0x31e0	90 3d 00 00 00 00 00 00 00 00 00 00 00 00 00 00 	0=00000000000000
  0x31f0	d4 3c 00 00 00 00 00 00 00 00 00 00 00 00 00 00 	0<00000000000000
  0x3200	80 3d 00 00 00 00 00 00 66 3d 00 00 00 00 00 00 	0=000000f=000000
  0x3210	00 00 00 00 00 00 00 00 54 3c 00 00 00 00 00 00 	00000000T<000000
  0x3220	3c 3c 00 00 00 00 00 00 32 3c 00 00 00 00 00 00 	<<0000002<000000
  0x3230	28 3c 00 00 00 00 00 00 10 3c 00 00 00 00 00 00 	(<0000000<000000
  0x3240	f0 3b 00 00 00 00 00 00 e6 3b 00 00 00 00 00 00 	0;0000000;000000
  0x3250	de 3b 00 00 00 00 00 00 d6 3b 00 00 00 00 00 00 	0;0000000;000000
  0x3260	c4 3b 00 00 00 00 00 00 b2 3b 00 00 00 00 00 00 	0;0000000;000000
  0x3270	a4 3b 00 00 00 00 00 00 96 3b 00 00 00 00 00 00 	0;0000000;000000
  0x3280	8c 3b 00 00 00 00 00 00 82 3b 00 00 00 00 00 00 	0;0000000;000000
  0x3290	04 3c 00 00 00 00 00 00 78 3b 00 00 00 00 00 00 	0<000000x;000000
  0x32a0	00 00 00 00 00 00 00 00 b0 1d 00 40 01 00 00 00 	00000000000@0000
  0x32b0	90 1f 00 40 01 00 00 00 00 00 00 00 00 00 00 00 	000@000000000000
  0x32c0	80 17 00 40 01 00 00 00 00 00 00 00 00 00 00 00 	000@000000000000
  0x32d0	00 00 00 00 00 00 00 00 a0 16 00 40 01 00 00 00 	00000000000@0000
  0x32e0	e0 1a 00 40 01 00 00 00 00 00 00 00 00 00 00 00 	000@000000000000
  0x32f0	a0 16 00 00 80 17 00 00 40 1a 00 00 a0 1a 00 00 	00000000@0000000
  0x3300	e0 1a 00 00 c0 1b 00 00 b0 1d 00 00 00 1e 00 00 	0000000000000000
  0x3310	2f 00 73 00 74 00 61 00 74 00 65 00 31 00 3a 00 	/0s0t0a0t0e010:0
  0x3320	00 00 00 00 00 00 00 00 2f 00 73 00 74 00 61 00 	00000000/0s0t0a0
  0x3330	74 00 65 00 30 00 3a 00 00 00 00 00 00 00 00 00 	t0e000:000000000
  0x3340	2f 00 66 00 6c 00 61 00 67 00 73 00 3a 00 00 00 	/0f0l0a0g0s0:000
  0x3350	2f 00 74 00 65 00 73 00 74 00 63 00 6c 00 69 00 	/0t0e0s0t0c0l0i0
  0x3360	65 00 6e 00 74 00 70 00 72 00 6f 00 63 00 65 00 	e0n0t0p0r0o0c0e0
  0x3370	73 00 73 00 69 00 64 00 3a 00 00 00 00 00 00 00 	s0s0i0d0:0000000
  0x3380	5b 5d 6c e7 d9 7a 96 44 9e fd df a0 8e c7 00 bb 	[]l00z0D00000000
  0x3390	c7 6f dc 0b e3 83 a4 46 bf a0 1b c1 4d bf 8b 38 	0o00000F0000M008
  0x33a0	00 00 00 00 52 54 8a c0 00 00 00 00 02 00 00 00 	0000RT0000000000
  0x33b0	24 00 00 00 f8 33 00 00 f8 19 00 00 00 00 00 00 	$000030000000000
  0x33c0	52 54 8a c0 00 00 00 00 0d 00 00 00 50 02 00 00 	RT0000000000P000
  0x33d0	1c 34 00 00 1c 1a 00 00 00 00 00 00 52 54 8a c0 	040000000000RT00
  0x33e0	00 00 00 00 10 00 00 00 24 00 00 00 6c 36 00 00 	00000000$000l600
  0x33f0	6c 1c 00 00 00 00 00 00 52 53 44 53 64 fe 94 cd 	l0000000RSDSd000
  0x3400	3c ee 16 69 6b aa d0 64 18 9e 8d af 01 00 00 00 	<00ik00d00000000
  0x3410	6c 6f 67 6f 6e 75 69 2e 70 64 62 00 00 55 47 50 	logonui.pdb00UGP
  0x3420	00 10 00 00 a0 06 00 00 2e 74 65 78 74 24 6c 70 	00000000.text$lp
  0x3430	30 30 6c 6f 67 6f 6e 75 69 2e 65 78 65 21 32 30 	00logonui.exe!20
  0x3440	5f 70 72 69 37 00 00 00 a0 16 00 00 e0 08 00 00 	_pri700000000000
  0x3450	2e 74 65 78 74 24 6d 6e 00 00 00 00 80 1f 00 00 	.text$mn00000000
  0x3460	20 00 00 00 2e 74 65 78 74 24 6d 6e 24 30 30 00 	 000.text$mn$000
  0x3470	a0 1f 00 00 50 00 00 00 2e 74 65 78 74 24 78 00 	0000P000.text$x0
  0x3480	f0 1f 00 00 f8 00 00 00 2e 74 65 78 74 24 7a 79 	00000000.text$zy
  0x3490	00 00 00 00 00 30 00 00 28 01 00 00 2e 72 64 61 	00000000(000.rda
  0x34a0	74 61 24 62 72 63 00 00 28 31 00 00 80 01 00 00 	ta$brc00(1000000
  0x34b0	2e 69 64 61 74 61 24 35 00 00 00 00 a8 32 00 00 	.idata$500000200
  0x34c0	10 00 00 00 2e 30 30 63 66 67 00 00 b8 32 00 00 	0000.00cfg000200
  0x34d0	08 00 00 00 2e 43 52 54 24 58 43 41 00 00 00 00 	0000.CRT$XCA0000
  0x34e0	c0 32 00 00 08 00 00 00 2e 43 52 54 24 58 43 41 	02000000.CRT$XCA
  0x34f0	41 00 00 00 c8 32 00 00 08 00 00 00 2e 43 52 54 	A00002000000.CRT
  0x3500	24 58 43 5a 00 00 00 00 d0 32 00 00 08 00 00 00 	$XCZ000002000000
  0x3510	2e 43 52 54 24 58 49 41 00 00 00 00 d8 32 00 00 	.CRT$XIA00000200
  0x3520	08 00 00 00 2e 43 52 54 24 58 49 41 41 00 00 00 	0000.CRT$XIAA000
  0x3530	e0 32 00 00 08 00 00 00 2e 43 52 54 24 58 49 59 	02000000.CRT$XIY
  0x3540	00 00 00 00 e8 32 00 00 08 00 00 00 2e 43 52 54 	000002000000.CRT
  0x3550	24 58 49 5a 00 00 00 00 f0 32 00 00 20 00 00 00 	$XIZ00000200 000
  0x3560	2e 67 66 69 64 73 00 00 10 33 00 00 e8 00 00 00 	.gfids0003000000
  0x3570	2e 72 64 61 74 61 00 00 f8 33 00 00 98 02 00 00 	.rdata0003000000
  0x3580	2e 72 64 61 74 61 24 7a 7a 7a 64 62 67 00 00 00 	.rdata$zzzdbg000
  0x3590	90 36 00 00 8c 02 00 00 2e 78 64 61 74 61 00 00 	06000000.xdata00
  0x35a0	1c 39 00 00 c8 00 00 00 2e 69 64 61 74 61 24 32 	09000000.idata$2
  0x35b0	00 00 00 00 e4 39 00 00 14 00 00 00 2e 69 64 61 	000009000000.ida
  0x35c0	74 61 24 33 00 00 00 00 f8 39 00 00 80 01 00 00 	ta$3000009000000
  0x35d0	2e 69 64 61 74 61 24 34 00 00 00 00 78 3b 00 00 	.idata$40000x;00
  0x35e0	e6 03 00 00 2e 69 64 61 74 61 24 36 00 00 00 00 	0000.idata$60000
  0x35f0	00 40 00 00 20 00 00 00 2e 64 61 74 61 00 00 00 	0@00 000.data000
  0x3600	20 40 00 00 10 00 00 00 2e 64 61 74 61 24 30 30 	 @000000.data$00
  0x3610	00 00 00 00 30 40 00 00 60 06 00 00 2e 62 73 73 	00000@00`000.bss
  0x3620	00 00 00 00 90 46 00 00 04 00 00 00 2e 62 73 73 	00000F000000.bss
  0x3630	24 7a 7a 00 00 50 00 00 bc 01 00 00 2e 70 64 61 	$zz00P000000.pda
  0x3640	74 61 00 00 00 60 00 00 a0 00 00 00 2e 72 73 72 	ta000`000000.rsr
  0x3650	63 24 30 31 00 00 00 00 a0 60 00 00 80 08 00 00 	c$0100000`000000
  0x3660	2e 72 73 72 63 24 30 32 00 00 00 00 20 00 00 00 	.rsrc$020000 000
  0x3670	64 fe 94 cd 3c ee 16 69 6b aa d0 64 18 9e 8d af 	d000<00ik00d0000
  0x3680	33 4a 0f 34 ac 9a d9 6e 98 f2 f6 fe 52 54 8a c0 	3J04000n0000RT00
  0x3690	01 06 02 00 06 d2 02 30 21 21 08 00 21 d4 0c 00 	00000000!!00!000
  0x36a0	19 c4 0d 00 12 64 11 00 08 54 10 00 10 10 00 00 	00000d000T000000
  0x36b0	54 10 00 00 90 36 00 00 21 19 06 00 19 f4 0a 00 	T0000600!0000000
  0x36c0	0f e4 0b 00 08 74 12 00 54 10 00 00 9b 10 00 00 	00000t00T0000000
  0x36d0	98 36 00 00 21 00 00 00 54 10 00 00 9b 10 00 00 	0600!000T0000000
  0x36e0	98 36 00 00 21 00 00 00 10 10 00 00 54 10 00 00 	0600!0000000T000
  0x36f0	90 36 00 00 21 00 0e 00 00 f4 0a 00 00 e4 0b 00 	0600!00000000000
  0x3700	00 d4 0c 00 00 c4 0d 00 00 74 12 00 00 64 11 00 	000000000t000d00
  0x3710	00 54 10 00 10 10 00 00 54 10 00 00 90 36 00 00 	0T000000T0000600
  0x3720	21 00 00 00 10 10 00 00 54 10 00 00 90 36 00 00 	!0000000T0000600
  0x3730	01 09 04 00 09 52 05 e0 03 60 02 50 21 05 02 00 	00000R000`0P!000
  0x3740	05 74 0b 00 d0 13 00 00 20 14 00 00 30 37 00 00 	0t000000 0000700
  0x3750	21 05 02 00 05 34 0a 00 20 14 00 00 50 14 00 00 	!0000400 000P000
  0x3760	3c 37 00 00 21 00 00 00 20 14 00 00 50 14 00 00 	<700!000 000P000
  0x3770	3c 37 00 00 21 00 00 00 d0 13 00 00 20 14 00 00 	<700!0000000 000
  0x3780	30 37 00 00 21 00 04 00 00 74 0b 00 00 34 0a 00 	0700!0000t000400
  0x3790	d0 13 00 00 20 14 00 00 30 37 00 00 21 00 02 00 	0000 0000700!000
  0x37a0	00 74 0b 00 d0 13 00 00 20 14 00 00 30 37 00 00 	0t000000 0000700
  0x37b0	21 00 04 00 00 74 0b 00 00 34 0a 00 d0 13 00 00 	!0000t0004000000
  0x37c0	20 14 00 00 30 37 00 00 01 0a 04 00 0a 12 06 f0 	 000070000000000
  0x37d0	04 d0 02 60 21 24 0a 00 24 e4 00 00 20 c4 01 00 	000`!$00$000 000
  0x37e0	1b 74 08 00 14 54 07 00 05 34 06 00 d0 14 00 00 	0t000T0004000000
  0x37f0	02 15 00 00 c8 37 00 00 21 00 00 00 d0 14 00 00 	00000700!0000000
  0x3800	02 15 00 00 c8 37 00 00 21 00 0a 00 00 e4 00 00 	00000700!0000000
  0x3810	00 c4 01 00 00 74 08 00 00 54 07 00 00 34 06 00 	00000t000T000400
  0x3820	d0 14 00 00 02 15 00 00 c8 37 00 00 21 00 0a 00 	000000000700!000
  0x3830	00 e4 00 00 00 c4 01 00 00 74 08 00 00 54 07 00 	000000000t000T00
  0x3840	00 34 06 00 d0 14 00 00 02 15 00 00 c8 37 00 00 	0400000000000700
  0x3850	21 00 00 00 d0 14 00 00 02 15 00 00 c8 37 00 00 	!000000000000700
  0x3860	01 04 01 00 04 42 00 00 01 04 01 00 04 62 00 00 	00000B0000000b00
  0x3870	09 1c 0b 00 1c e4 1b 00 1c 74 1a 00 1c 64 19 00 	000000000t000d00
  0x3880	1c 34 18 00 1c 01 16 00 15 f0 00 00 9a 1d 00 00 	0400000000000000
  0x3890	01 00 00 00 ff 17 00 00 e9 19 00 00 a0 1f 00 00 	0000000000000000
  0x38a0	e9 19 00 00 01 06 02 00 06 32 02 50 00 00 00 00 	00000000020P0000
  0x38b0	01 00 00 00 09 04 01 00 04 22 00 00 9a 1d 00 00 	000000000"000000
  0x38c0	01 00 00 00 1c 1b 00 00 52 1b 00 00 01 00 00 00 	00000000R0000000
  0x38d0	52 1b 00 00 01 06 02 00 06 32 02 30 09 0a 04 00 	R000000002000000
  0x38e0	0a 34 06 00 0a 32 06 70 9a 1d 00 00 01 00 00 00 	0400020p00000000
  0x38f0	2d 1c 00 00 60 1c 00 00 d0 1f 00 00 60 1c 00 00 	-000`0000000`000
  0x3900	01 0d 04 00 0d 34 09 00 0d 32 06 50 01 0c 02 00 	00000400020P0000
  0x3910	0c 01 11 00 00 00 00 00 01 00 00 00 e8 3a 00 00 	0000000000000:00
  0x3920	00 00 00 00 00 00 00 00 48 3c 00 00 18 32 00 00 	00000000H<000200
  0x3930	58 3a 00 00 00 00 00 00 00 00 00 00 10 3e 00 00 	X:00000000000>00
  0x3940	88 31 00 00 f8 39 00 00 00 00 00 00 00 00 00 00 	0100090000000000
  0x3950	3a 3e 00 00 28 31 00 00 30 3a 00 00 00 00 00 00 	:>00(1000:000000
  0x3960	00 00 00 00 5a 3e 00 00 60 31 00 00 c0 3a 00 00 	0000Z>00`1000:00
  0x3970	00 00 00 00 00 00 00 00 7a 3e 00 00 f0 31 00 00 	00000000z>000100
  0x3980	18 3a 00 00 00 00 00 00 00 00 00 00 9c 3e 00 00 	0:00000000000>00
  0x3990	48 31 00 00 48 3a 00 00 00 00 00 00 00 00 00 00 	H100H:0000000000
  0x39a0	c6 3e 00 00 78 31 00 00 90 3a 00 00 00 00 00 00 	0>00x1000:000000
  0x39b0	00 00 00 00 f0 3e 00 00 c0 31 00 00 d0 3a 00 00 	00000>0001000:00
  0x39c0	00 00 00 00 00 00 00 00 14 3f 00 00 00 32 00 00 	000000000?000200
  0x39d0	a0 3a 00 00 00 00 00 00 00 00 00 00 38 3f 00 00 	0:00000000008?00
  0x39e0	d0 31 00 00 00 00 00 00 00 00 00 00 00 00 00 00 	0100000000000000
  0x39f0	00 00 00 00 00 00 00 00 c2 3c 00 00 00 00 00 00 	000000000<000000
  0x3a00	90 3c 00 00 00 00 00 00 a2 3c 00 00 00 00 00 00 	0<0000000<000000
  0x3a10	00 00 00 00 00 00 00 00 ee 3c 00 00 00 00 00 00 	000000000<000000
  0x3a20	d2 3d 00 00 00 00 00 00 00 00 00 00 00 00 00 00 	0=00000000000000
  0x3a30	b6 3c 00 00 00 00 00 00 02 3e 00 00 00 00 00 00 	0<0000000>000000
  0x3a40	00 00 00 00 00 00 00 00 0c 3d 00 00 00 00 00 00 	000000000=000000
  0x3a50	00 00 00 00 00 00 00 00 3a 3d 00 00 00 00 00 00 	00000000:=000000
  0x3a60	7c 3c 00 00 00 00 00 00 ee 3d 00 00 00 00 00 00 	|<0000000=000000
  0x3a70	dc 3c 00 00 00 00 00 00 50 3d 00 00 00 00 00 00 	0<000000P=000000
  0x3a80	68 3c 00 00 00 00 00 00 00 00 00 00 00 00 00 00 	h<00000000000000
  0x3a90	20 3d 00 00 00 00 00 00 00 00 00 00 00 00 00 00 	 =00000000000000
  0x3aa0	be 3d 00 00 00 00 00 00 a4 3d 00 00 00 00 00 00 	0=0000000=000000
  0x3ab0	90 3d 00 00 00 00 00 00 00 00 00 00 00 00 00 00 	0=00000000000000
  0x3ac0	d4 3c 00 00 00 00 00 00 00 00 00 00 00 00 00 00 	0<00000000000000
  0x3ad0	80 3d 00 00 00 00 00 00 66 3d 00 00 00 00 00 00 	0=000000f=000000
  0x3ae0	00 00 00 00 00 00 00 00 54 3c 00 00 00 00 00 00 	00000000T<000000
  0x3af0	3c 3c 00 00 00 00 00 00 32 3c 00 00 00 00 00 00 	<<0000002<000000
  0x3b00	28 3c 00 00 00 00 00 00 10 3c 00 00 00 00 00 00 	(<0000000<000000
  0x3b10	f0 3b 00 00 00 00 00 00 e6 3b 00 00 00 00 00 00 	0;0000000;000000
  0x3b20	de 3b 00 00 00 00 00 00 d6 3b 00 00 00 00 00 00 	0;0000000;000000
  0x3b30	c4 3b 00 00 00 00 00 00 b2 3b 00 00 00 00 00 00 	0;0000000;000000
  0x3b40	a4 3b 00 00 00 00 00 00 96 3b 00 00 00 00 00 00 	0;0000000;000000
  0x3b50	8c 3b 00 00 00 00 00 00 82 3b 00 00 00 00 00 00 	0;0000000;000000
  0x3b60	04 3c 00 00 00 00 00 00 78 3b 00 00 00 00 00 00 	0<000000x;000000
  0x3b70	00 00 00 00 00 00 00 00 1b 05 77 63 73 74 6f 75 	0000000000wcstou
  0x3b80	6c 00 01 05 77 63 73 63 68 72 00 00 0b 05 77 63 	l000wcschr0000wc
  0x3b90	73 6e 63 6d 70 00 55 00 5f 58 63 70 74 46 69 6c 	sncmp0U0_XcptFil
  0x3ba0	74 65 72 00 ae 00 5f 61 6d 73 67 5f 65 78 69 74 	ter000_amsg_exit
  0x3bb0	00 00 9d 00 5f 5f 77 67 65 74 6d 61 69 6e 61 72 	0000__wgetmainar
  0x3bc0	67 73 00 00 8e 00 5f 5f 73 65 74 5f 61 70 70 5f 	gs0000__set_app_
  0x3bd0	74 79 70 65 00 00 32 04 65 78 69 74 00 00 0e 01 	type0020exit0000
  0x3be0	5f 65 78 69 74 00 c1 00 5f 63 65 78 69 74 00 00 	_exit000_cexit00
  0x3bf0	90 00 5f 5f 73 65 74 75 73 65 72 6d 61 74 68 65 	00__setusermathe
  0x3c00	72 72 00 00 7d 01 5f 69 6e 69 74 74 65 72 6d 00 	rr00}0_initterm0
  0x3c10	57 00 5f 5f 43 5f 73 70 65 63 69 66 69 63 5f 68 	W0__C_specific_h
  0x3c20	61 6e 64 6c 65 72 00 00 82 03 5f 77 63 6d 64 6c 	andler0000_wcmdl
  0x3c30	6e 00 27 01 5f 66 6d 6f 64 65 00 00 d2 00 5f 63 	n0'0_fmode0000_c
  0x3c40	6f 6d 6d 6f 64 65 00 00 6d 73 76 63 72 74 2e 64 	ommode00msvcrt.d
  0x3c50	6c 6c 00 00 2f 00 3f 74 65 72 6d 69 6e 61 74 65 	ll00/0?terminate
  0x3c60	40 40 59 41 58 58 5a 00 39 00 53 65 74 50 72 69 	@@YAXXZ090SetPri
  0x3c70	6f 72 69 74 79 43 6c 61 73 73 00 00 0c 00 47 65 	orityClass0000Ge
  0x3c80	74 43 75 72 72 65 6e 74 50 72 6f 63 65 73 73 00 	tCurrentProcess0
  0x3c90	46 00 43 6f 55 6e 69 6e 69 74 69 61 6c 69 7a 65 	F0CoUninitialize
  0x3ca0	00 00 09 00 43 6f 43 72 65 61 74 65 49 6e 73 74 	0000CoCreateInst
  0x3cb0	61 6e 63 65 00 00 03 00 4c 6f 63 61 6c 46 72 65 	ance0000LocalFre
  0x3cc0	65 00 28 00 43 6f 49 6e 69 74 69 61 6c 69 7a 65 	e0(0CoInitialize
  0x3cd0	45 78 00 00 2d 00 53 6c 65 65 70 00 20 00 47 65 	Ex00-0Sleep0 0Ge
  0x3ce0	74 53 74 61 72 74 75 70 49 6e 66 6f 57 00 0f 00 	tStartupInfoW000
  0x3cf0	53 65 74 55 6e 68 61 6e 64 6c 65 64 45 78 63 65 	SetUnhandledExce
  0x3d00	70 74 69 6f 6e 46 69 6c 74 65 72 00 14 00 47 65 	ptionFilter000Ge
  0x3d10	74 4d 6f 64 75 6c 65 48 61 6e 64 6c 65 57 00 00 	tModuleHandleW00
  0x3d20	00 00 51 75 65 72 79 50 65 72 66 6f 72 6d 61 6e 	00QueryPerforman
  0x3d30	63 65 43 6f 75 6e 74 65 72 00 0d 00 47 65 74 43 	ceCounter000GetC
  0x3d40	75 72 72 65 6e 74 50 72 6f 63 65 73 73 49 64 00 	urrentProcessId0
  0x3d50	11 00 47 65 74 43 75 72 72 65 6e 74 54 68 72 65 	00GetCurrentThre
  0x3d60	61 64 49 64 00 00 16 00 47 65 74 53 79 73 74 65 	adId0000GetSyste
  0x3d70	6d 54 69 6d 65 41 73 46 69 6c 65 54 69 6d 65 00 	mTimeAsFileTime0
  0x3d80	1a 00 47 65 74 54 69 63 6b 43 6f 75 6e 74 00 00 	00GetTickCount00
  0x3d90	02 00 52 74 6c 43 61 70 74 75 72 65 43 6f 6e 74 	00RtlCaptureCont
  0x3da0	65 78 74 00 0a 00 52 74 6c 4c 6f 6f 6b 75 70 46 	ext000RtlLookupF
  0x3db0	75 6e 63 74 69 6f 6e 45 6e 74 72 79 00 00 10 00 	unctionEntry0000
  0x3dc0	52 74 6c 56 69 72 74 75 61 6c 55 6e 77 69 6e 64 	RtlVirtualUnwind
  0x3dd0	00 00 11 00 55 6e 68 61 6e 64 6c 65 64 45 78 63 	0000UnhandledExc
  0x3de0	65 70 74 69 6f 6e 46 69 6c 74 65 72 00 00 4e 00 	eptionFilter00N0
  0x3df0	54 65 72 6d 69 6e 61 74 65 50 72 6f 63 65 73 73 	TerminateProcess
  0x3e00	00 00 02 00 4c 6f 63 61 6c 41 6c 6c 6f 63 00 00 	0000LocalAlloc00
  0x3e10	61 70 69 2d 6d 73 2d 77 69 6e 2d 63 6f 72 65 2d 	api-ms-win-core-
  0x3e20	70 72 6f 63 65 73 73 74 68 72 65 61 64 73 2d 6c 	processthreads-l
  0x3e30	31 2d 31 2d 30 2e 64 6c 6c 00 61 70 69 2d 6d 73 	1-1-0.dll0api-ms
  0x3e40	2d 77 69 6e 2d 63 6f 72 65 2d 63 6f 6d 2d 6c 31 	-win-core-com-l1
  0x3e50	2d 31 2d 30 2e 64 6c 6c 00 00 61 70 69 2d 6d 73 	-1-0.dll00api-ms
  0x3e60	2d 77 69 6e 2d 63 6f 72 65 2d 68 65 61 70 2d 6c 	-win-core-heap-l
  0x3e70	32 2d 31 2d 30 2e 64 6c 6c 00 61 70 69 2d 6d 73 	2-1-0.dll0api-ms
  0x3e80	2d 77 69 6e 2d 63 6f 72 65 2d 73 79 6e 63 68 2d 	-win-core-synch-
  0x3e90	6c 31 2d 32 2d 30 2e 64 6c 6c 00 00 61 70 69 2d 	l1-2-0.dll00api-
  0x3ea0	6d 73 2d 77 69 6e 2d 63 6f 72 65 2d 65 72 72 6f 	ms-win-core-erro
  0x3eb0	72 68 61 6e 64 6c 69 6e 67 2d 6c 31 2d 31 2d 30 	rhandling-l1-1-0
  0x3ec0	2e 64 6c 6c 00 00 61 70 69 2d 6d 73 2d 77 69 6e 	.dll00api-ms-win
  0x3ed0	2d 63 6f 72 65 2d 6c 69 62 72 61 72 79 6c 6f 61 	-core-libraryloa
  0x3ee0	64 65 72 2d 6c 31 2d 32 2d 30 2e 64 6c 6c 00 00 	der-l1-2-0.dll00
  0x3ef0	61 70 69 2d 6d 73 2d 77 69 6e 2d 63 6f 72 65 2d 	api-ms-win-core-
  0x3f00	70 72 6f 66 69 6c 65 2d 6c 31 2d 31 2d 30 2e 64 	profile-l1-1-0.d
  0x3f10	6c 6c 00 00 61 70 69 2d 6d 73 2d 77 69 6e 2d 63 	ll00api-ms-win-c
  0x3f20	6f 72 65 2d 73 79 73 69 6e 66 6f 2d 6c 31 2d 31 	ore-sysinfo-l1-1
  0x3f30	2d 30 2e 64 6c 6c 00 00 61 70 69 2d 6d 73 2d 77 	-0.dll00api-ms-w
  0x3f40	69 6e 2d 63 6f 72 65 2d 72 74 6c 73 75 70 70 6f 	in-core-rtlsuppo
  0x3f50	72 74 2d 6c 31 2d 31 2d 30 2e 64 6c 6c 00 00 00 	rt-l1-1-0.dll000
  0x3f60	00 00 00 00 00 00 00 00 00 00 00 00 00 00 00 00 	0000000000000000
  0x3f70	00 00 00 00 00 00 00 00 00 00 00 00 00 00 00 00 	0000000000000000
  0x3f80	00 00 00 00 00 00 00 00 00 00 00 00 00 00 00 00 	0000000000000000
  0x3f90	00 00 00 00 00 00 00 00 00 00 00 00 00 00 00 00 	0000000000000000
  0x3fa0	00 00 00 00 00 00 00 00 00 00 00 00 00 00 00 00 	0000000000000000
  0x3fb0	00 00 00 00 00 00 00 00 00 00 00 00 00 00 00 00 	0000000000000000
  0x3fc0	00 00 00 00 00 00 00 00 00 00 00 00 00 00 00 00 	0000000000000000
  0x3fd0	00 00 00 00 00 00 00 00 00 00 00 00 00 00 00 00 	0000000000000000
  0x3fe0	00 00 00 00 00 00 00 00 00 00 00 00 00 00 00 00 	0000000000000000
  0x3ff0	00 00 00 00 00 00 00 00 00 00 00 00 00 00 00 00 	0000000000000000
=== DATA BLOCK END ===

=== DATA BLOCK ADDRESS 0x4000 ===
  0x4000	01 00 00 00 00 00 00 00 32 a2 df 2d 99 2b 00 00 	00000000200-0+00
  0x4010	cd 5d 20 d2 66 d4 ff ff 00 00 00 00 00 00 00 00 	0] 0f00000000000
  0x4020	01 00 00 00 00 00 00 00 00 00 00 00 00 00 00 00 	0000000000000000
  0x4030	00 00 00 00 00 00 00 00 00 00 00 00 00 00 00 00 	0000000000000000
  0x4040	00 00 00 00 00 00 00 00 00 00 00 00 00 00 00 00 	0000000000000000
  0x4050	00 00 00 00 00 00 00 00 00 00 00 00 00 00 00 00 	0000000000000000
  0x4060	00 00 00 00 00 00 00 00 00 00 00 00 00 00 00 00 	0000000000000000
  0x4070	00 00 00 00 00 00 00 00 00 00 00 00 00 00 00 00 	0000000000000000
  0x4080	00 00 00 00 00 00 00 00 00 00 00 00 00 00 00 00 	0000000000000000
  0x4090	00 00 00 00 00 00 00 00 00 00 00 00 00 00 00 00 	0000000000000000
  0x40a0	00 00 00 00 00 00 00 00 00 00 00 00 00 00 00 00 	0000000000000000
  0x40b0	00 00 00 00 00 00 00 00 00 00 00 00 00 00 00 00 	0000000000000000
  0x40c0	00 00 00 00 00 00 00 00 00 00 00 00 00 00 00 00 	0000000000000000
  0x40d0	00 00 00 00 00 00 00 00 00 00 00 00 00 00 00 00 	0000000000000000
  0x40e0	00 00 00 00 00 00 00 00 00 00 00 00 00 00 00 00 	0000000000000000
  0x40f0	00 00 00 00 00 00 00 00 00 00 00 00 00 00 00 00 	0000000000000000
  0x4100	00 00 00 00 00 00 00 00 00 00 00 00 00 00 00 00 	0000000000000000
  0x4110	00 00 00 00 00 00 00 00 00 00 00 00 00 00 00 00 	0000000000000000
  0x4120	00 00 00 00 00 00 00 00 00 00 00 00 00 00 00 00 	0000000000000000
  0x4130	00 00 00 00 00 00 00 00 00 00 00 00 00 00 00 00 	0000000000000000
  0x4140	00 00 00 00 00 00 00 00 00 00 00 00 00 00 00 00 	0000000000000000
  0x4150	00 00 00 00 00 00 00 00 00 00 00 00 00 00 00 00 	0000000000000000
  0x4160	00 00 00 00 00 00 00 00 00 00 00 00 00 00 00 00 	0000000000000000
  0x4170	00 00 00 00 00 00 00 00 00 00 00 00 00 00 00 00 	0000000000000000
  0x4180	00 00 00 00 00 00 00 00 00 00 00 00 00 00 00 00 	0000000000000000
  0x4190	00 00 00 00 00 00 00 00 00 00 00 00 00 00 00 00 	0000000000000000
  0x41a0	00 00 00 00 00 00 00 00 00 00 00 00 00 00 00 00 	0000000000000000
  0x41b0	00 00 00 00 00 00 00 00 00 00 00 00 00 00 00 00 	0000000000000000
  0x41c0	00 00 00 00 00 00 00 00 00 00 00 00 00 00 00 00 	0000000000000000
  0x41d0	00 00 00 00 00 00 00 00 00 00 00 00 00 00 00 00 	0000000000000000
  0x41e0	00 00 00 00 00 00 00 00 00 00 00 00 00 00 00 00 	0000000000000000
  0x41f0	00 00 00 00 00 00 00 00 00 00 00 00 00 00 00 00 	0000000000000000
=== DATA BLOCK END ===

=== DATA BLOCK ADDRESS 0x5000 ===
  0x5000	10 10 00 00 54 10 00 00 90 36 00 00 54 10 00 00 	0000T0000600T000
  0x5010	9b 10 00 00 98 36 00 00 9b 10 00 00 1c 12 00 00 	0000060000000000
  0x5020	b8 36 00 00 1c 12 00 00 ab 12 00 00 d4 36 00 00 	0600000000000600
  0x5030	ab 12 00 00 b4 12 00 00 e4 36 00 00 b4 12 00 00 	0000000006000000
  0x5040	c6 13 00 00 f4 36 00 00 d0 13 00 00 20 14 00 00 	000006000000 000
  0x5050	30 37 00 00 20 14 00 00 50 14 00 00 3c 37 00 00 	0700 000P000<700
  0x5060	50 14 00 00 a5 14 00 00 50 37 00 00 a5 14 00 00 	P0000000P7000000
  0x5070	aa 14 00 00 64 37 00 00 aa 14 00 00 b4 14 00 00 	0000d70000000000
  0x5080	74 37 00 00 b4 14 00 00 bb 14 00 00 84 37 00 00 	t700000000000700
  0x5090	bb 14 00 00 c2 14 00 00 9c 37 00 00 d0 14 00 00 	0000000007000000
  0x50a0	02 15 00 00 c8 37 00 00 02 15 00 00 80 16 00 00 	0000070000000000
  0x50b0	d4 37 00 00 80 16 00 00 8b 16 00 00 f8 37 00 00 	0700000000000700
  0x50c0	8b 16 00 00 92 16 00 00 08 38 00 00 a0 16 00 00 	0000000008000000
  0x50d0	73 17 00 00 60 38 00 00 80 17 00 00 c9 17 00 00 	s000`80000000000
  0x50e0	68 38 00 00 d0 17 00 00 34 1a 00 00 70 38 00 00 	h80000004000p800
  0x50f0	40 1a 00 00 52 1a 00 00 60 38 00 00 70 1a 00 00 	@000R000`800p000
  0x5100	8e 1a 00 00 b0 38 00 00 a0 1a 00 00 d9 1a 00 00 	0000080000000000
  0x5110	60 38 00 00 e0 1a 00 00 f8 1a 00 00 60 38 00 00 	`80000000000`800
  0x5120	0c 1b 00 00 60 1b 00 00 b4 38 00 00 68 1b 00 00 	0000`0000800h000
  0x5130	ad 1b 00 00 d4 38 00 00 20 1c 00 00 6d 1c 00 00 	00000800 000m000
  0x5140	dc 38 00 00 b4 1c 00 00 88 1d 00 00 00 39 00 00 	0800000000000900
  0x5150	bc 1d 00 00 f0 1d 00 00 d4 38 00 00 00 1e 00 00 	0000000008000000
  0x5160	71 1f 00 00 0c 39 00 00 90 1f 00 00 92 1f 00 00 	q000090000000000
  0x5170	18 39 00 00 a0 1f 00 00 be 1f 00 00 a4 38 00 00 	0900000000000800
  0x5180	d0 1f 00 00 f0 1f 00 00 a4 38 00 00 f0 1f 00 00 	0000000008000000
  0x5190	fa 1f 00 00 20 37 00 00 fa 1f 00 00 10 20 00 00 	0000 70000000 00
  0x51a0	b0 37 00 00 10 20 00 00 dc 20 00 00 2c 38 00 00 	07000 000 00,800
  0x51b0	dc 20 00 00 e6 20 00 00 50 38 00 00 00 00 00 00 	0 000 00P8000000
  0x51c0	00 00 00 00 00 00 00 00 00 00 00 00 00 00 00 00 	0000000000000000
  0x51d0	00 00 00 00 00 00 00 00 00 00 00 00 00 00 00 00 	0000000000000000
  0x51e0	00 00 00 00 00 00 00 00 00 00 00 00 00 00 00 00 	0000000000000000
  0x51f0	00 00 00 00 00 00 00 00 00 00 00 00 00 00 00 00 	0000000000000000
=== DATA BLOCK END ===
