===== Assembly blocks =====

=== CODE BLOCK ADDRESS 0x1000 ===
  0x1000	int3   	
  0x1001	int3   	
  0x1002	int3   	
  0x1003	int3   	
  0x1004	int3   	
  === BLOCK LINK ===
    0x1005
=== CODE BLOCK END ===

=== CODE BLOCK ADDRESS 0x1005 ===
  0x1005	int3   	
  0x1006	int3   	
  0x1007	int3   	
  0x1008	dec    	eax
  0x1009	mov    	dword ptr [esp + 8], ebx
  === BLOCK LINK ===
    0x100d
=== CODE BLOCK END ===

=== CODE BLOCK ADDRESS 0x100d ===
  0x100d	dec    	eax
  0x100e	mov    	dword ptr [esp + 0x10], ebp
  0x1012	dec    	eax
  0x1013	mov    	dword ptr [esp + 0x18], esi
  0x1017	push   	edi
  === BLOCK LINK ===
    0x1018
=== CODE BLOCK END ===

=== CODE BLOCK ADDRESS 0x1018 ===
  0x1018	inc    	ecx
  0x1019	push   	esi
  0x101a	inc    	ecx
  0x101b	push   	edi
  0x101c	dec    	eax
  === BLOCK LINK ===
    0x101d
=== CODE BLOCK END ===

=== CODE BLOCK ADDRESS 0x101d ===
  0x101d	sub    	esp, 0x30
  0x1020	dec    	eax
  0x1021	mov    	ebp, ecx
  0x1023	dec    	ebp
  0x1024	mov    	edi, eax
  === BLOCK LINK ===
    0x1026
=== CODE BLOCK END ===

=== CODE BLOCK ADDRESS 0x1026 ===
  0x1026	dec    	eax
  0x1027	lea    	ecx, [0x3463]
  0x102d	dec    	esp
  0x102e	mov    	esi, edx
  0x1030	xor    	ebx, ebx
  === BLOCK LINK ===
    0x1032
=== CODE BLOCK END ===

=== CODE BLOCK ADDRESS 0x1032 ===
  0x1032	dec    	eax
  0x1033	call   	dword ptr [0x3217]
  === BLOCK LINK ===
    0x1039
=== CODE BLOCK END ===

=== CODE BLOCK ADDRESS 0x1039 ===
  0x1039	nop    	dword ptr [eax + eax]
  0x103e	dec    	eax
  0x103f	mov    	edi, eax
  0x1041	dec    	eax
  0x1042	test   	eax, eax
  === BLOCK LINK ===
    0x1044
=== CODE BLOCK END ===

=== CODE BLOCK ADDRESS 0x1044 ===
  0x1044	jne    	0x1059
  === BLOCK LINK ===
    0x1046
    0x1059
=== CODE BLOCK END ===

=== CODE BLOCK ADDRESS 0x1046 ===
  0x1046	dec    	eax
  0x1047	call   	dword ptr [0x31ab]
  === BLOCK LINK ===
    0x104d
=== CODE BLOCK END ===

=== CODE BLOCK ADDRESS 0x104d ===
  0x104d	nop    	dword ptr [eax + eax]
  0x1052	mov    	ebx, eax
  0x1054	jmp    	0x112e
  === BLOCK LINK ===
    0x1059
    0x112e
=== CODE BLOCK END ===

=== CODE BLOCK ADDRESS 0x1059 ===
  0x1059	dec    	eax
  0x105a	lea    	edx, [0x3448]
  0x1060	dec    	eax
  0x1061	mov    	ecx, edi
  0x1063	dec    	eax
  === BLOCK LINK ===
    0x1064
=== CODE BLOCK END ===

=== CODE BLOCK ADDRESS 0x1064 ===
  0x1064	call   	dword ptr [0x31c6]
  === BLOCK LINK ===
    0x106a
=== CODE BLOCK END ===

=== CODE BLOCK ADDRESS 0x106a ===
  0x106a	nop    	dword ptr [eax + eax]
  0x106f	dec    	eax
  0x1070	mov    	esi, eax
  0x1072	dec    	eax
  0x1073	test   	eax, eax
  === BLOCK LINK ===
    0x1075
=== CODE BLOCK END ===

=== CODE BLOCK ADDRESS 0x1075 ===
  0x1075	jne    	0x108a
  === BLOCK LINK ===
    0x1077
    0x108a
=== CODE BLOCK END ===

=== CODE BLOCK ADDRESS 0x1077 ===
  0x1077	dec    	eax
  0x1078	call   	dword ptr [0x317a]
  === BLOCK LINK ===
    0x107e
=== CODE BLOCK END ===

=== CODE BLOCK ADDRESS 0x107e ===
  0x107e	nop    	dword ptr [eax + eax]
  0x1083	mov    	ebx, eax
  0x1085	jmp    	0x111f
  === BLOCK LINK ===
    0x108a
    0x111f
=== CODE BLOCK END ===

=== CODE BLOCK ADDRESS 0x108a ===
  0x108a	dec    	esp
  0x108b	lea    	eax, [esp + 0x20]
  0x108f	dec    	eax
  0x1090	mov    	ecx, ebp
  0x1092	dec    	eax
  === BLOCK LINK ===
    0x1093
=== CODE BLOCK END ===

=== CODE BLOCK ADDRESS 0x1093 ===
  0x1093	lea    	edx, [0x3427]
  0x1099	dec    	eax
  0x109a	call   	dword ptr [0x3280]
  === BLOCK LINK ===
    0x10a0
=== CODE BLOCK END ===

=== CODE BLOCK ADDRESS 0x10a0 ===
  0x10a0	nop    	dword ptr [eax + eax]
  0x10a5	cmp    	eax, 1
  0x10a8	je     	0x10b1
  === BLOCK LINK ===
    0x10aa
    0x10b1
=== CODE BLOCK END ===

=== CODE BLOCK ADDRESS 0x10aa ===
  0x10aa	mov    	ebx, 0xd
  0x10af	jmp    	0x111f
  === BLOCK LINK ===
    0x10b1
    0x111f
=== CODE BLOCK END ===

=== CODE BLOCK ADDRESS 0x10b1 ===
  0x10b1	dec    	esp
  0x10b2	lea    	eax, [esp + 0x68]
  0x10b6	dec    	ecx
  0x10b7	mov    	ecx, esi
  0x10b9	dec    	eax
  === BLOCK LINK ===
    0x10ba
=== CODE BLOCK END ===

=== CODE BLOCK ADDRESS 0x10ba ===
  0x10ba	lea    	edx, [0x3400]
  0x10c0	dec    	eax
  0x10c1	call   	dword ptr [0x3259]
  === BLOCK LINK ===
    0x10c7
=== CODE BLOCK END ===

=== CODE BLOCK ADDRESS 0x10c7 ===
  0x10c7	nop    	dword ptr [eax + eax]
  0x10cc	cmp    	eax, 1
  0x10cf	jne    	0x10aa
  === BLOCK LINK ===
    0x10d1
    0x10aa
=== CODE BLOCK END ===

=== CODE BLOCK ADDRESS 0x10d1 ===
  0x10d1	dec    	esp
  0x10d2	lea    	eax, [esp + 0x24]
  0x10d6	dec    	ecx
  0x10d7	mov    	ecx, edi
  0x10d9	dec    	eax
  === BLOCK LINK ===
    0x10da
=== CODE BLOCK END ===

=== CODE BLOCK ADDRESS 0x10da ===
  0x10da	lea    	edx, [0x33e0]
  0x10e0	dec    	eax
  0x10e1	call   	dword ptr [0x3239]
  === BLOCK LINK ===
    0x10e7
=== CODE BLOCK END ===

=== CODE BLOCK ADDRESS 0x10e7 ===
  0x10e7	nop    	dword ptr [eax + eax]
  0x10ec	cmp    	eax, 1
  0x10ef	jne    	0x10aa
  === BLOCK LINK ===
    0x10f1
    0x10aa
=== CODE BLOCK END ===

=== CODE BLOCK ADDRESS 0x10f1 ===
  0x10f1	mov    	edx, dword ptr [esp + 0x68]
  0x10f5	dec    	eax
  0x10f6	mov    	eax, esi
  0x10f8	mov    	ecx, dword ptr [esp + 0x20]
  0x10fc	call   	dword ptr [0x330e]
  === BLOCK LINK ===
    0x1102
=== CODE BLOCK END ===

=== CODE BLOCK ADDRESS 0x1102 ===
  0x1102	cmp    	dword ptr [esp + 0x24], ebx
  0x1106	je     	0x110f
  === BLOCK LINK ===
    0x1108
    0x110f
=== CODE BLOCK END ===

=== CODE BLOCK ADDRESS 0x1108 ===
  0x1108	mov    	ecx, 5
  0x110d	jmp    	0x111a
  === BLOCK LINK ===
    0x110f
    0x111a
=== CODE BLOCK END ===

=== CODE BLOCK ADDRESS 0x110f ===
  0x110f	cmp    	dword ptr [esp + 0x68], ebx
  0x1113	jne    	0x111f
  === BLOCK LINK ===
    0x1115
    0x111f
=== CODE BLOCK END ===

=== CODE BLOCK ADDRESS 0x1115 ===
  0x1115	mov    	ecx, 6
  0x111a	call   	0x14e4
  === BLOCK LINK ===
    0x111f
    0x14e4
=== CODE BLOCK END ===

=== CODE BLOCK ADDRESS 0x111f ===
  0x111f	dec    	eax
  0x1120	mov    	ecx, edi
  0x1122	dec    	eax
  0x1123	call   	dword ptr [0x3117]
  === BLOCK LINK ===
    0x1129
=== CODE BLOCK END ===

=== CODE BLOCK ADDRESS 0x1129 ===
  0x1129	nop    	dword ptr [eax + eax]
  === BLOCK LINK ===
    0x112e
=== CODE BLOCK END ===

=== CODE BLOCK ADDRESS 0x1136 ===
  0x1136	mov    	ebx, dword ptr [esp + 0x50]
  0x113a	dec    	eax
  0x113b	mov    	esi, dword ptr [esp + 0x60]
  0x113f	dec    	eax
  0x1140	add    	esp, 0x30
  === BLOCK LINK ===
    0x1143
=== CODE BLOCK END ===

=== CODE BLOCK ADDRESS 0x1143 ===
  0x1143	inc    	ecx
  0x1144	pop    	edi
  0x1145	inc    	ecx
  0x1146	pop    	esi
  0x1147	pop    	edi
  === BLOCK LINK ===
    0x1148
=== CODE BLOCK END ===

=== CODE BLOCK ADDRESS 0x1148 ===
  0x1148	ret    	
  0x1149	int3   	
  0x114a	int3   	
  0x114b	int3   	
  0x114c	int3   	
  === BLOCK LINK ===
    0x114d
=== CODE BLOCK END ===

=== CODE BLOCK ADDRESS 0x114d ===
  0x114d	int3   	
  0x114e	int3   	
  0x114f	int3   	
  === BLOCK LINK ===
    0x1150
=== CODE BLOCK END ===

=== CODE BLOCK ADDRESS 0x1155 ===
  0x1155	push   	edi
  0x1156	dec    	eax
  0x1157	sub    	esp, 0x20
  0x115a	dec    	eax
  0x115b	lea    	ecx, [0x332f]
  === BLOCK LINK ===
    0x1161
=== CODE BLOCK END ===

=== CODE BLOCK ADDRESS 0x1161 ===
  0x1161	dec    	eax
  0x1162	call   	dword ptr [0x30e8]
  === BLOCK LINK ===
    0x1168
=== CODE BLOCK END ===

=== CODE BLOCK ADDRESS 0x1168 ===
  0x1168	nop    	dword ptr [eax + eax]
  0x116d	dec    	eax
  0x116e	mov    	edi, eax
  0x1170	dec    	eax
  0x1171	test   	eax, eax
  === BLOCK LINK ===
    0x1173
=== CODE BLOCK END ===

=== CODE BLOCK ADDRESS 0x1173 ===
  0x1173	jne    	0x1185
  === BLOCK LINK ===
    0x1175
    0x1185
=== CODE BLOCK END ===

=== CODE BLOCK ADDRESS 0x1175 ===
  0x1175	dec    	eax
  0x1176	call   	dword ptr [0x307c]
  === BLOCK LINK ===
    0x117c
=== CODE BLOCK END ===

=== CODE BLOCK ADDRESS 0x117c ===
  0x117c	nop    	dword ptr [eax + eax]
  0x1181	mov    	ebx, eax
  0x1183	jmp    	0x11c5
  === BLOCK LINK ===
    0x1185
    0x11c5
=== CODE BLOCK END ===

=== CODE BLOCK ADDRESS 0x1185 ===
  0x1185	dec    	eax
  0x1186	lea    	edx, [0x333c]
  0x118c	dec    	eax
  0x118d	mov    	ecx, edi
  0x118f	dec    	eax
  === BLOCK LINK ===
    0x1190
=== CODE BLOCK END ===

=== CODE BLOCK ADDRESS 0x1190 ===
  0x1190	call   	dword ptr [0x309a]
  === BLOCK LINK ===
    0x1196
=== CODE BLOCK END ===

=== CODE BLOCK ADDRESS 0x1196 ===
  0x1196	nop    	dword ptr [eax + eax]
  0x119b	dec    	eax
  0x119c	test   	eax, eax
  0x119e	jne    	0x11ae
  === BLOCK LINK ===
    0x11a0
    0x11ae
=== CODE BLOCK END ===

=== CODE BLOCK ADDRESS 0x11a0 ===
  0x11a0	dec    	eax
  0x11a1	call   	dword ptr [0x3051]
  === BLOCK LINK ===
    0x11a7
=== CODE BLOCK END ===

=== CODE BLOCK ADDRESS 0x11a7 ===
  0x11a7	nop    	dword ptr [eax + eax]
  0x11ac	jmp    	0x11b4
  === BLOCK LINK ===
    0x11ae
    0x11b4
=== CODE BLOCK END ===

=== CODE BLOCK ADDRESS 0x11ae ===
  0x11ae	call   	dword ptr [0x325c]
  === BLOCK LINK ===
    0x11b4
=== CODE BLOCK END ===

=== CODE BLOCK ADDRESS 0x11b4 ===
  0x11b4	mov    	ebx, eax
  0x11b6	dec    	eax
  0x11b7	mov    	ecx, edi
  0x11b9	dec    	eax
  0x11ba	call   	dword ptr [0x3080]
  === BLOCK LINK ===
    0x11c0
=== CODE BLOCK END ===

=== CODE BLOCK ADDRESS 0x11c0 ===
  0x11c0	nop    	dword ptr [eax + eax]
  === BLOCK LINK ===
    0x11c5
=== CODE BLOCK END ===

=== CODE BLOCK ADDRESS 0x11cd ===
  0x11cd	add    	esp, 0x20
  0x11d0	pop    	edi
  0x11d1	ret    	
  0x11d2	int3   	
  0x11d3	int3   	
  === BLOCK LINK ===
    0x11d4
=== CODE BLOCK END ===

=== CODE BLOCK ADDRESS 0x112e ===
  0x112e	dec    	eax
  0x112f	mov    	ebp, dword ptr [esp + 0x58]
  0x1133	mov    	eax, ebx
  0x1135	dec    	eax
  === BLOCK LINK ===
    0x1136
=== CODE BLOCK END ===

=== CODE BLOCK ADDRESS 0x11d4 ===
  0x11d4	int3   	
  0x11d5	int3   	
  0x11d6	int3   	
  0x11d7	int3   	
  0x11d8	int3   	
  === BLOCK LINK ===
    0x11d9
=== CODE BLOCK END ===

=== CODE BLOCK ADDRESS 0x11d9 ===
  0x11d9	int3   	
  0x11da	int3   	
  0x11db	int3   	
  0x11dc	int3   	
  0x11dd	int3   	
  === BLOCK LINK ===
    0x11de
=== CODE BLOCK END ===

=== CODE BLOCK ADDRESS 0x11de ===
  0x11de	int3   	
  0x11df	int3   	
  0x11e0	dec    	eax
  0x11e1	sub    	esp, 0x58
  0x11e4	jmp    	0x1208
  === BLOCK LINK ===
    0x11e6
    0x1208
=== CODE BLOCK END ===

=== CODE BLOCK ADDRESS 0x11e6 ===
  0x11e6	dec    	eax
  0x11e7	lea    	ecx, [esp + 0x20]
  0x11eb	dec    	eax
  0x11ec	call   	dword ptr [0x2fce]
  === BLOCK LINK ===
    0x11f2
=== CODE BLOCK END ===

=== CODE BLOCK ADDRESS 0x11f2 ===
  0x11f2	nop    	dword ptr [eax + eax]
  0x11f7	dec    	eax
  0x11f8	lea    	ecx, [esp + 0x20]
  0x11fc	dec    	eax
  0x11fd	call   	dword ptr [0x2fa5]
  === BLOCK LINK ===
    0x1203
=== CODE BLOCK END ===

=== CODE BLOCK ADDRESS 0x1203 ===
  0x1203	nop    	dword ptr [eax + eax]
  === BLOCK LINK ===
    0x1208
=== CODE BLOCK END ===

=== CODE BLOCK ADDRESS 0x1210 ===
  0x1210	inc    	ebp
  0x1211	xor    	eax, eax
  0x1213	xor    	edx, edx
  0x1215	dec    	eax
  0x1216	call   	dword ptr [0x2f9c]
  === BLOCK LINK ===
    0x121c
=== CODE BLOCK END ===

=== CODE BLOCK ADDRESS 0x121c ===
  0x121c	nop    	dword ptr [eax + eax]
  0x1221	test   	eax, eax
  0x1223	jne    	0x11e6
  === BLOCK LINK ===
    0x1225
    0x11e6
=== CODE BLOCK END ===

=== CODE BLOCK ADDRESS 0x1225 ===
  0x1225	dec    	eax
  0x1226	add    	esp, 0x58
  0x1229	ret    	
  0x122a	int3   	
  0x122b	int3   	
  === BLOCK LINK ===
    0x122c
=== CODE BLOCK END ===

=== CODE BLOCK ADDRESS 0x122c ===
  0x122c	int3   	
  0x122d	int3   	
  0x122e	int3   	
  0x122f	int3   	
  0x1230	int3   	
  === BLOCK LINK ===
    0x1231
=== CODE BLOCK END ===

=== CODE BLOCK ADDRESS 0x1231 ===
  0x1231	int3   	
  0x1232	int3   	
  0x1233	int3   	
  0x1234	dec    	eax
  0x1235	mov    	eax, esp
  === BLOCK LINK ===
    0x1237
=== CODE BLOCK END ===

=== CODE BLOCK ADDRESS 0x1237 ===
  0x1237	dec    	eax
  0x1238	mov    	dword ptr [eax + 8], ebx
  0x123b	dec    	eax
  0x123c	mov    	dword ptr [eax + 0x10], esi
  0x123f	dec    	eax
  === BLOCK LINK ===
    0x1240
=== CODE BLOCK END ===

=== CODE BLOCK ADDRESS 0x1240 ===
  0x1240	mov    	dword ptr [eax + 0x18], edi
  0x1243	inc    	ecx
  0x1244	push   	esi
  0x1245	dec    	eax
  0x1246	sub    	esp, 0x60
  === BLOCK LINK ===
    0x1249
=== CODE BLOCK END ===

=== CODE BLOCK ADDRESS 0x1249 ===
  0x1249	xor    	esi, esi
  0x124b	mov    	dword ptr [eax - 0x30], esi
  0x124e	inc    	ebp
  0x124f	xor    	ecx, ecx
  0x1251	inc    	ebp
  === BLOCK LINK ===
    0x1252
=== CODE BLOCK END ===

=== CODE BLOCK ADDRESS 0x1252 ===
  0x1252	xor    	eax, eax
  0x1254	inc    	esp
  0x1255	lea    	esi, [esi + 1]
  0x1258	inc    	ecx
  0x1259	mov    	edx, esi
  === BLOCK LINK ===
    0x125b
=== CODE BLOCK END ===

=== CODE BLOCK ADDRESS 0x125b ===
  0x125b	xor    	ecx, ecx
  0x125d	dec    	eax
  0x125e	call   	dword ptr [0x2fbc]
  === BLOCK LINK ===
    0x1264
=== CODE BLOCK END ===

=== CODE BLOCK ADDRESS 0x1264 ===
  0x1264	nop    	dword ptr [eax + eax]
  0x1269	mov    	ebx, esi
  0x126b	dec    	eax
  0x126c	lea    	ecx, [esp + 0x40]
  0x1270	call   	0x1584
  === BLOCK LINK ===
    0x1275
    0x1584
=== CODE BLOCK END ===

=== CODE BLOCK ADDRESS 0x1275 ===
  0x1275	test   	eax, eax
  0x1277	je     	0x14ba
  === BLOCK LINK ===
    0x127d
    0x14ba
=== CODE BLOCK END ===

=== CODE BLOCK ADDRESS 0x127d ===
  0x127d	mov    	eax, dword ptr [0x5379]
  0x1283	inc    	ecx
  0x1284	add    	eax, esi
  0x1286	mov    	dword ptr [0x5370], eax
  0x128c	inc    	ecx
  === BLOCK LINK ===
    0x128d
=== CODE BLOCK END ===

=== CODE BLOCK ADDRESS 0x128d ===
  0x128d	cmp    	eax, esi
  0x128f	jne    	0x12ca
  === BLOCK LINK ===
    0x1291
    0x12ca
=== CODE BLOCK END ===

=== CODE BLOCK ADDRESS 0x1291 ===
  0x1291	inc    	ecx
  0x1292	mov    	ebx, esi
  0x1294	dec    	eax
  0x1295	call   	dword ptr [0x2ead]
  === BLOCK LINK ===
    0x129b
=== CODE BLOCK END ===

=== CODE BLOCK ADDRESS 0x129b ===
  0x129b	nop    	dword ptr [eax + eax]
  0x12a0	dec    	eax
  0x12a1	mov    	dword ptr [0x53d1], eax
  0x12a7	dec    	eax
  0x12a8	test   	eax, eax
  === BLOCK LINK ===
    0x12aa
=== CODE BLOCK END ===

=== CODE BLOCK ADDRESS 0x12aa ===
  0x12aa	je     	0x12ca
  === BLOCK LINK ===
    0x12ac
    0x12ca
=== CODE BLOCK END ===

=== CODE BLOCK ADDRESS 0x12ac ===
  0x12ac	inc    	esp
  0x12ad	mov    	dword ptr [0x53cd], esi
  0x12b3	call   	0x1ba4
  === BLOCK LINK ===
    0x12b8
    0x1ba4
=== CODE BLOCK END ===

=== CODE BLOCK ADDRESS 0x12b8 ===
  0x12b8	mov    	ecx, dword ptr [0x533a]
  0x12be	test   	eax, eax
  0x12c0	inc    	ecx
  0x12c1	cmovne  	ecx, esi
  0x12c4	mov    	dword ptr [0x532e], ecx
  === BLOCK LINK ===
    0x12ca
=== CODE BLOCK END ===

=== CODE BLOCK ADDRESS 0x12ca ===
  0x12ca	test   	ebx, ebx
  0x12cc	je     	0x1304
  === BLOCK LINK ===
    0x12ce
    0x1304
=== CODE BLOCK END ===

=== CODE BLOCK ADDRESS 0x12ce ===
  0x12ce	cmp    	dword ptr [0x5324], esi
  0x12d4	jne    	0x1304
  === BLOCK LINK ===
    0x12d6
    0x1304
=== CODE BLOCK END ===

=== CODE BLOCK ADDRESS 0x12d6 ===
  0x12d6	dec    	esp
  0x12d7	mov    	eax, dword ptr [0x5313]
  0x12dd	dec    	ebp
  0x12de	test   	eax, eax
  0x12e0	je     	0x12fe
  === BLOCK LINK ===
    0x12e2
    0x12fe
=== CODE BLOCK END ===

=== CODE BLOCK ADDRESS 0x12e2 ===
  0x12e2	xor    	edx, edx
  0x12e4	dec    	eax
  0x12e5	mov    	ecx, dword ptr [0x538d]
  0x12eb	dec    	eax
  0x12ec	call   	dword ptr [0x2e5e]
  === BLOCK LINK ===
    0x12f2
=== CODE BLOCK END ===

=== CODE BLOCK ADDRESS 0x12f2 ===
  0x12f2	nop    	dword ptr [eax + eax]
  0x12f7	dec    	eax
  0x12f8	mov    	dword ptr [0x52f2], esi
  === BLOCK LINK ===
    0x12fe
=== CODE BLOCK END ===

=== CODE BLOCK ADDRESS 0x1305 ===
  0x1305	lea    	eax, [esp + 0x40]
  0x1309	.byte  	0xf0
  0x130a	dec    	eax
  0x130b	cmpxchg  	dword ptr [0x52ce], esi
  0x1312	dec    	eax
  === BLOCK LINK ===
    0x1313
=== CODE BLOCK END ===

=== CODE BLOCK ADDRESS 0x1313 ===
  0x1313	lea    	ecx, [esp + 0x40]
  0x1317	dec    	eax
  0x1318	cmp    	eax, ecx
  0x131a	je     	0x1329
  === BLOCK LINK ===
    0x131c
    0x1329
=== CODE BLOCK END ===

=== CODE BLOCK ADDRESS 0x131c ===
  0x131c	dec    	eax
  0x131d	mov    	edx, eax
  0x131f	dec    	eax
  0x1320	lea    	ecx, [esp + 0x40]
  0x1324	call   	0x1638
  === BLOCK LINK ===
    0x1329
    0x1638
=== CODE BLOCK END ===

=== CODE BLOCK ADDRESS 0x1329 ===
  0x1329	cmp    	dword ptr [0x52c9], esi
  0x132f	je     	0x14ba
  === BLOCK LINK ===
    0x1335
    0x14ba
=== CODE BLOCK END ===

=== CODE BLOCK ADDRESS 0x1335 ===
  0x1335	call   	0x1d70
  === BLOCK LINK ===
    0x133a
    0x1d70
=== CODE BLOCK END ===

=== CODE BLOCK ADDRESS 0x133a ===
  0x133a	test   	eax, eax
  0x133c	jne    	0x1346
  === BLOCK LINK ===
    0x133e
    0x1346
=== CODE BLOCK END ===

=== CODE BLOCK ADDRESS 0x133e ===
  0x133e	lea    	ebx, [eax + 5]
  0x1341	jmp    	0x14c8
  === BLOCK LINK ===
    0x1346
    0x14c8
=== CODE BLOCK END ===

=== CODE BLOCK ADDRESS 0x1346 ===
  0x1346	dec    	eax
  0x1347	call   	dword ptr [0x2f13]
  === BLOCK LINK ===
    0x134d
=== CODE BLOCK END ===

=== CODE BLOCK ADDRESS 0x134d ===
  0x134d	nop    	dword ptr [eax + eax]
  0x1352	dec    	eax
  0x1353	test   	eax, eax
  0x1355	jne    	0x1361
  === BLOCK LINK ===
    0x1357
    0x1361
=== CODE BLOCK END ===

=== CODE BLOCK ADDRESS 0x1357 ===
  0x1357	mov    	ebx, 0x57
  0x135c	jmp    	0x14c8
  === BLOCK LINK ===
    0x1361
    0x14c8
=== CODE BLOCK END ===

=== CODE BLOCK ADDRESS 0x1361 ===
  0x1361	dec    	eax
  0x1362	lea    	edx, [esp + 0x34]
  0x1366	dec    	eax
  0x1367	mov    	ecx, eax
  0x1369	dec    	eax
  === BLOCK LINK ===
    0x136a
=== CODE BLOCK END ===

=== CODE BLOCK ADDRESS 0x136a ===
  0x136a	call   	dword ptr [0x2e28]
  === BLOCK LINK ===
    0x1370
=== CODE BLOCK END ===

=== CODE BLOCK ADDRESS 0x1370 ===
  0x1370	nop    	dword ptr [eax + eax]
  0x1375	dec    	eax
  0x1376	mov    	edi, eax
  0x1378	cmp    	dword ptr [esp + 0x34], 2
  0x137d	jl     	0x1357
  === BLOCK LINK ===
    0x137f
    0x1357
=== CODE BLOCK END ===

=== CODE BLOCK ADDRESS 0x137f ===
  0x137f	dec    	esp
  0x1380	lea    	eax, [esp + 0x38]
  0x1384	dec    	eax
  0x1385	lea    	edx, [0x3135]
  0x138b	dec    	eax
  === BLOCK LINK ===
    0x138c
=== CODE BLOCK END ===

=== CODE BLOCK ADDRESS 0x138c ===
  0x138c	mov    	ecx, dword ptr [eax + 8]
  0x138f	dec    	eax
  0x1390	call   	dword ptr [0x2f8a]
  === BLOCK LINK ===
    0x1396
=== CODE BLOCK END ===

=== CODE BLOCK ADDRESS 0x1396 ===
  0x1396	nop    	dword ptr [eax + eax]
  0x139b	inc    	ecx
  0x139c	cmp    	eax, esi
  0x139e	jne    	0x1357
  === BLOCK LINK ===
    0x13a0
    0x1357
=== CODE BLOCK END ===

=== CODE BLOCK ADDRESS 0x13a0 ===
  0x13a0	mov    	ecx, dword ptr [esp + 0x38]
  0x13a4	sub    	ecx, 1
  0x13a7	je     	0x1487
  === BLOCK LINK ===
    0x13ad
    0x1487
=== CODE BLOCK END ===

=== CODE BLOCK ADDRESS 0x13ad ===
  0x13ad	sub    	ecx, 2
  0x13b0	je     	0x1475
  === BLOCK LINK ===
    0x13b6
    0x1475
=== CODE BLOCK END ===

=== CODE BLOCK ADDRESS 0x13b6 ===
  0x13b6	sub    	ecx, 2
  0x13b9	je     	0x13ef
  === BLOCK LINK ===
    0x13bb
    0x13ef
=== CODE BLOCK END ===

=== CODE BLOCK ADDRESS 0x13bb ===
  0x13bb	cmp    	ecx, 1
  0x13be	je     	0x13ca
  === BLOCK LINK ===
    0x13c0
    0x13ca
=== CODE BLOCK END ===

=== CODE BLOCK ADDRESS 0x13c0 ===
  0x13c0	mov    	ebx, 0x57
  0x13c5	jmp    	0x149e
  === BLOCK LINK ===
    0x13ca
    0x149e
=== CODE BLOCK END ===

=== CODE BLOCK ADDRESS 0x13ca ===
  0x13ca	cmp    	dword ptr [esp + 0x34], 2
  0x13cf	je     	0x13df
  === BLOCK LINK ===
    0x13d1
    0x13df
=== CODE BLOCK END ===

=== CODE BLOCK ADDRESS 0x13d1 ===
  0x13d1	mov    	ebx, 0x57
  0x13d6	mov    	dword ptr [esp + 0x30], ebx
  0x13da	jmp    	0x14c8
  === BLOCK LINK ===
    0x13df
    0x14c8
=== CODE BLOCK END ===

=== CODE BLOCK ADDRESS 0x13df ===
  0x13df	call   	0x1150
  === BLOCK LINK ===
    0x13e4
    0x1150
=== CODE BLOCK END ===

=== CODE BLOCK ADDRESS 0x13e4 ===
  0x13e4	mov    	ebx, eax
  0x13e6	mov    	dword ptr [esp + 0x30], eax
  0x13ea	jmp    	0x14a2
  === BLOCK LINK ===
    0x13ef
    0x14a2
=== CODE BLOCK END ===

=== CODE BLOCK ADDRESS 0x13ef ===
  0x13ef	mov    	ebx, 5
  0x13f4	cmp    	dword ptr [esp + 0x34], ebx
  0x13f8	je     	0x1408
  === BLOCK LINK ===
    0x13fa
=== CODE BLOCK END ===

=== CODE BLOCK ADDRESS 0x13fa ===
  0x13fa	mov    	ebx, 0x57
  0x13ff	mov    	dword ptr [esp + 0x30], ebx
  0x1403	jmp    	0x14c8
  === BLOCK LINK ===
    0x1408
=== CODE BLOCK END ===

=== CODE BLOCK ADDRESS 0x1408 ===
  0x1408	dec    	eax
  0x1409	lea    	eax, [esp + 0x3c]
  0x140d	dec    	eax
  0x140e	mov    	dword ptr [esp + 0x28], eax
  0x1412	mov    	dword ptr [esp + 0x20], esi
  === BLOCK LINK ===
    0x1416
=== CODE BLOCK END ===

=== CODE BLOCK ADDRESS 0x1416 ===
  0x1416	inc    	ebp
  0x1417	xor    	ecx, ecx
  0x1419	dec    	esp
  0x141a	lea    	eax, [0xfffffdc0]
  0x1420	xor    	edx, edx
  === BLOCK LINK ===
    0x1422
=== CODE BLOCK END ===

=== CODE BLOCK ADDRESS 0x1422 ===
  0x1422	xor    	ecx, ecx
  0x1424	dec    	eax
  0x1425	call   	dword ptr [0x2e75]
  === BLOCK LINK ===
    0x142b
=== CODE BLOCK END ===

=== CODE BLOCK ADDRESS 0x142b ===
  0x142b	nop    	dword ptr [eax + eax]
  0x1430	dec    	eax
  0x1431	test   	eax, eax
  0x1433	je     	0x1444
  === BLOCK LINK ===
    0x1435
=== CODE BLOCK END ===

=== CODE BLOCK ADDRESS 0x1435 ===
  0x1435	dec    	eax
  0x1436	mov    	ecx, eax
  0x1438	dec    	eax
  0x1439	call   	dword ptr [0x2dd1]
  === BLOCK LINK ===
    0x143f
=== CODE BLOCK END ===

=== CODE BLOCK ADDRESS 0x143f ===
  0x143f	nop    	dword ptr [eax + eax]
  0x1444	dec    	esp
  0x1445	mov    	eax, dword ptr [edi + 0x20]
  0x1448	dec    	eax
  0x1449	mov    	edx, dword ptr [edi + 0x18]
  === BLOCK LINK ===
    0x144c
=== CODE BLOCK END ===

=== CODE BLOCK ADDRESS 0x144c ===
  0x144c	dec    	eax
  0x144d	mov    	ecx, dword ptr [edi + 0x10]
  0x1450	call   	0x1008
  === BLOCK LINK ===
    0x1455
=== CODE BLOCK END ===

=== CODE BLOCK ADDRESS 0x1455 ===
  0x1455	mov    	ebx, eax
  0x1457	mov    	dword ptr [esp + 0x30], eax
  0x145b	inc    	ebp
  0x145c	xor    	ecx, ecx
  0x145e	inc    	ebp
  === BLOCK LINK ===
    0x145f
=== CODE BLOCK END ===

=== CODE BLOCK ADDRESS 0x145f ===
  0x145f	xor    	eax, eax
  0x1461	inc    	ecx
  0x1462	lea    	edx, [ecx + 0x12]
  0x1465	xor    	ecx, ecx
  0x1467	dec    	eax
  === BLOCK LINK ===
    0x1468
=== CODE BLOCK END ===

=== CODE BLOCK ADDRESS 0x1468 ===
  0x1468	call   	dword ptr [0x2d42]
  === BLOCK LINK ===
    0x146e
=== CODE BLOCK END ===

=== CODE BLOCK ADDRESS 0x146e ===
  0x146e	nop    	dword ptr [eax + eax]
  0x1473	jmp    	0x14a2
  === BLOCK LINK ===
    0x1475
=== CODE BLOCK END ===

=== CODE BLOCK ADDRESS 0x1475 ===
  0x1475	cmp    	dword ptr [esp + 0x34], 4
  0x147a	je     	0x1499
  === BLOCK LINK ===
    0x147c
=== CODE BLOCK END ===

=== CODE BLOCK ADDRESS 0x147c ===
  0x147c	mov    	ebx, 0x57
  0x1481	mov    	dword ptr [esp + 0x30], ebx
  0x1485	jmp    	0x14c8
  === BLOCK LINK ===
    0x1487
=== CODE BLOCK END ===

=== CODE BLOCK ADDRESS 0x1487 ===
  0x1487	cmp    	dword ptr [esp + 0x34], 4
  0x148c	je     	0x1499
  === BLOCK LINK ===
    0x148e
=== CODE BLOCK END ===

=== CODE BLOCK ADDRESS 0x148e ===
  0x148e	mov    	ebx, 0x57
  0x1493	mov    	dword ptr [esp + 0x30], ebx
  0x1497	jmp    	0x14c8
  === BLOCK LINK ===
    0x1499
=== CODE BLOCK END ===

=== CODE BLOCK ADDRESS 0x1499 ===
  0x1499	mov    	ebx, 0x78
  === BLOCK LINK ===
    0x149e
=== CODE BLOCK END ===

=== CODE BLOCK ADDRESS 0x14a4 ===
  0x14a4	mov    	ecx, eax
  0x14a6	dec    	eax
  0x14a7	call   	dword ptr [0x2f33]
  === BLOCK LINK ===
    0x14ad
=== CODE BLOCK END ===

=== CODE BLOCK ADDRESS 0x14ad ===
  0x14ad	nop    	dword ptr [eax + eax]
  0x14b2	mov    	ebx, eax
  0x14b4	mov    	dword ptr [esp + 0x30], eax
  0x14b8	jmp    	0x14c8
  === BLOCK LINK ===
    0x14ba
=== CODE BLOCK END ===

=== CODE BLOCK ADDRESS 0x14ba ===
  0x14ba	dec    	eax
  0x14bb	call   	dword ptr [0x2d37]
  === BLOCK LINK ===
    0x14c1
=== CODE BLOCK END ===

=== CODE BLOCK ADDRESS 0x14c1 ===
  0x14c1	nop    	dword ptr [eax + eax]
  0x14c6	mov    	ebx, eax
  0x14c8	call   	0x1a9c
  === BLOCK LINK ===
    0x14cd
=== CODE BLOCK END ===

=== CODE BLOCK ADDRESS 0x14cd ===
  0x14cd	mov    	ecx, ebx
  0x14cf	dec    	eax
  0x14d0	call   	dword ptr [0x2dba]
  === BLOCK LINK ===
    0x14d6
=== CODE BLOCK END ===

=== CODE BLOCK ADDRESS 0x14d6 ===
  0x14d6	nop    	dword ptr [eax + eax]
  0x14db	nop    	
  0x14dc	int3   	
  0x14dd	int3   	
  0x14de	int3   	
  === BLOCK LINK ===
    0x14df
=== CODE BLOCK END ===

=== CODE BLOCK ADDRESS 0x14df ===
  0x14df	int3   	
  0x14e0	int3   	
  0x14e1	int3   	
  0x14e2	int3   	
  0x14e3	int3   	
  === BLOCK LINK ===
    0x14e4
=== CODE BLOCK END ===

=== CODE BLOCK ADDRESS 0x14e4 ===
  0x14e4	inc    	eax
  0x14e5	push   	ebx
  0x14e6	dec    	eax
  0x14e7	sub    	esp, 0x30
  0x14ea	mov    	ebx, ecx
  === BLOCK LINK ===
    0x14ec
=== CODE BLOCK END ===

=== CODE BLOCK ADDRESS 0x14ec ===
  0x14ec	mov    	edx, 4
  0x14f1	xor    	ecx, ecx
  0x14f3	dec    	eax
  0x14f4	call   	dword ptr [0x2ce6]
  === BLOCK LINK ===
    0x14fa
=== CODE BLOCK END ===

=== CODE BLOCK ADDRESS 0x14fa ===
  0x14fa	nop    	dword ptr [eax + eax]
  0x14ff	test   	eax, eax
  0x1501	js     	0x1574
  === BLOCK LINK ===
    0x1503
=== CODE BLOCK END ===

=== CODE BLOCK ADDRESS 0x1503 ===
  0x1503	dec    	eax
  0x1504	and    	dword ptr [esp + 0x48], 0
  0x1509	dec    	eax
  0x150a	lea    	eax, [esp + 0x48]
  0x150e	xor    	edx, edx
  === BLOCK LINK ===
    0x1510
=== CODE BLOCK END ===

=== CODE BLOCK ADDRESS 0x1510 ===
  0x1510	dec    	eax
  0x1511	mov    	dword ptr [esp + 0x20], eax
  0x1515	dec    	esp
  0x1516	lea    	ecx, [0x2fdc]
  0x151c	dec    	eax
  === BLOCK LINK ===
    0x151d
=== CODE BLOCK END ===

=== CODE BLOCK ADDRESS 0x151d ===
  0x151d	lea    	ecx, [0x2fc5]
  0x1523	inc    	esp
  0x1524	lea    	eax, [edx + 1]
  0x1527	dec    	eax
  0x1528	call   	dword ptr [0x2caa]
  === BLOCK LINK ===
    0x152e
=== CODE BLOCK END ===

=== CODE BLOCK ADDRESS 0x152e ===
  0x152e	nop    	dword ptr [eax + eax]
  0x1533	test   	eax, eax
  0x1535	js     	0x154b
  === BLOCK LINK ===
    0x1537
=== CODE BLOCK END ===

=== CODE BLOCK ADDRESS 0x1537 ===
  0x1537	dec    	eax
  0x1538	mov    	ecx, dword ptr [esp + 0x48]
  0x153c	mov    	edx, ebx
  0x153e	dec    	eax
  0x153f	mov    	eax, dword ptr [ecx]
  === BLOCK LINK ===
    0x1541
=== CODE BLOCK END ===

=== CODE BLOCK ADDRESS 0x1541 ===
  0x1541	dec    	eax
  0x1542	mov    	eax, dword ptr [eax + 0x38]
  0x1545	call   	dword ptr [0x2ec5]
  === BLOCK LINK ===
    0x154b
=== CODE BLOCK END ===

=== CODE BLOCK ADDRESS 0x154b ===
  0x154b	dec    	eax
  0x154c	mov    	ecx, dword ptr [esp + 0x48]
  0x1550	dec    	eax
  0x1551	test   	ecx, ecx
  0x1553	je     	0x1568
  === BLOCK LINK ===
    0x1555
=== CODE BLOCK END ===

=== CODE BLOCK ADDRESS 0x1555 ===
  0x1555	dec    	eax
  0x1556	and    	dword ptr [esp + 0x48], 0
  0x155b	dec    	eax
  0x155c	mov    	eax, dword ptr [ecx]
  0x155e	dec    	eax
  === BLOCK LINK ===
    0x155f
=== CODE BLOCK END ===

=== CODE BLOCK ADDRESS 0x155f ===
  0x155f	mov    	eax, dword ptr [eax + 0x10]
  0x1562	call   	dword ptr [0x2ea8]
  === BLOCK LINK ===
    0x1568
=== CODE BLOCK END ===

=== CODE BLOCK ADDRESS 0x1568 ===
  0x1568	dec    	eax
  0x1569	call   	dword ptr [0x2c61]
  === BLOCK LINK ===
    0x156f
=== CODE BLOCK END ===

=== CODE BLOCK ADDRESS 0x156f ===
  0x156f	nop    	dword ptr [eax + eax]
  0x1574	dec    	eax
  0x1575	add    	esp, 0x30
  0x1578	pop    	ebx
  0x1579	ret    	
  === BLOCK LINK ===
    0x157a
=== CODE BLOCK END ===

=== CODE BLOCK ADDRESS 0x157a ===
  0x157a	int3   	
  0x157b	int3   	
  0x157c	int3   	
  0x157d	int3   	
  0x157e	int3   	
  === BLOCK LINK ===
    0x157f
=== CODE BLOCK END ===

=== CODE BLOCK ADDRESS 0x157f ===
  0x157f	int3   	
  0x1580	int3   	
  0x1581	int3   	
  0x1582	int3   	
  0x1583	int3   	
  === BLOCK LINK ===
    0x1584
=== CODE BLOCK END ===

=== CODE BLOCK ADDRESS 0x1584 ===
  0x1584	dec    	eax
  0x1585	mov    	dword ptr [esp + 8], ebx
  0x1589	push   	edi
  0x158a	dec    	eax
  0x158b	sub    	esp, 0x20
  === BLOCK LINK ===
    0x158e
=== CODE BLOCK END ===

=== CODE BLOCK ADDRESS 0x158e ===
  0x158e	dec    	eax
  0x158f	and    	dword ptr [ecx + 0x10], 0
  0x1593	dec    	eax
  0x1594	mov    	ebx, ecx
  0x1596	dec    	eax
  === BLOCK LINK ===
    0x1597
=== CODE BLOCK END ===

=== CODE BLOCK ADDRESS 0x1597 ===
  0x1597	and    	dword ptr [ecx + 8], 0
  0x159b	dec    	eax
  0x159c	and    	dword ptr [ecx], 0
  0x159f	xor    	eax, eax
  0x15a1	.byte  	0xf0
  === BLOCK LINK ===
    0x15a2
=== CODE BLOCK END ===

=== CODE BLOCK ADDRESS 0x15a2 ===
  0x15a2	dec    	eax
  0x15a3	cmpxchg  	dword ptr [0x5036], ebx
  0x15aa	je     	0x1621
  === BLOCK LINK ===
    0x15ac
=== CODE BLOCK END ===

=== CODE BLOCK ADDRESS 0x15ac ===
  0x15ac	inc    	ebp
  0x15ad	xor    	ecx, ecx
  0x15af	inc    	ebp
  0x15b0	xor    	eax, eax
  0x15b2	xor    	edx, edx
  === BLOCK LINK ===
    0x15b4
=== CODE BLOCK END ===

=== CODE BLOCK ADDRESS 0x15b4 ===
  0x15b4	xor    	ecx, ecx
  0x15b6	dec    	eax
  0x15b7	call   	dword ptr [0x2bcb]
  === BLOCK LINK ===
    0x15bd
=== CODE BLOCK END ===

=== CODE BLOCK ADDRESS 0x15bd ===
  0x15bd	nop    	dword ptr [eax + eax]
  0x15c2	dec    	eax
  0x15c3	mov    	dword ptr [ebx], eax
  0x15c5	dec    	eax
  0x15c6	test   	eax, eax
  === BLOCK LINK ===
    0x15c8
=== CODE BLOCK END ===

=== CODE BLOCK ADDRESS 0x15c8 ===
  0x15c8	je     	0x161d
  === BLOCK LINK ===
    0x15ca
=== CODE BLOCK END ===

=== CODE BLOCK ADDRESS 0x15ca ===
  0x15ca	dec    	eax
  0x15cb	mov    	ecx, dword ptr [0x500f]
  0x15d1	dec    	eax
  0x15d2	mov    	dword ptr [ebx + 8], ecx
  0x15d5	dec    	eax
  === BLOCK LINK ===
    0x15d6
=== CODE BLOCK END ===

=== CODE BLOCK ADDRESS 0x15d6 ===
  0x15d6	mov    	eax, ecx
  0x15d8	.byte  	0xf0
  0x15d9	dec    	eax
  0x15da	cmpxchg  	dword ptr [0x4fff], ebx
  0x15e1	dec    	eax
  === BLOCK LINK ===
    0x15e2
=== CODE BLOCK END ===

=== CODE BLOCK ADDRESS 0x15e2 ===
  0x15e2	cmp    	ecx, eax
  0x15e4	jne    	0x15ca
  === BLOCK LINK ===
    0x15e6
=== CODE BLOCK END ===

=== CODE BLOCK ADDRESS 0x15e6 ===
  0x15e6	dec    	eax
  0x15e7	test   	ecx, ecx
  0x15e9	je     	0x1604
  === BLOCK LINK ===
    0x15eb
=== CODE BLOCK END ===

=== CODE BLOCK ADDRESS 0x15eb ===
  0x15eb	dec    	eax
  0x15ec	mov    	ecx, dword ptr [ebx]
  0x15ee	inc    	ebp
  0x15ef	xor    	eax, eax
  0x15f1	or     	edx, 0xffffffff
  === BLOCK LINK ===
    0x15f4
=== CODE BLOCK END ===

=== CODE BLOCK ADDRESS 0x15f4 ===
  0x15f4	dec    	eax
  0x15f5	call   	dword ptr [0x2b2d]
  === BLOCK LINK ===
    0x15fb
=== CODE BLOCK END ===

=== CODE BLOCK ADDRESS 0x15fb ===
  0x15fb	nop    	dword ptr [eax + eax]
  0x1600	mov    	edi, eax
  0x1602	jmp    	0x1606
  === BLOCK LINK ===
    0x1604
=== CODE BLOCK END ===

=== CODE BLOCK ADDRESS 0x1604 ===
  0x1604	xor    	edi, edi
  0x1606	dec    	eax
  0x1607	mov    	ecx, dword ptr [ebx]
  0x1609	dec    	eax
  0x160a	call   	dword ptr [0x2c00]
  === BLOCK LINK ===
    0x1610
=== CODE BLOCK END ===

=== CODE BLOCK ADDRESS 0x1610 ===
  0x1610	nop    	dword ptr [eax + eax]
  0x1615	dec    	eax
  0x1616	and    	dword ptr [ebx], 0
  0x1619	test   	edi, edi
  0x161b	je     	0x1621
  === BLOCK LINK ===
    0x161d
=== CODE BLOCK END ===

=== CODE BLOCK ADDRESS 0x161d ===
  0x161d	xor    	eax, eax
  0x161f	jmp    	0x1626
  === BLOCK LINK ===
    0x1621
=== CODE BLOCK END ===

=== CODE BLOCK ADDRESS 0x1621 ===
  0x1621	mov    	eax, 1
  0x1626	dec    	eax
  0x1627	mov    	ebx, dword ptr [esp + 0x30]
  0x162b	dec    	eax
  0x162c	add    	esp, 0x20
  === BLOCK LINK ===
    0x162f
=== CODE BLOCK END ===

=== CODE BLOCK ADDRESS 0x162f ===
  0x162f	pop    	edi
  0x1630	ret    	
  0x1631	int3   	
  0x1632	int3   	
  0x1633	int3   	
  === BLOCK LINK ===
    0x1634
=== CODE BLOCK END ===

=== CODE BLOCK ADDRESS 0x1634 ===
  0x1634	int3   	
  0x1635	int3   	
  0x1636	int3   	
  0x1637	int3   	
  0x1638	dec    	esp
  === BLOCK LINK ===
    0x1639
=== CODE BLOCK END ===

=== CODE BLOCK ADDRESS 0x1639 ===
  0x1639	mov    	eax, ecx
  0x163b	dec    	eax
  0x163c	mov    	ecx, dword ptr [ecx + 0x10]
  0x163f	dec    	eax
  0x1640	test   	ecx, ecx
  === BLOCK LINK ===
    0x1642
=== CODE BLOCK END ===

=== CODE BLOCK ADDRESS 0x1642 ===
  0x1642	jne    	0x165e
  === BLOCK LINK ===
    0x1644
=== CODE BLOCK END ===

=== CODE BLOCK ADDRESS 0x1644 ===
  0x1644	dec    	ecx
  0x1645	cmp    	edx, eax
  0x1647	je     	0x165e
  === BLOCK LINK ===
    0x1649
=== CODE BLOCK END ===

=== CODE BLOCK ADDRESS 0x1649 ===
  0x1649	dec    	eax
  0x164a	mov    	eax, dword ptr [edx + 8]
  0x164d	dec    	eax
  0x164e	mov    	dword ptr [eax + 0x10], edx
  0x1651	dec    	eax
  === BLOCK LINK ===
    0x1652
=== CODE BLOCK END ===

=== CODE BLOCK ADDRESS 0x1652 ===
  0x1652	mov    	edx, dword ptr [edx + 8]
  0x1655	dec    	ecx
  0x1656	cmp    	edx, eax
  0x1658	jne    	0x1649
  === BLOCK LINK ===
    0x165a
=== CODE BLOCK END ===

=== CODE BLOCK ADDRESS 0x165a ===
  0x165a	dec    	ecx
  0x165b	mov    	ecx, dword ptr [eax + 0x10]
  0x165e	dec    	eax
  0x165f	and    	dword ptr [ecx + 8], 0
  0x1663	dec    	eax
  === BLOCK LINK ===
    0x1664
=== CODE BLOCK END ===

=== CODE BLOCK ADDRESS 0x1664 ===
  0x1664	mov    	ecx, dword ptr [ecx]
  0x1666	dec    	eax
  0x1667	jmp    	dword ptr [0x2ac3]
  === BLOCK LINK ===
    0x166d
=== CODE BLOCK END ===

=== CODE BLOCK ADDRESS 0x166d ===
  0x166d	int3   	
  0x166e	int3   	
  0x166f	int3   	
  0x1670	int3   	
  0x1671	int3   	
  === BLOCK LINK ===
    0x1672
=== CODE BLOCK END ===

=== CODE BLOCK ADDRESS 0x1672 ===
  0x1672	int3   	
  0x1673	int3   	
  0x1674	int3   	
  0x1675	int3   	
  0x1676	int3   	
  === BLOCK LINK ===
    0x1677
=== CODE BLOCK END ===

=== CODE BLOCK ADDRESS 0x1677 ===
  0x1677	int3   	
  0x1678	dec    	eax
  0x1679	mov    	dword ptr [esp + 0x18], ebx
  0x167d	dec    	eax
  0x167e	mov    	dword ptr [esp + 0x20], esi
  === BLOCK LINK ===
    0x1682
=== CODE BLOCK END ===

=== CODE BLOCK ADDRESS 0x1682 ===
  0x1682	push   	edi
  0x1683	dec    	eax
  0x1684	sub    	esp, 0x260
  0x168a	dec    	eax
  0x168b	mov    	eax, dword ptr [0x4977]
  === BLOCK LINK ===
    0x1691
=== CODE BLOCK END ===

=== CODE BLOCK ADDRESS 0x1691 ===
  0x1691	dec    	eax
  0x1692	xor    	eax, esp
  0x1694	dec    	eax
  0x1695	mov    	dword ptr [esp + 0x250], eax
  0x169c	and    	dword ptr [esp + 0x30], 0
  === BLOCK LINK ===
    0x16a1
=== CODE BLOCK END ===

=== CODE BLOCK ADDRESS 0x16a1 ===
  0x16a1	dec    	eax
  0x16a2	mov    	ebx, edx
  0x16a4	dec    	eax
  0x16a5	mov    	esi, ecx
  0x16a7	dec    	eax
  === BLOCK LINK ===
    0x16a8
=== CODE BLOCK END ===

=== CODE BLOCK ADDRESS 0x16a8 ===
  0x16a8	mov    	dword ptr [esp + 0x20], ecx
  0x16ac	dec    	eax
  0x16ad	lea    	edx, [0x2e5d]
  0x16b3	mov    	dword ptr [esp + 0x34], 0x208
  0x16bb	dec    	eax
  === BLOCK LINK ===
    0x16bc
=== CODE BLOCK END ===

=== CODE BLOCK ADDRESS 0x16bc ===
  0x16bc	mov    	ecx, 0x80000002
  0x16c2	inc    	ecx
  0x16c3	mov    	ecx, 1
  0x16c8	call   	0x1f90
  === BLOCK LINK ===
    0x16cd
=== CODE BLOCK END ===

=== CODE BLOCK ADDRESS 0x16cd ===
  0x16cd	mov    	edi, eax
  0x16cf	test   	eax, eax
  0x16d1	jne    	0x1728
  === BLOCK LINK ===
    0x16d3
=== CODE BLOCK END ===

=== CODE BLOCK ADDRESS 0x16d3 ===
  0x16d3	dec    	eax
  0x16d4	test   	ebx, ebx
  0x16d6	je     	0x1728
  === BLOCK LINK ===
    0x16d8
=== CODE BLOCK END ===

=== CODE BLOCK ADDRESS 0x16d8 ===
  0x16d8	dec    	eax
  0x16d9	mov    	ecx, dword ptr [esi]
  0x16db	dec    	eax
  0x16dc	lea    	eax, [esp + 0x34]
  0x16e0	dec    	esp
  === BLOCK LINK ===
    0x16e1
=== CODE BLOCK END ===

=== CODE BLOCK ADDRESS 0x16e1 ===
  0x16e1	lea    	ecx, [esp + 0x40]
  0x16e5	dec    	eax
  0x16e6	mov    	dword ptr [esp + 0x20], eax
  0x16ea	dec    	esp
  0x16eb	lea    	eax, [esp + 0x30]
  === BLOCK LINK ===
    0x16ef
=== CODE BLOCK END ===

=== CODE BLOCK ADDRESS 0x16ef ===
  0x16ef	dec    	eax
  0x16f0	lea    	edx, [0x2e7a]
  0x16f6	call   	0x2088
  === BLOCK LINK ===
    0x16fb
=== CODE BLOCK END ===

=== CODE BLOCK ADDRESS 0x16fb ===
  0x16fb	test   	eax, eax
  0x16fd	jne    	0x1724
  === BLOCK LINK ===
    0x16ff
=== CODE BLOCK END ===

=== CODE BLOCK ADDRESS 0x16ff ===
  0x16ff	cmp    	dword ptr [esp + 0x30], 1
  0x1704	jne    	0x1724
  === BLOCK LINK ===
    0x1706
=== CODE BLOCK END ===

=== CODE BLOCK ADDRESS 0x1706 ===
  0x1706	inc    	esp
  0x1707	lea    	ecx, [edi + 1]
  0x170a	dec    	eax
  0x170b	mov    	dword ptr [esp + 0x20], ebx
  0x170f	dec    	eax
  === BLOCK LINK ===
    0x1710
=== CODE BLOCK END ===

=== CODE BLOCK ADDRESS 0x1710 ===
  0x1710	lea    	edx, [esp + 0x40]
  0x1714	dec    	eax
  0x1715	mov    	ecx, 0x80000002
  0x171b	call   	0x1f90
  === BLOCK LINK ===
    0x1720
=== CODE BLOCK END ===

=== CODE BLOCK ADDRESS 0x1720 ===
  0x1720	test   	eax, eax
  0x1722	je     	0x1728
  === BLOCK LINK ===
    0x1724
=== CODE BLOCK END ===

=== CODE BLOCK ADDRESS 0x1724 ===
  0x1724	dec    	eax
  0x1725	and    	dword ptr [ebx], 0
  0x1728	mov    	eax, edi
  0x172a	dec    	eax
  0x172b	mov    	ecx, dword ptr [esp + 0x250]
  === BLOCK LINK ===
    0x1732
=== CODE BLOCK END ===

=== CODE BLOCK ADDRESS 0x1732 ===
  0x1732	dec    	eax
  0x1733	xor    	ecx, esp
  0x1735	call   	0x2d60
  === BLOCK LINK ===
    0x173a
=== CODE BLOCK END ===

=== CODE BLOCK ADDRESS 0x173a ===
  0x173a	dec    	esp
  0x173b	lea    	ebx, [esp + 0x260]
  0x1742	dec    	ecx
  0x1743	mov    	ebx, dword ptr [ebx + 0x20]
  0x1746	dec    	ecx
  === BLOCK LINK ===
    0x1747
=== CODE BLOCK END ===

=== CODE BLOCK ADDRESS 0x1747 ===
  0x1747	mov    	esi, dword ptr [ebx + 0x28]
  0x174a	dec    	ecx
  0x174b	mov    	esp, ebx
  0x174d	pop    	edi
  0x174e	ret    	
  === BLOCK LINK ===
    0x174f
=== CODE BLOCK END ===

=== CODE BLOCK ADDRESS 0x174f ===
  0x174f	int3   	
  0x1750	int3   	
  0x1751	int3   	
  0x1752	int3   	
  0x1753	int3   	
  === BLOCK LINK ===
    0x1754
=== CODE BLOCK END ===

=== CODE BLOCK ADDRESS 0x1754 ===
  0x1754	int3   	
  0x1755	int3   	
  0x1756	int3   	
  0x1757	int3   	
  0x1758	dec    	esp
  === BLOCK LINK ===
    0x1759
=== CODE BLOCK END ===

=== CODE BLOCK ADDRESS 0x1759 ===
  0x1759	mov    	ebx, esp
  0x175b	dec    	ecx
  0x175c	mov    	dword ptr [ebx + 8], ebx
  0x175f	dec    	ecx
  0x1760	mov    	dword ptr [ebx + 0x18], ebp
  === BLOCK LINK ===
    0x1763
=== CODE BLOCK END ===

=== CODE BLOCK ADDRESS 0x1763 ===
  0x1763	dec    	ecx
  0x1764	mov    	dword ptr [ebx + 0x20], esi
  0x1767	push   	edi
  0x1768	dec    	eax
  0x1769	sub    	esp, 0x30
  === BLOCK LINK ===
    0x176c
=== CODE BLOCK END ===

=== CODE BLOCK ADDRESS 0x176c ===
  0x176c	xor    	ebx, ebx
  0x176e	dec    	ecx
  0x176f	mov    	edi, ecx
  0x1771	and    	dword ptr [esp + 0x48], ebx
  0x1775	dec    	ecx
  === BLOCK LINK ===
    0x1776
=== CODE BLOCK END ===

=== CODE BLOCK ADDRESS 0x1776 ===
  0x1776	mov    	esi, eax
  0x1778	dec    	eax
  0x1779	mov    	eax, edx
  0x177b	dec    	eax
  0x177c	mov    	ebp, ecx
  === BLOCK LINK ===
    0x177e
=== CODE BLOCK END ===

=== CODE BLOCK ADDRESS 0x177e ===
  0x177e	dec    	eax
  0x177f	test   	edx, edx
  0x1781	je     	0x17a8
  === BLOCK LINK ===
    0x1783
=== CODE BLOCK END ===

=== CODE BLOCK ADDRESS 0x1783 ===
  0x1783	dec    	ebp
  0x1784	mov    	dword ptr [ebx - 0x18], ecx
  0x1787	dec    	eax
  0x1788	lea    	edx, [0x2e02]
  0x178e	dec    	ebp
  === BLOCK LINK ===
    0x178f
=== CODE BLOCK END ===

=== CODE BLOCK ADDRESS 0x178f ===
  0x178f	mov    	ecx, eax
  0x1791	dec    	eax
  0x1792	mov    	ecx, eax
  0x1794	dec    	ebp
  0x1795	lea    	eax, [ebx + 0x10]
  === BLOCK LINK ===
    0x1798
=== CODE BLOCK END ===

=== CODE BLOCK ADDRESS 0x1798 ===
  0x1798	call   	0x2088
  === BLOCK LINK ===
    0x179d
=== CODE BLOCK END ===

=== CODE BLOCK ADDRESS 0x179d ===
  0x179d	test   	eax, eax
  0x179f	jne    	0x17a8
  === BLOCK LINK ===
    0x17a1
=== CODE BLOCK END ===

=== CODE BLOCK ADDRESS 0x17a1 ===
  0x17a1	cmp    	dword ptr [esp + 0x48], 1
  0x17a6	je     	0x17dd
  === BLOCK LINK ===
    0x17a8
=== CODE BLOCK END ===

=== CODE BLOCK ADDRESS 0x17a8 ===
  0x17a8	mov    	eax, dword ptr [esp + 0x60]
  0x17ac	dec    	esp
  0x17ad	lea    	eax, [esp + 0x48]
  0x17b1	dec    	esp
  0x17b2	mov    	ecx, esi
  === BLOCK LINK ===
    0x17b4
=== CODE BLOCK END ===

=== CODE BLOCK ADDRESS 0x17b4 ===
  0x17b4	mov    	dword ptr [edi], eax
  0x17b6	dec    	eax
  0x17b7	lea    	edx, [0x2dd3]
  0x17bd	dec    	eax
  0x17be	mov    	dword ptr [esp + 0x20], edi
  === BLOCK LINK ===
    0x17c2
=== CODE BLOCK END ===

=== CODE BLOCK ADDRESS 0x17c2 ===
  0x17c2	dec    	eax
  0x17c3	mov    	ecx, ebp
  0x17c5	call   	0x2088
  === BLOCK LINK ===
    0x17ca
=== CODE BLOCK END ===

=== CODE BLOCK ADDRESS 0x17ca ===
  0x17ca	mov    	ebx, eax
  0x17cc	test   	eax, eax
  0x17ce	jne    	0x17dd
  === BLOCK LINK ===
    0x17d0
=== CODE BLOCK END ===

=== CODE BLOCK ADDRESS 0x17d0 ===
  0x17d0	cmp    	dword ptr [esp + 0x48], 1
  0x17d5	mov    	eax, 0x65d
  0x17da	cmovne  	ebx, eax
  0x17dd	dec    	eax
  0x17de	mov    	ebp, dword ptr [esp + 0x50]
  === BLOCK LINK ===
    0x17e2
=== CODE BLOCK END ===

=== CODE BLOCK ADDRESS 0x17e2 ===
  0x17e2	mov    	eax, ebx
  0x17e4	dec    	eax
  0x17e5	mov    	ebx, dword ptr [esp + 0x40]
  0x17e9	dec    	eax
  0x17ea	mov    	esi, dword ptr [esp + 0x58]
  === BLOCK LINK ===
    0x17ee
=== CODE BLOCK END ===

=== CODE BLOCK ADDRESS 0x17ee ===
  0x17ee	dec    	eax
  0x17ef	add    	esp, 0x30
  0x17f2	pop    	edi
  0x17f3	ret    	
  0x17f4	int3   	
  === BLOCK LINK ===
    0x17f5
=== CODE BLOCK END ===

=== CODE BLOCK ADDRESS 0x17f5 ===
  0x17f5	int3   	
  0x17f6	int3   	
  0x17f7	int3   	
  0x17f8	int3   	
  0x17f9	int3   	
  === BLOCK LINK ===
    0x17fa
=== CODE BLOCK END ===

=== CODE BLOCK ADDRESS 0x17fa ===
  0x17fa	int3   	
  0x17fb	int3   	
  0x17fc	dec    	eax
  0x17fd	mov    	eax, esp
  0x17ff	dec    	eax
  === BLOCK LINK ===
    0x1800
=== CODE BLOCK END ===

=== CODE BLOCK ADDRESS 0x1800 ===
  0x1800	mov    	dword ptr [eax + 8], ebx
  0x1803	dec    	eax
  0x1804	mov    	dword ptr [eax + 0x10], edi
  0x1807	dec    	esp
  0x1808	mov    	dword ptr [eax + 0x18], esi
  === BLOCK LINK ===
    0x180b
=== CODE BLOCK END ===

=== CODE BLOCK ADDRESS 0x180b ===
  0x180b	push   	ebp
  0x180c	dec    	eax
  0x180d	lea    	ebp, [eax - 0x388]
  0x1813	dec    	eax
  0x1814	sub    	esp, 0x480
  === BLOCK LINK ===
    0x181a
=== CODE BLOCK END ===

=== CODE BLOCK ADDRESS 0x181a ===
  0x181a	dec    	eax
  0x181b	mov    	eax, dword ptr [0x47e7]
  0x1821	dec    	eax
  0x1822	xor    	eax, esp
  0x1824	dec    	eax
  === BLOCK LINK ===
    0x1825
=== CODE BLOCK END ===

=== CODE BLOCK ADDRESS 0x1825 ===
  0x1825	mov    	dword ptr [ebp + 0x370], eax
  0x182b	xor    	ebx, ebx
  0x182d	mov    	dword ptr [esp + 0x40], 0x208
  0x1835	dec    	eax
  0x1836	lea    	edx, [esp + 0x38]
  === BLOCK LINK ===
    0x183a
=== CODE BLOCK END ===

=== CODE BLOCK ADDRESS 0x183a ===
  0x183a	dec    	eax
  0x183b	mov    	dword ptr [esp + 0x30], ebx
  0x183f	dec    	eax
  0x1840	lea    	ecx, [esp + 0x30]
  0x1844	dec    	eax
  === BLOCK LINK ===
    0x1845
=== CODE BLOCK END ===

=== CODE BLOCK ADDRESS 0x1845 ===
  0x1845	mov    	dword ptr [esp + 0x38], ebx
  0x1849	call   	0x1678
  === BLOCK LINK ===
    0x184e
=== CODE BLOCK END ===

=== CODE BLOCK ADDRESS 0x184e ===
  0x184e	mov    	edi, eax
  0x1850	test   	eax, eax
  0x1852	jne    	0x18ed
  === BLOCK LINK ===
    0x1858
=== CODE BLOCK END ===

=== CODE BLOCK ADDRESS 0x1858 ===
  0x1858	dec    	eax
  0x1859	cmp    	dword ptr [esp + 0x30], ebx
  0x185d	jne    	0x1864
  === BLOCK LINK ===
    0x185f
=== CODE BLOCK END ===

=== CODE BLOCK ADDRESS 0x185f ===
  0x185f	lea    	edi, [ebx + 0x57]
  0x1862	jmp    	0x1889
  === BLOCK LINK ===
    0x1864
=== CODE BLOCK END ===

=== CODE BLOCK ADDRESS 0x1864 ===
  0x1864	dec    	eax
  0x1865	mov    	edx, dword ptr [esp + 0x38]
  0x1869	dec    	esp
  0x186a	lea    	ecx, [esp + 0x40]
  0x186e	dec    	eax
  === BLOCK LINK ===
    0x186f
=== CODE BLOCK END ===

=== CODE BLOCK ADDRESS 0x186f ===
  0x186f	mov    	ecx, dword ptr [esp + 0x30]
  0x1873	dec    	esp
  0x1874	lea    	eax, [ebp + 0x160]
  0x187a	mov    	dword ptr [esp + 0x20], 0x208
  0x1882	call   	0x1758
  === BLOCK LINK ===
    0x1887
=== CODE BLOCK END ===

=== CODE BLOCK ADDRESS 0x1887 ===
  0x1887	mov    	edi, eax
  0x1889	test   	edi, edi
  0x188b	jne    	0x18bf
  === BLOCK LINK ===
    0x188d
=== CODE BLOCK END ===

=== CODE BLOCK ADDRESS 0x188d ===
  0x188d	mov    	edi, 0x104
  0x1892	dec    	eax
  0x1893	lea    	edx, [esp + 0x50]
  0x1897	inc    	esp
  0x1898	mov    	eax, edi
  === BLOCK LINK ===
    0x189a
=== CODE BLOCK END ===

=== CODE BLOCK ADDRESS 0x189a ===
  0x189a	dec    	eax
  0x189b	lea    	ecx, [ebp + 0x160]
  0x18a1	dec    	eax
  0x18a2	call   	dword ptr [0x2890]
  === BLOCK LINK ===
    0x18a8
=== CODE BLOCK END ===

=== CODE BLOCK ADDRESS 0x18a8 ===
  0x18a8	nop    	dword ptr [eax + eax]
  0x18ad	test   	eax, eax
  0x18af	jne    	0x192b
  === BLOCK LINK ===
    0x18b1
=== CODE BLOCK END ===

=== CODE BLOCK ADDRESS 0x18b1 ===
  0x18b1	dec    	eax
  0x18b2	call   	dword ptr [0x2940]
  === BLOCK LINK ===
    0x18b8
=== CODE BLOCK END ===

=== CODE BLOCK ADDRESS 0x18b8 ===
  0x18b8	nop    	dword ptr [eax + eax]
  0x18bd	mov    	edi, eax
  0x18bf	dec    	eax
  0x18c0	cmp    	dword ptr [esp + 0x30], ebx
  0x18c4	je     	0x18d6
  === BLOCK LINK ===
    0x18c6
=== CODE BLOCK END ===

=== CODE BLOCK ADDRESS 0x18c6 ===
  0x18c6	mov    	ecx, dword ptr [esp + 0x30]
  0x18ca	dec    	eax
  0x18cb	call   	dword ptr [0x2af7]
  === BLOCK LINK ===
    0x18d1
=== CODE BLOCK END ===

=== CODE BLOCK ADDRESS 0x18d1 ===
  0x18d1	nop    	dword ptr [eax + eax]
  0x18d6	dec    	eax
  0x18d7	cmp    	dword ptr [esp + 0x38], ebx
  0x18db	je     	0x18ed
  === BLOCK LINK ===
    0x18dd
=== CODE BLOCK END ===

=== CODE BLOCK ADDRESS 0x18dd ===
  0x18dd	mov    	ecx, dword ptr [esp + 0x38]
  0x18e1	dec    	eax
  0x18e2	call   	dword ptr [0x2ae0]
  === BLOCK LINK ===
    0x18e8
=== CODE BLOCK END ===

=== CODE BLOCK ADDRESS 0x18e8 ===
  0x18e8	nop    	dword ptr [eax + eax]
  0x18ed	mov    	ecx, edi
  0x18ef	dec    	eax
  0x18f0	call   	dword ptr [0x284a]
  === BLOCK LINK ===
    0x18f6
=== CODE BLOCK END ===

=== CODE BLOCK ADDRESS 0x18f6 ===
  0x18f6	nop    	dword ptr [eax + eax]
  0x18fb	test   	edi, edi
  0x18fd	sete   	bl
  0x1900	mov    	eax, ebx
  0x1902	dec    	eax
  === BLOCK LINK ===
    0x1903
=== CODE BLOCK END ===

=== CODE BLOCK ADDRESS 0x1903 ===
  0x1903	mov    	ecx, dword ptr [ebp + 0x370]
  0x1909	dec    	eax
  0x190a	xor    	ecx, esp
  0x190c	call   	0x2d60
  === BLOCK LINK ===
    0x1911
=== CODE BLOCK END ===

=== CODE BLOCK ADDRESS 0x1911 ===
  0x1911	dec    	esp
  0x1912	lea    	ebx, [esp + 0x480]
  0x1919	dec    	ecx
  0x191a	mov    	ebx, dword ptr [ebx + 0x10]
  0x191d	dec    	ecx
  === BLOCK LINK ===
    0x191e
=== CODE BLOCK END ===

=== CODE BLOCK ADDRESS 0x191e ===
  0x191e	mov    	edi, dword ptr [ebx + 0x18]
  0x1921	dec    	ebp
  0x1922	mov    	esi, dword ptr [ebx + 0x20]
  0x1925	dec    	ecx
  0x1926	mov    	esp, ebx
  === BLOCK LINK ===
    0x1928
=== CODE BLOCK END ===

=== CODE BLOCK ADDRESS 0x1928 ===
  0x1928	pop    	ebp
  0x1929	ret    	
  0x192a	int3   	
  0x192b	cmp    	eax, edi
  0x192d	jbe    	0x1936
  === BLOCK LINK ===
    0x192f
=== CODE BLOCK END ===

=== CODE BLOCK ADDRESS 0x192f ===
  0x192f	mov    	edi, 0x7a
  0x1934	jmp    	0x18bf
  === BLOCK LINK ===
    0x1936
=== CODE BLOCK END ===

=== CODE BLOCK ADDRESS 0x1936 ===
  0x1936	dec    	eax
  0x1937	lea    	eax, [esp + 0x50]
  0x193b	dec    	ecx
  0x193c	or     	esi, 0xffffffff
  0x193f	dec    	ecx
  === BLOCK LINK ===
    0x1940
=== CODE BLOCK END ===

=== CODE BLOCK ADDRESS 0x1940 ===
  0x1940	inc    	esi
  0x1942	inc    	dx
  0x1944	cmp    	dword ptr [eax + esi*2], ebx
  0x1947	jne    	0x193f
  === BLOCK LINK ===
    0x1949
=== CODE BLOCK END ===

=== CODE BLOCK ADDRESS 0x1949 ===
  0x1949	inc    	esp
  0x194a	mov    	eax, edi
  0x194c	dec    	eax
  0x194d	lea    	edx, [0x2c4d]
  0x1953	dec    	eax
  === BLOCK LINK ===
    0x1954
=== CODE BLOCK END ===

=== CODE BLOCK ADDRESS 0x1954 ===
  0x1954	lea    	ecx, [esp + 0x50]
  0x1958	call   	0x2288
  === BLOCK LINK ===
    0x195d
=== CODE BLOCK END ===

=== CODE BLOCK ADDRESS 0x195d ===
  0x195d	test   	eax, eax
  0x195f	je     	0x18b1
  === BLOCK LINK ===
    0x1965
=== CODE BLOCK END ===

=== CODE BLOCK ADDRESS 0x1965 ===
  0x1965	dec    	eax
  0x1966	lea    	ecx, [esp + 0x50]
  0x196a	call   	0x2508
  === BLOCK LINK ===
    0x196f
=== CODE BLOCK END ===

=== CODE BLOCK ADDRESS 0x196f ===
  0x196f	mov    	edi, eax
  0x1971	test   	eax, eax
  0x1973	jne    	0x18bf
  === BLOCK LINK ===
    0x1979
=== CODE BLOCK END ===

=== CODE BLOCK ADDRESS 0x1979 ===
  0x1979	inc    	ecx
  0x197a	mov    	eax, esi
  0x197c	dec    	eax
  0x197d	add    	eax, eax
  0x197f	dec    	eax
  === BLOCK LINK ===
    0x1980
=== CODE BLOCK END ===

=== CODE BLOCK ADDRESS 0x1980 ===
  0x1980	cmp    	eax, 0x208
  0x1985	jae    	0x19b8
  === BLOCK LINK ===
    0x1987
=== CODE BLOCK END ===

=== CODE BLOCK ADDRESS 0x1987 ===
  0x1987	lea    	edx, [edi + 1]
  0x198a	mov    	word ptr [esp + eax + 0x50], bx
  0x198f	dec    	eax
  0x1990	lea    	ecx, [esp + 0x50]
  0x1994	call   	0x273c
  === BLOCK LINK ===
    0x1999
=== CODE BLOCK END ===

=== CODE BLOCK ADDRESS 0x1999 ===
  0x1999	test   	eax, eax
  0x199b	je     	0x18b1
  === BLOCK LINK ===
    0x19a1
=== CODE BLOCK END ===

=== CODE BLOCK ADDRESS 0x19a1 ===
  0x19a1	dec    	eax
  0x19a2	lea    	ecx, [esp + 0x50]
  0x19a6	call   	0x28ac
  === BLOCK LINK ===
    0x19ab
=== CODE BLOCK END ===

=== CODE BLOCK ADDRESS 0x19ab ===
  0x19ab	test   	eax, eax
  0x19ad	jne    	0x18bf
  === BLOCK LINK ===
    0x19b3
=== CODE BLOCK END ===

=== CODE BLOCK ADDRESS 0x19b3 ===
  0x19b3	jmp    	0x18b1
  === BLOCK LINK ===
    0x19b8
=== CODE BLOCK END ===

=== CODE BLOCK ADDRESS 0x19b8 ===
  0x19b8	call   	0x3258
  === BLOCK LINK ===
    0x19bd
=== CODE BLOCK END ===

=== CODE BLOCK ADDRESS 0x19bd ===
  0x19bd	int3   	
  0x19be	int3   	
  0x19bf	int3   	
  0x19c0	int3   	
  0x19c1	int3   	
  === BLOCK LINK ===
    0x19c2
=== CODE BLOCK END ===

=== CODE BLOCK ADDRESS 0x19c2 ===
  0x19c2	int3   	
  0x19c3	int3   	
  0x19c4	dec    	eax
  0x19c5	mov    	dword ptr [esp + 8], ebx
  0x19c9	dec    	eax
  === BLOCK LINK ===
    0x19ca
=== CODE BLOCK END ===

=== CODE BLOCK ADDRESS 0x19ca ===
  0x19ca	mov    	dword ptr [esp + 0x18], esi
  0x19ce	push   	edi
  0x19cf	dec    	eax
  0x19d0	sub    	esp, 0x240
  0x19d6	dec    	eax
  === BLOCK LINK ===
    0x19d7
=== CODE BLOCK END ===

=== CODE BLOCK ADDRESS 0x19d7 ===
  0x19d7	mov    	eax, dword ptr [0x462b]
  0x19dd	dec    	eax
  0x19de	xor    	eax, esp
  0x19e0	dec    	eax
  0x19e1	mov    	dword ptr [esp + 0x230], eax
  === BLOCK LINK ===
    0x19e8
=== CODE BLOCK END ===

=== CODE BLOCK ADDRESS 0x19e8 ===
  0x19e8	xor    	edi, edi
  0x19ea	mov    	esi, edx
  0x19ec	mov    	ebx, edi
  0x19ee	dec    	eax
  0x19ef	test   	ecx, ecx
  === BLOCK LINK ===
    0x19f1
=== CODE BLOCK END ===

=== CODE BLOCK ADDRESS 0x19f1 ===
  0x19f1	jne    	0x19fa
  === BLOCK LINK ===
    0x19f3
=== CODE BLOCK END ===

=== CODE BLOCK ADDRESS 0x19f3 ===
  0x19f3	mov    	ebx, 0x57
  0x19f8	jmp    	0x1a57
  === BLOCK LINK ===
    0x19fa
=== CODE BLOCK END ===

=== CODE BLOCK ADDRESS 0x19fa ===
  0x19fa	dec    	esp
  0x19fb	mov    	eax, ecx
  0x19fd	mov    	edx, 0x104
  0x1a02	dec    	eax
  0x1a03	lea    	ecx, [esp + 0x20]
  === BLOCK LINK ===
    0x1a07
=== CODE BLOCK END ===

=== CODE BLOCK ADDRESS 0x1a07 ===
  0x1a07	call   	0x1ce4
  === BLOCK LINK ===
    0x1a0c
=== CODE BLOCK END ===

=== CODE BLOCK ADDRESS 0x1a0c ===
  0x1a0c	test   	eax, eax
  0x1a0e	js     	0x19f3
  === BLOCK LINK ===
    0x1a10
=== CODE BLOCK END ===

=== CODE BLOCK ADDRESS 0x1a10 ===
  0x1a10	inc    	ecx
  0x1a11	mov    	eax, 0x104
  0x1a16	dec    	eax
  0x1a17	lea    	edx, [0x2bab]
  0x1a1d	dec    	eax
  === BLOCK LINK ===
    0x1a1e
=== CODE BLOCK END ===

=== CODE BLOCK ADDRESS 0x1a1e ===
  0x1a1e	lea    	ecx, [esp + 0x20]
  0x1a22	call   	0x2288
  === BLOCK LINK ===
    0x1a27
=== CODE BLOCK END ===

=== CODE BLOCK ADDRESS 0x1a27 ===
  0x1a27	test   	eax, eax
  0x1a29	je     	0x1a49
  === BLOCK LINK ===
    0x1a2b
=== CODE BLOCK END ===

=== CODE BLOCK ADDRESS 0x1a2b ===
  0x1a2b	mov    	edx, esi
  0x1a2d	dec    	eax
  0x1a2e	lea    	ecx, [esp + 0x20]
  0x1a32	call   	0x273c
  === BLOCK LINK ===
    0x1a37
=== CODE BLOCK END ===

=== CODE BLOCK ADDRESS 0x1a37 ===
  0x1a37	test   	eax, eax
  0x1a39	je     	0x1a49
  === BLOCK LINK ===
    0x1a3b
=== CODE BLOCK END ===

=== CODE BLOCK ADDRESS 0x1a3b ===
  0x1a3b	dec    	eax
  0x1a3c	lea    	ecx, [esp + 0x20]
  0x1a40	call   	0x28ac
  === BLOCK LINK ===
    0x1a45
=== CODE BLOCK END ===

=== CODE BLOCK ADDRESS 0x1a45 ===
  0x1a45	test   	eax, eax
  0x1a47	jne    	0x1a57
  === BLOCK LINK ===
    0x1a49
=== CODE BLOCK END ===

=== CODE BLOCK ADDRESS 0x1a49 ===
  0x1a49	dec    	eax
  0x1a4a	call   	dword ptr [0x27a8]
  === BLOCK LINK ===
    0x1a50
=== CODE BLOCK END ===

=== CODE BLOCK ADDRESS 0x1a50 ===
  0x1a50	nop    	dword ptr [eax + eax]
  0x1a55	mov    	ebx, eax
  0x1a57	mov    	ecx, ebx
  0x1a59	dec    	eax
  0x1a5a	call   	dword ptr [0x26e0]
  === BLOCK LINK ===
    0x1a60
=== CODE BLOCK END ===

=== CODE BLOCK ADDRESS 0x1a60 ===
  0x1a60	nop    	dword ptr [eax + eax]
  0x1a65	test   	ebx, ebx
  0x1a67	inc    	eax
  0x1a68	sete   	bh
  0x1a6b	mov    	eax, edi
  === BLOCK LINK ===
    0x1a6d
=== CODE BLOCK END ===

=== CODE BLOCK ADDRESS 0x1a6d ===
  0x1a6d	dec    	eax
  0x1a6e	mov    	ecx, dword ptr [esp + 0x230]
  0x1a75	dec    	eax
  0x1a76	xor    	ecx, esp
  0x1a78	call   	0x2d60
  === BLOCK LINK ===
    0x1a7d
=== CODE BLOCK END ===

=== CODE BLOCK ADDRESS 0x1a7d ===
  0x1a7d	dec    	esp
  0x1a7e	lea    	ebx, [esp + 0x240]
  0x1a85	dec    	ecx
  0x1a86	mov    	ebx, dword ptr [ebx + 0x10]
  0x1a89	dec    	ecx
  === BLOCK LINK ===
    0x1a8a
=== CODE BLOCK END ===

=== CODE BLOCK ADDRESS 0x1a8a ===
  0x1a8a	mov    	esi, dword ptr [ebx + 0x20]
  0x1a8d	dec    	ecx
  0x1a8e	mov    	esp, ebx
  0x1a90	pop    	edi
  0x1a91	ret    	
  === BLOCK LINK ===
    0x1a92
=== CODE BLOCK END ===

=== CODE BLOCK ADDRESS 0x1a92 ===
  0x1a92	int3   	
  0x1a93	int3   	
  0x1a94	int3   	
  0x1a95	int3   	
  0x1a96	int3   	
  === BLOCK LINK ===
    0x1a97
=== CODE BLOCK END ===

=== CODE BLOCK ADDRESS 0x1a97 ===
  0x1a97	int3   	
  0x1a98	int3   	
  0x1a99	int3   	
  0x1a9a	int3   	
  0x1a9b	int3   	
  === BLOCK LINK ===
    0x1a9c
=== CODE BLOCK END ===

=== CODE BLOCK ADDRESS 0x1a9c ===
  0x1a9c	inc    	eax
  0x1a9d	push   	ebx
  0x1a9e	dec    	eax
  0x1a9f	sub    	esp, 0x40
  0x1aa2	xor    	ebx, ebx
  === BLOCK LINK ===
    0x1aa4
=== CODE BLOCK END ===

=== CODE BLOCK ADDRESS 0x1aa4 ===
  0x1aa4	cmp    	dword ptr [0x4b4e], ebx
  0x1aaa	je     	0x1b92
  === BLOCK LINK ===
    0x1ab0
=== CODE BLOCK END ===

=== CODE BLOCK ADDRESS 0x1ab0 ===
  0x1ab0	dec    	eax
  0x1ab1	lea    	ecx, [esp + 0x20]
  0x1ab5	call   	0x1584
  === BLOCK LINK ===
    0x1aba
=== CODE BLOCK END ===

=== CODE BLOCK ADDRESS 0x1aba ===
  0x1aba	test   	eax, eax
  0x1abc	je     	0x1b92
  === BLOCK LINK ===
    0x1ac2
=== CODE BLOCK END ===

=== CODE BLOCK ADDRESS 0x1ac2 ===
  0x1ac2	sub    	dword ptr [0x4b33], 1
  0x1ac9	jne    	0x1b66
  === BLOCK LINK ===
    0x1acf
=== CODE BLOCK END ===

=== CODE BLOCK ADDRESS 0x1acf ===
  0x1acf	cmp    	dword ptr [0x4b13], ebx
  0x1ad5	je     	0x1b32
  === BLOCK LINK ===
    0x1ad7
=== CODE BLOCK END ===

=== CODE BLOCK ADDRESS 0x1ad7 ===
  0x1ad7	call   	0x281c
  === BLOCK LINK ===
    0x1adc
=== CODE BLOCK END ===

=== CODE BLOCK ADDRESS 0x1adc ===
  0x1adc	dec    	esp
  0x1add	mov    	eax, dword ptr [0x4b5d]
  0x1ae3	dec    	ebp
  0x1ae4	test   	eax, eax
  0x1ae6	je     	0x1b04
  === BLOCK LINK ===
    0x1ae8
=== CODE BLOCK END ===

=== CODE BLOCK ADDRESS 0x1ae8 ===
  0x1ae8	dec    	eax
  0x1ae9	mov    	ecx, dword ptr [0x4b89]
  0x1aef	xor    	edx, edx
  0x1af1	dec    	eax
  0x1af2	call   	dword ptr [0x2658]
  === BLOCK LINK ===
    0x1af8
=== CODE BLOCK END ===

=== CODE BLOCK ADDRESS 0x1af8 ===
  0x1af8	nop    	dword ptr [eax + eax]
  0x1afd	dec    	eax
  0x1afe	mov    	dword ptr [0x4b3c], ebx
  0x1b04	dec    	esp
  0x1b05	mov    	eax, dword ptr [0x4b05]
  === BLOCK LINK ===
    0x1b0b
=== CODE BLOCK END ===

=== CODE BLOCK ADDRESS 0x1b0b ===
  0x1b0b	dec    	ebp
  0x1b0c	test   	eax, eax
  0x1b0e	je     	0x1b2c
  === BLOCK LINK ===
    0x1b10
=== CODE BLOCK END ===

=== CODE BLOCK ADDRESS 0x1b10 ===
  0x1b10	dec    	eax
  0x1b11	mov    	ecx, dword ptr [0x4b61]
  0x1b17	xor    	edx, edx
  0x1b19	dec    	eax
  0x1b1a	call   	dword ptr [0x2630]
  === BLOCK LINK ===
    0x1b20
=== CODE BLOCK END ===

=== CODE BLOCK ADDRESS 0x1b20 ===
  0x1b20	nop    	dword ptr [eax + eax]
  0x1b25	dec    	eax
  0x1b26	mov    	dword ptr [0x4ae4], ebx
  0x1b2c	mov    	dword ptr [0x4ab6], ebx
  0x1b32	dec    	esp
  === BLOCK LINK ===
    0x1b33
=== CODE BLOCK END ===

=== CODE BLOCK ADDRESS 0x1b33 ===
  0x1b33	mov    	eax, dword ptr [0x4ab7]
  0x1b39	dec    	ebp
  0x1b3a	test   	eax, eax
  0x1b3c	je     	0x1b5a
  === BLOCK LINK ===
    0x1b3e
=== CODE BLOCK END ===

=== CODE BLOCK ADDRESS 0x1b3e ===
  0x1b3e	dec    	eax
  0x1b3f	mov    	ecx, dword ptr [0x4b33]
  0x1b45	xor    	edx, edx
  0x1b47	dec    	eax
  0x1b48	call   	dword ptr [0x2602]
  === BLOCK LINK ===
    0x1b4e
=== CODE BLOCK END ===

=== CODE BLOCK ADDRESS 0x1b4e ===
  0x1b4e	nop    	dword ptr [eax + eax]
  0x1b53	dec    	eax
  0x1b54	mov    	dword ptr [0x4a96], ebx
  0x1b5a	mov    	dword ptr [0x4b20], ebx
  0x1b60	mov    	dword ptr [0x4a92], ebx
  === BLOCK LINK ===
    0x1b66
=== CODE BLOCK END ===

=== CODE BLOCK ADDRESS 0x1b66 ===
  0x1b66	dec    	eax
  0x1b67	lea    	eax, [esp + 0x20]
  0x1b6b	.byte  	0xf0
  0x1b6c	dec    	eax
  0x1b6d	cmpxchg  	dword ptr [0x4a6c], ebx
  === BLOCK LINK ===
    0x1b74
=== CODE BLOCK END ===

=== CODE BLOCK ADDRESS 0x1b74 ===
  0x1b74	dec    	eax
  0x1b75	lea    	ecx, [esp + 0x20]
  0x1b79	dec    	eax
  0x1b7a	cmp    	eax, ecx
  0x1b7c	je     	0x1b8b
  === BLOCK LINK ===
    0x1b7e
=== CODE BLOCK END ===

=== CODE BLOCK ADDRESS 0x1b7e ===
  0x1b7e	dec    	eax
  0x1b7f	mov    	edx, eax
  0x1b81	dec    	eax
  0x1b82	lea    	ecx, [esp + 0x20]
  0x1b86	call   	0x1638
  === BLOCK LINK ===
    0x1b8b
=== CODE BLOCK END ===

=== CODE BLOCK ADDRESS 0x1b8b ===
  0x1b8b	mov    	eax, 1
  0x1b90	jmp    	0x1b94
  === BLOCK LINK ===
    0x1b92
=== CODE BLOCK END ===

=== CODE BLOCK ADDRESS 0x1b92 ===
  0x1b92	xor    	eax, eax
  0x1b94	dec    	eax
  0x1b95	add    	esp, 0x40
  0x1b98	pop    	ebx
  0x1b99	ret    	
  === BLOCK LINK ===
    0x1b9a
=== CODE BLOCK END ===

=== CODE BLOCK ADDRESS 0x111a ===
=== CODE BLOCK END ===

=== CODE BLOCK ADDRESS 0x1b9a ===
  0x1b9a	int3   	
  0x1b9b	int3   	
  0x1b9c	int3   	
  0x1b9d	int3   	
  0x1b9e	int3   	
  === BLOCK LINK ===
    0x1b9f
=== CODE BLOCK END ===

=== CODE BLOCK ADDRESS 0x1b9f ===
  0x1b9f	int3   	
  0x1ba0	int3   	
  0x1ba1	int3   	
  0x1ba2	int3   	
  0x1ba3	int3   	
  === BLOCK LINK ===
    0x1ba4
=== CODE BLOCK END ===

=== CODE BLOCK ADDRESS 0x1ba4 ===
  0x1ba4	inc    	eax
  0x1ba5	push   	ebx
  0x1ba6	dec    	eax
  0x1ba7	sub    	esp, 0x280
  0x1bad	dec    	eax
  === BLOCK LINK ===
    0x1bae
=== CODE BLOCK END ===

=== CODE BLOCK ADDRESS 0x1bae ===
  0x1bae	mov    	eax, dword ptr [0x4454]
  0x1bb4	dec    	eax
  0x1bb5	xor    	eax, esp
  0x1bb7	dec    	eax
  0x1bb8	mov    	dword ptr [esp + 0x270], eax
  === BLOCK LINK ===
    0x1bbf
=== CODE BLOCK END ===

=== CODE BLOCK ADDRESS 0x1bbf ===
  0x1bbf	dec    	esp
  0x1bc0	mov    	eax, dword ptr [0x4a2a]
  0x1bc6	xor    	ebx, ebx
  0x1bc8	dec    	ebp
  0x1bc9	test   	eax, eax
  === BLOCK LINK ===
    0x1bcb
=== CODE BLOCK END ===

=== CODE BLOCK ADDRESS 0x1bcb ===
  0x1bcb	je     	0x1be9
  === BLOCK LINK ===
    0x1bcd
=== CODE BLOCK END ===

=== CODE BLOCK ADDRESS 0x1bcd ===
  0x1bcd	dec    	eax
  0x1bce	mov    	ecx, dword ptr [0x4aa4]
  0x1bd4	xor    	edx, edx
  0x1bd6	dec    	eax
  0x1bd7	call   	dword ptr [0x2573]
  === BLOCK LINK ===
    0x1bdd
=== CODE BLOCK END ===

=== CODE BLOCK ADDRESS 0x1bdd ===
  0x1bdd	nop    	dword ptr [eax + eax]
  0x1be2	dec    	eax
  0x1be3	mov    	dword ptr [0x4a07], ebx
  0x1be9	mov    	edx, 0x104
  0x1bee	mov    	dword ptr [0x4428], 1
  === BLOCK LINK ===
    0x1bf8
=== CODE BLOCK END ===

=== CODE BLOCK ADDRESS 0x1bf8 ===
  0x1bf8	dec    	eax
  0x1bf9	lea    	ecx, [esp + 0x20]
  0x1bfd	dec    	eax
  0x1bfe	call   	dword ptr [0x2574]
  === BLOCK LINK ===
    0x1c04
=== CODE BLOCK END ===

=== CODE BLOCK ADDRESS 0x1c04 ===
  0x1c04	nop    	dword ptr [eax + eax]
  0x1c09	dec    	eax
  0x1c0b	cmp    	eax, 0x103
  0x1c10	ja     	0x1c61
  === BLOCK LINK ===
    0x1c12
=== CODE BLOCK END ===

=== CODE BLOCK ADDRESS 0x1c12 ===
  0x1c12	dec    	eax
  0x1c13	lea    	ecx, [esp + 0x20]
  0x1c17	call   	0x21e4
  === BLOCK LINK ===
    0x1c1c
=== CODE BLOCK END ===

=== CODE BLOCK ADDRESS 0x1c1c ===
  0x1c1c	dec    	eax
  0x1c1d	mov    	dword ptr [0x49cd], eax
  0x1c23	dec    	eax
  0x1c24	test   	eax, eax
  0x1c26	je     	0x1c61
  === BLOCK LINK ===
    0x1c28
=== CODE BLOCK END ===

=== CODE BLOCK ADDRESS 0x1c28 ===
  0x1c28	cmp    	dword ptr [0x49ba], ebx
  0x1c2e	je     	0x1c5c
  === BLOCK LINK ===
    0x1c30
=== CODE BLOCK END ===

=== CODE BLOCK ADDRESS 0x1c30 ===
  0x1c30	mov    	edx, dword ptr [0x43ea]
  0x1c36	test   	edx, edx
  0x1c38	je     	0x1c50
  === BLOCK LINK ===
    0x1c3a
=== CODE BLOCK END ===

=== CODE BLOCK ADDRESS 0x1c3a ===
  0x1c3a	call   	0x17fc
  === BLOCK LINK ===
    0x1c3f
=== CODE BLOCK END ===

=== CODE BLOCK ADDRESS 0x1c3f ===
  0x1c3f	test   	eax, eax
  0x1c41	jne    	0x1c5c
  === BLOCK LINK ===
    0x1c43
=== CODE BLOCK END ===

=== CODE BLOCK ADDRESS 0x1c43 ===
  0x1c43	dec    	eax
  0x1c44	mov    	eax, dword ptr [0x49a6]
  0x1c4a	mov    	edx, dword ptr [0x43d0]
  0x1c50	dec    	eax
  0x1c51	mov    	ecx, eax
  === BLOCK LINK ===
    0x1c53
=== CODE BLOCK END ===

=== CODE BLOCK ADDRESS 0x1c53 ===
  0x1c53	call   	0x19c4
  === BLOCK LINK ===
    0x1c58
=== CODE BLOCK END ===

=== CODE BLOCK ADDRESS 0x1c58 ===
  0x1c58	test   	eax, eax
  0x1c5a	je     	0x1c61
  === BLOCK LINK ===
    0x1c5c
=== CODE BLOCK END ===

=== CODE BLOCK ADDRESS 0x1c5c ===
  0x1c5c	mov    	ebx, 1
  0x1c61	mov    	eax, ebx
  0x1c63	dec    	eax
  0x1c64	mov    	ecx, dword ptr [esp + 0x270]
  0x1c6b	dec    	eax
  === BLOCK LINK ===
    0x1c6c
=== CODE BLOCK END ===

=== CODE BLOCK ADDRESS 0x1c6c ===
  0x1c6c	xor    	ecx, esp
  0x1c6e	call   	0x2d60
  === BLOCK LINK ===
    0x1c73
=== CODE BLOCK END ===

=== CODE BLOCK ADDRESS 0x1c73 ===
  0x1c73	dec    	eax
  0x1c74	add    	esp, 0x280
  0x1c7a	pop    	ebx
  0x1c7b	ret    	
  0x1c7c	int3   	
  === BLOCK LINK ===
    0x1c7d
=== CODE BLOCK END ===

=== CODE BLOCK ADDRESS 0x1c7d ===
  0x1c7d	int3   	
  0x1c7e	int3   	
  0x1c7f	int3   	
  0x1c80	int3   	
  0x1c81	int3   	
  === BLOCK LINK ===
    0x1c82
=== CODE BLOCK END ===

=== CODE BLOCK ADDRESS 0x1c82 ===
  0x1c82	int3   	
  0x1c83	int3   	
  0x1c84	dec    	eax
  0x1c85	sub    	esp, 0x28
  0x1c88	cmp    	ecx, 0xc00000fd
  === BLOCK LINK ===
    0x1c8e
=== CODE BLOCK END ===

=== CODE BLOCK ADDRESS 0x1c8e ===
  0x1c8e	jne    	0x1cbe
  === BLOCK LINK ===
    0x1c90
=== CODE BLOCK END ===

=== CODE BLOCK ADDRESS 0x1c90 ===
  0x1c90	dec    	eax
  0x1c91	call   	dword ptr [0x26a1]
  === BLOCK LINK ===
    0x1c97
=== CODE BLOCK END ===

=== CODE BLOCK ADDRESS 0x1c97 ===
  0x1c97	nop    	dword ptr [eax + eax]
  0x1c9c	test   	eax, eax
  0x1c9e	jne    	0x1cd5
  === BLOCK LINK ===
    0x1ca0
=== CODE BLOCK END ===

=== CODE BLOCK ADDRESS 0x1ca0 ===
  0x1ca0	inc    	ebp
  0x1ca1	xor    	ecx, ecx
  0x1ca3	lea    	edx, [eax + 1]
  0x1ca6	inc    	ebp
  0x1ca7	xor    	eax, eax
  === BLOCK LINK ===
    0x1ca9
=== CODE BLOCK END ===

=== CODE BLOCK ADDRESS 0x1ca9 ===
  0x1ca9	mov    	ecx, 0xe0000300
  0x1cae	dec    	eax
  0x1caf	add    	esp, 0x28
  0x1cb2	dec    	eax
  0x1cb3	jmp    	dword ptr [0x24c7]
  === BLOCK LINK ===
    0x1cb9
=== CODE BLOCK END ===

=== CODE BLOCK ADDRESS 0x1cb9 ===
  0x1cb9	int3   	
  0x1cba	int3   	
  0x1cbb	int3   	
  0x1cbc	int3   	
  0x1cbd	int3   	
  === BLOCK LINK ===
    0x1cbe
=== CODE BLOCK END ===

=== CODE BLOCK ADDRESS 0x1cbe ===
  0x1cbe	lea    	eax, [ecx + 0x3ffffffb]
  0x1cc4	cmp    	eax, 1
  0x1cc7	jbe    	0x1cd5
  === BLOCK LINK ===
    0x1cc9
=== CODE BLOCK END ===

=== CODE BLOCK ADDRESS 0x1cc9 ===
  0x1cc9	dec    	eax
  0x1cca	call   	dword ptr [0x2710]
  === BLOCK LINK ===
    0x1cd0
=== CODE BLOCK END ===

=== CODE BLOCK ADDRESS 0x1cd0 ===
  0x1cd0	nop    	dword ptr [eax + eax]
  0x1cd5	dec    	eax
  0x1cd6	add    	esp, 0x28
  0x1cd9	ret    	
  0x1cda	int3   	
  === BLOCK LINK ===
    0x1cdb
=== CODE BLOCK END ===

=== CODE BLOCK ADDRESS 0x1cdb ===
  0x1cdb	int3   	
  0x1cdc	int3   	
  0x1cdd	int3   	
  0x1cde	int3   	
  0x1cdf	int3   	
  === BLOCK LINK ===
    0x1ce0
=== CODE BLOCK END ===

=== CODE BLOCK ADDRESS 0x1ce0 ===
  0x1ce0	int3   	
  0x1ce1	int3   	
  0x1ce2	int3   	
  0x1ce3	int3   	
  0x1ce4	dec    	eax
  === BLOCK LINK ===
    0x1ce5
=== CODE BLOCK END ===

=== CODE BLOCK ADDRESS 0x1ce5 ===
  0x1ce5	mov    	dword ptr [esp + 8], ebx
  0x1ce9	xor    	ebx, ebx
  0x1ceb	dec    	eax
  0x1cec	lea    	eax, [edx - 1]
  0x1cef	inc    	ecx
  === BLOCK LINK ===
    0x1cf0
=== CODE BLOCK END ===

=== CODE BLOCK ADDRESS 0x1cf0 ===
  0x1cf0	mov    	edx, 0x7ffffffe
  0x1cf5	inc    	esp
  0x1cf6	mov    	ecx, ebx
  0x1cf8	dec    	ecx
  0x1cf9	cmp    	eax, edx
  === BLOCK LINK ===
    0x1cfb
=== CODE BLOCK END ===

=== CODE BLOCK ADDRESS 0x1cfb ===
  0x1cfb	inc    	ecx
  0x1cfc	mov    	ebx, 0x80070057
  0x1d01	inc    	ebp
  0x1d02	cmova  	ecx, ebx
  0x1d05	inc    	ebp
  === BLOCK LINK ===
    0x1d06
=== CODE BLOCK END ===

=== CODE BLOCK ADDRESS 0x1d06 ===
  0x1d06	test   	ecx, ecx
  0x1d08	js     	0x1d55
  === BLOCK LINK ===
    0x1d0a
=== CODE BLOCK END ===

=== CODE BLOCK ADDRESS 0x1d0a ===
  0x1d0a	dec    	eax
  0x1d0b	test   	edx, edx
  0x1d0d	je     	0x1d35
  === BLOCK LINK ===
    0x1d0f
=== CODE BLOCK END ===

=== CODE BLOCK ADDRESS 0x1d0f ===
  0x1d0f	dec    	esp
  0x1d10	sub    	edx, edx
  0x1d12	dec    	esp
  0x1d13	sub    	eax, ecx
  0x1d15	dec    	ecx
  === BLOCK LINK ===
    0x1d16
=== CODE BLOCK END ===

=== CODE BLOCK ADDRESS 0x1d16 ===
  0x1d16	lea    	eax, [edx + edx]
  0x1d19	dec    	eax
  0x1d1a	test   	eax, eax
  0x1d1c	je     	0x1d35
  === BLOCK LINK ===
    0x1d1e
=== CODE BLOCK END ===

=== CODE BLOCK ADDRESS 0x1d1e ===
  0x1d1e	inc    	ecx
  0x1d1f	movzx  	eax, word ptr [eax + ecx]
  0x1d23	test   	ax, ax
  0x1d26	je     	0x1d35
  === BLOCK LINK ===
    0x1d28
=== CODE BLOCK END ===

=== CODE BLOCK ADDRESS 0x1d28 ===
  0x1d28	mov    	word ptr [ecx], ax
  0x1d2b	dec    	eax
  0x1d2c	add    	ecx, 2
  0x1d2f	dec    	eax
  0x1d30	sub    	edx, 1
  === BLOCK LINK ===
    0x1d33
=== CODE BLOCK END ===

=== CODE BLOCK ADDRESS 0x1d33 ===
  0x1d33	jne    	0x1d15
  === BLOCK LINK ===
    0x1d35
=== CODE BLOCK END ===

=== CODE BLOCK ADDRESS 0x1d35 ===
  0x1d35	dec    	eax
  0x1d36	test   	edx, edx
  0x1d38	dec    	eax
  0x1d39	lea    	eax, [ecx - 2]
  0x1d3c	dec    	eax
  === BLOCK LINK ===
    0x1d3d
=== CODE BLOCK END ===

=== CODE BLOCK ADDRESS 0x1d3d ===
  0x1d3d	cmovne  	eax, ecx
  0x1d40	dec    	eax
  0x1d41	neg    	edx
  0x1d43	inc    	ebp
  0x1d44	sbb    	ecx, ecx
  === BLOCK LINK ===
    0x1d46
=== CODE BLOCK END ===

=== CODE BLOCK ADDRESS 0x1d46 ===
  0x1d46	inc    	ecx
  0x1d47	not    	ecx
  0x1d49	inc    	ecx
  0x1d4a	and    	ecx, 0x8007007a
  0x1d50	mov    	word ptr [eax], bx
  === BLOCK LINK ===
    0x1d53
=== CODE BLOCK END ===

=== CODE BLOCK ADDRESS 0x1d53 ===
  0x1d53	jmp    	0x1d5d
  === BLOCK LINK ===
    0x1d55
=== CODE BLOCK END ===

=== CODE BLOCK ADDRESS 0x1d55 ===
  0x1d55	dec    	eax
  0x1d56	test   	edx, edx
  0x1d58	je     	0x1d5d
  === BLOCK LINK ===
    0x1d5a
=== CODE BLOCK END ===

=== CODE BLOCK ADDRESS 0x1d5a ===
  0x1d5a	mov    	word ptr [ecx], bx
  0x1d5d	dec    	eax
  0x1d5e	mov    	ebx, dword ptr [esp + 8]
  0x1d62	inc    	ecx
  0x1d63	mov    	eax, ecx
  === BLOCK LINK ===
    0x1d65
=== CODE BLOCK END ===

=== CODE BLOCK ADDRESS 0x1d65 ===
  0x1d65	ret    	
  0x1d66	int3   	
  0x1d67	int3   	
  0x1d68	int3   	
  0x1d69	int3   	
  === BLOCK LINK ===
    0x1d6a
=== CODE BLOCK END ===

=== CODE BLOCK ADDRESS 0x1d6a ===
  0x1d6a	int3   	
  0x1d6b	int3   	
  0x1d6c	int3   	
  0x1d6d	int3   	
  0x1d6e	int3   	
  === BLOCK LINK ===
    0x1d6f
=== CODE BLOCK END ===

=== CODE BLOCK ADDRESS 0x1d6f ===
  0x1d6f	int3   	
  === BLOCK LINK ===
    0x1d70
=== CODE BLOCK END ===

=== CODE BLOCK ADDRESS 0x1d7a ===
  0x1d7a	dec    	eax
  0x1d7b	mov    	dword ptr [esp + 0x18], edi
  0x1d7f	push   	ebp
  0x1d80	dec    	eax
  0x1d81	mov    	ebp, esp
  === BLOCK LINK ===
    0x1d83
=== CODE BLOCK END ===

=== CODE BLOCK ADDRESS 0x1d83 ===
  0x1d83	dec    	eax
  0x1d84	sub    	esp, 0x80
  0x1d8a	dec    	eax
  0x1d8b	mov    	eax, dword ptr [0x4277]
  0x1d91	dec    	eax
  === BLOCK LINK ===
    0x1d92
=== CODE BLOCK END ===

=== CODE BLOCK ADDRESS 0x1d92 ===
  0x1d92	xor    	eax, esp
  0x1d94	dec    	eax
  0x1d95	mov    	dword ptr [ebp - 8], eax
  0x1d98	xor    	ebx, ebx
  0x1d9a	mov    	word ptr [ebp - 0xc], 0x500
  === BLOCK LINK ===
    0x1da0
=== CODE BLOCK END ===

=== CODE BLOCK ADDRESS 0x1da0 ===
  0x1da0	xor    	ecx, ecx
  0x1da2	mov    	dword ptr [ebp - 0x20], ebx
  0x1da5	mov    	dword ptr [ebp - 0x10], ebx
  0x1da8	dec    	eax
  0x1da9	mov    	dword ptr [ebp - 0x18], ebx
  === BLOCK LINK ===
    0x1dac
=== CODE BLOCK END ===

=== CODE BLOCK ADDRESS 0x1dac ===
  0x1dac	dec    	eax
  0x1dad	call   	dword ptr [0x238d]
  === BLOCK LINK ===
    0x1db3
=== CODE BLOCK END ===

=== CODE BLOCK ADDRESS 0x1db3 ===
  0x1db3	nop    	dword ptr [eax + eax]
  0x1db8	dec    	eax
  0x1db9	lea    	eax, [ebp - 0x18]
  0x1dbc	inc    	ecx
  0x1dbd	mov    	ecx, 0x220
  === BLOCK LINK ===
    0x1dc2
=== CODE BLOCK END ===

=== CODE BLOCK ADDRESS 0x1dc2 ===
  0x1dc2	dec    	eax
  0x1dc3	mov    	dword ptr [esp + 0x50], eax
  0x1dc7	inc    	esp
  0x1dc8	lea    	eax, [ebx + 0x20]
  0x1dcb	mov    	dword ptr [esp + 0x48], ebx
  === BLOCK LINK ===
    0x1dcf
=== CODE BLOCK END ===

=== CODE BLOCK ADDRESS 0x1dcf ===
  0x1dcf	dec    	eax
  0x1dd0	lea    	ecx, [ebp - 0x10]
  0x1dd3	mov    	dword ptr [esp + 0x40], ebx
  0x1dd7	mov    	dl, 2
  0x1dd9	mov    	dword ptr [esp + 0x38], ebx
  === BLOCK LINK ===
    0x1ddd
=== CODE BLOCK END ===

=== CODE BLOCK ADDRESS 0x1ddd ===
  0x1ddd	mov    	dword ptr [esp + 0x30], ebx
  0x1de1	mov    	dword ptr [esp + 0x28], ebx
  0x1de5	mov    	dword ptr [esp + 0x20], ebx
  0x1de9	dec    	eax
  0x1dea	call   	dword ptr [0x2500]
  === BLOCK LINK ===
    0x1df0
=== CODE BLOCK END ===

=== CODE BLOCK ADDRESS 0x1df0 ===
  0x1df0	nop    	dword ptr [eax + eax]
  0x1df5	mov    	esi, 0x507
  0x1dfa	test   	eax, eax
  0x1dfc	jne    	0x1e15
  === BLOCK LINK ===
    0x1dfe
=== CODE BLOCK END ===

=== CODE BLOCK ADDRESS 0x1dfe ===
  0x1dfe	dec    	eax
  0x1dff	call   	dword ptr [0x23f3]
  === BLOCK LINK ===
    0x1e05
=== CODE BLOCK END ===

=== CODE BLOCK ADDRESS 0x1e05 ===
  0x1e05	nop    	dword ptr [eax + eax]
  0x1e0a	test   	eax, eax
  0x1e0c	mov    	edi, eax
  0x1e0e	cmove  	edi, esi
  0x1e11	test   	edi, edi
  === BLOCK LINK ===
    0x1e13
=== CODE BLOCK END ===

=== CODE BLOCK ADDRESS 0x1e13 ===
  0x1e13	jne    	0x1e63
  === BLOCK LINK ===
    0x1e15
=== CODE BLOCK END ===

=== CODE BLOCK ADDRESS 0x1e15 ===
  0x1e15	xor    	ecx, ecx
  0x1e17	dec    	eax
  0x1e18	call   	dword ptr [0x2322]
  === BLOCK LINK ===
    0x1e1e
=== CODE BLOCK END ===

=== CODE BLOCK ADDRESS 0x1e1e ===
  0x1e1e	nop    	dword ptr [eax + eax]
  0x1e23	dec    	eax
  0x1e24	mov    	edx, dword ptr [ebp - 0x18]
  0x1e27	dec    	esp
  0x1e28	lea    	eax, [ebp - 0x20]
  === BLOCK LINK ===
    0x1e2b
=== CODE BLOCK END ===

=== CODE BLOCK ADDRESS 0x1e2b ===
  0x1e2b	xor    	ecx, ecx
  0x1e2d	dec    	eax
  0x1e2e	call   	dword ptr [0x24c4]
  === BLOCK LINK ===
    0x1e34
=== CODE BLOCK END ===

=== CODE BLOCK ADDRESS 0x1e34 ===
  0x1e34	nop    	dword ptr [eax + eax]
  0x1e39	test   	eax, eax
  0x1e3b	je     	0x1e41
  === BLOCK LINK ===
    0x1e3d
=== CODE BLOCK END ===

=== CODE BLOCK ADDRESS 0x1e3d ===
  0x1e3d	mov    	edi, ebx
  0x1e3f	jmp    	0x1e58
  === BLOCK LINK ===
    0x1e41
=== CODE BLOCK END ===

=== CODE BLOCK ADDRESS 0x1e41 ===
  0x1e41	dec    	eax
  0x1e42	call   	dword ptr [0x23b0]
  === BLOCK LINK ===
    0x1e48
=== CODE BLOCK END ===

=== CODE BLOCK ADDRESS 0x1e48 ===
  0x1e48	nop    	dword ptr [eax + eax]
  0x1e4d	test   	eax, eax
  0x1e4f	mov    	edi, eax
  0x1e51	cmove  	edi, esi
  0x1e54	test   	edi, edi
  === BLOCK LINK ===
    0x1e56
=== CODE BLOCK END ===

=== CODE BLOCK ADDRESS 0x1e56 ===
  0x1e56	jne    	0x1e63
  === BLOCK LINK ===
    0x1e58
=== CODE BLOCK END ===

=== CODE BLOCK ADDRESS 0x1e58 ===
  0x1e58	cmp    	dword ptr [ebp - 0x20], ebx
  0x1e5b	mov    	eax, 0x529
  0x1e60	cmove  	edi, eax
  0x1e63	dec    	eax
  0x1e64	mov    	ecx, dword ptr [ebp - 0x18]
  === BLOCK LINK ===
    0x1e67
=== CODE BLOCK END ===

=== CODE BLOCK ADDRESS 0x1e67 ===
  0x1e67	dec    	eax
  0x1e68	test   	ecx, ecx
  0x1e6a	je     	0x1e78
  === BLOCK LINK ===
    0x1e6c
=== CODE BLOCK END ===

=== CODE BLOCK ADDRESS 0x1e6c ===
  0x1e6c	dec    	eax
  0x1e6d	call   	dword ptr [0x2475]
  === BLOCK LINK ===
    0x1e73
=== CODE BLOCK END ===

=== CODE BLOCK ADDRESS 0x1e73 ===
  0x1e73	nop    	dword ptr [eax + eax]
  0x1e78	mov    	ecx, edi
  0x1e7a	dec    	eax
  0x1e7b	call   	dword ptr [0x22bf]
  === BLOCK LINK ===
    0x1e81
=== CODE BLOCK END ===

=== CODE BLOCK ADDRESS 0x1e81 ===
  0x1e81	nop    	dword ptr [eax + eax]
  0x1e86	test   	edi, edi
  0x1e88	sete   	bl
  0x1e8b	mov    	eax, ebx
  0x1e8d	dec    	eax
  === BLOCK LINK ===
    0x1e8e
=== CODE BLOCK END ===

=== CODE BLOCK ADDRESS 0x1e8e ===
  0x1e8e	mov    	ecx, dword ptr [ebp - 8]
  0x1e91	dec    	eax
  0x1e92	xor    	ecx, esp
  0x1e94	call   	0x2d60
  === BLOCK LINK ===
    0x1e99
=== CODE BLOCK END ===

=== CODE BLOCK ADDRESS 0x1e99 ===
  0x1e99	dec    	esp
  0x1e9a	lea    	ebx, [esp + 0x80]
  0x1ea1	dec    	ecx
  0x1ea2	mov    	ebx, dword ptr [ebx + 0x10]
  0x1ea5	dec    	ecx
  === BLOCK LINK ===
    0x1ea6
=== CODE BLOCK END ===

=== CODE BLOCK ADDRESS 0x1ea6 ===
  0x1ea6	mov    	esi, dword ptr [ebx + 0x18]
  0x1ea9	dec    	ecx
  0x1eaa	mov    	edi, dword ptr [ebx + 0x20]
  0x1ead	dec    	ecx
  0x1eae	mov    	esp, ebx
  === BLOCK LINK ===
    0x1eb0
=== CODE BLOCK END ===

=== CODE BLOCK ADDRESS 0x1eb0 ===
  0x1eb0	pop    	ebp
  0x1eb1	ret    	
  0x1eb2	int3   	
  0x1eb3	int3   	
  0x1eb4	int3   	
  === BLOCK LINK ===
    0x1eb5
=== CODE BLOCK END ===

=== CODE BLOCK ADDRESS 0x11c5 ===
  0x11c5	mov    	eax, ebx
  0x11c7	dec    	eax
  0x11c8	mov    	ebx, dword ptr [esp + 0x30]
  0x11cc	dec    	eax
  === BLOCK LINK ===
    0x11cd
=== CODE BLOCK END ===

=== CODE BLOCK ADDRESS 0x1eb5 ===
  0x1eb5	int3   	
  0x1eb6	int3   	
  0x1eb7	int3   	
  0x1eb8	int3   	
  0x1eb9	int3   	
  === BLOCK LINK ===
    0x1eba
=== CODE BLOCK END ===

=== CODE BLOCK ADDRESS 0x1eba ===
  0x1eba	int3   	
  0x1ebb	int3   	
  0x1ebc	inc    	eax
  0x1ebd	push   	ebx
  0x1ebe	dec    	eax
  === BLOCK LINK ===
    0x1ebf
=== CODE BLOCK END ===

=== CODE BLOCK ADDRESS 0x1ebf ===
  0x1ebf	sub    	esp, 0x40
  0x1ec2	xorps  	xmm0, xmm0
  0x1ec5	dec    	eax
  0x1ec6	mov    	ebx, edx
  0x1ec8	movups  	xmmword ptr [esp + 0x30], xmm0
  === BLOCK LINK ===
    0x1ecd
=== CODE BLOCK END ===

=== CODE BLOCK ADDRESS 0x1ecd ===
  0x1ecd	dec    	eax
  0x1ece	cmp    	ecx, 0x80000002
  0x1ed4	jne    	0x1edf
  === BLOCK LINK ===
    0x1ed6
=== CODE BLOCK END ===

=== CODE BLOCK ADDRESS 0x1ed6 ===
  0x1ed6	dec    	eax
  0x1ed7	lea    	edx, [0x26f3]
  0x1edd	jmp    	0x1f4a
  === BLOCK LINK ===
    0x1edf
=== CODE BLOCK END ===

=== CODE BLOCK ADDRESS 0x1edf ===
  0x1edf	dec    	eax
  0x1ee0	cmp    	ecx, 0x80000000
  0x1ee6	jne    	0x1ef1
  === BLOCK LINK ===
    0x1ee8
=== CODE BLOCK END ===

=== CODE BLOCK ADDRESS 0x1ee8 ===
  0x1ee8	dec    	eax
  0x1ee9	lea    	edx, [0x2711]
  0x1eef	jmp    	0x1f4a
  === BLOCK LINK ===
    0x1ef1
=== CODE BLOCK END ===

=== CODE BLOCK ADDRESS 0x1ef1 ===
  0x1ef1	dec    	eax
  0x1ef2	cmp    	ecx, 0x80000003
  0x1ef8	jne    	0x1f03
  === BLOCK LINK ===
    0x1efa
=== CODE BLOCK END ===

=== CODE BLOCK ADDRESS 0x1efa ===
  0x1efa	dec    	eax
  0x1efb	lea    	edx, [0x2747]
  0x1f01	jmp    	0x1f4a
  === BLOCK LINK ===
    0x1f03
=== CODE BLOCK END ===

=== CODE BLOCK ADDRESS 0x1f03 ===
  0x1f03	dec    	eax
  0x1f04	cmp    	ecx, 0x80000005
  0x1f0a	jne    	0x1f15
  === BLOCK LINK ===
    0x1f0c
=== CODE BLOCK END ===

=== CODE BLOCK ADDRESS 0x1f0c ===
  0x1f0c	dec    	eax
  0x1f0d	lea    	edx, [0x275d]
  0x1f13	jmp    	0x1f4a
  === BLOCK LINK ===
    0x1f15
=== CODE BLOCK END ===

=== CODE BLOCK ADDRESS 0x1f15 ===
  0x1f15	dec    	eax
  0x1f16	cmp    	ecx, 0x80000001
  0x1f1c	jne    	0x1f61
  === BLOCK LINK ===
    0x1f1e
=== CODE BLOCK END ===

=== CODE BLOCK ADDRESS 0x1f1e ===
  0x1f1e	dec    	eax
  0x1f1f	lea    	ecx, [esp + 0x30]
  0x1f23	dec    	eax
  0x1f24	call   	dword ptr [0x24ae]
  === BLOCK LINK ===
    0x1f2a
=== CODE BLOCK END ===

=== CODE BLOCK ADDRESS 0x1f2a ===
  0x1f2a	nop    	dword ptr [eax + eax]
  0x1f2f	test   	eax, eax
  0x1f31	jns    	0x1f45
  === BLOCK LINK ===
    0x1f33
=== CODE BLOCK END ===

=== CODE BLOCK ADDRESS 0x1f33 ===
  0x1f33	mov    	ecx, eax
  0x1f35	dec    	eax
  0x1f36	call   	dword ptr [0x24a4]
  === BLOCK LINK ===
    0x1f3c
=== CODE BLOCK END ===

=== CODE BLOCK ADDRESS 0x1f3c ===
  0x1f3c	nop    	dword ptr [eax + eax]
  0x1f41	mov    	ebx, eax
  0x1f43	jmp    	0x1f66
  === BLOCK LINK ===
    0x1f45
=== CODE BLOCK END ===

=== CODE BLOCK ADDRESS 0x1f45 ===
  0x1f45	dec    	eax
  0x1f46	mov    	edx, dword ptr [esp + 0x38]
  0x1f4a	inc    	ecx
  0x1f4b	mov    	ecx, 0x2000000
  0x1f50	dec    	eax
  === BLOCK LINK ===
    0x1f51
=== CODE BLOCK END ===

=== CODE BLOCK ADDRESS 0x1f51 ===
  0x1f51	mov    	dword ptr [esp + 0x20], ebx
  0x1f55	inc    	ebp
  0x1f56	xor    	eax, eax
  0x1f58	xor    	ecx, ecx
  0x1f5a	call   	0x1f90
  === BLOCK LINK ===
    0x1f5f
=== CODE BLOCK END ===

=== CODE BLOCK ADDRESS 0x1f5f ===
  0x1f5f	jmp    	0x1f41
  === BLOCK LINK ===
    0x1f61
=== CODE BLOCK END ===

=== CODE BLOCK ADDRESS 0x1f61 ===
  0x1f61	mov    	ebx, 0x32
  0x1f66	dec    	eax
  0x1f67	cmp    	dword ptr [esp + 0x38], 0
  0x1f6c	je     	0x1f7f
  === BLOCK LINK ===
    0x1f6e
=== CODE BLOCK END ===

=== CODE BLOCK ADDRESS 0x1f6e ===
  0x1f6e	dec    	eax
  0x1f6f	lea    	ecx, [esp + 0x30]
  0x1f73	dec    	eax
  0x1f74	call   	dword ptr [0x2456]
  === BLOCK LINK ===
    0x1f7a
=== CODE BLOCK END ===

=== CODE BLOCK ADDRESS 0x1f7a ===
  0x1f7a	nop    	dword ptr [eax + eax]
  0x1f7f	mov    	eax, ebx
  0x1f81	dec    	eax
  0x1f82	add    	esp, 0x40
  0x1f85	pop    	ebx
  === BLOCK LINK ===
    0x1f86
=== CODE BLOCK END ===

=== CODE BLOCK ADDRESS 0x1f86 ===
  0x1f86	ret    	
  0x1f87	int3   	
  0x1f88	int3   	
  0x1f89	int3   	
  0x1f8a	int3   	
  === BLOCK LINK ===
    0x1f8b
=== CODE BLOCK END ===

=== CODE BLOCK ADDRESS 0x1f8b ===
  0x1f8b	int3   	
  0x1f8c	int3   	
  0x1f8d	int3   	
  0x1f8e	int3   	
  0x1f8f	int3   	
  === BLOCK LINK ===
    0x1f90
=== CODE BLOCK END ===

=== CODE BLOCK ADDRESS 0x1f90 ===
  0x1f90	dec    	eax
  0x1f91	mov    	dword ptr [esp + 0x10], ebx
  0x1f95	dec    	eax
  0x1f96	mov    	dword ptr [esp + 0x18], esi
  0x1f9a	dec    	eax
  === BLOCK LINK ===
    0x1f9b
=== CODE BLOCK END ===

=== CODE BLOCK ADDRESS 0x1f9b ===
  0x1f9b	mov    	dword ptr [esp + 0x20], edi
  0x1f9f	push   	ebp
  0x1fa0	inc    	ecx
  0x1fa1	push   	esi
  0x1fa2	inc    	ecx
  === BLOCK LINK ===
    0x1fa3
=== CODE BLOCK END ===

=== CODE BLOCK ADDRESS 0x1fa3 ===
  0x1fa3	push   	edi
  0x1fa4	dec    	eax
  0x1fa5	mov    	ebp, esp
  0x1fa7	dec    	eax
  0x1fa8	sub    	esp, 0x70
  === BLOCK LINK ===
    0x1fab
=== CODE BLOCK END ===

=== CODE BLOCK ADDRESS 0x1fab ===
  0x1fab	xor    	ebx, ebx
  0x1fad	mov    	eax, 0x80000000
  0x1fb2	dec    	eax
  0x1fb3	add    	eax, ecx
  0x1fb5	dec    	eax
  === BLOCK LINK ===
    0x1fb6
=== CODE BLOCK END ===

=== CODE BLOCK ADDRESS 0x1fb6 ===
  0x1fb6	mov    	dword ptr [ebp + 0x20], ebx
  0x1fb9	xor    	edi, edi
  0x1fbb	inc    	ebp
  0x1fbc	mov    	esi, ecx
  0x1fbe	dec    	esp
  === BLOCK LINK ===
    0x1fbf
=== CODE BLOCK END ===

=== CODE BLOCK ADDRESS 0x1fbf ===
  0x1fbf	mov    	edi, edx
  0x1fc1	dec    	eax
  0x1fc2	mov    	esi, ecx
  0x1fc4	dec    	eax
  0x1fc5	cmp    	eax, 7
  === BLOCK LINK ===
    0x1fc8
=== CODE BLOCK END ===

=== CODE BLOCK ADDRESS 0x1fc8 ===
  0x1fc8	ja     	0x1fdd
  === BLOCK LINK ===
    0x1fca
=== CODE BLOCK END ===

=== CODE BLOCK ADDRESS 0x1fca ===
  0x1fca	dec    	eax
  0x1fcb	lea    	edx, [ebp + 0x20]
  0x1fce	call   	0x1ebc
  === BLOCK LINK ===
    0x1fd3
=== CODE BLOCK END ===

=== CODE BLOCK ADDRESS 0x1fd3 ===
  0x1fd3	dec    	eax
  0x1fd4	mov    	ebx, dword ptr [ebp + 0x20]
  0x1fd7	mov    	edi, eax
  0x1fd9	test   	eax, eax
  0x1fdb	jne    	0x2051
  === BLOCK LINK ===
    0x1fdd
=== CODE BLOCK END ===

=== CODE BLOCK ADDRESS 0x1fdd ===
  0x1fdd	dec    	ecx
  0x1fde	mov    	edx, edi
  0x1fe0	dec    	eax
  0x1fe1	lea    	ecx, [ebp - 0x48]
  0x1fe4	dec    	eax
  === BLOCK LINK ===
    0x1fe5
=== CODE BLOCK END ===

=== CODE BLOCK ADDRESS 0x1fe5 ===
  0x1fe5	call   	dword ptr [0x23d5]
  === BLOCK LINK ===
    0x1feb
=== CODE BLOCK END ===

=== CODE BLOCK ADDRESS 0x1feb ===
  0x1feb	nop    	dword ptr [eax + eax]
  0x1ff0	dec    	eax
  0x1ff1	lea    	eax, [ebp - 0x48]
  0x1ff4	mov    	dword ptr [ebp - 0x38], 0x30
  0x1ffb	xorps  	xmm0, xmm0
  === BLOCK LINK ===
    0x1ffe
=== CODE BLOCK END ===

=== CODE BLOCK ADDRESS 0x1ffe ===
  0x1ffe	mov    	dword ptr [ebp - 0x20], 0x40
  0x2005	dec    	eax
  0x2006	test   	ebx, ebx
  0x2008	dec    	eax
  0x2009	mov    	dword ptr [ebp - 0x28], eax
  === BLOCK LINK ===
    0x200c
=== CODE BLOCK END ===

=== CODE BLOCK ADDRESS 0x200c ===
  0x200c	dec    	esp
  0x200d	lea    	eax, [ebp - 0x38]
  0x2010	inc    	ecx
  0x2011	mov    	edx, esi
  0x2013	dec    	eax
  === BLOCK LINK ===
    0x2014
=== CODE BLOCK END ===

=== CODE BLOCK ADDRESS 0x2014 ===
  0x2014	cmovne  	esi, ebx
  0x2017	dec    	eax
  0x2018	lea    	ecx, [ebp - 0x50]
  0x201b	dec    	eax
  0x201c	mov    	dword ptr [ebp - 0x30], esi
  === BLOCK LINK ===
    0x201f
=== CODE BLOCK END ===

=== CODE BLOCK ADDRESS 0x201f ===
  0x201f	movdqu  	xmmword ptr [ebp - 0x18], xmm0
  0x2024	dec    	eax
  0x2025	call   	dword ptr [0x238d]
  === BLOCK LINK ===
    0x202b
=== CODE BLOCK END ===

=== CODE BLOCK ADDRESS 0x202b ===
  0x202b	nop    	dword ptr [eax + eax]
  0x2030	test   	eax, eax
  0x2032	jns    	0x2046
  === BLOCK LINK ===
    0x2034
=== CODE BLOCK END ===

=== CODE BLOCK ADDRESS 0x2034 ===
  0x2034	mov    	ecx, eax
  0x2036	dec    	eax
  0x2037	call   	dword ptr [0x23a3]
  === BLOCK LINK ===
    0x203d
=== CODE BLOCK END ===

=== CODE BLOCK ADDRESS 0x203d ===
  0x203d	nop    	dword ptr [eax + eax]
  0x2042	mov    	edi, eax
  0x2044	jmp    	0x2051
  === BLOCK LINK ===
    0x2046
=== CODE BLOCK END ===

=== CODE BLOCK ADDRESS 0x2046 ===
  0x2046	dec    	eax
  0x2047	mov    	eax, dword ptr [ebp + 0x40]
  0x204a	dec    	eax
  0x204b	arpl   	word ptr [ebp - 0x50], cx
  0x204e	dec    	eax
  === BLOCK LINK ===
    0x204f
=== CODE BLOCK END ===

=== CODE BLOCK ADDRESS 0x204f ===
  0x204f	mov    	dword ptr [eax], ecx
  0x2051	dec    	eax
  0x2052	test   	ebx, ebx
  0x2054	je     	0x2064
  === BLOCK LINK ===
    0x2056
=== CODE BLOCK END ===

=== CODE BLOCK ADDRESS 0x2056 ===
  0x2056	mov    	ecx, ebx
  0x2058	dec    	eax
  0x2059	call   	dword ptr [0x2369]
  === BLOCK LINK ===
    0x205f
=== CODE BLOCK END ===

=== CODE BLOCK ADDRESS 0x205f ===
  0x205f	nop    	dword ptr [eax + eax]
  0x2064	dec    	esp
  0x2065	lea    	ebx, [esp + 0x70]
  0x2069	mov    	eax, edi
  0x206b	dec    	ecx
  === BLOCK LINK ===
    0x206c
=== CODE BLOCK END ===

=== CODE BLOCK ADDRESS 0x206c ===
  0x206c	mov    	ebx, dword ptr [ebx + 0x28]
  0x206f	dec    	ecx
  0x2070	mov    	esi, dword ptr [ebx + 0x30]
  0x2073	dec    	ecx
  0x2074	mov    	edi, dword ptr [ebx + 0x38]
  === BLOCK LINK ===
    0x2077
=== CODE BLOCK END ===

=== CODE BLOCK ADDRESS 0x2077 ===
  0x2077	dec    	ecx
  0x2078	mov    	esp, ebx
  0x207a	inc    	ecx
  0x207b	pop    	edi
  0x207c	inc    	ecx
  === BLOCK LINK ===
    0x207d
=== CODE BLOCK END ===

=== CODE BLOCK ADDRESS 0x207d ===
  0x207d	pop    	esi
  0x207e	pop    	ebp
  0x207f	ret    	
  0x2080	int3   	
  0x2081	int3   	
  === BLOCK LINK ===
    0x2082
=== CODE BLOCK END ===

=== CODE BLOCK ADDRESS 0x2082 ===
  0x2082	int3   	
  0x2083	int3   	
  0x2084	int3   	
  0x2085	int3   	
  0x2086	int3   	
  === BLOCK LINK ===
    0x2087
=== CODE BLOCK END ===

=== CODE BLOCK ADDRESS 0x2087 ===
  0x2087	int3   	
  0x2088	inc    	eax
  0x2089	push   	ebx
  0x208a	push   	ebp
  0x208b	push   	esi
  === BLOCK LINK ===
    0x208c
=== CODE BLOCK END ===

=== CODE BLOCK ADDRESS 0x208c ===
  0x208c	push   	edi
  0x208d	inc    	ecx
  0x208e	push   	esp
  0x208f	inc    	ecx
  0x2090	push   	ebp
  === BLOCK LINK ===
    0x2091
=== CODE BLOCK END ===

=== CODE BLOCK ADDRESS 0x2091 ===
  0x2091	inc    	ecx
  0x2092	push   	esi
  0x2093	inc    	ecx
  0x2094	push   	edi
  0x2095	dec    	eax
  === BLOCK LINK ===
    0x2096
=== CODE BLOCK END ===

=== CODE BLOCK ADDRESS 0x2096 ===
  0x2096	sub    	esp, 0x68
  0x2099	dec    	eax
  0x209a	mov    	eax, dword ptr [0x3f68]
  0x20a0	dec    	eax
  0x20a1	xor    	eax, esp
  === BLOCK LINK ===
    0x20a3
=== CODE BLOCK END ===

=== CODE BLOCK ADDRESS 0x20a3 ===
  0x20a3	dec    	eax
  0x20a4	mov    	dword ptr [esp + 0x58], eax
  0x20a8	dec    	esp
  0x20a9	mov    	esi, dword ptr [esp + 0xd0]
  0x20b0	xor    	edi, edi
  === BLOCK LINK ===
    0x20b2
=== CODE BLOCK END ===

=== CODE BLOCK ADDRESS 0x20b2 ===
  0x20b2	dec    	ecx
  0x20b3	mov    	ebp, ecx
  0x20b5	dec    	ebp
  0x20b6	mov    	edi, eax
  0x20b8	dec    	esp
  === BLOCK LINK ===
    0x20b9
=== CODE BLOCK END ===

=== CODE BLOCK ADDRESS 0x20b9 ===
  0x20b9	mov    	ebp, edx
  0x20bb	dec    	esp
  0x20bc	mov    	esp, ecx
  0x20be	dec    	ebp
  0x20bf	test   	ecx, ecx
  === BLOCK LINK ===
    0x20c1
=== CODE BLOCK END ===

=== CODE BLOCK ADDRESS 0x20c1 ===
  0x20c1	je     	0x20f1
  === BLOCK LINK ===
    0x20c3
=== CODE BLOCK END ===

=== CODE BLOCK ADDRESS 0x20c3 ===
  0x20c3	inc    	ecx
  0x20c4	mov    	esi, dword ptr [esi]
  0x20c6	xor    	edx, edx
  0x20c8	dec    	eax
  0x20c9	mov    	ecx, dword ptr [0x45a9]
  === BLOCK LINK ===
    0x20cf
=== CODE BLOCK END ===

=== CODE BLOCK ADDRESS 0x20cf ===
  0x20cf	add    	esi, 0xf
  0x20d2	inc    	esp
  0x20d3	mov    	eax, esi
  0x20d5	dec    	eax
  0x20d6	call   	dword ptr [0x207c]
  === BLOCK LINK ===
    0x20dc
=== CODE BLOCK END ===

=== CODE BLOCK ADDRESS 0x20dc ===
  0x20dc	nop    	dword ptr [eax + eax]
  0x20e1	dec    	eax
  0x20e2	mov    	ebx, eax
  0x20e4	dec    	eax
  0x20e5	test   	eax, eax
  === BLOCK LINK ===
    0x20e7
=== CODE BLOCK END ===

=== CODE BLOCK ADDRESS 0x20e7 ===
  0x20e7	jne    	0x20fb
  === BLOCK LINK ===
    0x20e9
=== CODE BLOCK END ===

=== CODE BLOCK ADDRESS 0x20e9 ===
  0x20e9	lea    	edi, [eax + 0xe]
  0x20ec	jmp    	0x21ba
  === BLOCK LINK ===
    0x20f1
=== CODE BLOCK END ===

=== CODE BLOCK ADDRESS 0x20f1 ===
  0x20f1	dec    	eax
  0x20f2	lea    	ebx, [esp + 0x48]
  0x20f6	mov    	esi, 0x10
  0x20fb	dec    	ecx
  0x20fc	mov    	edx, ebp
  === BLOCK LINK ===
    0x20fe
=== CODE BLOCK END ===

=== CODE BLOCK ADDRESS 0x20fe ===
  0x20fe	dec    	eax
  0x20ff	lea    	ecx, [esp + 0x38]
  0x2103	dec    	eax
  0x2104	call   	dword ptr [0x22b6]
  === BLOCK LINK ===
    0x210a
=== CODE BLOCK END ===

=== CODE BLOCK ADDRESS 0x210a ===
  0x210a	nop    	dword ptr [eax + eax]
  0x210f	dec    	eax
  0x2110	lea    	eax, [esp + 0x30]
  0x2114	inc    	ecx
  0x2115	mov    	ecx, esp
  === BLOCK LINK ===
    0x2117
=== CODE BLOCK END ===

=== CODE BLOCK ADDRESS 0x2117 ===
  0x2117	dec    	eax
  0x2118	mov    	dword ptr [esp + 0x28], eax
  0x211c	dec    	eax
  0x211d	lea    	edx, [esp + 0x38]
  0x2121	dec    	esp
  === BLOCK LINK ===
    0x2122
=== CODE BLOCK END ===

=== CODE BLOCK ADDRESS 0x2122 ===
  0x2122	mov    	ecx, ebx
  0x2124	mov    	dword ptr [esp + 0x20], esi
  0x2128	inc    	ecx
  0x2129	mov    	eax, 2
  0x212e	dec    	eax
  === BLOCK LINK ===
    0x212f
=== CODE BLOCK END ===

=== CODE BLOCK ADDRESS 0x212f ===
  0x212f	call   	dword ptr [0x227b]
  === BLOCK LINK ===
    0x2135
=== CODE BLOCK END ===

=== CODE BLOCK ADDRESS 0x2135 ===
  0x2135	nop    	dword ptr [eax + eax]
  0x213a	mov    	edx, 0x80000000
  0x213f	mov    	ecx, eax
  0x2141	add    	eax, edx
  0x2143	test   	edx, eax
  === BLOCK LINK ===
    0x2145
=== CODE BLOCK END ===

=== CODE BLOCK ADDRESS 0x2145 ===
  0x2145	jne    	0x215f
  === BLOCK LINK ===
    0x2147
=== CODE BLOCK END ===

=== CODE BLOCK ADDRESS 0x2147 ===
  0x2147	cmp    	ecx, 0x80000005
  0x214d	je     	0x215f
  === BLOCK LINK ===
    0x214f
=== CODE BLOCK END ===

=== CODE BLOCK ADDRESS 0x214f ===
  0x214f	dec    	eax
  0x2150	call   	dword ptr [0x228a]
  === BLOCK LINK ===
    0x2156
=== CODE BLOCK END ===

=== CODE BLOCK ADDRESS 0x2156 ===
  0x2156	nop    	dword ptr [eax + eax]
  0x215b	mov    	edi, eax
  0x215d	jmp    	0x2193
  === BLOCK LINK ===
    0x215f
=== CODE BLOCK END ===

=== CODE BLOCK ADDRESS 0x215f ===
  0x215f	dec    	eax
  0x2160	test   	ebp, ebp
  0x2162	je     	0x2182
  === BLOCK LINK ===
    0x2164
=== CODE BLOCK END ===

=== CODE BLOCK ADDRESS 0x2164 ===
  0x2164	mov    	eax, dword ptr [ebx + 8]
  0x2167	inc    	ecx
  0x2168	cmp    	dword ptr [esi], eax
  0x216a	jb     	0x217d
  === BLOCK LINK ===
    0x216c
=== CODE BLOCK END ===

=== CODE BLOCK ADDRESS 0x216c ===
  0x216c	inc    	esp
  0x216d	mov    	eax, eax
  0x216f	dec    	eax
  0x2170	lea    	edx, [ebx + 0xc]
  0x2173	dec    	eax
  === BLOCK LINK ===
    0x2174
=== CODE BLOCK END ===

=== CODE BLOCK ADDRESS 0x2174 ===
  0x2174	mov    	ecx, ebp
  0x2176	call   	0x33dd
  === BLOCK LINK ===
    0x217b
=== CODE BLOCK END ===

=== CODE BLOCK ADDRESS 0x217b ===
  0x217b	jmp    	0x2182
  === BLOCK LINK ===
    0x217d
=== CODE BLOCK END ===

=== CODE BLOCK ADDRESS 0x217d ===
  0x217d	mov    	edi, 0x7a
  0x2182	mov    	eax, dword ptr [ebx + 8]
  0x2185	inc    	ecx
  0x2186	mov    	dword ptr [esi], eax
  0x2188	dec    	ebp
  === BLOCK LINK ===
    0x2189
=== CODE BLOCK END ===

=== CODE BLOCK ADDRESS 0x2189 ===
  0x2189	test   	edi, edi
  0x218b	je     	0x2193
  === BLOCK LINK ===
    0x218d
=== CODE BLOCK END ===

=== CODE BLOCK ADDRESS 0x218d ===
  0x218d	mov    	eax, dword ptr [ebx + 4]
  0x2190	inc    	ecx
  0x2191	mov    	dword ptr [edi], eax
  0x2193	dec    	eax
  0x2194	test   	ebx, ebx
  === BLOCK LINK ===
    0x2196
=== CODE BLOCK END ===

=== CODE BLOCK ADDRESS 0x2196 ===
  0x2196	je     	0x21ba
  === BLOCK LINK ===
    0x2198
=== CODE BLOCK END ===

=== CODE BLOCK ADDRESS 0x2198 ===
  0x2198	dec    	eax
  0x2199	lea    	eax, [esp + 0x48]
  0x219d	dec    	eax
  0x219e	cmp    	ebx, eax
  0x21a0	je     	0x21ba
  === BLOCK LINK ===
    0x21a2
=== CODE BLOCK END ===

=== CODE BLOCK ADDRESS 0x21a2 ===
  0x21a2	dec    	eax
  0x21a3	mov    	ecx, dword ptr [0x44cf]
  0x21a9	dec    	esp
  0x21aa	mov    	eax, ebx
  0x21ac	xor    	edx, edx
  === BLOCK LINK ===
    0x21ae
=== CODE BLOCK END ===

=== CODE BLOCK ADDRESS 0x21ae ===
  0x21ae	dec    	eax
  0x21af	call   	dword ptr [0x1f9b]
  === BLOCK LINK ===
    0x21b5
=== CODE BLOCK END ===

=== CODE BLOCK ADDRESS 0x21b5 ===
  0x21b5	nop    	dword ptr [eax + eax]
  0x21ba	mov    	eax, edi
  0x21bc	dec    	eax
  0x21bd	mov    	ecx, dword ptr [esp + 0x58]
  0x21c1	dec    	eax
  === BLOCK LINK ===
    0x21c2
=== CODE BLOCK END ===

=== CODE BLOCK ADDRESS 0x21c2 ===
  0x21c2	xor    	ecx, esp
  0x21c4	call   	0x2d60
  === BLOCK LINK ===
    0x21c9
=== CODE BLOCK END ===

=== CODE BLOCK ADDRESS 0x21c9 ===
  0x21c9	dec    	eax
  0x21ca	add    	esp, 0x68
  0x21cd	inc    	ecx
  0x21ce	pop    	edi
  0x21cf	inc    	ecx
  === BLOCK LINK ===
    0x21d0
=== CODE BLOCK END ===

=== CODE BLOCK ADDRESS 0x21d0 ===
  0x21d0	pop    	esi
  0x21d1	inc    	ecx
  0x21d2	pop    	ebp
  0x21d3	inc    	ecx
  0x21d4	pop    	esp
  === BLOCK LINK ===
    0x21d5
=== CODE BLOCK END ===

=== CODE BLOCK ADDRESS 0x21d5 ===
  0x21d5	pop    	edi
  0x21d6	pop    	esi
  0x21d7	pop    	ebp
  0x21d8	pop    	ebx
  0x21d9	ret    	
  === BLOCK LINK ===
    0x21da
=== CODE BLOCK END ===

=== CODE BLOCK ADDRESS 0x1208 ===
  0x1208	inc    	ebp
  0x1209	xor    	ecx, ecx
  0x120b	dec    	eax
  0x120c	lea    	ecx, [esp + 0x20]
  === BLOCK LINK ===
    0x1210
=== CODE BLOCK END ===

=== CODE BLOCK ADDRESS 0x21da ===
  0x21da	int3   	
  0x21db	int3   	
  0x21dc	int3   	
  0x21dd	int3   	
  0x21de	int3   	
  === BLOCK LINK ===
    0x21df
=== CODE BLOCK END ===

=== CODE BLOCK ADDRESS 0x21df ===
  0x21df	int3   	
  0x21e0	int3   	
  0x21e1	int3   	
  0x21e2	int3   	
  0x21e3	int3   	
  === BLOCK LINK ===
    0x21e4
=== CODE BLOCK END ===

=== CODE BLOCK ADDRESS 0x21e4 ===
  0x21e4	dec    	eax
  0x21e5	mov    	dword ptr [esp + 8], ebx
  0x21e9	dec    	eax
  0x21ea	mov    	dword ptr [esp + 0x10], ebp
  0x21ee	dec    	eax
  === BLOCK LINK ===
    0x21ef
=== CODE BLOCK END ===

=== CODE BLOCK ADDRESS 0x21ef ===
  0x21ef	mov    	dword ptr [esp + 0x18], esi
  0x21f3	push   	edi
  0x21f4	dec    	eax
  0x21f5	sub    	esp, 0x20
  0x21f8	dec    	eax
  === BLOCK LINK ===
    0x21f9
=== CODE BLOCK END ===

=== CODE BLOCK ADDRESS 0x21f9 ===
  0x21f9	or     	eax, 0xffffffff
  0x21fc	dec    	eax
  0x21fd	mov    	edi, ecx
  0x21ff	xor    	ebp, ebp
  0x2201	dec    	eax
  === BLOCK LINK ===
    0x2202
=== CODE BLOCK END ===

=== CODE BLOCK ADDRESS 0x2202 ===
  0x2202	inc    	eax
  0x2204	cmp    	word ptr [ecx + eax*2], bp
  0x2208	jne    	0x2201
  === BLOCK LINK ===
    0x220a
=== CODE BLOCK END ===

=== CODE BLOCK ADDRESS 0x220a ===
  0x220a	inc    	eax
  0x220c	mov    	ecx, 0xffffffff
  0x2211	mov    	esi, eax
  0x2213	dec    	eax
  0x2214	add    	eax, eax
  === BLOCK LINK ===
    0x2216
=== CODE BLOCK END ===

=== CODE BLOCK ADDRESS 0x2216 ===
  0x2216	dec    	eax
  0x2217	cmp    	eax, ecx
  0x2219	ja     	0x2264
  === BLOCK LINK ===
    0x221b
=== CODE BLOCK END ===

=== CODE BLOCK ADDRESS 0x221b ===
  0x221b	dec    	eax
  0x221c	mov    	ecx, dword ptr [0x4456]
  0x2222	xor    	edx, edx
  0x2224	inc    	esp
  0x2225	mov    	eax, eax
  === BLOCK LINK ===
    0x2227
=== CODE BLOCK END ===

=== CODE BLOCK ADDRESS 0x2227 ===
  0x2227	dec    	eax
  0x2228	call   	dword ptr [0x1f2a]
  === BLOCK LINK ===
    0x222e
=== CODE BLOCK END ===

=== CODE BLOCK ADDRESS 0x222e ===
  0x222e	nop    	dword ptr [eax + eax]
  0x2233	dec    	eax
  0x2234	mov    	ebx, eax
  0x2236	dec    	eax
  0x2237	test   	eax, eax
  === BLOCK LINK ===
    0x2239
=== CODE BLOCK END ===

=== CODE BLOCK ADDRESS 0x2239 ===
  0x2239	je     	0x2267
  === BLOCK LINK ===
    0x223b
=== CODE BLOCK END ===

=== CODE BLOCK ADDRESS 0x223b ===
  0x223b	dec    	esp
  0x223c	mov    	eax, edi
  0x223e	mov    	edx, esi
  0x2240	dec    	eax
  0x2241	mov    	ecx, eax
  === BLOCK LINK ===
    0x2243
=== CODE BLOCK END ===

=== CODE BLOCK ADDRESS 0x2243 ===
  0x2243	call   	0x1ce4
  === BLOCK LINK ===
    0x2248
=== CODE BLOCK END ===

=== CODE BLOCK ADDRESS 0x2248 ===
  0x2248	test   	eax, eax
  0x224a	jns    	0x2267
  === BLOCK LINK ===
    0x224c
=== CODE BLOCK END ===

=== CODE BLOCK ADDRESS 0x224c ===
  0x224c	dec    	eax
  0x224d	mov    	ecx, dword ptr [0x4425]
  0x2253	dec    	esp
  0x2254	mov    	eax, ebx
  0x2256	xor    	edx, edx
  === BLOCK LINK ===
    0x2258
=== CODE BLOCK END ===

=== CODE BLOCK ADDRESS 0x2258 ===
  0x2258	dec    	eax
  0x2259	call   	dword ptr [0x1ef1]
  === BLOCK LINK ===
    0x225f
=== CODE BLOCK END ===

=== CODE BLOCK ADDRESS 0x225f ===
  0x225f	nop    	dword ptr [eax + eax]
  0x2264	dec    	eax
  0x2265	mov    	ebx, ebp
  0x2267	dec    	eax
  0x2268	mov    	ebp, dword ptr [esp + 0x38]
  === BLOCK LINK ===
    0x226c
=== CODE BLOCK END ===

=== CODE BLOCK ADDRESS 0x226c ===
  0x226c	dec    	eax
  0x226d	mov    	eax, ebx
  0x226f	dec    	eax
  0x2270	mov    	ebx, dword ptr [esp + 0x30]
  0x2274	dec    	eax
  === BLOCK LINK ===
    0x2275
=== CODE BLOCK END ===

=== CODE BLOCK ADDRESS 0x2275 ===
  0x2275	mov    	esi, dword ptr [esp + 0x40]
  0x2279	dec    	eax
  0x227a	add    	esp, 0x20
  0x227d	pop    	edi
  0x227e	ret    	
  === BLOCK LINK ===
    0x227f
=== CODE BLOCK END ===

=== CODE BLOCK ADDRESS 0x227f ===
  0x227f	int3   	
  0x2280	int3   	
  0x2281	int3   	
  0x2282	int3   	
  0x2283	int3   	
  === BLOCK LINK ===
    0x2284
=== CODE BLOCK END ===

=== CODE BLOCK ADDRESS 0x2284 ===
  0x2284	int3   	
  0x2285	int3   	
  0x2286	int3   	
  0x2287	int3   	
  0x2288	dec    	eax
  === BLOCK LINK ===
    0x2289
=== CODE BLOCK END ===

=== CODE BLOCK ADDRESS 0x2289 ===
  0x2289	mov    	dword ptr [esp + 8], ebx
  0x228d	dec    	eax
  0x228e	mov    	dword ptr [esp + 0x10], esi
  0x2292	dec    	eax
  0x2293	mov    	dword ptr [esp + 0x18], edi
  === BLOCK LINK ===
    0x2297
=== CODE BLOCK END ===

=== CODE BLOCK ADDRESS 0x2297 ===
  0x2297	inc    	ecx
  0x2298	push   	esi
  0x2299	dec    	eax
  0x229a	sub    	esp, 0x20
  0x229d	xor    	ebx, ebx
  === BLOCK LINK ===
    0x229f
=== CODE BLOCK END ===

=== CODE BLOCK ADDRESS 0x229f ===
  0x229f	inc    	ecx
  0x22a0	mov    	esi, eax
  0x22a2	dec    	ecx
  0x22a3	or     	eax, 0xffffffff
  0x22a6	dec    	esp
  === BLOCK LINK ===
    0x22a7
=== CODE BLOCK END ===

=== CODE BLOCK ADDRESS 0x22a7 ===
  0x22a7	mov    	edx, edx
  0x22a9	dec    	ebp
  0x22aa	mov    	ecx, eax
  0x22ac	dec    	esp
  0x22ad	mov    	esi, ecx
  === BLOCK LINK ===
    0x22af
=== CODE BLOCK END ===

=== CODE BLOCK ADDRESS 0x22af ===
  0x22af	mov    	edi, ebx
  0x22b1	dec    	ecx
  0x22b2	inc    	ecx
  0x22b4	inc    	dx
  0x22b6	cmp    	dword ptr [ecx + ecx*2], ebx
  === BLOCK LINK ===
    0x22b9
=== CODE BLOCK END ===

=== CODE BLOCK ADDRESS 0x22b9 ===
  0x22b9	jne    	0x22b1
  === BLOCK LINK ===
    0x22bb
=== CODE BLOCK END ===

=== CODE BLOCK ADDRESS 0x22bb ===
  0x22bb	dec    	ecx
  0x22bc	inc    	eax
  0x22be	inc    	dx
  0x22c0	cmp    	dword ptr [edx + eax*2], ebx
  0x22c3	jne    	0x22bb
  === BLOCK LINK ===
    0x22c5
=== CODE BLOCK END ===

=== CODE BLOCK ADDRESS 0x22c5 ===
  0x22c5	or     	edx, 0xffffffff
  0x22c8	inc    	ecx
  0x22c9	mov    	ebx, 0x5c
  0x22ce	inc    	ebp
  0x22cf	test   	ecx, ecx
  === BLOCK LINK ===
    0x22d1
=== CODE BLOCK END ===

=== CODE BLOCK ADDRESS 0x22d1 ===
  0x22d1	je     	0x22e9
  === BLOCK LINK ===
    0x22d3
=== CODE BLOCK END ===

=== CODE BLOCK ADDRESS 0x22d3 ===
  0x22d3	inc    	ecx
  0x22d4	mov    	eax, ecx
  0x22d6	inc    	sp
  0x22d8	cmp    	dword ptr [ecx + eax*2 - 2], ebx
  0x22dc	je     	0x22e6
  === BLOCK LINK ===
    0x22de
=== CODE BLOCK END ===

=== CODE BLOCK ADDRESS 0x22de ===
  0x22de	cmp    	word ptr [ecx + eax*2 - 2], 0x2f
  0x22e4	jne    	0x22e9
  === BLOCK LINK ===
    0x22e6
=== CODE BLOCK END ===

=== CODE BLOCK ADDRESS 0x22e6 ===
  0x22e6	inc    	esp
  0x22e7	add    	ecx, edx
  0x22e9	inc    	bp
  0x22eb	cmp    	dword ptr [edx], ebx
  0x22ed	je     	0x22fa
  === BLOCK LINK ===
    0x22ef
=== CODE BLOCK END ===

=== CODE BLOCK ADDRESS 0x22ef ===
  0x22ef	inc    	cx
  0x22f1	cmp    	dword ptr [edx], 0x2f
  0x22f4	je     	0x22fa
  === BLOCK LINK ===
    0x22f6
=== CODE BLOCK END ===

=== CODE BLOCK ADDRESS 0x22f6 ===
  0x22f6	mov    	ecx, ebx
  0x22f8	jmp    	0x2302
  === BLOCK LINK ===
    0x22fa
=== CODE BLOCK END ===

=== CODE BLOCK ADDRESS 0x22fa ===
  0x22fa	mov    	ecx, 1
  0x22ff	inc    	esp
  0x2300	add    	eax, edx
  0x2302	inc    	ecx
  0x2303	lea    	eax, [ecx + 2]
  === BLOCK LINK ===
    0x2306
=== CODE BLOCK END ===

=== CODE BLOCK ADDRESS 0x2306 ===
  0x2306	inc    	ecx
  0x2307	add    	eax, eax
  0x2309	cmp    	eax, esi
  0x230b	ja     	0x2356
  === BLOCK LINK ===
    0x230d
=== CODE BLOCK END ===

=== CODE BLOCK ADDRESS 0x230d ===
  0x230d	test   	ecx, ecx
  0x230f	jne    	0x2321
  === BLOCK LINK ===
    0x2311
=== CODE BLOCK END ===

=== CODE BLOCK ADDRESS 0x2311 ===
  0x2311	inc    	esp
  0x2312	cmp    	ecx, esi
  0x2314	jae    	0x2326
  === BLOCK LINK ===
    0x2316
=== CODE BLOCK END ===

=== CODE BLOCK ADDRESS 0x2316 ===
  0x2316	inc    	ecx
  0x2317	mov    	eax, ecx
  0x2319	inc    	ecx
  0x231a	inc    	ecx
  0x231c	inc    	bp
  === BLOCK LINK ===
    0x231e
=== CODE BLOCK END ===

=== CODE BLOCK ADDRESS 0x231e ===
  0x231e	mov    	dword ptr [esi + eax*2], ebx
  0x2321	inc    	esp
  0x2322	cmp    	ecx, esi
  0x2324	jb     	0x232d
  === BLOCK LINK ===
    0x2326
=== CODE BLOCK END ===

=== CODE BLOCK ADDRESS 0x2326 ===
  0x2326	mov    	edi, 0xce
  0x232b	jmp    	0x2348
  === BLOCK LINK ===
    0x232d
=== CODE BLOCK END ===

=== CODE BLOCK ADDRESS 0x232d ===
  0x232d	inc    	ecx
  0x232e	mov    	eax, ecx
  0x2330	mov    	edx, esi
  0x2332	inc    	ecx
  0x2333	sub    	edx, ecx
  === BLOCK LINK ===
    0x2335
=== CODE BLOCK END ===

=== CODE BLOCK ADDRESS 0x2335 ===
  0x2335	dec    	ebp
  0x2336	mov    	eax, edx
  0x2338	dec    	ecx
  0x2339	lea    	ecx, [esi + eax*2]
  0x233c	call   	0x1ce4
  === BLOCK LINK ===
    0x2341
=== CODE BLOCK END ===

=== CODE BLOCK ADDRESS 0x2341 ===
  0x2341	test   	eax, eax
  0x2343	jns    	0x2348
  === BLOCK LINK ===
    0x2345
=== CODE BLOCK END ===

=== CODE BLOCK ADDRESS 0x2345 ===
  0x2345	movzx  	edi, ax
  0x2348	test   	esi, esi
  0x234a	je     	0x235b
  === BLOCK LINK ===
    0x234c
=== CODE BLOCK END ===

=== CODE BLOCK ADDRESS 0x234c ===
  0x234c	lea    	eax, [esi - 1]
  0x234f	inc    	cx
  0x2351	mov    	dword ptr [esi + eax*2], ebx
  0x2354	jmp    	0x235b
  === BLOCK LINK ===
    0x2356
=== CODE BLOCK END ===

=== CODE BLOCK ADDRESS 0x2356 ===
  0x2356	mov    	edi, 0xce
  0x235b	test   	edi, edi
  0x235d	je     	0x236f
  === BLOCK LINK ===
    0x235f
=== CODE BLOCK END ===

=== CODE BLOCK ADDRESS 0x235f ===
  0x235f	mov    	ecx, edi
  0x2361	dec    	eax
  0x2362	call   	dword ptr [0x1dd8]
  === BLOCK LINK ===
    0x2368
=== CODE BLOCK END ===

=== CODE BLOCK ADDRESS 0x2368 ===
  0x2368	nop    	dword ptr [eax + eax]
  0x236d	test   	edi, edi
  0x236f	dec    	eax
  0x2370	mov    	esi, dword ptr [esp + 0x38]
  0x2374	sete   	bl
  === BLOCK LINK ===
    0x2377
=== CODE BLOCK END ===

=== CODE BLOCK ADDRESS 0x2377 ===
  0x2377	dec    	eax
  0x2378	mov    	edi, dword ptr [esp + 0x40]
  0x237c	mov    	eax, ebx
  0x237e	dec    	eax
  0x237f	mov    	ebx, dword ptr [esp + 0x30]
  === BLOCK LINK ===
    0x2383
=== CODE BLOCK END ===

=== CODE BLOCK ADDRESS 0x2383 ===
  0x2383	dec    	eax
  0x2384	add    	esp, 0x20
  0x2387	inc    	ecx
  0x2388	pop    	esi
  0x2389	ret    	
  === BLOCK LINK ===
    0x238a
=== CODE BLOCK END ===

=== CODE BLOCK ADDRESS 0x238a ===
  0x238a	int3   	
  0x238b	int3   	
  0x238c	int3   	
  0x238d	int3   	
  0x238e	int3   	
  === BLOCK LINK ===
    0x238f
=== CODE BLOCK END ===

=== CODE BLOCK ADDRESS 0x238f ===
  0x238f	int3   	
  0x2390	int3   	
  0x2391	int3   	
  0x2392	int3   	
  0x2393	int3   	
  === BLOCK LINK ===
    0x2394
=== CODE BLOCK END ===

=== CODE BLOCK ADDRESS 0x2394 ===
  0x2394	dec    	esp
  0x2395	mov    	dword ptr [esp + 0x18], eax
  0x2399	push   	ebx
  0x239a	push   	esi
  0x239b	push   	edi
  === BLOCK LINK ===
    0x239c
=== CODE BLOCK END ===

=== CODE BLOCK ADDRESS 0x239c ===
  0x239c	inc    	ecx
  0x239d	push   	esp
  0x239e	inc    	ecx
  0x239f	push   	ebp
  0x23a0	inc    	ecx
  === BLOCK LINK ===
    0x23a1
=== CODE BLOCK END ===

=== CODE BLOCK ADDRESS 0x23a1 ===
  0x23a1	push   	esi
  0x23a2	inc    	ecx
  0x23a3	push   	edi
  0x23a4	dec    	eax
  0x23a5	sub    	esp, 0x40
  === BLOCK LINK ===
    0x23a8
=== CODE BLOCK END ===

=== CODE BLOCK ADDRESS 0x23a8 ===
  0x23a8	dec    	ecx
  0x23a9	mov    	edi, eax
  0x23ab	dec    	eax
  0x23ac	mov    	esi, edx
  0x23ae	dec    	esp
  === BLOCK LINK ===
    0x23af
=== CODE BLOCK END ===

=== CODE BLOCK ADDRESS 0x23af ===
  0x23af	mov    	edi, ecx
  0x23b1	xor    	ebx, ebx
  0x23b3	dec    	eax
  0x23b4	test   	ecx, ecx
  0x23b6	jne    	0x23eb
  === BLOCK LINK ===
    0x23b8
=== CODE BLOCK END ===

=== CODE BLOCK ADDRESS 0x23b8 ===
  0x23b8	dec    	eax
  0x23b9	test   	edx, edx
  0x23bb	jne    	0x23eb
  === BLOCK LINK ===
    0x23bd
=== CODE BLOCK END ===

=== CODE BLOCK ADDRESS 0x23bd ===
  0x23bd	inc    	esp
  0x23be	lea    	eax, [ecx + 2]
  0x23c1	dec    	eax
  0x23c2	mov    	ecx, dword ptr [0x42b0]
  0x23c8	dec    	eax
  === BLOCK LINK ===
    0x23c9
=== CODE BLOCK END ===

=== CODE BLOCK ADDRESS 0x23c9 ===
  0x23c9	call   	dword ptr [0x1d89]
  === BLOCK LINK ===
    0x23cf
=== CODE BLOCK END ===

=== CODE BLOCK ADDRESS 0x23cf ===
  0x23cf	nop    	dword ptr [eax + eax]
  0x23d4	dec    	eax
  0x23d5	mov    	dword ptr [edi], eax
  0x23d7	dec    	eax
  0x23d8	test   	eax, eax
  === BLOCK LINK ===
    0x23da
=== CODE BLOCK END ===

=== CODE BLOCK ADDRESS 0x23da ===
  0x23da	je     	0x24ec
  === BLOCK LINK ===
    0x23e0
=== CODE BLOCK END ===

=== CODE BLOCK ADDRESS 0x23e0 ===
  0x23e0	mov    	word ptr [eax], bx
  0x23e3	lea    	eax, [ebx + 1]
  0x23e6	jmp    	0x24ee
  === BLOCK LINK ===
    0x23eb
=== CODE BLOCK END ===

=== CODE BLOCK ADDRESS 0x23eb ===
  0x23eb	dec    	ebp
  0x23ec	test   	edi, edi
  0x23ee	jne    	0x2412
  === BLOCK LINK ===
    0x23f0
=== CODE BLOCK END ===

=== CODE BLOCK ADDRESS 0x23f0 ===
  0x23f0	dec    	eax
  0x23f1	test   	esi, esi
  0x23f3	jne    	0x23fa
  === BLOCK LINK ===
    0x23f5
=== CODE BLOCK END ===

=== CODE BLOCK ADDRESS 0x23f5 ===
  0x23f5	dec    	eax
  0x23f6	mov    	eax, ebx
  0x23f8	jmp    	0x2402
  === BLOCK LINK ===
    0x23fa
=== CODE BLOCK END ===

=== CODE BLOCK ADDRESS 0x23fa ===
  0x23fa	dec    	eax
  0x23fb	mov    	ecx, esi
  0x23fd	call   	0x21e4
  === BLOCK LINK ===
    0x2402
=== CODE BLOCK END ===

=== CODE BLOCK ADDRESS 0x2402 ===
  0x2402	dec    	eax
  0x2403	mov    	dword ptr [edi], eax
  0x2405	dec    	eax
  0x2406	test   	eax, eax
  0x2408	setne  	bl
  === BLOCK LINK ===
    0x240b
=== CODE BLOCK END ===

=== CODE BLOCK ADDRESS 0x240b ===
  0x240b	mov    	eax, ebx
  0x240d	jmp    	0x24ee
  === BLOCK LINK ===
    0x2412
=== CODE BLOCK END ===

=== CODE BLOCK ADDRESS 0x2412 ===
  0x2412	dec    	eax
  0x2413	test   	esi, esi
  0x2415	je     	0x23fd
  === BLOCK LINK ===
    0x2417
=== CODE BLOCK END ===

=== CODE BLOCK ADDRESS 0x2417 ===
  0x2417	dec    	eax
  0x2418	or     	eax, 0xffffffff
  0x241b	dec    	eax
  0x241c	mov    	ecx, eax
  0x241e	dec    	eax
  === BLOCK LINK ===
    0x241f
=== CODE BLOCK END ===

=== CODE BLOCK ADDRESS 0x241f ===
  0x241f	inc    	ecx
  0x2421	inc    	cx
  0x2423	cmp    	dword ptr [edi + ecx*2], ebx
  0x2426	jne    	0x241e
  === BLOCK LINK ===
    0x2428
=== CODE BLOCK END ===

=== CODE BLOCK ADDRESS 0x2428 ===
  0x2428	dec    	eax
  0x2429	inc    	eax
  0x242b	cmp    	word ptr [edx + eax*2], bx
  0x242f	jne    	0x2428
  === BLOCK LINK ===
    0x2431
=== CODE BLOCK END ===

=== CODE BLOCK ADDRESS 0x2431 ===
  0x2431	inc    	esp
  0x2432	lea    	esp, [eax + 2]
  0x2435	inc    	esp
  0x2436	add    	esp, ecx
  0x2438	inc    	ebp
  === BLOCK LINK ===
    0x2439
=== CODE BLOCK END ===

=== CODE BLOCK ADDRESS 0x2439 ===
  0x2439	mov    	ebp, esp
  0x243b	dec    	edx
  0x243c	lea    	eax, [0]
  0x2443	mov    	ecx, 0xffffffff
  0x2448	dec    	eax
  === BLOCK LINK ===
    0x2449
=== CODE BLOCK END ===

=== CODE BLOCK ADDRESS 0x2449 ===
  0x2449	cmp    	eax, ecx
  0x244b	ja     	0x24e9
  === BLOCK LINK ===
    0x2451
=== CODE BLOCK END ===

=== CODE BLOCK ADDRESS 0x2451 ===
  0x2451	mov    	dword ptr [esp + 0x80], eax
  0x2458	inc    	esp
  0x2459	mov    	eax, eax
  0x245b	xor    	edx, edx
  0x245d	dec    	eax
  === BLOCK LINK ===
    0x245e
=== CODE BLOCK END ===

=== CODE BLOCK ADDRESS 0x245e ===
  0x245e	mov    	ecx, dword ptr [0x4214]
  0x2464	dec    	eax
  0x2465	call   	dword ptr [0x1ced]
  === BLOCK LINK ===
    0x246b
=== CODE BLOCK END ===

=== CODE BLOCK ADDRESS 0x246b ===
  0x246b	nop    	dword ptr [eax + eax]
  0x2470	dec    	esp
  0x2471	mov    	esi, eax
  0x2473	dec    	eax
  0x2474	mov    	dword ptr [esp + 0x98], eax
  === BLOCK LINK ===
    0x247b
=== CODE BLOCK END ===

=== CODE BLOCK ADDRESS 0x247b ===
  0x247b	dec    	eax
  0x247c	test   	eax, eax
  0x247e	je     	0x24e9
  === BLOCK LINK ===
    0x2480
=== CODE BLOCK END ===

=== CODE BLOCK ADDRESS 0x2480 ===
  0x2480	dec    	ebp
  0x2481	mov    	eax, edi
  0x2483	inc    	ecx
  0x2484	mov    	edx, ebp
  0x2486	dec    	eax
  === BLOCK LINK ===
    0x2487
=== CODE BLOCK END ===

=== CODE BLOCK ADDRESS 0x2487 ===
  0x2487	mov    	ecx, eax
  0x2489	call   	0x1ce4
  === BLOCK LINK ===
    0x248e
=== CODE BLOCK END ===

=== CODE BLOCK ADDRESS 0x248e ===
  0x248e	inc    	ebp
  0x248f	mov    	eax, esp
  0x2491	dec    	eax
  0x2492	mov    	edx, esi
  0x2494	dec    	ecx
  === BLOCK LINK ===
    0x2495
=== CODE BLOCK END ===

=== CODE BLOCK ADDRESS 0x2495 ===
  0x2495	mov    	ecx, esi
  0x2497	call   	0x2288
  === BLOCK LINK ===
    0x249c
=== CODE BLOCK END ===

=== CODE BLOCK ADDRESS 0x249c ===
  0x249c	mov    	esi, eax
  0x249e	mov    	dword ptr [esp + 0x2c], eax
  0x24a2	jmp    	0x24c3
  === BLOCK LINK ===
    0x24a4
=== CODE BLOCK END ===

=== CODE BLOCK ADDRESS 0x24a4 ===
  0x24a4	mov    	ecx, eax
  0x24a6	call   	0x1c84
  === BLOCK LINK ===
    0x24ab
=== CODE BLOCK END ===

=== CODE BLOCK ADDRESS 0x24ab ===
  0x24ab	xor    	esi, esi
  0x24ad	mov    	dword ptr [esp + 0x2c], esi
  0x24b1	xor    	ebx, ebx
  0x24b3	dec    	eax
  0x24b4	mov    	edi, dword ptr [esp + 0x90]
  === BLOCK LINK ===
    0x24bb
=== CODE BLOCK END ===

=== CODE BLOCK ADDRESS 0x24bb ===
  0x24bb	dec    	esp
  0x24bc	mov    	esi, dword ptr [esp + 0x98]
  0x24c3	test   	esi, esi
  0x24c5	jne    	0x24e2
  === BLOCK LINK ===
    0x24c7
=== CODE BLOCK END ===

=== CODE BLOCK ADDRESS 0x24c7 ===
  0x24c7	dec    	ebp
  0x24c8	mov    	eax, esi
  0x24ca	xor    	edx, edx
  0x24cc	dec    	eax
  0x24cd	mov    	ecx, dword ptr [0x41a5]
  === BLOCK LINK ===
    0x24d3
=== CODE BLOCK END ===

=== CODE BLOCK ADDRESS 0x24d3 ===
  0x24d3	dec    	eax
  0x24d4	call   	dword ptr [0x1c76]
  === BLOCK LINK ===
    0x24da
=== CODE BLOCK END ===

=== CODE BLOCK ADDRESS 0x24da ===
  0x24da	nop    	dword ptr [eax + eax]
  0x24df	dec    	esp
  0x24e0	mov    	esi, ebx
  0x24e2	dec    	esp
  0x24e3	mov    	dword ptr [edi], esi
  === BLOCK LINK ===
    0x24e5
=== CODE BLOCK END ===

=== CODE BLOCK ADDRESS 0x24e5 ===
  0x24e5	mov    	eax, esi
  0x24e7	jmp    	0x24ee
  === BLOCK LINK ===
    0x24e9
=== CODE BLOCK END ===

=== CODE BLOCK ADDRESS 0x24e9 ===
  0x24e9	dec    	eax
  0x24ea	mov    	dword ptr [edi], ebx
  0x24ec	xor    	eax, eax
  0x24ee	dec    	eax
  0x24ef	add    	esp, 0x40
  === BLOCK LINK ===
    0x24f2
=== CODE BLOCK END ===

=== CODE BLOCK ADDRESS 0x24f2 ===
  0x24f2	inc    	ecx
  0x24f3	pop    	edi
  0x24f4	inc    	ecx
  0x24f5	pop    	esi
  0x24f6	inc    	ecx
  === BLOCK LINK ===
    0x24f7
=== CODE BLOCK END ===

=== CODE BLOCK ADDRESS 0x24f7 ===
  0x24f7	pop    	ebp
  0x24f8	inc    	ecx
  0x24f9	pop    	esp
  0x24fa	pop    	edi
  0x24fb	pop    	esi
  === BLOCK LINK ===
    0x24fc
=== CODE BLOCK END ===

=== CODE BLOCK ADDRESS 0x24fc ===
  0x24fc	pop    	ebx
  0x24fd	ret    	
  0x24fe	int3   	
  0x24ff	int3   	
  0x2500	int3   	
  === BLOCK LINK ===
    0x2501
=== CODE BLOCK END ===

=== CODE BLOCK ADDRESS 0x2501 ===
  0x2501	int3   	
  0x2502	int3   	
  0x2503	int3   	
  0x2504	int3   	
  0x2505	int3   	
  === BLOCK LINK ===
    0x2506
=== CODE BLOCK END ===

=== CODE BLOCK ADDRESS 0x2506 ===
  0x2506	int3   	
  0x2507	int3   	
  0x2508	dec    	eax
  0x2509	mov    	dword ptr [esp + 0x10], ebx
  0x250d	dec    	eax
  === BLOCK LINK ===
    0x250e
=== CODE BLOCK END ===

=== CODE BLOCK ADDRESS 0x250e ===
  0x250e	mov    	dword ptr [esp + 0x18], esi
  0x2512	push   	ebp
  0x2513	push   	edi
  0x2514	inc    	ecx
  0x2515	push   	esp
  === BLOCK LINK ===
    0x2516
=== CODE BLOCK END ===

=== CODE BLOCK ADDRESS 0x2516 ===
  0x2516	inc    	ecx
  0x2517	push   	esi
  0x2518	inc    	ecx
  0x2519	push   	edi
  0x251a	dec    	eax
  === BLOCK LINK ===
    0x251b
=== CODE BLOCK END ===

=== CODE BLOCK ADDRESS 0x251b ===
  0x251b	lea    	ebp, [esp - 0x150]
  0x2522	dec    	eax
  0x2523	sub    	esp, 0x250
  0x2529	dec    	eax
  0x252a	mov    	eax, dword ptr [0x3ad8]
  === BLOCK LINK ===
    0x2530
=== CODE BLOCK END ===

=== CODE BLOCK ADDRESS 0x2530 ===
  0x2530	dec    	eax
  0x2531	xor    	eax, esp
  0x2533	dec    	eax
  0x2534	mov    	dword ptr [ebp + 0x140], eax
  0x253a	mov    	ebx, 0x104
  === BLOCK LINK ===
    0x253f
=== CODE BLOCK END ===

=== CODE BLOCK ADDRESS 0x253f ===
  0x253f	dec    	esp
  0x2540	lea    	ecx, [esp + 0x20]
  0x2544	inc    	ebp
  0x2545	xor    	edi, edi
  0x2547	dec    	esp
  === BLOCK LINK ===
    0x2548
=== CODE BLOCK END ===

=== CODE BLOCK ADDRESS 0x2548 ===
  0x2548	lea    	eax, [esp + 0x30]
  0x254c	mov    	edx, ebx
  0x254e	inc    	ecx
  0x254f	mov    	esi, edi
  0x2551	dec    	eax
  === BLOCK LINK ===
    0x2552
=== CODE BLOCK END ===

=== CODE BLOCK ADDRESS 0x2552 ===
  0x2552	call   	dword ptr [0x1c18]
  === BLOCK LINK ===
    0x2558
=== CODE BLOCK END ===

=== CODE BLOCK ADDRESS 0x2558 ===
  0x2558	nop    	dword ptr [eax + eax]
  0x255d	cmp    	eax, ebx
  0x255f	jae    	0x26ba
  === BLOCK LINK ===
    0x2565
=== CODE BLOCK END ===

=== CODE BLOCK ADDRESS 0x2565 ===
  0x2565	test   	eax, eax
  0x2567	jne    	0x257a
  === BLOCK LINK ===
    0x2569
=== CODE BLOCK END ===

=== CODE BLOCK ADDRESS 0x2569 ===
  0x2569	dec    	eax
  0x256a	call   	dword ptr [0x1c88]
  === BLOCK LINK ===
    0x2570
=== CODE BLOCK END ===

=== CODE BLOCK ADDRESS 0x2570 ===
  0x2570	nop    	dword ptr [eax + eax]
  0x2575	jmp    	0x26bf
  === BLOCK LINK ===
    0x257a
=== CODE BLOCK END ===

=== CODE BLOCK ADDRESS 0x257a ===
  0x257a	dec    	eax
  0x257b	mov    	eax, dword ptr [esp + 0x20]
  0x257f	dec    	eax
  0x2580	test   	eax, eax
  0x2582	je     	0x26ba
  === BLOCK LINK ===
    0x2588
=== CODE BLOCK END ===

=== CODE BLOCK ADDRESS 0x2588 ===
  0x2588	dec    	eax
  0x2589	lea    	ecx, [esp + 0x30]
  0x258d	dec    	eax
  0x258e	cmp    	eax, ecx
  0x2590	je     	0x26ba
  === BLOCK LINK ===
    0x2596
=== CODE BLOCK END ===

=== CODE BLOCK ADDRESS 0x2596 ===
  0x2596	inc    	sp
  0x2598	mov    	dword ptr [eax], edi
  0x259a	inc    	ecx
  0x259b	mov    	esp, 0x5c
  0x25a0	movzx  	ecx, word ptr [esp + 0x30]
  === BLOCK LINK ===
    0x25a5
=== CODE BLOCK END ===

=== CODE BLOCK ADDRESS 0x25a5 ===
  0x25a5	lea    	eax, [ecx - 0x41]
  0x25a8	cmp    	ax, 0x19
  0x25ac	jbe    	0x25b7
  === BLOCK LINK ===
    0x25ae
=== CODE BLOCK END ===

=== CODE BLOCK ADDRESS 0x25ae ===
  0x25ae	lea    	eax, [ecx - 0x61]
  0x25b1	cmp    	ax, 0x19
  0x25b5	ja     	0x25d0
  === BLOCK LINK ===
    0x25b7
=== CODE BLOCK END ===

=== CODE BLOCK ADDRESS 0x25b7 ===
  0x25b7	cmp    	word ptr [esp + 0x32], 0x3a
  0x25bd	jne    	0x25d0
  === BLOCK LINK ===
    0x25bf
=== CODE BLOCK END ===

=== CODE BLOCK ADDRESS 0x25bf ===
  0x25bf	inc    	sp
  0x25c1	cmp    	dword ptr [esp + 0x34], esp
  0x25c5	jne    	0x26ba
  === BLOCK LINK ===
    0x25cb
=== CODE BLOCK END ===

=== CODE BLOCK ADDRESS 0x25cb ===
  0x25cb	dec    	eax
  0x25cc	lea    	esi, [esp + 0x34]
  0x25d0	inc    	cx
  0x25d2	cmp    	ecx, esp
  0x25d4	jne    	0x261a
  === BLOCK LINK ===
    0x25d6
=== CODE BLOCK END ===

=== CODE BLOCK ADDRESS 0x25d6 ===
  0x25d6	inc    	sp
  0x25d8	cmp    	dword ptr [esp + 0x32], esp
  0x25dc	jne    	0x261a
  === BLOCK LINK ===
    0x25de
=== CODE BLOCK END ===

=== CODE BLOCK ADDRESS 0x25de ===
  0x25de	inc    	ecx
  0x25df	mov    	edx, esp
  0x25e1	dec    	eax
  0x25e2	lea    	ecx, [esp + 0x34]
  0x25e6	dec    	eax
  === BLOCK LINK ===
    0x25e7
=== CODE BLOCK END ===

=== CODE BLOCK ADDRESS 0x25e7 ===
  0x25e7	call   	dword ptr [0x1d53]
  === BLOCK LINK ===
    0x25ed
=== CODE BLOCK END ===

=== CODE BLOCK ADDRESS 0x25ed ===
  0x25ed	nop    	dword ptr [eax + eax]
  0x25f2	dec    	eax
  0x25f3	test   	eax, eax
  0x25f5	je     	0x26ba
  === BLOCK LINK ===
    0x25fb
=== CODE BLOCK END ===

=== CODE BLOCK ADDRESS 0x25fb ===
  0x25fb	inc    	ecx
  0x25fc	mov    	edx, esp
  0x25fe	dec    	eax
  0x25ff	lea    	ecx, [eax + 2]
  0x2602	dec    	eax
  === BLOCK LINK ===
    0x2603
=== CODE BLOCK END ===

=== CODE BLOCK ADDRESS 0x2603 ===
  0x2603	call   	dword ptr [0x1d37]
  === BLOCK LINK ===
    0x2609
=== CODE BLOCK END ===

=== CODE BLOCK ADDRESS 0x2609 ===
  0x2609	nop    	dword ptr [eax + eax]
  0x260e	dec    	eax
  0x260f	mov    	esi, eax
  0x2611	dec    	eax
  0x2612	test   	eax, eax
  === BLOCK LINK ===
    0x2614
=== CODE BLOCK END ===

=== CODE BLOCK ADDRESS 0x2614 ===
  0x2614	je     	0x26ba
  === BLOCK LINK ===
    0x261a
=== CODE BLOCK END ===

=== CODE BLOCK ADDRESS 0x261a ===
  0x261a	dec    	eax
  0x261b	lea    	ecx, [esp + 0x30]
  0x261f	dec    	eax
  0x2620	call   	dword ptr [0x1b42]
  === BLOCK LINK ===
    0x2626
=== CODE BLOCK END ===

=== CODE BLOCK ADDRESS 0x2626 ===
  0x2626	nop    	dword ptr [eax + eax]
  0x262b	cmp    	eax, -1
  0x262e	je     	0x263f
  === BLOCK LINK ===
    0x2630
=== CODE BLOCK END ===

=== CODE BLOCK ADDRESS 0x2630 ===
  0x2630	test   	al, 0x10
  0x2632	je     	0x26ef
  === BLOCK LINK ===
    0x2638
=== CODE BLOCK END ===

=== CODE BLOCK ADDRESS 0x2638 ===
  0x2638	xor    	eax, eax
  0x263a	jmp    	0x26bf
  === BLOCK LINK ===
    0x263f
=== CODE BLOCK END ===

=== CODE BLOCK ADDRESS 0x263f ===
  0x263f	dec    	eax
  0x2640	mov    	edi, dword ptr [esp + 0x20]
  0x2644	dec    	eax
  0x2645	lea    	eax, [esp + 0x30]
  0x2649	dec    	eax
  === BLOCK LINK ===
    0x264a
=== CODE BLOCK END ===

=== CODE BLOCK ADDRESS 0x264a ===
  0x264a	cmp    	edi, eax
  0x264c	jne    	0x2655
  === BLOCK LINK ===
    0x264e
=== CODE BLOCK END ===

=== CODE BLOCK ADDRESS 0x264e ===
  0x264e	dec    	eax
  0x264f	lea    	edi, [esp + 0x30]
  0x2653	jmp    	0x2659
  === BLOCK LINK ===
    0x2655
=== CODE BLOCK END ===

=== CODE BLOCK ADDRESS 0x2655 ===
  0x2655	dec    	eax
  0x2656	add    	edi, -2
  0x2659	dec    	eax
  0x265a	cmp    	edi, esi
  0x265c	je     	0x26ba
  === BLOCK LINK ===
    0x265e
=== CODE BLOCK END ===

=== CODE BLOCK ADDRESS 0x265e ===
  0x265e	inc    	sp
  0x2660	cmp    	dword ptr [edi], esp
  0x2662	jne    	0x26ba
  === BLOCK LINK ===
    0x2664
=== CODE BLOCK END ===

=== CODE BLOCK ADDRESS 0x2664 ===
  0x2664	dec    	eax
  0x2665	cmp    	edi, esi
  0x2667	jbe    	0x26ba
  === BLOCK LINK ===
    0x2669
=== CODE BLOCK END ===

=== CODE BLOCK ADDRESS 0x2669 ===
  0x2669	inc    	ecx
  0x266a	mov    	edx, esp
  0x266c	inc    	sp
  0x266e	mov    	dword ptr [edi], edi
  0x2670	dec    	eax
  === BLOCK LINK ===
    0x2671
=== CODE BLOCK END ===

=== CODE BLOCK ADDRESS 0x2671 ===
  0x2671	lea    	ecx, [esp + 0x30]
  0x2675	dec    	eax
  0x2676	call   	dword ptr [0x1d14]
  === BLOCK LINK ===
    0x267c
=== CODE BLOCK END ===

=== CODE BLOCK ADDRESS 0x267c ===
  0x267c	nop    	dword ptr [eax + eax]
  0x2681	dec    	esp
  0x2682	mov    	esi, eax
  0x2684	dec    	eax
  0x2685	test   	eax, eax
  === BLOCK LINK ===
    0x2687
=== CODE BLOCK END ===

=== CODE BLOCK ADDRESS 0x2687 ===
  0x2687	je     	0x26ba
  === BLOCK LINK ===
    0x2689
=== CODE BLOCK END ===

=== CODE BLOCK ADDRESS 0x2689 ===
  0x2689	movzx  	ebx, word ptr [eax + 2]
  0x268d	dec    	eax
  0x268e	lea    	ecx, [esp + 0x30]
  0x2692	inc    	sp
  0x2694	mov    	dword ptr [eax + 2], edi
  === BLOCK LINK ===
    0x2697
=== CODE BLOCK END ===

=== CODE BLOCK ADDRESS 0x2697 ===
  0x2697	dec    	eax
  0x2698	call   	dword ptr [0x1aca]
  === BLOCK LINK ===
    0x269e
=== CODE BLOCK END ===

=== CODE BLOCK ADDRESS 0x269e ===
  0x269e	nop    	dword ptr [eax + eax]
  0x26a3	inc    	cx
  0x26a5	mov    	dword ptr [esi + 2], ebx
  0x26a8	cmp    	eax, -1
  0x26ab	jne    	0x26eb
  === BLOCK LINK ===
    0x26ad
=== CODE BLOCK END ===

=== CODE BLOCK ADDRESS 0x26ad ===
  0x26ad	dec    	ecx
  0x26ae	mov    	edi, esi
  0x26b0	dec    	esp
  0x26b1	cmp    	esi, esi
  0x26b3	ja     	0x2669
  === BLOCK LINK ===
    0x26b5
=== CODE BLOCK END ===

=== CODE BLOCK ADDRESS 0x26b5 ===
  0x26b5	dec    	eax
  0x26b6	cmp    	edi, esi
  0x26b8	ja     	0x2717
  === BLOCK LINK ===
    0x26ba
=== CODE BLOCK END ===

=== CODE BLOCK ADDRESS 0x26ba ===
  0x26ba	mov    	eax, 0x7b
  0x26bf	dec    	eax
  0x26c0	mov    	ecx, dword ptr [ebp + 0x140]
  0x26c6	dec    	eax
  0x26c7	xor    	ecx, esp
  === BLOCK LINK ===
    0x26c9
=== CODE BLOCK END ===

=== CODE BLOCK ADDRESS 0x26c9 ===
  0x26c9	call   	0x2d60
  === BLOCK LINK ===
    0x26ce
=== CODE BLOCK END ===

=== CODE BLOCK ADDRESS 0x26ce ===
  0x26ce	dec    	esp
  0x26cf	lea    	ebx, [esp + 0x250]
  0x26d6	dec    	ecx
  0x26d7	mov    	ebx, dword ptr [ebx + 0x38]
  0x26da	dec    	ecx
  === BLOCK LINK ===
    0x26db
=== CODE BLOCK END ===

=== CODE BLOCK ADDRESS 0x26db ===
  0x26db	mov    	esi, dword ptr [ebx + 0x40]
  0x26de	dec    	ecx
  0x26df	mov    	esp, ebx
  0x26e1	inc    	ecx
  0x26e2	pop    	edi
  === BLOCK LINK ===
    0x26e3
=== CODE BLOCK END ===

=== CODE BLOCK ADDRESS 0x26e3 ===
  0x26e3	inc    	ecx
  0x26e4	pop    	esi
  0x26e5	inc    	ecx
  0x26e6	pop    	esp
  0x26e7	pop    	edi
  === BLOCK LINK ===
    0x26e8
=== CODE BLOCK END ===

=== CODE BLOCK ADDRESS 0x26e8 ===
  0x26e8	pop    	ebp
  0x26e9	ret    	
  0x26ea	int3   	
  0x26eb	test   	al, 0x10
  0x26ed	jne    	0x26b5
  === BLOCK LINK ===
    0x26ef
=== CODE BLOCK END ===

=== CODE BLOCK ADDRESS 0x26ef ===
  0x26ef	mov    	eax, 0x10b
  0x26f4	jmp    	0x26bf
  === BLOCK LINK ===
    0x26f6
=== CODE BLOCK END ===

=== CODE BLOCK ADDRESS 0x26f6 ===
  0x26f6	inc    	sp
  0x26f8	cmp    	dword ptr [edi + 2], edi
  0x26fb	je     	0x2638
  === BLOCK LINK ===
    0x2701
=== CODE BLOCK END ===

=== CODE BLOCK ADDRESS 0x2701 ===
  0x2701	inc    	sp
  0x2703	mov    	dword ptr [edi], esp
  0x2705	dec    	eax
  0x2706	or     	eax, 0xffffffff
  0x2709	dec    	eax
  === BLOCK LINK ===
    0x270a
=== CODE BLOCK END ===

=== CODE BLOCK ADDRESS 0x270a ===
  0x270a	inc    	eax
  0x270c	inc    	sp
  0x270e	cmp    	dword ptr [edi + eax*2], edi
  0x2711	jne    	0x2709
  === BLOCK LINK ===
    0x2713
=== CODE BLOCK END ===

=== CODE BLOCK ADDRESS 0x2713 ===
  0x2713	dec    	eax
  0x2714	lea    	edi, [edi + eax*2]
  0x2717	xor    	edx, edx
  0x2719	dec    	eax
  0x271a	lea    	ecx, [esp + 0x30]
  === BLOCK LINK ===
    0x271e
=== CODE BLOCK END ===

=== CODE BLOCK ADDRESS 0x271e ===
  0x271e	dec    	eax
  0x271f	call   	dword ptr [0x1a3b]
  === BLOCK LINK ===
    0x2725
=== CODE BLOCK END ===

=== CODE BLOCK ADDRESS 0x2725 ===
  0x2725	nop    	dword ptr [eax + eax]
  0x272a	test   	eax, eax
  0x272c	jne    	0x26f6
  === BLOCK LINK ===
    0x272e
=== CODE BLOCK END ===

=== CODE BLOCK ADDRESS 0x272e ===
  0x272e	jmp    	0x2569
  === BLOCK LINK ===
    0x2733
=== CODE BLOCK END ===

=== CODE BLOCK ADDRESS 0x2733 ===
  0x2733	int3   	
  0x2734	int3   	
  0x2735	int3   	
  0x2736	int3   	
  0x2737	int3   	
  === BLOCK LINK ===
    0x2738
=== CODE BLOCK END ===

=== CODE BLOCK ADDRESS 0x2738 ===
  0x2738	int3   	
  0x2739	int3   	
  0x273a	int3   	
  0x273b	int3   	
  0x273c	dec    	eax
  === BLOCK LINK ===
    0x273d
=== CODE BLOCK END ===

=== CODE BLOCK ADDRESS 0x273d ===
  0x273d	mov    	dword ptr [esp + 8], ebx
  0x2741	dec    	eax
  0x2742	mov    	dword ptr [esp + 0x10], esi
  0x2746	push   	edi
  0x2747	dec    	eax
  === BLOCK LINK ===
    0x2748
=== CODE BLOCK END ===

=== CODE BLOCK ADDRESS 0x2748 ===
  0x2748	sub    	esp, 0x20
  0x274b	mov    	eax, edx
  0x274d	dec    	eax
  0x274e	lea    	edi, [0x1e4c]
  0x2754	dec    	eax
  === BLOCK LINK ===
    0x2755
=== CODE BLOCK END ===

=== CODE BLOCK ADDRESS 0x2755 ===
  0x2755	mov    	esi, ecx
  0x2757	dec    	esp
  0x2758	lea    	eax, [esp + 0x40]
  0x275c	dec    	eax
  0x275d	lea    	ecx, [0x1fc5]
  === BLOCK LINK ===
    0x2763
=== CODE BLOCK END ===

=== CODE BLOCK ADDRESS 0x2763 ===
  0x2763	xor    	ebx, ebx
  0x2765	test   	edx, edx
  0x2767	dec    	eax
  0x2768	lea    	edx, [0x1f92]
  0x276e	dec    	eax
  === BLOCK LINK ===
    0x276f
=== CODE BLOCK END ===

=== CODE BLOCK ADDRESS 0x276f ===
  0x276f	cmove  	edi, ecx
  0x2772	test   	eax, eax
  0x2774	dec    	eax
  0x2775	cmove  	edx, ecx
  0x2778	dec    	eax
  === BLOCK LINK ===
    0x2779
=== CODE BLOCK END ===

=== CODE BLOCK ADDRESS 0x2779 ===
  0x2779	mov    	ecx, esi
  0x277b	call   	0x2394
  === BLOCK LINK ===
    0x2780
=== CODE BLOCK END ===

=== CODE BLOCK ADDRESS 0x2780 ===
  0x2780	test   	eax, eax
  0x2782	je     	0x27b1
  === BLOCK LINK ===
    0x2784
=== CODE BLOCK END ===

=== CODE BLOCK ADDRESS 0x2784 ===
  0x2784	dec    	esp
  0x2785	mov    	eax, dword ptr [0x3e85]
  0x278b	dec    	eax
  0x278c	mov    	ebx, dword ptr [esp + 0x40]
  0x2790	dec    	ebp
  === BLOCK LINK ===
    0x2791
=== CODE BLOCK END ===

=== CODE BLOCK ADDRESS 0x2791 ===
  0x2791	test   	eax, eax
  0x2793	je     	0x27aa
  === BLOCK LINK ===
    0x2795
=== CODE BLOCK END ===

=== CODE BLOCK ADDRESS 0x2795 ===
  0x2795	dec    	eax
  0x2796	mov    	ecx, dword ptr [0x3edc]
  0x279c	xor    	edx, edx
  0x279e	dec    	eax
  0x279f	call   	dword ptr [0x19ab]
  === BLOCK LINK ===
    0x27a5
=== CODE BLOCK END ===

=== CODE BLOCK ADDRESS 0x27a5 ===
  0x27a5	nop    	dword ptr [eax + eax]
  0x27aa	dec    	eax
  0x27ab	mov    	dword ptr [0x3e5f], ebx
  0x27b1	dec    	esp
  0x27b2	lea    	eax, [esp + 0x40]
  === BLOCK LINK ===
    0x27b6
=== CODE BLOCK END ===

=== CODE BLOCK ADDRESS 0x27b6 ===
  0x27b6	dec    	eax
  0x27b7	mov    	edx, edi
  0x27b9	dec    	eax
  0x27ba	mov    	ecx, esi
  0x27bc	call   	0x2394
  === BLOCK LINK ===
    0x27c1
=== CODE BLOCK END ===

=== CODE BLOCK ADDRESS 0x27c1 ===
  0x27c1	test   	eax, eax
  0x27c3	je     	0x27f2
  === BLOCK LINK ===
    0x27c5
=== CODE BLOCK END ===

=== CODE BLOCK ADDRESS 0x27c5 ===
  0x27c5	dec    	esp
  0x27c6	mov    	eax, dword ptr [0x3e74]
  0x27cc	dec    	eax
  0x27cd	mov    	ebx, dword ptr [esp + 0x40]
  0x27d1	dec    	ebp
  === BLOCK LINK ===
    0x27d2
=== CODE BLOCK END ===

=== CODE BLOCK ADDRESS 0x27d2 ===
  0x27d2	test   	eax, eax
  0x27d4	je     	0x27eb
  === BLOCK LINK ===
    0x27d6
=== CODE BLOCK END ===

=== CODE BLOCK ADDRESS 0x27d6 ===
  0x27d6	dec    	eax
  0x27d7	mov    	ecx, dword ptr [0x3e9b]
  0x27dd	xor    	edx, edx
  0x27df	dec    	eax
  0x27e0	call   	dword ptr [0x196a]
  === BLOCK LINK ===
    0x27e6
=== CODE BLOCK END ===

=== CODE BLOCK ADDRESS 0x27e6 ===
  0x27e6	nop    	dword ptr [eax + eax]
  0x27eb	dec    	eax
  0x27ec	mov    	dword ptr [0x3e4e], ebx
  0x27f2	dec    	eax
  0x27f3	test   	ebx, ebx
  === BLOCK LINK ===
    0x27f5
=== CODE BLOCK END ===

=== CODE BLOCK ADDRESS 0x27f5 ===
  0x27f5	je     	0x27ff
  === BLOCK LINK ===
    0x27f7
=== CODE BLOCK END ===

=== CODE BLOCK ADDRESS 0x27f7 ===
  0x27f7	dec    	eax
  0x27f8	mov    	ecx, ebx
  0x27fa	call   	0x2508
  === BLOCK LINK ===
    0x27ff
=== CODE BLOCK END ===

=== CODE BLOCK ADDRESS 0x27ff ===
  0x27ff	dec    	eax
  0x2800	mov    	ebx, dword ptr [esp + 0x30]
  0x2804	mov    	eax, 1
  0x2809	dec    	eax
  0x280a	mov    	esi, dword ptr [esp + 0x38]
  === BLOCK LINK ===
    0x280e
=== CODE BLOCK END ===

=== CODE BLOCK ADDRESS 0x280e ===
  0x280e	dec    	eax
  0x280f	add    	esp, 0x20
  0x2812	pop    	edi
  0x2813	ret    	
  0x2814	int3   	
  === BLOCK LINK ===
    0x2815
=== CODE BLOCK END ===

=== CODE BLOCK ADDRESS 0x2815 ===
  0x2815	int3   	
  0x2816	int3   	
  0x2817	int3   	
  0x2818	int3   	
  0x2819	int3   	
  === BLOCK LINK ===
    0x281a
=== CODE BLOCK END ===

=== CODE BLOCK ADDRESS 0x281a ===
  0x281a	int3   	
  0x281b	int3   	
  0x281c	dec    	eax
  0x281d	sub    	esp, 0x28
  0x2820	dec    	esp
  === BLOCK LINK ===
    0x2821
=== CODE BLOCK END ===

=== CODE BLOCK ADDRESS 0x2821 ===
  0x2821	mov    	eax, dword ptr [0x3e49]
  0x2827	dec    	ebp
  0x2828	test   	eax, eax
  0x282a	je     	0x2849
  === BLOCK LINK ===
    0x282c
=== CODE BLOCK END ===

=== CODE BLOCK ADDRESS 0x282c ===
  0x282c	dec    	eax
  0x282d	mov    	ecx, dword ptr [0x3e45]
  0x2833	xor    	edx, edx
  0x2835	dec    	eax
  0x2836	call   	dword ptr [0x1914]
  === BLOCK LINK ===
    0x283c
=== CODE BLOCK END ===

=== CODE BLOCK ADDRESS 0x283c ===
  0x283c	nop    	dword ptr [eax + eax]
  0x2841	dec    	eax
  0x2842	and    	dword ptr [0x3e27], 0
  0x2849	dec    	esp
  0x284a	mov    	eax, dword ptr [0x3e18]
  === BLOCK LINK ===
    0x2850
=== CODE BLOCK END ===

=== CODE BLOCK ADDRESS 0x2850 ===
  0x2850	dec    	ebp
  0x2851	test   	eax, eax
  0x2853	je     	0x2872
  === BLOCK LINK ===
    0x2855
=== CODE BLOCK END ===

=== CODE BLOCK ADDRESS 0x2855 ===
  0x2855	dec    	eax
  0x2856	mov    	ecx, dword ptr [0x3e1c]
  0x285c	xor    	edx, edx
  0x285e	dec    	eax
  0x285f	call   	dword ptr [0x18eb]
  === BLOCK LINK ===
    0x2865
=== CODE BLOCK END ===

=== CODE BLOCK ADDRESS 0x2865 ===
  0x2865	nop    	dword ptr [eax + eax]
  0x286a	dec    	eax
  0x286b	and    	dword ptr [0x3df6], 0
  0x2872	dec    	esp
  0x2873	mov    	eax, dword ptr [0x3de7]
  === BLOCK LINK ===
    0x2879
=== CODE BLOCK END ===

=== CODE BLOCK ADDRESS 0x2879 ===
  0x2879	dec    	ebp
  0x287a	test   	eax, eax
  0x287c	je     	0x289b
  === BLOCK LINK ===
    0x287e
=== CODE BLOCK END ===

=== CODE BLOCK ADDRESS 0x287e ===
  0x287e	dec    	eax
  0x287f	mov    	ecx, dword ptr [0x3df3]
  0x2885	xor    	edx, edx
  0x2887	dec    	eax
  0x2888	call   	dword ptr [0x18c2]
  === BLOCK LINK ===
    0x288e
=== CODE BLOCK END ===

=== CODE BLOCK ADDRESS 0x288e ===
  0x288e	nop    	dword ptr [eax + eax]
  0x2893	dec    	eax
  0x2894	and    	dword ptr [0x3dc5], 0
  0x289b	mov    	eax, 1
  0x28a0	dec    	eax
  === BLOCK LINK ===
    0x28a1
=== CODE BLOCK END ===

=== CODE BLOCK ADDRESS 0x28a1 ===
  0x28a1	add    	esp, 0x28
  0x28a4	ret    	
  0x28a5	int3   	
  0x28a6	int3   	
  0x28a7	int3   	
  === BLOCK LINK ===
    0x28a8
=== CODE BLOCK END ===

=== CODE BLOCK ADDRESS 0x28a8 ===
  0x28a8	int3   	
  0x28a9	int3   	
  0x28aa	int3   	
  0x28ab	int3   	
  0x28ac	dec    	eax
  === BLOCK LINK ===
    0x28ad
=== CODE BLOCK END ===

=== CODE BLOCK ADDRESS 0x28ad ===
  0x28ad	mov    	dword ptr [esp + 8], ebx
  0x28b1	push   	edi
  0x28b2	dec    	eax
  0x28b3	sub    	esp, 0x20
  0x28b6	dec    	esp
  === BLOCK LINK ===
    0x28b7
=== CODE BLOCK END ===

=== CODE BLOCK ADDRESS 0x28b7 ===
  0x28b7	mov    	eax, dword ptr [0x3db3]
  0x28bd	dec    	eax
  0x28be	mov    	edi, ecx
  0x28c0	dec    	ebp
  0x28c1	test   	eax, eax
  === BLOCK LINK ===
    0x28c3
=== CODE BLOCK END ===

=== CODE BLOCK ADDRESS 0x28c3 ===
  0x28c3	je     	0x28e2
  === BLOCK LINK ===
    0x28c5
=== CODE BLOCK END ===

=== CODE BLOCK ADDRESS 0x28c5 ===
  0x28c5	dec    	eax
  0x28c6	mov    	ecx, dword ptr [0x3dac]
  0x28cc	xor    	edx, edx
  0x28ce	dec    	eax
  0x28cf	call   	dword ptr [0x187b]
  === BLOCK LINK ===
    0x28d5
=== CODE BLOCK END ===

=== CODE BLOCK ADDRESS 0x28d5 ===
  0x28d5	nop    	dword ptr [eax + eax]
  0x28da	dec    	eax
  0x28db	and    	dword ptr [0x3d8e], 0
  0x28e2	dec    	esp
  0x28e3	lea    	eax, [0x3d87]
  === BLOCK LINK ===
    0x28e9
=== CODE BLOCK END ===

=== CODE BLOCK ADDRESS 0x28e9 ===
  0x28e9	dec    	eax
  0x28ea	mov    	ecx, edi
  0x28ec	dec    	eax
  0x28ed	lea    	edx, [0x1e65]
  0x28f3	call   	0x2394
  === BLOCK LINK ===
    0x28f8
=== CODE BLOCK END ===

=== CODE BLOCK ADDRESS 0x28f8 ===
  0x28f8	mov    	ebx, eax
  0x28fa	test   	eax, eax
  0x28fc	je     	0x298c
  === BLOCK LINK ===
    0x2902
=== CODE BLOCK END ===

=== CODE BLOCK ADDRESS 0x2902 ===
  0x2902	dec    	esp
  0x2903	mov    	eax, dword ptr [0x3d5f]
  0x2909	dec    	ebp
  0x290a	test   	eax, eax
  0x290c	je     	0x292b
  === BLOCK LINK ===
    0x290e
=== CODE BLOCK END ===

=== CODE BLOCK ADDRESS 0x290e ===
  0x290e	dec    	eax
  0x290f	mov    	ecx, dword ptr [0x3d63]
  0x2915	xor    	edx, edx
  0x2917	dec    	eax
  0x2918	call   	dword ptr [0x1832]
  === BLOCK LINK ===
    0x291e
=== CODE BLOCK END ===

=== CODE BLOCK ADDRESS 0x291e ===
  0x291e	nop    	dword ptr [eax + eax]
  0x2923	dec    	eax
  0x2924	and    	dword ptr [0x3d3d], 0
  0x292b	dec    	esp
  0x292c	lea    	eax, [0x3d36]
  === BLOCK LINK ===
    0x2932
=== CODE BLOCK END ===

=== CODE BLOCK ADDRESS 0x2932 ===
  0x2932	dec    	eax
  0x2933	mov    	ecx, edi
  0x2935	dec    	eax
  0x2936	lea    	edx, [0x1e3c]
  0x293c	call   	0x2394
  === BLOCK LINK ===
    0x2941
=== CODE BLOCK END ===

=== CODE BLOCK ADDRESS 0x2941 ===
  0x2941	mov    	ebx, eax
  0x2943	test   	eax, eax
  0x2945	je     	0x298c
  === BLOCK LINK ===
    0x2947
=== CODE BLOCK END ===

=== CODE BLOCK ADDRESS 0x2947 ===
  0x2947	dec    	esp
  0x2948	mov    	eax, dword ptr [0x3d12]
  0x294e	dec    	ebp
  0x294f	test   	eax, eax
  0x2951	je     	0x2970
  === BLOCK LINK ===
    0x2953
=== CODE BLOCK END ===

=== CODE BLOCK ADDRESS 0x2953 ===
  0x2953	dec    	eax
  0x2954	mov    	ecx, dword ptr [0x3d1e]
  0x295a	xor    	edx, edx
  0x295c	dec    	eax
  0x295d	call   	dword ptr [0x17ed]
  === BLOCK LINK ===
    0x2963
=== CODE BLOCK END ===

=== CODE BLOCK ADDRESS 0x2963 ===
  0x2963	nop    	dword ptr [eax + eax]
  0x2968	dec    	eax
  0x2969	and    	dword ptr [0x3cf0], 0
  0x2970	dec    	esp
  0x2971	lea    	eax, [0x3ce9]
  === BLOCK LINK ===
    0x2977
=== CODE BLOCK END ===

=== CODE BLOCK ADDRESS 0x2977 ===
  0x2977	dec    	eax
  0x2978	mov    	ecx, edi
  0x297a	dec    	eax
  0x297b	lea    	edx, [0x1e17]
  0x2981	call   	0x2394
  === BLOCK LINK ===
    0x2986
=== CODE BLOCK END ===

=== CODE BLOCK ADDRESS 0x2986 ===
  0x2986	mov    	ebx, eax
  0x2988	test   	eax, eax
  0x298a	jne    	0x2991
  === BLOCK LINK ===
    0x298c
=== CODE BLOCK END ===

=== CODE BLOCK ADDRESS 0x298c ===
  0x298c	call   	0x281c
  === BLOCK LINK ===
    0x2991
=== CODE BLOCK END ===

=== CODE BLOCK ADDRESS 0x2991 ===
  0x2991	mov    	eax, ebx
  0x2993	dec    	eax
  0x2994	mov    	ebx, dword ptr [esp + 0x30]
  0x2998	dec    	eax
  0x2999	add    	esp, 0x20
  === BLOCK LINK ===
    0x299c
=== CODE BLOCK END ===

=== CODE BLOCK ADDRESS 0x299c ===
  0x299c	pop    	edi
  0x299d	ret    	
  0x299e	int3   	
  0x299f	int3   	
  0x29a0	int3   	
  === BLOCK LINK ===
    0x29a1
=== CODE BLOCK END ===

=== CODE BLOCK ADDRESS 0x1304 ===
=== CODE BLOCK END ===

=== CODE BLOCK ADDRESS 0x29a1 ===
  0x29a1	int3   	
  0x29a2	int3   	
  0x29a3	int3   	
  0x29a4	int3   	
  0x29a5	int3   	
  === BLOCK LINK ===
    0x29a6
=== CODE BLOCK END ===

=== CODE BLOCK ADDRESS 0x29a6 ===
  0x29a6	int3   	
  0x29a7	int3   	
  0x29a8	int3   	
  0x29a9	int3   	
  0x29aa	int3   	
  === BLOCK LINK ===
    0x29ab
=== CODE BLOCK END ===

=== CODE BLOCK ADDRESS 0x29ab ===
  0x29ab	int3   	
  0x29ac	int3   	
  0x29ad	int3   	
  0x29ae	int3   	
  0x29af	int3   	
  === BLOCK LINK ===
    0x29b0
=== CODE BLOCK END ===

=== CODE BLOCK ADDRESS 0x29b0 ===
  0x29b0	dec    	eax
  0x29b1	sub    	esp, 0x28
  0x29b4	mov    	eax, 0x5a4d
  0x29b9	cmp    	word ptr [0xffffd640], ax
  0x29c0	je     	0x29c6
  === BLOCK LINK ===
    0x29c2
=== CODE BLOCK END ===

=== CODE BLOCK ADDRESS 0x29c2 ===
  0x29c2	xor    	eax, eax
  0x29c4	jmp    	0x2a19
  === BLOCK LINK ===
    0x29c6
=== CODE BLOCK END ===

=== CODE BLOCK ADDRESS 0x29c6 ===
  0x29c6	dec    	eax
  0x29c7	arpl   	word ptr [0xffffd66f], cx
  0x29cd	dec    	eax
  0x29ce	lea    	eax, [0xffffd62c]
  0x29d4	dec    	eax
  === BLOCK LINK ===
    0x29d5
=== CODE BLOCK END ===

=== CODE BLOCK ADDRESS 0x29d5 ===
  0x29d5	add    	ecx, eax
  0x29d7	cmp    	dword ptr [ecx], 0x4550
  0x29dd	jne    	0x29c2
  === BLOCK LINK ===
    0x29df
=== CODE BLOCK END ===

=== CODE BLOCK ADDRESS 0x29df ===
  0x29df	mov    	eax, 0x10b
  0x29e4	cmp    	word ptr [ecx + 0x18], ax
  0x29e8	je     	0x2a08
  === BLOCK LINK ===
    0x29ea
=== CODE BLOCK END ===

=== CODE BLOCK ADDRESS 0x29ea ===
  0x29ea	mov    	eax, 0x20b
  0x29ef	cmp    	word ptr [ecx + 0x18], ax
  0x29f3	jne    	0x29c2
  === BLOCK LINK ===
    0x29f5
=== CODE BLOCK END ===

=== CODE BLOCK ADDRESS 0x29f5 ===
  0x29f5	xor    	eax, eax
  0x29f7	cmp    	dword ptr [ecx + 0x84], 0xe
  0x29fe	jbe    	0x2a19
  === BLOCK LINK ===
    0x2a00
=== CODE BLOCK END ===

=== CODE BLOCK ADDRESS 0x2a00 ===
  0x2a00	cmp    	dword ptr [ecx + 0xf8], eax
  0x2a06	jmp    	0x2a16
  === BLOCK LINK ===
    0x2a08
=== CODE BLOCK END ===

=== CODE BLOCK ADDRESS 0x2a08 ===
  0x2a08	xor    	eax, eax
  0x2a0a	cmp    	dword ptr [ecx + 0x74], 0xe
  0x2a0e	jbe    	0x2a19
  === BLOCK LINK ===
    0x2a10
=== CODE BLOCK END ===

=== CODE BLOCK ADDRESS 0x2a10 ===
  0x2a10	cmp    	dword ptr [ecx + 0xe8], eax
  0x2a16	setne  	al
  0x2a19	mov    	ecx, 2
  0x2a1e	mov    	dword ptr [0x362c], eax
  0x2a24	call   	0x2e58
  === BLOCK LINK ===
    0x2a29
=== CODE BLOCK END ===

=== CODE BLOCK ADDRESS 0x2a29 ===
  0x2a29	mov    	ecx, eax
  0x2a2b	call   	dword ptr [0x1917]
  === BLOCK LINK ===
    0x2a31
=== CODE BLOCK END ===

=== CODE BLOCK ADDRESS 0x2a31 ===
  0x2a31	dec    	eax
  0x2a32	mov    	ecx, dword ptr [0x1930]
  0x2a38	dec    	eax
  0x2a39	or     	eax, 0xffffffff
  0x2a3c	dec    	eax
  === BLOCK LINK ===
    0x2a3d
=== CODE BLOCK END ===

=== CODE BLOCK ADDRESS 0x2a3d ===
  0x2a3d	mov    	dword ptr [0x3c45], eax
  0x2a43	dec    	eax
  0x2a44	mov    	dword ptr [0x3c46], eax
  0x2a4a	mov    	eax, dword ptr [0x3614]
  0x2a50	mov    	dword ptr [ecx], eax
  === BLOCK LINK ===
    0x2a52
=== CODE BLOCK END ===

=== CODE BLOCK ADDRESS 0x2a52 ===
  0x2a52	dec    	eax
  0x2a53	mov    	ecx, dword ptr [0x1917]
  0x2a59	mov    	eax, dword ptr [0x35f9]
  0x2a5f	mov    	dword ptr [ecx], eax
  0x2a61	call   	0x2eb0
  === BLOCK LINK ===
    0x2a66
=== CODE BLOCK END ===

=== CODE BLOCK ADDRESS 0x2a66 ===
  0x2a66	cmp    	dword ptr [0x3593], 0
  0x2a6d	jne    	0x2a7c
  === BLOCK LINK ===
    0x2a6f
=== CODE BLOCK END ===

=== CODE BLOCK ADDRESS 0x2a6f ===
  0x2a6f	dec    	eax
  0x2a70	lea    	ecx, [0x43a]
  0x2a76	call   	dword ptr [0x191c]
  === BLOCK LINK ===
    0x2a7c
=== CODE BLOCK END ===

=== CODE BLOCK ADDRESS 0x2a7c ===
  0x2a7c	xor    	eax, eax
  0x2a7e	dec    	eax
  0x2a7f	add    	esp, 0x28
  0x2a82	ret    	
  0x2a83	int3   	
  === BLOCK LINK ===
    0x2a84
=== CODE BLOCK END ===

=== CODE BLOCK ADDRESS 0x2a84 ===
  0x2a84	int3   	
  0x2a85	int3   	
  0x2a86	int3   	
  0x2a87	int3   	
  0x2a88	int3   	
  === BLOCK LINK ===
    0x2a89
=== CODE BLOCK END ===

=== CODE BLOCK ADDRESS 0x2a89 ===
  0x2a89	int3   	
  0x2a8a	int3   	
  0x2a8b	int3   	
  0x2a8c	int3   	
  0x2a8d	int3   	
  === BLOCK LINK ===
    0x2a8e
=== CODE BLOCK END ===

=== CODE BLOCK ADDRESS 0x2a8e ===
  0x2a8e	int3   	
  0x2a8f	int3   	
  0x2a90	dec    	eax
  0x2a91	sub    	esp, 0x38
  0x2a94	mov    	eax, dword ptr [0x35c6]
  === BLOCK LINK ===
    0x2a9a
=== CODE BLOCK END ===

=== CODE BLOCK ADDRESS 0x2a9a ===
  0x2a9a	dec    	esp
  0x2a9b	lea    	eax, [0x35a7]
  0x2aa1	inc    	esp
  0x2aa2	mov    	ecx, dword ptr [0x35b4]
  0x2aa8	dec    	eax
  === BLOCK LINK ===
    0x2aa9
=== CODE BLOCK END ===

=== CODE BLOCK ADDRESS 0x2aa9 ===
  0x2aa9	lea    	edx, [0x3591]
  0x2aaf	mov    	dword ptr [0x359f], eax
  0x2ab5	dec    	eax
  0x2ab6	lea    	ecx, [0x357c]
  0x2abc	dec    	eax
  === BLOCK LINK ===
    0x2abd
=== CODE BLOCK END ===

=== CODE BLOCK ADDRESS 0x2abd ===
  0x2abd	lea    	eax, [0x3591]
  0x2ac3	dec    	eax
  0x2ac4	mov    	dword ptr [esp + 0x20], eax
  0x2ac8	call   	dword ptr [0x183a]
  === BLOCK LINK ===
    0x2ace
=== CODE BLOCK END ===

=== CODE BLOCK ADDRESS 0x2ace ===
  0x2ace	mov    	dword ptr [0x3568], eax
  0x2ad4	dec    	eax
  0x2ad5	add    	esp, 0x38
  0x2ad8	ret    	
  0x2ad9	int3   	
  === BLOCK LINK ===
    0x2ada
=== CODE BLOCK END ===

=== CODE BLOCK ADDRESS 0x12fe ===
  0x12fe	mov    	dword ptr [0x537c], esi
  0x1304	dec    	eax
  === BLOCK LINK ===
    0x1305
=== CODE BLOCK END ===

=== CODE BLOCK ADDRESS 0x2ada ===
  0x2ada	int3   	
  0x2adb	int3   	
  0x2adc	int3   	
  0x2add	int3   	
  0x2ade	int3   	
  === BLOCK LINK ===
    0x2adf
=== CODE BLOCK END ===

=== CODE BLOCK ADDRESS 0x2adf ===
  0x2adf	int3   	
  0x2ae0	dec    	eax
  0x2ae1	sub    	esp, 0x28
  0x2ae4	call   	0x2fa4
  === BLOCK LINK ===
    0x2ae9
=== CODE BLOCK END ===

=== CODE BLOCK ADDRESS 0x2ae9 ===
  0x2ae9	dec    	eax
  0x2aea	add    	esp, 0x28
  0x2aed	jmp    	0x2af8
  === BLOCK LINK ===
    0x2af2
=== CODE BLOCK END ===

=== CODE BLOCK ADDRESS 0x2af2 ===
  0x2af2	int3   	
  0x2af3	int3   	
  0x2af4	int3   	
  0x2af5	int3   	
  0x2af6	int3   	
  === BLOCK LINK ===
    0x2af7
=== CODE BLOCK END ===

=== CODE BLOCK ADDRESS 0x2af7 ===
  0x2af7	int3   	
  0x2af8	dec    	eax
  0x2af9	mov    	dword ptr [esp + 8], ebx
  0x2afd	dec    	eax
  0x2afe	mov    	dword ptr [esp + 0x10], edi
  === BLOCK LINK ===
    0x2b02
=== CODE BLOCK END ===

=== CODE BLOCK ADDRESS 0x2b02 ===
  0x2b02	inc    	ecx
  0x2b03	push   	esi
  0x2b04	dec    	eax
  0x2b05	sub    	esp, 0xb0
  0x2b0b	and    	dword ptr [esp + 0x20], 0
  === BLOCK LINK ===
    0x2b10
=== CODE BLOCK END ===

=== CODE BLOCK ADDRESS 0x2b10 ===
  0x2b10	dec    	eax
  0x2b11	lea    	ecx, [esp + 0x40]
  0x2b15	call   	dword ptr [0x1765]
  === BLOCK LINK ===
    0x2b1b
=== CODE BLOCK END ===

=== CODE BLOCK ADDRESS 0x2b1b ===
  0x2b1b	nop    	
  0x2b1c	dec    	eax
  0x2b1e	mov    	eax, dword ptr [0x30]
  0x2b25	dec    	eax
  0x2b26	mov    	ebx, dword ptr [eax + 8]
  === BLOCK LINK ===
    0x2b29
=== CODE BLOCK END ===

=== CODE BLOCK ADDRESS 0x2b29 ===
  0x2b29	xor    	edi, edi
  0x2b2b	xor    	eax, eax
  0x2b2d	.byte  	0xf0
  0x2b2e	dec    	eax
  0x2b2f	cmpxchg  	dword ptr [0x3b62], ebx
  === BLOCK LINK ===
    0x2b36
=== CODE BLOCK END ===

=== CODE BLOCK ADDRESS 0x2b36 ===
  0x2b36	je     	0x2b42
  === BLOCK LINK ===
    0x2b38
=== CODE BLOCK END ===

=== CODE BLOCK ADDRESS 0x2b38 ===
  0x2b38	dec    	eax
  0x2b39	cmp    	eax, ebx
  0x2b3b	jne    	0x2b57
  === BLOCK LINK ===
    0x2b3d
=== CODE BLOCK END ===

=== CODE BLOCK ADDRESS 0x2b3d ===
  0x2b3d	mov    	edi, 1
  0x2b42	mov    	eax, dword ptr [0x3b58]
  0x2b48	cmp    	eax, 1
  0x2b4b	jne    	0x2b64
  === BLOCK LINK ===
    0x2b4d
=== CODE BLOCK END ===

=== CODE BLOCK ADDRESS 0x2b4d ===
  0x2b4d	lea    	ecx, [eax + 0x1e]
  0x2b50	call   	0x2ea3
  === BLOCK LINK ===
    0x2b55
=== CODE BLOCK END ===

=== CODE BLOCK ADDRESS 0x2b55 ===
  0x2b55	jmp    	0x2bd1
  === BLOCK LINK ===
    0x2b57
=== CODE BLOCK END ===

=== CODE BLOCK ADDRESS 0x2b57 ===
  0x2b57	mov    	ecx, 0x3e8
  0x2b5c	call   	dword ptr [0x175e]
  === BLOCK LINK ===
    0x2b62
=== CODE BLOCK END ===

=== CODE BLOCK ADDRESS 0x2b62 ===
  0x2b62	jmp    	0x2b2b
  === BLOCK LINK ===
    0x2b64
=== CODE BLOCK END ===

=== CODE BLOCK ADDRESS 0x2b64 ===
  0x2b64	mov    	eax, dword ptr [0x3b36]
  0x2b6a	test   	eax, eax
  0x2b6c	jne    	0x2bc7
  === BLOCK LINK ===
    0x2b6e
=== CODE BLOCK END ===

=== CODE BLOCK ADDRESS 0x2b6e ===
  0x2b6e	mov    	dword ptr [0x3b28], 1
  0x2b78	dec    	esp
  0x2b79	lea    	esi, [0x18c9]
  0x2b7f	dec    	eax
  0x2b80	lea    	ebx, [0x18aa]
  === BLOCK LINK ===
    0x2b86
=== CODE BLOCK END ===

=== CODE BLOCK ADDRESS 0x2b86 ===
  0x2b86	dec    	eax
  0x2b87	mov    	dword ptr [esp + 0x30], ebx
  0x2b8b	mov    	dword ptr [esp + 0x24], eax
  0x2b8f	dec    	ecx
  0x2b90	cmp    	ebx, esi
  === BLOCK LINK ===
    0x2b92
=== CODE BLOCK END ===

=== CODE BLOCK ADDRESS 0x2b92 ===
  0x2b92	jae    	0x2bb9
  === BLOCK LINK ===
    0x2b94
=== CODE BLOCK END ===

=== CODE BLOCK ADDRESS 0x2b94 ===
  0x2b94	test   	eax, eax
  0x2b96	jne    	0x2bbd
  === BLOCK LINK ===
    0x2b98
=== CODE BLOCK END ===

=== CODE BLOCK ADDRESS 0x2b98 ===
  0x2b98	dec    	eax
  0x2b99	cmp    	dword ptr [ebx], 0
  0x2b9c	je     	0x2bae
  === BLOCK LINK ===
    0x2b9e
=== CODE BLOCK END ===

=== CODE BLOCK ADDRESS 0x2b9e ===
  0x2b9e	dec    	eax
  0x2b9f	mov    	eax, dword ptr [ebx]
  0x2ba1	dec    	eax
  0x2ba2	mov    	ecx, dword ptr [0x1868]
  0x2ba8	call   	ecx
  === BLOCK LINK ===
    0x2baa
=== CODE BLOCK END ===

=== CODE BLOCK ADDRESS 0x2baa ===
  0x2baa	mov    	dword ptr [esp + 0x24], eax
  0x2bae	dec    	eax
  0x2baf	add    	ebx, 8
  0x2bb2	dec    	eax
  0x2bb3	mov    	dword ptr [esp + 0x30], ebx
  === BLOCK LINK ===
    0x2bb7
=== CODE BLOCK END ===

=== CODE BLOCK ADDRESS 0x2bb7 ===
  0x2bb7	jmp    	0x2b8f
  === BLOCK LINK ===
    0x2bb9
=== CODE BLOCK END ===

=== CODE BLOCK ADDRESS 0x2bb9 ===
  0x2bb9	test   	eax, eax
  0x2bbb	je     	0x2bd1
  === BLOCK LINK ===
    0x2bbd
=== CODE BLOCK END ===

=== CODE BLOCK ADDRESS 0x2bbd ===
  0x2bbd	mov    	eax, 0xff
  0x2bc2	jmp    	0x2d24
  === BLOCK LINK ===
    0x2bc7
=== CODE BLOCK END ===

=== CODE BLOCK ADDRESS 0x2bc7 ===
  0x2bc7	mov    	dword ptr [0x3463], 1
  0x2bd1	mov    	eax, dword ptr [0x3ac9]
  0x2bd7	cmp    	eax, 1
  0x2bda	jne    	0x2bf9
  === BLOCK LINK ===
    0x2bdc
=== CODE BLOCK END ===

=== CODE BLOCK ADDRESS 0x2bdc ===
  0x2bdc	dec    	eax
  0x2bdd	lea    	edx, [0x1845]
  0x2be3	dec    	eax
  0x2be4	lea    	ecx, [0x182e]
  0x2bea	call   	0x307e
  === BLOCK LINK ===
    0x2bef
=== CODE BLOCK END ===

=== CODE BLOCK ADDRESS 0x2bef ===
  0x2bef	mov    	dword ptr [0x3aa7], 2
  0x2bf9	test   	edi, edi
  0x2bfb	jne    	0x2c06
  === BLOCK LINK ===
    0x2bfd
=== CODE BLOCK END ===

=== CODE BLOCK ADDRESS 0x2bfd ===
  0x2bfd	xor    	eax, eax
  0x2bff	dec    	eax
  0x2c00	xchg   	dword ptr [0x3a92], eax
  0x2c06	dec    	eax
  0x2c07	cmp    	dword ptr [0x3a9a], 0
  === BLOCK LINK ===
    0x2c0e
=== CODE BLOCK END ===

=== CODE BLOCK ADDRESS 0x2c0e ===
  0x2c0e	je     	0x2c3a
  === BLOCK LINK ===
    0x2c10
=== CODE BLOCK END ===

=== CODE BLOCK ADDRESS 0x2c10 ===
  0x2c10	dec    	eax
  0x2c11	lea    	ecx, [0x3a91]
  0x2c17	call   	0x2f10
  === BLOCK LINK ===
    0x2c1c
=== CODE BLOCK END ===

=== CODE BLOCK ADDRESS 0x2c1c ===
  0x2c1c	test   	eax, eax
  0x2c1e	je     	0x2c3a
  === BLOCK LINK ===
    0x2c20
=== CODE BLOCK END ===

=== CODE BLOCK ADDRESS 0x2c20 ===
  0x2c20	inc    	ebp
  0x2c21	xor    	eax, eax
  0x2c23	inc    	ecx
  0x2c24	lea    	edx, [eax + 2]
  0x2c27	xor    	ecx, ecx
  === BLOCK LINK ===
    0x2c29
=== CODE BLOCK END ===

=== CODE BLOCK ADDRESS 0x2c29 ===
  0x2c29	dec    	eax
  0x2c2a	mov    	eax, dword ptr [0x3a78]
  0x2c30	dec    	esp
  0x2c31	mov    	ecx, dword ptr [0x17d9]
  0x2c37	inc    	ecx
  === BLOCK LINK ===
    0x2c38
=== CODE BLOCK END ===

=== CODE BLOCK ADDRESS 0x2c38 ===
  0x2c38	call   	ecx
  === BLOCK LINK ===
    0x2c3a
=== CODE BLOCK END ===

=== CODE BLOCK ADDRESS 0x2c3a ===
  0x2c3a	dec    	eax
  0x2c3b	mov    	eax, dword ptr [0x171f]
  0x2c41	dec    	eax
  0x2c42	mov    	ebx, dword ptr [eax]
  0x2c44	dec    	eax
  === BLOCK LINK ===
    0x2c45
=== CODE BLOCK END ===

=== CODE BLOCK ADDRESS 0x2c45 ===
  0x2c45	mov    	dword ptr [esp + 0x28], ebx
  0x2c49	mov    	edi, dword ptr [esp + 0x20]
  0x2c4d	movzx  	ecx, byte ptr [ebx]
  0x2c50	cmp    	cl, 0x20
  0x2c53	ja     	0x2cc6
  === BLOCK LINK ===
    0x2c55
=== CODE BLOCK END ===

=== CODE BLOCK ADDRESS 0x2c55 ===
  0x2c55	test   	cl, cl
  0x2c57	je     	0x2c5d
  === BLOCK LINK ===
    0x2c59
=== CODE BLOCK END ===

=== CODE BLOCK ADDRESS 0x2c59 ===
  0x2c59	test   	edi, edi
  0x2c5b	jne    	0x2cc6
  === BLOCK LINK ===
    0x2c5d
=== CODE BLOCK END ===

=== CODE BLOCK ADDRESS 0x2c5d ===
  0x2c5d	dec    	cl
  0x2c5f	cmp    	cl, 0x1f
  0x2c62	ja     	0x2c70
  === BLOCK LINK ===
    0x2c64
=== CODE BLOCK END ===

=== CODE BLOCK ADDRESS 0x2c64 ===
  0x2c64	dec    	eax
  0x2c65	inc    	ebx
  0x2c67	dec    	eax
  0x2c68	mov    	dword ptr [esp + 0x28], ebx
  0x2c6c	mov    	cl, byte ptr [ebx]
  === BLOCK LINK ===
    0x2c6e
=== CODE BLOCK END ===

=== CODE BLOCK ADDRESS 0x2c6e ===
  0x2c6e	jmp    	0x2c5d
  === BLOCK LINK ===
    0x2c70
=== CODE BLOCK END ===

=== CODE BLOCK ADDRESS 0x2c70 ===
  0x2c70	test   	byte ptr [esp + 0x7c], 1
  0x2c75	movzx  	eax, word ptr [esp + 0x80]
  0x2c7d	inc    	ecx
  0x2c7e	mov    	ecx, 0xa
  0x2c83	inc    	esp
  === BLOCK LINK ===
    0x2c84
=== CODE BLOCK END ===

=== CODE BLOCK ADDRESS 0x2c84 ===
  0x2c84	cmovne  	ecx, eax
  0x2c87	dec    	esp
  0x2c88	mov    	eax, ebx
  0x2c8a	xor    	edx, edx
  0x2c8c	dec    	eax
  === BLOCK LINK ===
    0x2c8d
=== CODE BLOCK END ===

=== CODE BLOCK ADDRESS 0x2c8d ===
  0x2c8d	lea    	ecx, [0xffffd36d]
  0x2c93	call   	0x1234
  === BLOCK LINK ===
    0x2c98
=== CODE BLOCK END ===

=== CODE BLOCK ADDRESS 0x2c98 ===
  0x2c98	mov    	dword ptr [0x3392], eax
  0x2c9e	cmp    	dword ptr [0x33ab], 0
  0x2ca5	jne    	0x2caf
  === BLOCK LINK ===
    0x2ca7
=== CODE BLOCK END ===

=== CODE BLOCK ADDRESS 0x2ca7 ===
  0x2ca7	mov    	ecx, eax
  0x2ca9	call   	dword ptr [0x16a1]
  === BLOCK LINK ===
    0x2caf
=== CODE BLOCK END ===

=== CODE BLOCK ADDRESS 0x2caf ===
  0x2caf	cmp    	dword ptr [0x337e], 0
  0x2cb6	jne    	0x2cc4
  === BLOCK LINK ===
    0x2cb8
=== CODE BLOCK END ===

=== CODE BLOCK ADDRESS 0x2cb8 ===
  0x2cb8	call   	dword ptr [0x16c2]
  === BLOCK LINK ===
    0x2cbe
=== CODE BLOCK END ===

=== CODE BLOCK ADDRESS 0x2cbe ===
  0x2cbe	mov    	eax, dword ptr [0x336c]
  0x2cc4	jmp    	0x2d24
  === BLOCK LINK ===
    0x2cc6
=== CODE BLOCK END ===

=== CODE BLOCK ADDRESS 0x2cc6 ===
  0x2cc6	cmp    	cl, 0x22
  0x2cc9	jne    	0x2cd8
  === BLOCK LINK ===
    0x2ccb
=== CODE BLOCK END ===

=== CODE BLOCK ADDRESS 0x2ccb ===
  0x2ccb	xor    	eax, eax
  0x2ccd	test   	edi, edi
  0x2ccf	sete   	al
  0x2cd2	mov    	edi, eax
  0x2cd4	mov    	dword ptr [esp + 0x20], eax
  === BLOCK LINK ===
    0x2cd8
=== CODE BLOCK END ===

=== CODE BLOCK ADDRESS 0x2cd8 ===
  0x2cd8	call   	dword ptr [0x16aa]
  === BLOCK LINK ===
    0x2cde
=== CODE BLOCK END ===

=== CODE BLOCK ADDRESS 0x2cde ===
  0x2cde	test   	eax, eax
  0x2ce0	je     	0x2cea
  === BLOCK LINK ===
    0x2ce2
=== CODE BLOCK END ===

=== CODE BLOCK ADDRESS 0x2ce2 ===
  0x2ce2	dec    	eax
  0x2ce3	inc    	ebx
  0x2ce5	dec    	eax
  0x2ce6	mov    	dword ptr [esp + 0x28], ebx
  0x2cea	dec    	eax
  === BLOCK LINK ===
    0x2ceb
=== CODE BLOCK END ===

=== CODE BLOCK ADDRESS 0x2ceb ===
  0x2ceb	inc    	ebx
  0x2ced	dec    	eax
  0x2cee	mov    	dword ptr [esp + 0x28], ebx
  0x2cf2	jmp    	0x2c4d
  === BLOCK LINK ===
    0x2cf7
=== CODE BLOCK END ===

=== CODE BLOCK ADDRESS 0x2cf7 ===
  0x2cf7	mov    	dword ptr [0x3333], eax
  0x2cfd	cmp    	dword ptr [0x334c], 0
  0x2d04	jne    	0x2d0f
  === BLOCK LINK ===
    0x2d06
=== CODE BLOCK END ===

=== CODE BLOCK ADDRESS 0x2d06 ===
  0x2d06	mov    	ecx, eax
  0x2d08	call   	dword ptr [0x164a]
  === BLOCK LINK ===
    0x2d0e
=== CODE BLOCK END ===

=== CODE BLOCK ADDRESS 0x2d0e ===
  0x2d0e	int3   	
  0x2d0f	cmp    	dword ptr [0x331e], 0
  0x2d16	jne    	0x2d24
  === BLOCK LINK ===
    0x2d18
=== CODE BLOCK END ===

=== CODE BLOCK ADDRESS 0x2d18 ===
  0x2d18	call   	dword ptr [0x1662]
  === BLOCK LINK ===
    0x2d1e
=== CODE BLOCK END ===

=== CODE BLOCK ADDRESS 0x2d1e ===
  0x2d1e	mov    	eax, dword ptr [0x330c]
  0x2d24	dec    	esp
  0x2d25	lea    	ebx, [esp + 0xb0]
  0x2d2c	dec    	ecx
  0x2d2d	mov    	ebx, dword ptr [ebx + 0x10]
  === BLOCK LINK ===
    0x2d30
=== CODE BLOCK END ===

=== CODE BLOCK ADDRESS 0x2d30 ===
  0x2d30	dec    	ecx
  0x2d31	mov    	edi, dword ptr [ebx + 0x18]
  0x2d34	dec    	ecx
  0x2d35	mov    	esp, ebx
  0x2d37	inc    	ecx
  === BLOCK LINK ===
    0x2d38
=== CODE BLOCK END ===

=== CODE BLOCK ADDRESS 0x2d38 ===
  0x2d38	pop    	esi
  0x2d39	ret    	
  0x2d3a	int3   	
  0x2d3b	int3   	
  0x2d3c	int3   	
  === BLOCK LINK ===
    0x2d3d
=== CODE BLOCK END ===

=== CODE BLOCK ADDRESS 0x2d3d ===
  0x2d3d	int3   	
  0x2d3e	int3   	
  0x2d3f	int3   	
  0x2d40	jmp    	dword ptr [0x15e2]
  === BLOCK LINK ===
    0x2d46
=== CODE BLOCK END ===

=== CODE BLOCK ADDRESS 0x2d46 ===
  0x2d46	int3   	
  0x2d47	int3   	
  0x2d48	int3   	
  0x2d49	int3   	
  0x2d4a	int3   	
  === BLOCK LINK ===
    0x2d4b
=== CODE BLOCK END ===

=== CODE BLOCK ADDRESS 0x2d4b ===
  0x2d4b	int3   	
  0x2d4c	int3   	
  0x2d4d	int3   	
  0x2d4e	int3   	
  0x2d4f	int3   	
  === BLOCK LINK ===
    0x2d50
=== CODE BLOCK END ===

=== CODE BLOCK ADDRESS 0x2d50 ===
  0x2d50	int3   	
  0x2d51	int3   	
  0x2d52	int3   	
  0x2d53	int3   	
  0x2d54	int3   	
  === BLOCK LINK ===
    0x2d55
=== CODE BLOCK END ===

=== CODE BLOCK ADDRESS 0x2d55 ===
  0x2d55	int3   	
  0x2d56	nop    	word ptr [eax + eax]
  0x2d60	dec    	eax
  0x2d61	cmp    	ecx, dword ptr [0x32a1]
  0x2d67	jne    	0x2d79
  === BLOCK LINK ===
    0x2d69
=== CODE BLOCK END ===

=== CODE BLOCK ADDRESS 0x2d69 ===
  0x2d69	dec    	eax
  0x2d6a	rol    	ecx, 0x10
  0x2d6d	test   	cx, 0xffff
  0x2d72	jne    	0x2d75
  === BLOCK LINK ===
    0x2d74
=== CODE BLOCK END ===

=== CODE BLOCK ADDRESS 0x2d74 ===
  0x2d74	ret    	
  0x2d75	dec    	eax
  0x2d76	ror    	ecx, 0x10
  0x2d79	jmp    	0x30e0
  === BLOCK LINK ===
    0x2d7e
=== CODE BLOCK END ===

=== CODE BLOCK ADDRESS 0x1638 ===
=== CODE BLOCK END ===

=== CODE BLOCK ADDRESS 0x2d7e ===
  0x2d7e	int3   	
  0x2d7f	int3   	
  0x2d80	int3   	
  0x2d81	int3   	
  0x2d82	int3   	
  === BLOCK LINK ===
    0x2d83
=== CODE BLOCK END ===

=== CODE BLOCK ADDRESS 0x2d83 ===
  0x2d83	int3   	
  0x2d84	int3   	
  0x2d85	int3   	
  0x2d86	int3   	
  0x2d87	int3   	
  === BLOCK LINK ===
    0x2d88
=== CODE BLOCK END ===

=== CODE BLOCK ADDRESS 0x2d88 ===
  0x2d88	int3   	
  0x2d89	int3   	
  0x2d8a	int3   	
  0x2d8b	int3   	
  0x2d8c	int3   	
  === BLOCK LINK ===
    0x2d8d
=== CODE BLOCK END ===

=== CODE BLOCK ADDRESS 0x2d8d ===
  0x2d8d	int3   	
  0x2d8e	int3   	
  0x2d8f	int3   	
  0x2d90	dec    	eax
  0x2d91	sub    	esp, 0x28
  === BLOCK LINK ===
    0x2d94
=== CODE BLOCK END ===

=== CODE BLOCK ADDRESS 0x2d94 ===
  0x2d94	dec    	eax
  0x2d95	mov    	eax, dword ptr [ecx]
  0x2d97	cmp    	dword ptr [eax], 0xe06d7363
  0x2d9d	jne    	0x2dc2
  === BLOCK LINK ===
    0x2d9f
=== CODE BLOCK END ===

=== CODE BLOCK ADDRESS 0x2d9f ===
  0x2d9f	cmp    	dword ptr [eax + 0x18], 4
  0x2da3	jne    	0x2dc2
  === BLOCK LINK ===
    0x2da5
=== CODE BLOCK END ===

=== CODE BLOCK ADDRESS 0x2da5 ===
  0x2da5	mov    	ecx, dword ptr [eax + 0x20]
  0x2da8	lea    	eax, [ecx - 0x19930520]
  0x2dae	cmp    	eax, 2
  0x2db1	jbe    	0x2dbb
  === BLOCK LINK ===
    0x2db3
=== CODE BLOCK END ===

=== CODE BLOCK ADDRESS 0x2db3 ===
  0x2db3	cmp    	ecx, 0x1994000
  0x2db9	jne    	0x2dc2
  === BLOCK LINK ===
    0x2dbb
=== CODE BLOCK END ===

=== CODE BLOCK ADDRESS 0x2dbb ===
  0x2dbb	call   	dword ptr [0x15b7]
  === BLOCK LINK ===
    0x2dc1
=== CODE BLOCK END ===

=== CODE BLOCK ADDRESS 0x2dc1 ===
  0x2dc1	int3   	
  0x2dc2	xor    	eax, eax
  0x2dc4	dec    	eax
  0x2dc5	add    	esp, 0x28
  0x2dc8	ret    	
  === BLOCK LINK ===
    0x2dc9
=== CODE BLOCK END ===

=== CODE BLOCK ADDRESS 0x2dc9 ===
  0x2dc9	int3   	
  0x2dca	int3   	
  0x2dcb	int3   	
  0x2dcc	int3   	
  0x2dcd	int3   	
  === BLOCK LINK ===
    0x2dce
=== CODE BLOCK END ===

=== CODE BLOCK ADDRESS 0x2dce ===
  0x2dce	int3   	
  0x2dcf	int3   	
  0x2dd0	dec    	eax
  0x2dd1	sub    	esp, 0x28
  0x2dd4	dec    	eax
  === BLOCK LINK ===
    0x2dd5
=== CODE BLOCK END ===

=== CODE BLOCK ADDRESS 0x2dd5 ===
  0x2dd5	lea    	ecx, [0xffffffb5]
  0x2ddb	call   	dword ptr [0x141f]
  === BLOCK LINK ===
    0x2de1
=== CODE BLOCK END ===

=== CODE BLOCK ADDRESS 0x2de1 ===
  0x2de1	xor    	eax, eax
  0x2de3	dec    	eax
  0x2de4	add    	esp, 0x28
  0x2de7	ret    	
  0x2de8	int3   	
  === BLOCK LINK ===
    0x2de9
=== CODE BLOCK END ===

=== CODE BLOCK ADDRESS 0x1d70 ===
  0x1d70	dec    	eax
  0x1d71	mov    	dword ptr [esp + 8], ebx
  0x1d75	dec    	eax
  0x1d76	mov    	dword ptr [esp + 0x10], esi
  === BLOCK LINK ===
    0x1d7a
=== CODE BLOCK END ===

=== CODE BLOCK ADDRESS 0x2de9 ===
  0x2de9	int3   	
  0x2dea	int3   	
  0x2deb	int3   	
  0x2dec	int3   	
  0x2ded	int3   	
  === BLOCK LINK ===
    0x2dee
=== CODE BLOCK END ===

=== CODE BLOCK ADDRESS 0x2dee ===
  0x2dee	jmp    	dword ptr [0x1524]
  === BLOCK LINK ===
    0x2df4
=== CODE BLOCK END ===

=== CODE BLOCK ADDRESS 0x2df4 ===
  0x2df4	int3   	
  0x2df5	int3   	
  0x2df6	int3   	
  0x2df7	int3   	
  0x2df8	int3   	
  === BLOCK LINK ===
    0x2df9
=== CODE BLOCK END ===

=== CODE BLOCK ADDRESS 0x2df9 ===
  0x2df9	int3   	
  0x2dfa	int3   	
  0x2dfb	int3   	
  0x2dfc	dec    	eax
  0x2dfd	sub    	esp, 0x18
  === BLOCK LINK ===
    0x2e00
=== CODE BLOCK END ===

=== CODE BLOCK ADDRESS 0x2e00 ===
  0x2e00	xor    	edx, edx
  0x2e02	dec    	eax
  0x2e03	lea    	eax, [ecx - 1]
  0x2e06	dec    	eax
  0x2e07	cmp    	eax, -3
  === BLOCK LINK ===
    0x2e0a
=== CODE BLOCK END ===

=== CODE BLOCK ADDRESS 0x2e0a ===
  0x2e0a	ja     	0x2e48
  === BLOCK LINK ===
    0x2e0c
=== CODE BLOCK END ===

=== CODE BLOCK ADDRESS 0x2e0c ===
  0x2e0c	mov    	eax, 0x5a4d
  0x2e11	cmp    	word ptr [ecx], ax
  0x2e14	jne    	0x2e40
  === BLOCK LINK ===
    0x2e16
=== CODE BLOCK END ===

=== CODE BLOCK ADDRESS 0x2e16 ===
  0x2e16	cmp    	dword ptr [ecx + 0x3c], edx
  0x2e19	jl     	0x2e40
  === BLOCK LINK ===
    0x2e1b
=== CODE BLOCK END ===

=== CODE BLOCK ADDRESS 0x2e1b ===
  0x2e1b	cmp    	dword ptr [ecx + 0x3c], 0x10000000
  0x2e22	jae    	0x2e40
  === BLOCK LINK ===
    0x2e24
=== CODE BLOCK END ===

=== CODE BLOCK ADDRESS 0x2e24 ===
  0x2e24	dec    	eax
  0x2e25	arpl   	word ptr [ecx + 0x3c], ax
  0x2e28	dec    	eax
  0x2e29	add    	eax, ecx
  0x2e2b	dec    	eax
  === BLOCK LINK ===
    0x2e2c
=== CODE BLOCK END ===

=== CODE BLOCK ADDRESS 0x2e2c ===
  0x2e2c	mov    	dword ptr [esp], eax
  0x2e2f	cmp    	dword ptr [eax], 0x4550
  0x2e35	dec    	eax
  0x2e36	cmovne  	eax, edx
  0x2e39	dec    	eax
  === BLOCK LINK ===
    0x2e3a
=== CODE BLOCK END ===

=== CODE BLOCK ADDRESS 0x2e3a ===
  0x2e3a	mov    	edx, eax
  0x2e3c	dec    	eax
  0x2e3d	mov    	dword ptr [esp], eax
  0x2e40	jmp    	0x2e48
  === BLOCK LINK ===
    0x2e42
=== CODE BLOCK END ===

=== CODE BLOCK ADDRESS 0x2e42 ===
  0x2e42	xor    	edx, edx
  0x2e44	dec    	eax
  0x2e45	mov    	dword ptr [esp], edx
  0x2e48	dec    	eax
  0x2e49	mov    	eax, edx
  === BLOCK LINK ===
    0x2e4b
=== CODE BLOCK END ===

=== CODE BLOCK ADDRESS 0x2e4b ===
  0x2e4b	dec    	eax
  0x2e4c	add    	esp, 0x18
  0x2e4f	ret    	
  0x2e50	int3   	
  0x2e51	int3   	
  === BLOCK LINK ===
    0x2e52
=== CODE BLOCK END ===

=== CODE BLOCK ADDRESS 0x2e52 ===
  0x2e52	int3   	
  0x2e53	int3   	
  0x2e54	int3   	
  0x2e55	int3   	
  0x2e56	int3   	
  === BLOCK LINK ===
    0x2e57
=== CODE BLOCK END ===

=== CODE BLOCK ADDRESS 0x2e57 ===
  0x2e57	int3   	
  0x2e58	inc    	eax
  0x2e59	push   	ebx
  0x2e5a	dec    	eax
  0x2e5b	sub    	esp, 0x20
  === BLOCK LINK ===
    0x2e5e
=== CODE BLOCK END ===

=== CODE BLOCK ADDRESS 0x2e5e ===
  0x2e5e	mov    	ebx, ecx
  0x2e60	xor    	ecx, ecx
  0x2e62	call   	dword ptr [0x13d0]
  === BLOCK LINK ===
    0x2e68
=== CODE BLOCK END ===

=== CODE BLOCK ADDRESS 0x2e68 ===
  0x2e68	dec    	eax
  0x2e69	test   	eax, eax
  0x2e6b	je     	0x2e95
  === BLOCK LINK ===
    0x2e6d
=== CODE BLOCK END ===

=== CODE BLOCK ADDRESS 0x2e6d ===
  0x2e6d	dec    	eax
  0x2e6e	mov    	ecx, eax
  0x2e70	call   	0x2dfc
  === BLOCK LINK ===
    0x2e75
=== CODE BLOCK END ===

=== CODE BLOCK ADDRESS 0x2e75 ===
  0x2e75	dec    	eax
  0x2e76	test   	eax, eax
  0x2e78	je     	0x2e95
  === BLOCK LINK ===
    0x2e7a
=== CODE BLOCK END ===

=== CODE BLOCK ADDRESS 0x2e7a ===
  0x2e7a	mov    	ecx, 2
  0x2e7f	cmp    	word ptr [eax + 0x5c], cx
  0x2e83	jne    	0x2e89
  === BLOCK LINK ===
    0x2e85
=== CODE BLOCK END ===

=== CODE BLOCK ADDRESS 0x2e85 ===
  0x2e85	mov    	eax, ecx
  0x2e87	jmp    	0x2e97
  === BLOCK LINK ===
    0x2e89
=== CODE BLOCK END ===

=== CODE BLOCK ADDRESS 0x2e89 ===
  0x2e89	cmp    	word ptr [eax + 0x5c], 3
  0x2e8e	mov    	eax, 1
  0x2e93	je     	0x2e97
  === BLOCK LINK ===
    0x2e95
=== CODE BLOCK END ===

=== CODE BLOCK ADDRESS 0x2e95 ===
  0x2e95	mov    	eax, ebx
  0x2e97	dec    	eax
  0x2e98	add    	esp, 0x20
  0x2e9b	pop    	ebx
  0x2e9c	ret    	
  === BLOCK LINK ===
    0x2e9d
=== CODE BLOCK END ===

=== CODE BLOCK ADDRESS 0x14c8 ===
=== CODE BLOCK END ===

=== CODE BLOCK ADDRESS 0x2e9d ===
  0x2e9d	int3   	
  0x2e9e	int3   	
  0x2e9f	int3   	
  0x2ea0	int3   	
  0x2ea1	int3   	
  === BLOCK LINK ===
    0x2ea2
=== CODE BLOCK END ===

=== CODE BLOCK ADDRESS 0x2ea2 ===
  0x2ea2	int3   	
  0x2ea3	jmp    	dword ptr [0x1467]
  === BLOCK LINK ===
    0x2ea9
=== CODE BLOCK END ===

=== CODE BLOCK ADDRESS 0x2ea9 ===
  0x2ea9	int3   	
  0x2eaa	int3   	
  0x2eab	int3   	
  0x2eac	int3   	
  0x2ead	int3   	
  === BLOCK LINK ===
    0x2eae
=== CODE BLOCK END ===

=== CODE BLOCK ADDRESS 0x2eae ===
  0x2eae	int3   	
  0x2eaf	int3   	
  0x2eb0	xor    	eax, eax
  0x2eb2	ret    	
  0x2eb3	int3   	
  === BLOCK LINK ===
    0x2eb4
=== CODE BLOCK END ===

=== CODE BLOCK ADDRESS 0x2eb4 ===
  0x2eb4	int3   	
  0x2eb5	int3   	
  0x2eb6	int3   	
  0x2eb7	int3   	
  0x2eb8	int3   	
  === BLOCK LINK ===
    0x2eb9
=== CODE BLOCK END ===

=== CODE BLOCK ADDRESS 0x2eb9 ===
  0x2eb9	int3   	
  0x2eba	int3   	
  0x2ebb	int3   	
  0x2ebc	int3   	
  0x2ebd	int3   	
  === BLOCK LINK ===
    0x2ebe
=== CODE BLOCK END ===

=== CODE BLOCK ADDRESS 0x2ebe ===
  0x2ebe	int3   	
  0x2ebf	int3   	
  0x2ec0	dec    	esp
  0x2ec1	arpl   	word ptr [ecx + 0x3c], ax
  0x2ec4	inc    	ebp
  === BLOCK LINK ===
    0x2ec5
=== CODE BLOCK END ===

=== CODE BLOCK ADDRESS 0x2ec5 ===
  0x2ec5	xor    	ecx, ecx
  0x2ec7	dec    	esp
  0x2ec8	add    	eax, ecx
  0x2eca	dec    	esp
  0x2ecb	mov    	edx, edx
  === BLOCK LINK ===
    0x2ecd
=== CODE BLOCK END ===

=== CODE BLOCK ADDRESS 0x2ecd ===
  0x2ecd	inc    	ecx
  0x2ece	movzx  	eax, word ptr [eax + 0x14]
  0x2ed2	inc    	ebp
  0x2ed3	movzx  	ebx, word ptr [eax + 6]
  0x2ed7	dec    	eax
  === BLOCK LINK ===
    0x2ed8
=== CODE BLOCK END ===

=== CODE BLOCK ADDRESS 0x2ed8 ===
  0x2ed8	add    	eax, 0x18
  0x2edb	dec    	ecx
  0x2edc	add    	eax, eax
  0x2ede	inc    	ebp
  0x2edf	test   	ebx, ebx
  === BLOCK LINK ===
    0x2ee1
=== CODE BLOCK END ===

=== CODE BLOCK ADDRESS 0x2ee1 ===
  0x2ee1	je     	0x2f01
  === BLOCK LINK ===
    0x2ee3
=== CODE BLOCK END ===

=== CODE BLOCK ADDRESS 0x2ee3 ===
  0x2ee3	mov    	edx, dword ptr [eax + 0xc]
  0x2ee6	dec    	esp
  0x2ee7	cmp    	edx, edx
  0x2ee9	jb     	0x2ef5
  === BLOCK LINK ===
    0x2eeb
=== CODE BLOCK END ===

=== CODE BLOCK ADDRESS 0x2eeb ===
  0x2eeb	mov    	ecx, dword ptr [eax + 8]
  0x2eee	add    	ecx, edx
  0x2ef0	dec    	esp
  0x2ef1	cmp    	edx, ecx
  0x2ef3	jb     	0x2f03
  === BLOCK LINK ===
    0x2ef5
=== CODE BLOCK END ===

=== CODE BLOCK ADDRESS 0x2ef5 ===
  0x2ef5	inc    	ecx
  0x2ef6	inc    	ecx
  0x2ef8	dec    	eax
  0x2ef9	add    	eax, 0x28
  0x2efc	inc    	ebp
  === BLOCK LINK ===
    0x2efd
=== CODE BLOCK END ===

=== CODE BLOCK ADDRESS 0x2efd ===
  0x2efd	cmp    	ecx, ebx
  0x2eff	jb     	0x2ee3
  === BLOCK LINK ===
    0x2f01
=== CODE BLOCK END ===

=== CODE BLOCK ADDRESS 0x2f01 ===
  0x2f01	xor    	eax, eax
  0x2f03	ret    	
  0x2f04	int3   	
  0x2f05	int3   	
  0x2f06	int3   	
  === BLOCK LINK ===
    0x2f07
=== CODE BLOCK END ===

=== CODE BLOCK ADDRESS 0x2f07 ===
  0x2f07	int3   	
  0x2f08	int3   	
  0x2f09	int3   	
  0x2f0a	int3   	
  0x2f0b	int3   	
  === BLOCK LINK ===
    0x2f0c
=== CODE BLOCK END ===

=== CODE BLOCK ADDRESS 0x2f0c ===
  0x2f0c	int3   	
  0x2f0d	int3   	
  0x2f0e	int3   	
  0x2f0f	int3   	
  0x2f10	dec    	eax
  === BLOCK LINK ===
    0x2f11
=== CODE BLOCK END ===

=== CODE BLOCK ADDRESS 0x2f11 ===
  0x2f11	mov    	dword ptr [esp + 8], ebx
  0x2f15	push   	edi
  0x2f16	dec    	eax
  0x2f17	sub    	esp, 0x20
  0x2f1a	dec    	eax
  === BLOCK LINK ===
    0x2f1b
=== CODE BLOCK END ===

=== CODE BLOCK ADDRESS 0x2f1b ===
  0x2f1b	mov    	ebx, ecx
  0x2f1d	dec    	eax
  0x2f1e	lea    	edi, [0xffffd0dc]
  0x2f24	dec    	eax
  0x2f25	mov    	ecx, edi
  === BLOCK LINK ===
    0x2f27
=== CODE BLOCK END ===

=== CODE BLOCK ADDRESS 0x2f27 ===
  0x2f27	call   	0x2f70
  === BLOCK LINK ===
    0x2f2c
=== CODE BLOCK END ===

=== CODE BLOCK ADDRESS 0x2f2c ===
  0x2f2c	test   	eax, eax
  0x2f2e	je     	0x2f52
  === BLOCK LINK ===
    0x2f30
=== CODE BLOCK END ===

=== CODE BLOCK ADDRESS 0x2f30 ===
  0x2f30	dec    	eax
  0x2f31	sub    	ebx, edi
  0x2f33	dec    	eax
  0x2f34	mov    	edx, ebx
  0x2f36	dec    	eax
  === BLOCK LINK ===
    0x2f37
=== CODE BLOCK END ===

=== CODE BLOCK ADDRESS 0x2f37 ===
  0x2f37	mov    	ecx, edi
  0x2f39	call   	0x2ec0
  === BLOCK LINK ===
    0x2f3e
=== CODE BLOCK END ===

=== CODE BLOCK ADDRESS 0x2f3e ===
  0x2f3e	dec    	eax
  0x2f3f	test   	eax, eax
  0x2f41	je     	0x2f52
  === BLOCK LINK ===
    0x2f43
=== CODE BLOCK END ===

=== CODE BLOCK ADDRESS 0x2f43 ===
  0x2f43	mov    	eax, dword ptr [eax + 0x24]
  0x2f46	shr    	eax, 0x1f
  0x2f49	not    	eax
  0x2f4b	and    	eax, 1
  0x2f4e	jmp    	0x2f52
  === BLOCK LINK ===
    0x2f50
=== CODE BLOCK END ===

=== CODE BLOCK ADDRESS 0x2f50 ===
  0x2f50	xor    	eax, eax
  0x2f52	dec    	eax
  0x2f53	mov    	ebx, dword ptr [esp + 0x30]
  0x2f57	dec    	eax
  0x2f58	add    	esp, 0x20
  === BLOCK LINK ===
    0x2f5b
=== CODE BLOCK END ===

=== CODE BLOCK ADDRESS 0x2f5b ===
  0x2f5b	pop    	edi
  0x2f5c	ret    	
  0x2f5d	int3   	
  0x2f5e	int3   	
  0x2f5f	int3   	
  === BLOCK LINK ===
    0x2f60
=== CODE BLOCK END ===

=== CODE BLOCK ADDRESS 0x2f60 ===
  0x2f60	int3   	
  0x2f61	int3   	
  0x2f62	int3   	
  0x2f63	int3   	
  0x2f64	int3   	
  === BLOCK LINK ===
    0x2f65
=== CODE BLOCK END ===

=== CODE BLOCK ADDRESS 0x2f65 ===
  0x2f65	int3   	
  0x2f66	int3   	
  0x2f67	int3   	
  0x2f68	int3   	
  0x2f69	int3   	
  === BLOCK LINK ===
    0x2f6a
=== CODE BLOCK END ===

=== CODE BLOCK ADDRESS 0x2f6a ===
  0x2f6a	int3   	
  0x2f6b	int3   	
  0x2f6c	int3   	
  0x2f6d	int3   	
  0x2f6e	int3   	
  === BLOCK LINK ===
    0x2f6f
=== CODE BLOCK END ===

=== CODE BLOCK ADDRESS 0x2f6f ===
  0x2f6f	int3   	
  0x2f70	mov    	eax, 0x5a4d
  0x2f75	cmp    	word ptr [ecx], ax
  0x2f78	jne    	0x2f9a
  === BLOCK LINK ===
    0x2f7a
=== CODE BLOCK END ===

=== CODE BLOCK ADDRESS 0x2f7a ===
  0x2f7a	dec    	eax
  0x2f7b	arpl   	word ptr [ecx + 0x3c], ax
  0x2f7e	dec    	eax
  0x2f7f	add    	eax, ecx
  0x2f81	cmp    	dword ptr [eax], 0x4550
  === BLOCK LINK ===
    0x2f87
=== CODE BLOCK END ===

=== CODE BLOCK ADDRESS 0x2f87 ===
  0x2f87	jne    	0x2f9a
  === BLOCK LINK ===
    0x2f89
=== CODE BLOCK END ===

=== CODE BLOCK ADDRESS 0x2f89 ===
  0x2f89	mov    	ecx, 0x20b
  0x2f8e	cmp    	word ptr [eax + 0x18], cx
  0x2f92	jne    	0x2f9a
  === BLOCK LINK ===
    0x2f94
=== CODE BLOCK END ===

=== CODE BLOCK ADDRESS 0x2f94 ===
  0x2f94	mov    	eax, 1
  0x2f99	ret    	
  0x2f9a	xor    	eax, eax
  0x2f9c	ret    	
  0x2f9d	int3   	
  === BLOCK LINK ===
    0x2f9e
=== CODE BLOCK END ===

=== CODE BLOCK ADDRESS 0x2f9e ===
  0x2f9e	int3   	
  0x2f9f	int3   	
  0x2fa0	int3   	
  0x2fa1	int3   	
  0x2fa2	int3   	
  === BLOCK LINK ===
    0x2fa3
=== CODE BLOCK END ===

=== CODE BLOCK ADDRESS 0x2fa3 ===
  0x2fa3	int3   	
  0x2fa4	dec    	eax
  0x2fa5	mov    	dword ptr [esp + 0x20], ebx
  0x2fa9	push   	ebp
  0x2faa	dec    	eax
  === BLOCK LINK ===
    0x2fab
=== CODE BLOCK END ===

=== CODE BLOCK ADDRESS 0x2fab ===
  0x2fab	mov    	ebp, esp
  0x2fad	dec    	eax
  0x2fae	sub    	esp, 0x20
  0x2fb1	dec    	eax
  0x2fb2	and    	dword ptr [ebp + 0x18], 0
  === BLOCK LINK ===
    0x2fb6
=== CODE BLOCK END ===

=== CODE BLOCK ADDRESS 0x2fb6 ===
  0x2fb6	dec    	eax
  0x2fb7	mov    	ebx, 0x2ddfa232
  0x2fbc	cdq    	
  0x2fbd	sub    	eax, dword ptr [eax]
  0x2fbf	add    	byte ptr [eax - 0x75], cl
  === BLOCK LINK ===
    0x2fc2
=== CODE BLOCK END ===

=== CODE BLOCK ADDRESS 0x2fc2 ===
  0x2fc2	add    	eax, 0x3041
  0x2fc7	dec    	eax
  0x2fc8	cmp    	eax, ebx
  0x2fca	jne    	0x3063
  === BLOCK LINK ===
    0x2fd0
=== CODE BLOCK END ===

=== CODE BLOCK ADDRESS 0x2fd0 ===
  0x2fd0	dec    	eax
  0x2fd1	lea    	ecx, [ebp + 0x18]
  0x2fd4	call   	dword ptr [0x12f6]
  === BLOCK LINK ===
    0x2fda
=== CODE BLOCK END ===

=== CODE BLOCK ADDRESS 0x2fda ===
  0x2fda	dec    	eax
  0x2fdb	mov    	eax, dword ptr [ebp + 0x18]
  0x2fde	dec    	eax
  0x2fdf	mov    	dword ptr [ebp + 0x10], eax
  0x2fe2	call   	dword ptr [0x12b0]
  === BLOCK LINK ===
    0x2fe8
=== CODE BLOCK END ===

=== CODE BLOCK ADDRESS 0x2fe8 ===
  0x2fe8	mov    	eax, eax
  0x2fea	dec    	eax
  0x2feb	xor    	dword ptr [ebp + 0x10], eax
  0x2fee	call   	dword ptr [0x1294]
  === BLOCK LINK ===
    0x2ff4
=== CODE BLOCK END ===

=== CODE BLOCK ADDRESS 0x2ff4 ===
  0x2ff4	mov    	eax, eax
  0x2ff6	dec    	eax
  0x2ff7	xor    	dword ptr [ebp + 0x10], eax
  0x2ffa	call   	dword ptr [0x12d8]
  === BLOCK LINK ===
    0x3000
=== CODE BLOCK END ===

=== CODE BLOCK ADDRESS 0x3000 ===
  0x3000	mov    	eax, eax
  0x3002	dec    	eax
  0x3003	shl    	eax, 0x18
  0x3006	dec    	eax
  0x3007	xor    	dword ptr [ebp + 0x10], eax
  === BLOCK LINK ===
    0x300a
=== CODE BLOCK END ===

=== CODE BLOCK ADDRESS 0x300a ===
  0x300a	call   	dword ptr [0x12c8]
  === BLOCK LINK ===
    0x3010
=== CODE BLOCK END ===

=== CODE BLOCK ADDRESS 0x3010 ===
  0x3010	mov    	eax, eax
  0x3012	dec    	eax
  0x3013	lea    	ecx, [ebp + 0x10]
  0x3016	dec    	eax
  0x3017	xor    	eax, dword ptr [ebp + 0x10]
  === BLOCK LINK ===
    0x301a
=== CODE BLOCK END ===

=== CODE BLOCK ADDRESS 0x301a ===
  0x301a	dec    	eax
  0x301b	xor    	eax, ecx
  0x301d	dec    	eax
  0x301e	lea    	ecx, [ebp + 0x20]
  0x3021	dec    	eax
  === BLOCK LINK ===
    0x3022
=== CODE BLOCK END ===

=== CODE BLOCK ADDRESS 0x3022 ===
  0x3022	mov    	dword ptr [ebp + 0x10], eax
  0x3025	call   	dword ptr [0x1285]
  === BLOCK LINK ===
    0x302b
=== CODE BLOCK END ===

=== CODE BLOCK ADDRESS 0x302b ===
  0x302b	mov    	eax, dword ptr [ebp + 0x20]
  0x302e	dec    	eax
  0x302f	mov    	ecx, 0xffffffff
  0x3034	.byte  	0xff
  0x3035	inc    	dword ptr [eax]
  === BLOCK LINK ===
    0x3037
=== CODE BLOCK END ===

=== CODE BLOCK ADDRESS 0x3037 ===
  0x3037	add    	byte ptr [eax - 0x3f], cl
  0x303a	loopne  	0x305c
  === BLOCK LINK ===
    0x303c
=== CODE BLOCK END ===

=== CODE BLOCK ADDRESS 0x303c ===
  0x303c	dec    	eax
  0x303d	xor    	eax, dword ptr [ebp + 0x20]
  0x3040	dec    	eax
  0x3041	xor    	eax, dword ptr [ebp + 0x10]
  0x3044	dec    	eax
  === BLOCK LINK ===
    0x3045
=== CODE BLOCK END ===

=== CODE BLOCK ADDRESS 0x3045 ===
  0x3045	and    	eax, ecx
  0x3047	dec    	eax
  0x3048	mov    	ecx, eax
  0x304a	dec    	eax
  0x304b	cmp    	eax, ebx
  === BLOCK LINK ===
    0x304d
=== CODE BLOCK END ===

=== CODE BLOCK ADDRESS 0x304d ===
  0x304d	jne    	0x305c
  === BLOCK LINK ===
    0x304f
=== CODE BLOCK END ===

=== CODE BLOCK ADDRESS 0x304f ===
  0x304f	dec    	eax
  0x3050	mov    	eax, 0x2ddfa233
  0x3055	cdq    	
  0x3056	sub    	eax, dword ptr [eax]
  0x3058	add    	byte ptr [eax - 0x75], cl
  === BLOCK LINK ===
    0x305b
=== CODE BLOCK END ===

=== CODE BLOCK ADDRESS 0x305b ===
  0x305b	enter  	-0x76b8, 0xd
  0x305f	movsd  	dword ptr es:[edi], dword ptr [esi]
  0x3060	das    	
  0x3061	add    	byte ptr [eax], al
  0x3063	dec    	eax
  === BLOCK LINK ===
    0x3064
=== CODE BLOCK END ===

=== CODE BLOCK ADDRESS 0x3064 ===
  0x3064	mov    	ebx, dword ptr [esp + 0x48]
  0x3068	dec    	eax
  0x3069	not    	eax
  0x306b	dec    	eax
  0x306c	mov    	dword ptr [0x2f9e], eax
  === BLOCK LINK ===
    0x3072
=== CODE BLOCK END ===

=== CODE BLOCK ADDRESS 0x3072 ===
  0x3072	dec    	eax
  0x3073	add    	esp, 0x20
  0x3076	pop    	ebp
  0x3077	ret    	
  0x3078	int3   	
  === BLOCK LINK ===
    0x3079
=== CODE BLOCK END ===

=== CODE BLOCK ADDRESS 0x3079 ===
  0x3079	int3   	
  0x307a	int3   	
  0x307b	int3   	
  0x307c	int3   	
  0x307d	int3   	
  === BLOCK LINK ===
    0x307e
=== CODE BLOCK END ===

=== CODE BLOCK ADDRESS 0x307e ===
  0x307e	jmp    	dword ptr [0x12ac]
  === BLOCK LINK ===
    0x3084
=== CODE BLOCK END ===

=== CODE BLOCK ADDRESS 0x3084 ===
  0x3084	int3   	
  0x3085	int3   	
  0x3086	int3   	
  0x3087	int3   	
  0x3088	int3   	
  === BLOCK LINK ===
    0x3089
=== CODE BLOCK END ===

=== CODE BLOCK ADDRESS 0x3089 ===
  0x3089	int3   	
  0x308a	int3   	
  0x308b	int3   	
  0x308c	int3   	
  0x308d	int3   	
  === BLOCK LINK ===
    0x308e
=== CODE BLOCK END ===

=== CODE BLOCK ADDRESS 0x308e ===
  0x308e	int3   	
  0x308f	int3   	
  0x3090	ret    	0
  0x3093	int3   	
  0x3094	int3   	
  === BLOCK LINK ===
    0x3095
=== CODE BLOCK END ===

=== CODE BLOCK ADDRESS 0x3095 ===
  0x3095	int3   	
  0x3096	int3   	
  0x3097	int3   	
  0x3098	int3   	
  0x3099	int3   	
  === BLOCK LINK ===
    0x309a
=== CODE BLOCK END ===

=== CODE BLOCK ADDRESS 0x309a ===
  0x309a	int3   	
  0x309b	int3   	
  0x309c	inc    	eax
  0x309d	push   	ebx
  0x309e	dec    	eax
  === BLOCK LINK ===
    0x309f
=== CODE BLOCK END ===

=== CODE BLOCK ADDRESS 0x309f ===
  0x309f	sub    	esp, 0x20
  0x30a2	dec    	eax
  0x30a3	mov    	ebx, ecx
  0x30a5	xor    	ecx, ecx
  0x30a7	call   	dword ptr [0x1153]
  === BLOCK LINK ===
    0x30ad
=== CODE BLOCK END ===

=== CODE BLOCK ADDRESS 0x30ad ===
  0x30ad	dec    	eax
  0x30ae	mov    	ecx, ebx
  0x30b0	call   	dword ptr [0x113a]
  === BLOCK LINK ===
    0x30b6
=== CODE BLOCK END ===

=== CODE BLOCK ADDRESS 0x30b6 ===
  0x30b6	call   	dword ptr [0x11b4]
  === BLOCK LINK ===
    0x30bc
=== CODE BLOCK END ===

=== CODE BLOCK ADDRESS 0x30bc ===
  0x30bc	dec    	eax
  0x30bd	mov    	ecx, eax
  0x30bf	mov    	edx, 0xc0000409
  0x30c4	dec    	eax
  0x30c5	add    	esp, 0x20
  === BLOCK LINK ===
    0x30c8
=== CODE BLOCK END ===

=== CODE BLOCK ADDRESS 0x30c8 ===
  0x30c8	pop    	ebx
  0x30c9	dec    	eax
  0x30ca	jmp    	dword ptr [0x11a8]
  === BLOCK LINK ===
    0x30d0
=== CODE BLOCK END ===

=== CODE BLOCK ADDRESS 0x30d0 ===
  0x30d0	int3   	
  0x30d1	int3   	
  0x30d2	int3   	
  0x30d3	int3   	
  0x30d4	int3   	
  === BLOCK LINK ===
    0x30d5
=== CODE BLOCK END ===

=== CODE BLOCK ADDRESS 0x30d5 ===
  0x30d5	int3   	
  0x30d6	int3   	
  0x30d7	int3   	
  0x30d8	int3   	
  0x30d9	int3   	
  === BLOCK LINK ===
    0x30da
=== CODE BLOCK END ===

=== CODE BLOCK ADDRESS 0x30da ===
  0x30da	int3   	
  0x30db	int3   	
  0x30dc	int3   	
  0x30dd	int3   	
  0x30de	int3   	
  === BLOCK LINK ===
    0x30df
=== CODE BLOCK END ===

=== CODE BLOCK ADDRESS 0x30df ===
  0x30df	int3   	
  0x30e0	dec    	eax
  0x30e1	mov    	dword ptr [esp + 8], ecx
  0x30e5	dec    	eax
  0x30e6	sub    	esp, 0x88
  === BLOCK LINK ===
    0x30ec
=== CODE BLOCK END ===

=== CODE BLOCK ADDRESS 0x30ec ===
  0x30ec	dec    	eax
  0x30ed	lea    	ecx, [0x301d]
  0x30f3	call   	dword ptr [0x12ef]
  === BLOCK LINK ===
    0x30f9
=== CODE BLOCK END ===

=== CODE BLOCK ADDRESS 0x30f9 ===
  0x30f9	dec    	eax
  0x30fa	mov    	eax, dword ptr [0x3108]
  0x3100	dec    	eax
  0x3101	mov    	dword ptr [esp + 0x48], eax
  0x3105	inc    	ebp
  === BLOCK LINK ===
    0x3106
=== CODE BLOCK END ===

=== CODE BLOCK ADDRESS 0x3106 ===
  0x3106	xor    	eax, eax
  0x3108	dec    	eax
  0x3109	lea    	edx, [esp + 0x50]
  0x310d	dec    	eax
  0x310e	mov    	ecx, dword ptr [esp + 0x48]
  === BLOCK LINK ===
    0x3112
=== CODE BLOCK END ===

=== CODE BLOCK ADDRESS 0x3112 ===
  0x3112	call   	dword ptr [0x12d8]
  === BLOCK LINK ===
    0x3118
=== CODE BLOCK END ===

=== CODE BLOCK ADDRESS 0x3118 ===
  0x3118	dec    	eax
  0x3119	mov    	dword ptr [esp + 0x40], eax
  0x311d	dec    	eax
  0x311e	cmp    	dword ptr [esp + 0x40], 0
  0x3123	je     	0x3167
  === BLOCK LINK ===
    0x3125
=== CODE BLOCK END ===

=== CODE BLOCK ADDRESS 0x3125 ===
  0x3125	dec    	eax
  0x3126	mov    	dword ptr [esp + 0x38], 0
  0x312e	dec    	eax
  0x312f	lea    	eax, [esp + 0x58]
  0x3133	dec    	eax
  === BLOCK LINK ===
    0x3134
=== CODE BLOCK END ===

=== CODE BLOCK ADDRESS 0x3134 ===
  0x3134	mov    	dword ptr [esp + 0x30], eax
  0x3138	dec    	eax
  0x3139	lea    	eax, [esp + 0x60]
  0x313d	dec    	eax
  0x313e	mov    	dword ptr [esp + 0x28], eax
  === BLOCK LINK ===
    0x3142
=== CODE BLOCK END ===

=== CODE BLOCK ADDRESS 0x3142 ===
  0x3142	dec    	eax
  0x3143	lea    	eax, [0x2fc7]
  0x3149	dec    	eax
  0x314a	mov    	dword ptr [esp + 0x20], eax
  0x314e	dec    	esp
  === BLOCK LINK ===
    0x314f
=== CODE BLOCK END ===

=== CODE BLOCK ADDRESS 0x314f ===
  0x314f	mov    	ecx, dword ptr [esp + 0x40]
  0x3153	dec    	esp
  0x3154	mov    	eax, dword ptr [esp + 0x48]
  0x3158	dec    	eax
  0x3159	mov    	edx, dword ptr [esp + 0x50]
  === BLOCK LINK ===
    0x315d
=== CODE BLOCK END ===

=== CODE BLOCK ADDRESS 0x315d ===
  0x315d	xor    	ecx, ecx
  0x315f	call   	dword ptr [0x1293]
  === BLOCK LINK ===
    0x3165
=== CODE BLOCK END ===

=== CODE BLOCK ADDRESS 0x3165 ===
  0x3165	jmp    	0x318a
  === BLOCK LINK ===
    0x3167
=== CODE BLOCK END ===

=== CODE BLOCK ADDRESS 0x3167 ===
  0x3167	dec    	eax
  0x3168	mov    	eax, dword ptr [0x303a]
  0x316e	dec    	eax
  0x316f	mov    	eax, dword ptr [eax]
  0x3171	dec    	eax
  === BLOCK LINK ===
    0x3172
=== CODE BLOCK END ===

=== CODE BLOCK ADDRESS 0x3172 ===
  0x3172	mov    	dword ptr [0x3090], eax
  0x3178	dec    	eax
  0x3179	mov    	eax, dword ptr [0x3029]
  0x317f	dec    	eax
  0x3180	add    	eax, 8
  === BLOCK LINK ===
    0x3183
=== CODE BLOCK END ===

=== CODE BLOCK ADDRESS 0x3183 ===
  0x3183	dec    	eax
  0x3184	mov    	dword ptr [0x301e], eax
  0x318a	dec    	eax
  0x318b	mov    	eax, dword ptr [0x3077]
  0x3191	dec    	eax
  === BLOCK LINK ===
    0x3192
=== CODE BLOCK END ===

=== CODE BLOCK ADDRESS 0x3192 ===
  0x3192	mov    	dword ptr [0x2ee8], eax
  0x3198	dec    	eax
  0x3199	mov    	eax, dword ptr [esp + 0x90]
  0x31a0	dec    	eax
  0x31a1	mov    	dword ptr [0x2fe9], eax
  === BLOCK LINK ===
    0x31a7
=== CODE BLOCK END ===

=== CODE BLOCK ADDRESS 0x31a7 ===
  0x31a7	mov    	dword ptr [0x2ebf], 0xc0000409
  0x31b1	mov    	dword ptr [0x2eb9], 1
  0x31bb	mov    	dword ptr [0x2ec3], 3
  0x31c5	mov    	eax, 8
  0x31ca	dec    	eax
  === BLOCK LINK ===
    0x31cb
=== CODE BLOCK END ===

=== CODE BLOCK ADDRESS 0x31cb ===
  0x31cb	imul   	eax, eax, 0
  0x31ce	dec    	eax
  0x31cf	lea    	ecx, [0x2ebb]
  0x31d5	dec    	eax
  0x31d6	mov    	dword ptr [ecx + eax], 2
  === BLOCK LINK ===
    0x31dd
=== CODE BLOCK END ===

=== CODE BLOCK ADDRESS 0x31dd ===
  0x31dd	mov    	eax, 8
  0x31e2	dec    	eax
  0x31e3	imul   	eax, eax, 1
  0x31e6	dec    	eax
  0x31e7	lea    	ecx, [0x2ea3]
  === BLOCK LINK ===
    0x31ed
=== CODE BLOCK END ===

=== CODE BLOCK ADDRESS 0x31ed ===
  0x31ed	dec    	eax
  0x31ee	mov    	edx, dword ptr [0x2e14]
  0x31f4	dec    	eax
  0x31f5	mov    	dword ptr [ecx + eax], edx
  0x31f8	mov    	eax, 8
  === BLOCK LINK ===
    0x31fd
=== CODE BLOCK END ===

=== CODE BLOCK ADDRESS 0x31fd ===
  0x31fd	dec    	eax
  0x31fe	imul   	eax, eax, 2
  0x3201	dec    	eax
  0x3202	lea    	ecx, [0x2e88]
  0x3208	dec    	eax
  === BLOCK LINK ===
    0x3209
=== CODE BLOCK END ===

=== CODE BLOCK ADDRESS 0x3209 ===
  0x3209	mov    	edx, dword ptr [0x2e01]
  0x320f	dec    	eax
  0x3210	mov    	dword ptr [ecx + eax], edx
  0x3213	mov    	eax, 8
  0x3218	dec    	eax
  === BLOCK LINK ===
    0x3219
=== CODE BLOCK END ===

=== CODE BLOCK ADDRESS 0x3219 ===
  0x3219	imul   	eax, eax, 0
  0x321c	dec    	eax
  0x321d	mov    	ecx, dword ptr [0x2de5]
  0x3223	dec    	eax
  0x3224	mov    	dword ptr [esp + eax + 0x68], ecx
  === BLOCK LINK ===
    0x3228
=== CODE BLOCK END ===

=== CODE BLOCK ADDRESS 0x3228 ===
  0x3228	mov    	eax, 8
  0x322d	dec    	eax
  0x322e	imul   	eax, eax, 1
  0x3231	dec    	eax
  0x3232	mov    	ecx, dword ptr [0x2dd8]
  === BLOCK LINK ===
    0x3238
=== CODE BLOCK END ===

=== CODE BLOCK ADDRESS 0x3238 ===
  0x3238	dec    	eax
  0x3239	mov    	dword ptr [esp + eax + 0x68], ecx
  0x323d	dec    	eax
  0x323e	lea    	ecx, [0xdbc]
  0x3244	call   	0x309c
  === BLOCK LINK ===
    0x3249
=== CODE BLOCK END ===

=== CODE BLOCK ADDRESS 0x3249 ===
  0x3249	dec    	eax
  0x324a	add    	esp, 0x88
  0x3250	ret    	
  0x3251	int3   	
  0x3252	int3   	
  === BLOCK LINK ===
    0x3253
=== CODE BLOCK END ===

=== CODE BLOCK ADDRESS 0x3253 ===
  0x3253	int3   	
  0x3254	int3   	
  0x3255	int3   	
  0x3256	int3   	
  0x3257	int3   	
  === BLOCK LINK ===
    0x3258
=== CODE BLOCK END ===

=== CODE BLOCK ADDRESS 0x3258 ===
  0x3258	dec    	eax
  0x3259	sub    	esp, 0x78
  0x325c	dec    	eax
  0x325d	lea    	ecx, [0x2ead]
  0x3263	call   	dword ptr [0x117f]
  === BLOCK LINK ===
    0x3269
=== CODE BLOCK END ===

=== CODE BLOCK ADDRESS 0x3269 ===
  0x3269	dec    	eax
  0x326a	mov    	eax, dword ptr [0x2f98]
  0x3270	dec    	eax
  0x3271	mov    	dword ptr [esp + 0x48], eax
  0x3275	inc    	ebp
  === BLOCK LINK ===
    0x3276
=== CODE BLOCK END ===

=== CODE BLOCK ADDRESS 0x3276 ===
  0x3276	xor    	eax, eax
  0x3278	dec    	eax
  0x3279	lea    	edx, [esp + 0x50]
  0x327d	dec    	eax
  0x327e	mov    	ecx, dword ptr [esp + 0x48]
  === BLOCK LINK ===
    0x3282
=== CODE BLOCK END ===

=== CODE BLOCK ADDRESS 0x3282 ===
  0x3282	call   	dword ptr [0x1168]
  === BLOCK LINK ===
    0x3288
=== CODE BLOCK END ===

=== CODE BLOCK ADDRESS 0x3288 ===
  0x3288	dec    	eax
  0x3289	mov    	dword ptr [esp + 0x40], eax
  0x328d	dec    	eax
  0x328e	cmp    	dword ptr [esp + 0x40], 0
  0x3293	je     	0x32d7
  === BLOCK LINK ===
    0x3295
=== CODE BLOCK END ===

=== CODE BLOCK ADDRESS 0x3295 ===
  0x3295	dec    	eax
  0x3296	mov    	dword ptr [esp + 0x38], 0
  0x329e	dec    	eax
  0x329f	lea    	eax, [esp + 0x58]
  0x32a3	dec    	eax
  === BLOCK LINK ===
    0x32a4
=== CODE BLOCK END ===

=== CODE BLOCK ADDRESS 0x32a4 ===
  0x32a4	mov    	dword ptr [esp + 0x30], eax
  0x32a8	dec    	eax
  0x32a9	lea    	eax, [esp + 0x60]
  0x32ad	dec    	eax
  0x32ae	mov    	dword ptr [esp + 0x28], eax
  === BLOCK LINK ===
    0x32b2
=== CODE BLOCK END ===

=== CODE BLOCK ADDRESS 0x32b2 ===
  0x32b2	dec    	eax
  0x32b3	lea    	eax, [0x2e57]
  0x32b9	dec    	eax
  0x32ba	mov    	dword ptr [esp + 0x20], eax
  0x32be	dec    	esp
  === BLOCK LINK ===
    0x32bf
=== CODE BLOCK END ===

=== CODE BLOCK ADDRESS 0x32bf ===
  0x32bf	mov    	ecx, dword ptr [esp + 0x40]
  0x32c3	dec    	esp
  0x32c4	mov    	eax, dword ptr [esp + 0x48]
  0x32c8	dec    	eax
  0x32c9	mov    	edx, dword ptr [esp + 0x50]
  === BLOCK LINK ===
    0x32cd
=== CODE BLOCK END ===

=== CODE BLOCK ADDRESS 0x32cd ===
  0x32cd	xor    	ecx, ecx
  0x32cf	call   	dword ptr [0x1123]
  === BLOCK LINK ===
    0x32d5
=== CODE BLOCK END ===

=== CODE BLOCK ADDRESS 0x32d5 ===
  0x32d5	jmp    	0x32fa
  === BLOCK LINK ===
    0x32d7
=== CODE BLOCK END ===

=== CODE BLOCK ADDRESS 0x32d7 ===
  0x32d7	dec    	eax
  0x32d8	mov    	eax, dword ptr [0x2eca]
  0x32de	dec    	eax
  0x32df	mov    	eax, dword ptr [eax]
  0x32e1	dec    	eax
  === BLOCK LINK ===
    0x32e2
=== CODE BLOCK END ===

=== CODE BLOCK ADDRESS 0x32e2 ===
  0x32e2	mov    	dword ptr [0x2f20], eax
  0x32e8	dec    	eax
  0x32e9	mov    	eax, dword ptr [0x2eb9]
  0x32ef	dec    	eax
  0x32f0	add    	eax, 8
  === BLOCK LINK ===
    0x32f3
=== CODE BLOCK END ===

=== CODE BLOCK ADDRESS 0x32f3 ===
  0x32f3	dec    	eax
  0x32f4	mov    	dword ptr [0x2eae], eax
  0x32fa	dec    	eax
  0x32fb	mov    	eax, dword ptr [0x2f07]
  0x3301	dec    	eax
  === BLOCK LINK ===
    0x3302
=== CODE BLOCK END ===

=== CODE BLOCK ADDRESS 0x3302 ===
  0x3302	mov    	dword ptr [0x2d78], eax
  0x3308	mov    	dword ptr [0x2d5e], 0xc0000409
  0x3312	mov    	dword ptr [0x2d58], 1
  0x331c	mov    	dword ptr [0x2d62], 1
  0x3326	mov    	eax, 8
  === BLOCK LINK ===
    0x332b
=== CODE BLOCK END ===

=== CODE BLOCK ADDRESS 0x332b ===
  0x332b	dec    	eax
  0x332c	imul   	eax, eax, 0
  0x332f	dec    	eax
  0x3330	lea    	ecx, [0x2d5a]
  0x3336	dec    	eax
  === BLOCK LINK ===
    0x3337
=== CODE BLOCK END ===

=== CODE BLOCK ADDRESS 0x3337 ===
  0x3337	mov    	dword ptr [ecx + eax], 8
  0x333e	dec    	eax
  0x333f	lea    	ecx, [0xcbb]
  0x3345	call   	0x309c
  === BLOCK LINK ===
    0x334a
=== CODE BLOCK END ===

=== CODE BLOCK ADDRESS 0x334a ===
  0x334a	dec    	eax
  0x334b	add    	esp, 0x78
  0x334e	ret    	
  0x334f	int3   	
  0x3350	int3   	
  === BLOCK LINK ===
    0x3351
=== CODE BLOCK END ===

=== CODE BLOCK ADDRESS 0x149e ===
  0x149e	mov    	dword ptr [esp + 0x30], ebx
  0x14a2	jmp    	0x14c8
  === BLOCK LINK ===
    0x14a4
=== CODE BLOCK END ===

=== CODE BLOCK ADDRESS 0x3351 ===
  0x3351	int3   	
  0x3352	int3   	
  0x3353	int3   	
  0x3354	int3   	
  0x3355	int3   	
  === BLOCK LINK ===
    0x3356
=== CODE BLOCK END ===

=== CODE BLOCK ADDRESS 0x3356 ===
  0x3356	int3   	
  0x3357	int3   	
  0x3358	dec    	eax
  0x3359	sub    	esp, 0x28
  0x335c	dec    	ebp
  === BLOCK LINK ===
    0x335d
=== CODE BLOCK END ===

=== CODE BLOCK ADDRESS 0x335d ===
  0x335d	mov    	eax, dword ptr [ecx + 0x38]
  0x3360	dec    	eax
  0x3361	mov    	ecx, edx
  0x3363	dec    	ecx
  0x3364	mov    	edx, ecx
  === BLOCK LINK ===
    0x3366
=== CODE BLOCK END ===

=== CODE BLOCK ADDRESS 0x3366 ===
  0x3366	call   	0x337c
  === BLOCK LINK ===
    0x336b
=== CODE BLOCK END ===

=== CODE BLOCK ADDRESS 0x336b ===
  0x336b	mov    	eax, 1
  0x3370	dec    	eax
  0x3371	add    	esp, 0x28
  0x3374	ret    	
  0x3375	int3   	
  === BLOCK LINK ===
    0x3376
=== CODE BLOCK END ===

=== CODE BLOCK ADDRESS 0x3376 ===
  0x3376	int3   	
  0x3377	int3   	
  0x3378	int3   	
  0x3379	int3   	
  0x337a	int3   	
  === BLOCK LINK ===
    0x337b
=== CODE BLOCK END ===

=== CODE BLOCK ADDRESS 0x337b ===
  0x337b	int3   	
  0x337c	inc    	eax
  0x337d	push   	ebx
  0x337e	inc    	ebp
  0x337f	mov    	ebx, dword ptr [eax]
  === BLOCK LINK ===
    0x3381
=== CODE BLOCK END ===

=== CODE BLOCK ADDRESS 0x3381 ===
  0x3381	dec    	eax
  0x3382	mov    	ebx, edx
  0x3384	inc    	ecx
  0x3385	and    	ebx, 0xfffffff8
  0x3388	dec    	esp
  === BLOCK LINK ===
    0x3389
=== CODE BLOCK END ===

=== CODE BLOCK ADDRESS 0x3389 ===
  0x3389	mov    	ecx, ecx
  0x338b	inc    	ecx
  0x338c	test   	byte ptr [eax], 4
  0x338f	dec    	esp
  0x3390	mov    	edx, ecx
  === BLOCK LINK ===
    0x3392
=== CODE BLOCK END ===

=== CODE BLOCK ADDRESS 0x3392 ===
  0x3392	je     	0x33a7
  === BLOCK LINK ===
    0x3394
=== CODE BLOCK END ===

=== CODE BLOCK ADDRESS 0x3394 ===
  0x3394	inc    	ecx
  0x3395	mov    	eax, dword ptr [eax + 8]
  0x3398	dec    	ebp
  0x3399	arpl   	word ptr [eax + 4], dx
  0x339c	neg    	eax
  === BLOCK LINK ===
    0x339e
=== CODE BLOCK END ===

=== CODE BLOCK ADDRESS 0x339e ===
  0x339e	dec    	esp
  0x339f	add    	edx, ecx
  0x33a1	dec    	eax
  0x33a2	arpl   	ax, cx
  0x33a4	dec    	esp
  === BLOCK LINK ===
    0x33a5
=== CODE BLOCK END ===

=== CODE BLOCK ADDRESS 0x33a5 ===
  0x33a5	and    	edx, ecx
  0x33a7	dec    	ecx
  0x33a8	arpl   	bx, ax
  0x33aa	dec    	edx
  0x33ab	mov    	edx, dword ptr [eax + edx]
  === BLOCK LINK ===
    0x33ae
=== CODE BLOCK END ===

=== CODE BLOCK ADDRESS 0x33ae ===
  0x33ae	dec    	eax
  0x33af	mov    	eax, dword ptr [ebx + 0x10]
  0x33b2	mov    	ecx, dword ptr [eax + 8]
  0x33b5	dec    	eax
  0x33b6	mov    	eax, dword ptr [ebx + 8]
  === BLOCK LINK ===
    0x33b9
=== CODE BLOCK END ===

=== CODE BLOCK ADDRESS 0x33b9 ===
  0x33b9	test   	byte ptr [ecx + eax + 3], 0xf
  0x33be	je     	0x33cb
  === BLOCK LINK ===
    0x33c0
=== CODE BLOCK END ===

=== CODE BLOCK ADDRESS 0x33c0 ===
  0x33c0	movzx  	eax, byte ptr [ecx + eax + 3]
  0x33c5	and    	eax, 0xfffffff0
  0x33c8	dec    	esp
  0x33c9	add    	ecx, eax
  0x33cb	dec    	esp
  === BLOCK LINK ===
    0x33cc
=== CODE BLOCK END ===

=== CODE BLOCK ADDRESS 0x33cc ===
  0x33cc	xor    	ecx, edx
  0x33ce	dec    	ecx
  0x33cf	mov    	ecx, ecx
  0x33d1	pop    	ebx
  0x33d2	jmp    	0x2d60
  === BLOCK LINK ===
    0x33d7
=== CODE BLOCK END ===

=== CODE BLOCK ADDRESS 0x33d7 ===
  0x33d7	int3   	
  0x33d8	int3   	
  0x33d9	int3   	
  0x33da	int3   	
  0x33db	int3   	
  === BLOCK LINK ===
    0x33dc
=== CODE BLOCK END ===

=== CODE BLOCK ADDRESS 0x33dc ===
  0x33dc	int3   	
  0x33dd	jmp    	dword ptr [0xfbd]
  === BLOCK LINK ===
    0x33e3
=== CODE BLOCK END ===

=== CODE BLOCK ADDRESS 0x33e3 ===
  0x33e3	int3   	
  0x33e4	int3   	
  0x33e5	int3   	
  0x33e6	int3   	
  0x33e7	int3   	
  === BLOCK LINK ===
    0x33e8
=== CODE BLOCK END ===

=== CODE BLOCK ADDRESS 0x33e8 ===
  0x33e8	int3   	
  0x33e9	int3   	
  0x33ea	int3   	
  0x33eb	int3   	
  0x33ec	int3   	
  === BLOCK LINK ===
    0x33ed
=== CODE BLOCK END ===

=== CODE BLOCK ADDRESS 0x33ed ===
  0x33ed	int3   	
  0x33ee	int3   	
  0x33ef	int3   	
  0x33f0	int3   	
  0x33f1	int3   	
  === BLOCK LINK ===
    0x33f2
=== CODE BLOCK END ===

=== CODE BLOCK ADDRESS 0x33f2 ===
  0x33f2	int3   	
  0x33f3	int3   	
  0x33f4	int3   	
  0x33f5	int3   	
  0x33f6	nop    	word ptr [eax + eax]
  === BLOCK LINK ===
    0x3400
=== CODE BLOCK END ===

=== CODE BLOCK ADDRESS 0x3400 ===
  0x3400	jmp    	eax
  === BLOCK LINK ===
    0x3402
=== CODE BLOCK END ===

=== CODE BLOCK ADDRESS 0x3402 ===
  0x3402	int3   	
  0x3403	int3   	
  0x3404	int3   	
  0x3405	int3   	
  0x3406	int3   	
  === BLOCK LINK ===
    0x3407
=== CODE BLOCK END ===

=== CODE BLOCK ADDRESS 0x3407 ===
  0x3407	int3   	
  0x3408	int3   	
  0x3409	int3   	
  0x340a	int3   	
  0x340b	int3   	
  === BLOCK LINK ===
    0x340c
=== CODE BLOCK END ===

=== CODE BLOCK ADDRESS 0x340c ===
  0x340c	int3   	
  0x340d	int3   	
  0x340e	int3   	
  0x340f	int3   	
  0x3410	inc    	eax
  === BLOCK LINK ===
    0x3411
=== CODE BLOCK END ===

=== CODE BLOCK ADDRESS 0x3411 ===
  0x3411	push   	ebp
  0x3412	dec    	eax
  0x3413	sub    	esp, 0x20
  0x3416	dec    	eax
  0x3417	mov    	ebp, edx
  === BLOCK LINK ===
    0x3419
=== CODE BLOCK END ===

=== CODE BLOCK ADDRESS 0x3419 ===
  0x3419	dec    	eax
  0x341a	mov    	dword ptr [ebp + 0x38], ecx
  0x341d	dec    	eax
  0x341e	mov    	eax, dword ptr [ecx]
  0x3420	mov    	ecx, dword ptr [eax]
  === BLOCK LINK ===
    0x3422
=== CODE BLOCK END ===

=== CODE BLOCK ADDRESS 0x3422 ===
  0x3422	mov    	dword ptr [ebp + 0x30], ecx
  0x3425	mov    	dword ptr [ebp + 0x20], ecx
  0x3428	mov    	eax, dword ptr [ebp + 0x20]
  0x342b	cmp    	eax, 0xe0000300
  0x3430	je     	0x3445
  === BLOCK LINK ===
    0x3432
=== CODE BLOCK END ===

=== CODE BLOCK ADDRESS 0x3432 ===
  0x3432	mov    	eax, dword ptr [ebp + 0x20]
  0x3435	cmp    	eax, 0xc0000194
  0x343a	je     	0x3445
  === BLOCK LINK ===
    0x343c
=== CODE BLOCK END ===

=== CODE BLOCK ADDRESS 0x343c ===
  0x343c	mov    	dword ptr [ebp + 0x28], 1
  0x3443	jmp    	0x344c
  === BLOCK LINK ===
    0x3445
=== CODE BLOCK END ===

=== CODE BLOCK ADDRESS 0x3445 ===
  0x3445	mov    	dword ptr [ebp + 0x28], 0
  0x344c	mov    	eax, dword ptr [ebp + 0x28]
  0x344f	dec    	eax
  0x3450	add    	esp, 0x20
  0x3453	pop    	ebp
  === BLOCK LINK ===
    0x3454
=== CODE BLOCK END ===

=== CODE BLOCK ADDRESS 0x3454 ===
  0x3454	ret    	
  0x3455	int3   	
  0x3456	int3   	
  0x3457	int3   	
  0x3458	int3   	
  === BLOCK LINK ===
    0x3459
=== CODE BLOCK END ===

=== CODE BLOCK ADDRESS 0x3459 ===
  0x3459	int3   	
  0x345a	int3   	
  0x345b	int3   	
  0x345c	inc    	eax
  0x345d	push   	ebp
  === BLOCK LINK ===
    0x345e
=== CODE BLOCK END ===

=== CODE BLOCK ADDRESS 0x345e ===
  0x345e	dec    	eax
  0x345f	sub    	esp, 0x20
  0x3462	dec    	eax
  0x3463	mov    	ebp, edx
  0x3465	dec    	eax
  === BLOCK LINK ===
    0x3466
=== CODE BLOCK END ===

=== CODE BLOCK ADDRESS 0x3466 ===
  0x3466	mov    	eax, dword ptr [ecx]
  0x3468	dec    	eax
  0x3469	mov    	edx, ecx
  0x346b	mov    	ecx, dword ptr [eax]
  0x346d	call   	0x2dee
  === BLOCK LINK ===
    0x3472
=== CODE BLOCK END ===

=== CODE BLOCK ADDRESS 0x3472 ===
  0x3472	nop    	
  0x3473	dec    	eax
  0x3474	add    	esp, 0x20
  0x3477	pop    	ebp
  0x3478	ret    	
  === BLOCK LINK ===
    0x3479
=== CODE BLOCK END ===

=== CODE BLOCK ADDRESS 0x1150 ===
  0x1150	dec    	eax
  0x1151	mov    	dword ptr [esp + 8], ebx
  === BLOCK LINK ===
    0x1155
=== CODE BLOCK END ===

=== CODE BLOCK ADDRESS 0x3479 ===
  0x3479	int3   	
  0x347a	int3   	
  0x347b	int3   	
  0x347c	int3   	
  0x347d	int3   	
  === BLOCK LINK ===
    0x347e
=== CODE BLOCK END ===

=== CODE BLOCK ADDRESS 0x347e ===
  0x347e	int3   	
  0x347f	int3   	
  0x3480	inc    	eax
  0x3481	push   	ebp
  0x3482	dec    	eax
  === BLOCK LINK ===
    0x3483
=== CODE BLOCK END ===

=== CODE BLOCK ADDRESS 0x3483 ===
  0x3483	sub    	esp, 0x20
  0x3486	dec    	eax
  0x3487	mov    	ebp, edx
  0x3489	dec    	eax
  0x348a	mov    	eax, dword ptr [ecx]
  === BLOCK LINK ===
    0x348c
=== CODE BLOCK END ===

=== CODE BLOCK ADDRESS 0x348c ===
  0x348c	xor    	ecx, ecx
  0x348e	cmp    	dword ptr [eax], 0xc0000005
  0x3494	sete   	cl
  0x3497	mov    	eax, ecx
  0x3499	dec    	eax
  === BLOCK LINK ===
    0x349a
=== CODE BLOCK END ===

=== CODE BLOCK ADDRESS 0x349a ===
  0x349a	add    	esp, 0x20
  0x349d	pop    	ebp
  0x349e	ret    	
  0x349f	int3   	
  0x34a0	add    	byte ptr [eax], al
  === BLOCK LINK ===
    0x34a2
=== CODE BLOCK END ===

=== CODE BLOCK ADDRESS 0x14a2 ===
=== CODE BLOCK END ===

=== CODE BLOCK ADDRESS 0x34a2 ===
  0x34a2	add    	byte ptr [eax], al
  0x34a4	add    	byte ptr [eax], al
  0x34a6	add    	byte ptr [eax], al
  0x34a8	add    	byte ptr [eax], al
  0x34aa	add    	byte ptr [eax], al
  === BLOCK LINK ===
    0x34ac
=== CODE BLOCK END ===

=== CODE BLOCK ADDRESS 0x34ac ===
  0x34ac	add    	byte ptr [eax], al
  0x34ae	add    	byte ptr [eax], al
  0x34b0	add    	byte ptr [eax], al
  0x34b2	add    	byte ptr [eax], al
  0x34b4	add    	byte ptr [eax], al
  === BLOCK LINK ===
    0x34b6
=== CODE BLOCK END ===

=== CODE BLOCK ADDRESS 0x34b6 ===
  0x34b6	add    	byte ptr [eax], al
  0x34b8	add    	byte ptr [eax], al
  0x34ba	add    	byte ptr [eax], al
  0x34bc	add    	byte ptr [eax], al
  0x34be	add    	byte ptr [eax], al
  === BLOCK LINK ===
    0x34c0
=== CODE BLOCK END ===

=== CODE BLOCK ADDRESS 0x34c0 ===
  0x34c0	add    	byte ptr [eax], al
  0x34c2	add    	byte ptr [eax], al
  0x34c4	add    	byte ptr [eax], al
  0x34c6	add    	byte ptr [eax], al
  0x34c8	add    	byte ptr [eax], al
  === BLOCK LINK ===
    0x34ca
=== CODE BLOCK END ===

=== CODE BLOCK ADDRESS 0x34ca ===
  0x34ca	add    	byte ptr [eax], al
  0x34cc	add    	byte ptr [eax], al
  0x34ce	add    	byte ptr [eax], al
  0x34d0	add    	byte ptr [eax], al
  0x34d2	add    	byte ptr [eax], al
  === BLOCK LINK ===
    0x34d4
=== CODE BLOCK END ===

=== CODE BLOCK ADDRESS 0x34d4 ===
  0x34d4	add    	byte ptr [eax], al
  0x34d6	add    	byte ptr [eax], al
  0x34d8	add    	byte ptr [eax], al
  0x34da	add    	byte ptr [eax], al
  0x34dc	add    	byte ptr [eax], al
  === BLOCK LINK ===
    0x34de
=== CODE BLOCK END ===

=== CODE BLOCK ADDRESS 0x34de ===
  0x34de	add    	byte ptr [eax], al
  0x34e0	add    	byte ptr [eax], al
  0x34e2	add    	byte ptr [eax], al
  0x34e4	add    	byte ptr [eax], al
  0x34e6	add    	byte ptr [eax], al
  === BLOCK LINK ===
    0x34e8
=== CODE BLOCK END ===

=== CODE BLOCK ADDRESS 0x34e8 ===
  0x34e8	add    	byte ptr [eax], al
  0x34ea	add    	byte ptr [eax], al
  0x34ec	add    	byte ptr [eax], al
  0x34ee	add    	byte ptr [eax], al
  0x34f0	add    	byte ptr [eax], al
  === BLOCK LINK ===
    0x34f2
=== CODE BLOCK END ===

=== CODE BLOCK ADDRESS 0x34f2 ===
  0x34f2	add    	byte ptr [eax], al
  0x34f4	add    	byte ptr [eax], al
  0x34f6	add    	byte ptr [eax], al
  0x34f8	add    	byte ptr [eax], al
  0x34fa	add    	byte ptr [eax], al
  === BLOCK LINK ===
    0x34fc
=== CODE BLOCK END ===

=== CODE BLOCK ADDRESS 0x34fc ===
  0x34fc	add    	byte ptr [eax], al
  0x34fe	add    	byte ptr [eax], al
  0x3500	add    	byte ptr [eax], al
  0x3502	add    	byte ptr [eax], al
  0x3504	add    	byte ptr [eax], al
  === BLOCK LINK ===
    0x3506
=== CODE BLOCK END ===

=== CODE BLOCK ADDRESS 0x3506 ===
  0x3506	add    	byte ptr [eax], al
  0x3508	add    	byte ptr [eax], al
  0x350a	add    	byte ptr [eax], al
  0x350c	add    	byte ptr [eax], al
  0x350e	add    	byte ptr [eax], al
  === BLOCK LINK ===
    0x3510
=== CODE BLOCK END ===

=== CODE BLOCK ADDRESS 0x3510 ===
  0x3510	add    	byte ptr [eax], al
  0x3512	add    	byte ptr [eax], al
  0x3514	add    	byte ptr [eax], al
  0x3516	add    	byte ptr [eax], al
  0x3518	add    	byte ptr [eax], al
  === BLOCK LINK ===
    0x351a
=== CODE BLOCK END ===

=== CODE BLOCK ADDRESS 0x351a ===
  0x351a	add    	byte ptr [eax], al
  0x351c	add    	byte ptr [eax], al
  0x351e	add    	byte ptr [eax], al
  0x3520	add    	byte ptr [eax], al
  0x3522	add    	byte ptr [eax], al
  === BLOCK LINK ===
    0x3524
=== CODE BLOCK END ===

=== CODE BLOCK ADDRESS 0x3524 ===
  0x3524	add    	byte ptr [eax], al
  0x3526	add    	byte ptr [eax], al
  0x3528	add    	byte ptr [eax], al
  0x352a	add    	byte ptr [eax], al
  0x352c	add    	byte ptr [eax], al
  === BLOCK LINK ===
    0x352e
=== CODE BLOCK END ===

=== CODE BLOCK ADDRESS 0x352e ===
  0x352e	add    	byte ptr [eax], al
  0x3530	add    	byte ptr [eax], al
  0x3532	add    	byte ptr [eax], al
  0x3534	add    	byte ptr [eax], al
  0x3536	add    	byte ptr [eax], al
  === BLOCK LINK ===
    0x3538
=== CODE BLOCK END ===

=== CODE BLOCK ADDRESS 0x3538 ===
  0x3538	add    	byte ptr [eax], al
  0x353a	add    	byte ptr [eax], al
  0x353c	add    	byte ptr [eax], al
  0x353e	add    	byte ptr [eax], al
  0x3540	add    	byte ptr [eax], al
  === BLOCK LINK ===
    0x3542
=== CODE BLOCK END ===

=== CODE BLOCK ADDRESS 0x3542 ===
  0x3542	add    	byte ptr [eax], al
  0x3544	add    	byte ptr [eax], al
  0x3546	add    	byte ptr [eax], al
  0x3548	add    	byte ptr [eax], al
  0x354a	add    	byte ptr [eax], al
  === BLOCK LINK ===
    0x354c
=== CODE BLOCK END ===

=== CODE BLOCK ADDRESS 0x354c ===
  0x354c	add    	byte ptr [eax], al
  0x354e	add    	byte ptr [eax], al
  0x3550	add    	byte ptr [eax], al
  0x3552	add    	byte ptr [eax], al
  0x3554	add    	byte ptr [eax], al
  === BLOCK LINK ===
    0x3556
=== CODE BLOCK END ===

=== CODE BLOCK ADDRESS 0x3556 ===
  0x3556	add    	byte ptr [eax], al
  0x3558	add    	byte ptr [eax], al
  0x355a	add    	byte ptr [eax], al
  0x355c	add    	byte ptr [eax], al
  0x355e	add    	byte ptr [eax], al
  === BLOCK LINK ===
    0x3560
=== CODE BLOCK END ===

=== CODE BLOCK ADDRESS 0x3560 ===
  0x3560	add    	byte ptr [eax], al
  0x3562	add    	byte ptr [eax], al
  0x3564	add    	byte ptr [eax], al
  0x3566	add    	byte ptr [eax], al
  0x3568	add    	byte ptr [eax], al
  === BLOCK LINK ===
    0x356a
=== CODE BLOCK END ===

=== CODE BLOCK ADDRESS 0x356a ===
  0x356a	add    	byte ptr [eax], al
  0x356c	add    	byte ptr [eax], al
  0x356e	add    	byte ptr [eax], al
  0x3570	add    	byte ptr [eax], al
  0x3572	add    	byte ptr [eax], al
  === BLOCK LINK ===
    0x3574
=== CODE BLOCK END ===

=== CODE BLOCK ADDRESS 0x3574 ===
  0x3574	add    	byte ptr [eax], al
  0x3576	add    	byte ptr [eax], al
  0x3578	add    	byte ptr [eax], al
  0x357a	add    	byte ptr [eax], al
  0x357c	add    	byte ptr [eax], al
  === BLOCK LINK ===
    0x357e
=== CODE BLOCK END ===

=== CODE BLOCK ADDRESS 0x357e ===
  0x357e	add    	byte ptr [eax], al
  0x3580	add    	byte ptr [eax], al
  0x3582	add    	byte ptr [eax], al
  0x3584	add    	byte ptr [eax], al
  0x3586	add    	byte ptr [eax], al
  === BLOCK LINK ===
    0x3588
=== CODE BLOCK END ===

=== CODE BLOCK ADDRESS 0x3588 ===
  0x3588	add    	byte ptr [eax], al
  0x358a	add    	byte ptr [eax], al
  0x358c	add    	byte ptr [eax], al
  0x358e	add    	byte ptr [eax], al
  0x3590	add    	byte ptr [eax], al
  === BLOCK LINK ===
    0x3592
=== CODE BLOCK END ===

=== CODE BLOCK ADDRESS 0x3592 ===
  0x3592	add    	byte ptr [eax], al
  0x3594	add    	byte ptr [eax], al
  0x3596	add    	byte ptr [eax], al
  0x3598	add    	byte ptr [eax], al
  0x359a	add    	byte ptr [eax], al
  === BLOCK LINK ===
    0x359c
=== CODE BLOCK END ===

=== CODE BLOCK ADDRESS 0x359c ===
  0x359c	add    	byte ptr [eax], al
  0x359e	add    	byte ptr [eax], al
  0x35a0	add    	byte ptr [eax], al
  0x35a2	add    	byte ptr [eax], al
  0x35a4	add    	byte ptr [eax], al
  === BLOCK LINK ===
    0x35a6
=== CODE BLOCK END ===

=== CODE BLOCK ADDRESS 0x35a6 ===
  0x35a6	add    	byte ptr [eax], al
  0x35a8	add    	byte ptr [eax], al
  0x35aa	add    	byte ptr [eax], al
  0x35ac	add    	byte ptr [eax], al
  0x35ae	add    	byte ptr [eax], al
  === BLOCK LINK ===
    0x35b0
=== CODE BLOCK END ===

=== CODE BLOCK ADDRESS 0x35b0 ===
  0x35b0	add    	byte ptr [eax], al
  0x35b2	add    	byte ptr [eax], al
  0x35b4	add    	byte ptr [eax], al
  0x35b6	add    	byte ptr [eax], al
  0x35b8	add    	byte ptr [eax], al
  === BLOCK LINK ===
    0x35ba
=== CODE BLOCK END ===

=== CODE BLOCK ADDRESS 0x35ba ===
  0x35ba	add    	byte ptr [eax], al
  0x35bc	add    	byte ptr [eax], al
  0x35be	add    	byte ptr [eax], al
  0x35c0	add    	byte ptr [eax], al
  0x35c2	add    	byte ptr [eax], al
  === BLOCK LINK ===
    0x35c4
=== CODE BLOCK END ===

=== CODE BLOCK ADDRESS 0x35c4 ===
  0x35c4	add    	byte ptr [eax], al
  0x35c6	add    	byte ptr [eax], al
  0x35c8	add    	byte ptr [eax], al
  0x35ca	add    	byte ptr [eax], al
  0x35cc	add    	byte ptr [eax], al
  === BLOCK LINK ===
    0x35ce
=== CODE BLOCK END ===

=== CODE BLOCK ADDRESS 0x35ce ===
  0x35ce	add    	byte ptr [eax], al
  0x35d0	add    	byte ptr [eax], al
  0x35d2	add    	byte ptr [eax], al
  0x35d4	add    	byte ptr [eax], al
  0x35d6	add    	byte ptr [eax], al
  === BLOCK LINK ===
    0x35d8
=== CODE BLOCK END ===

=== CODE BLOCK ADDRESS 0x35d8 ===
  0x35d8	add    	byte ptr [eax], al
  0x35da	add    	byte ptr [eax], al
  0x35dc	add    	byte ptr [eax], al
  0x35de	add    	byte ptr [eax], al
  0x35e0	add    	byte ptr [eax], al
  === BLOCK LINK ===
    0x35e2
=== CODE BLOCK END ===

=== CODE BLOCK ADDRESS 0x35e2 ===
  0x35e2	add    	byte ptr [eax], al
  0x35e4	add    	byte ptr [eax], al
  0x35e6	add    	byte ptr [eax], al
  0x35e8	add    	byte ptr [eax], al
  0x35ea	add    	byte ptr [eax], al
  === BLOCK LINK ===
    0x35ec
=== CODE BLOCK END ===

=== CODE BLOCK ADDRESS 0x35ec ===
  0x35ec	add    	byte ptr [eax], al
  0x35ee	add    	byte ptr [eax], al
  0x35f0	add    	byte ptr [eax], al
  0x35f2	add    	byte ptr [eax], al
  0x35f4	add    	byte ptr [eax], al
  === BLOCK LINK ===
    0x35f6
=== CODE BLOCK END ===

=== CODE BLOCK ADDRESS 0x35f6 ===
  0x35f6	add    	byte ptr [eax], al
  0x35f8	add    	byte ptr [eax], al
  0x35fa	add    	byte ptr [eax], al
  0x35fc	add    	byte ptr [eax], al
=== CODE BLOCK END ===

=== DATA BLOCK ADDRESS 0x4000 ===
  0x4000	70 60 00 40 01 00 00 00 10 61 00 40 01 00 00 00 	p`0@00000a0@0000
  0x4010	18 01 00 00 00 00 00 00 00 00 00 00 00 00 00 00 	0000000000000000
  0x4020	00 00 00 00 00 00 00 00 00 00 00 00 00 00 00 00 	0000000000000000
  0x4030	00 00 00 00 00 00 00 00 00 00 00 00 00 00 00 00 	0000000000000000
  0x4040	00 00 00 00 00 00 00 00 00 00 00 00 00 00 00 00 	0000000000000000
  0x4050	00 00 00 00 00 00 00 00 00 00 00 00 00 00 00 00 	0000000000000000
  0x4060	00 00 00 00 00 00 00 00 08 60 00 40 01 00 00 00 	000000000`0@0000
  0x4070	00 00 00 00 00 00 00 00 00 00 00 00 00 00 00 00 	0000000000000000
  0x4080	08 44 00 40 01 00 00 00 10 44 00 40 01 00 00 00 	0D0@00000D0@0000
  0x4090	64 44 00 40 01 00 00 00 09 00 00 00 00 00 00 00 	dD0@000000000000
  0x40a0	00 75 41 00 00 00 00 00 00 00 00 00 00 00 00 00 	0uA0000000000000
  0x40b0	00 00 00 00 00 00 00 00 00 00 00 00 00 00 00 00 	0000000000000000
  0x40c0	00 00 00 00 00 00 00 00 00 00 00 00 00 00 00 00 	0000000000000000
  0x40d0	00 00 00 00 00 00 00 00 00 00 00 00 00 00 00 00 	0000000000000000
  0x40e0	00 00 00 00 00 00 00 00 00 00 00 00 00 00 00 00 	0000000000000000
  0x40f0	00 00 00 00 00 00 00 00 00 00 00 00 00 00 00 00 	0000000000000000
  0x4100	00 00 00 00 00 00 00 00 00 00 00 00 00 00 00 00 	0000000000000000
  0x4110	00 00 00 00 00 00 00 00 50 44 00 40 01 00 00 00 	00000000PD0@0000
  0x4120	05 00 00 00 00 00 00 00 76 56 00 00 00 00 00 00 	00000000vV000000
  0x4130	8e 56 00 00 00 00 00 00 9a 56 00 00 00 00 00 00 	0V0000000V000000
  0x4140	b6 56 00 00 00 00 00 00 4c 57 00 00 00 00 00 00 	0V000000LW000000
  0x4150	40 57 00 00 00 00 00 00 34 57 00 00 00 00 00 00 	@W0000004W000000
  0x4160	20 57 00 00 00 00 00 00 0a 57 00 00 00 00 00 00 	 W0000000W000000
  0x4170	f6 56 00 00 00 00 00 00 c6 56 00 00 00 00 00 00 	0V0000000V000000
  0x4180	e4 56 00 00 00 00 00 00 66 56 00 00 00 00 00 00 	0V000000fV000000
  0x4190	00 00 00 00 00 00 00 00 44 56 00 00 00 00 00 00 	00000000DV000000
  0x41a0	00 00 00 00 00 00 00 00 4c 51 00 00 00 00 00 00 	00000000LQ000000
  0x41b0	60 51 00 00 00 00 00 00 70 51 00 00 00 00 00 00 	`Q000000pQ000000
  0x41c0	38 51 00 00 00 00 00 00 00 00 00 00 00 00 00 00 	8Q00000000000000
  0x41d0	6a 53 00 00 00 00 00 00 7c 53 00 00 00 00 00 00 	jS000000|S000000
  0x41e0	90 53 00 00 00 00 00 00 00 00 00 00 00 00 00 00 	0S00000000000000
  0x41f0	5e 54 00 00 00 00 00 00 e8 52 00 00 00 00 00 00 	^T0000000R000000
  0x4200	bc 53 00 00 00 00 00 00 00 00 00 00 00 00 00 00 	0S00000000000000
  0x4210	f8 52 00 00 00 00 00 00 00 00 00 00 00 00 00 00 	0R00000000000000
  0x4220	26 53 00 00 00 00 00 00 00 00 00 00 00 00 00 00 	&S00000000000000
  0x4230	3c 53 00 00 00 00 00 00 da 53 00 00 00 00 00 00 	<S0000000S000000
  0x4240	5c 53 00 00 00 00 00 00 00 00 00 00 00 00 00 00 	0S00000000000000
  0x4250	06 53 00 00 00 00 00 00 00 00 00 00 00 00 00 00 	0S00000000000000
  0x4260	d6 52 00 00 00 00 00 00 00 00 00 00 00 00 00 00 	0R00000000000000
  0x4270	7a 54 00 00 00 00 00 00 8e 54 00 00 00 00 00 00 	zT0000000T000000
  0x4280	aa 53 00 00 00 00 00 00 1e 54 00 00 00 00 00 00 	0S0000000T000000
  0x4290	4e 53 00 00 00 00 00 00 08 54 00 00 00 00 00 00 	NS0000000T000000
  0x42a0	16 53 00 00 00 00 00 00 00 00 00 00 00 00 00 00 	0S00000000000000
  0x42b0	ee 53 00 00 00 00 00 00 00 00 00 00 00 00 00 00 	0S00000000000000
  0x42c0	a2 53 00 00 00 00 00 00 00 00 00 00 00 00 00 00 	0S00000000000000
  0x42d0	34 54 00 00 00 00 00 00 4e 54 00 00 00 00 00 00 	4T000000NT000000
  0x42e0	00 00 00 00 00 00 00 00 3a 58 00 00 00 00 00 00 	00000000:X000000
  0x42f0	06 58 00 00 00 00 00 00 22 58 00 00 00 00 00 00 	0X000000"X000000
  0x4300	00 00 00 00 00 00 00 00 c8 51 00 00 00 00 00 00 	000000000Q000000
  0x4310	ba 51 00 00 00 00 00 00 ac 51 00 00 00 00 00 00 	0Q0000000Q000000
  0x4320	a2 51 00 00 00 00 00 00 8a 51 00 00 00 00 00 00 	0Q0000000Q000000
  0x4330	26 52 00 00 00 00 00 00 6c 57 00 00 00 00 00 00 	&R000000lW000000
  0x4340	7c 57 00 00 00 00 00 00 d8 51 00 00 00 00 00 00 	|W0000000Q000000
  0x4350	ea 51 00 00 00 00 00 00 f2 51 00 00 00 00 00 00 	0Q0000000Q000000
  0x4360	32 52 00 00 00 00 00 00 3c 52 00 00 00 00 00 00 	2R000000<R000000
  0x4370	46 52 00 00 00 00 00 00 5e 52 00 00 00 00 00 00 	FR000000^R000000
  0x4380	fa 51 00 00 00 00 00 00 04 52 00 00 00 00 00 00 	0Q0000000R000000
  0x4390	86 57 00 00 00 00 00 00 12 52 00 00 00 00 00 00 	0W0000000R000000
  0x43a0	68 58 00 00 00 00 00 00 00 00 00 00 00 00 00 00 	hX00000000000000
  0x43b0	f4 57 00 00 00 00 00 00 e8 57 00 00 00 00 00 00 	0W0000000W000000
  0x43c0	d0 57 00 00 00 00 00 00 c6 57 00 00 00 00 00 00 	0W0000000W000000
  0x43d0	ae 57 00 00 00 00 00 00 90 57 00 00 00 00 00 00 	0W0000000W000000
  0x43e0	72 52 00 00 00 00 00 00 8a 52 00 00 00 00 00 00 	rR0000000R000000
  0x43f0	9e 52 00 00 00 00 00 00 b8 52 00 00 00 00 00 00 	0R0000000R000000
  0x4400	00 00 00 00 00 00 00 00 90 30 00 40 01 00 00 00 	00000000000@0000
  0x4410	00 34 00 40 01 00 00 00 00 00 00 00 00 00 00 00 	040@000000000000
  0x4420	90 2a 00 40 01 00 00 00 00 00 00 00 00 00 00 00 	0*0@000000000000
  0x4430	00 00 00 00 00 00 00 00 b0 29 00 40 01 00 00 00 	000000000)0@0000
  0x4440	d0 2d 00 40 01 00 00 00 00 00 00 00 00 00 00 00 	0-0@000000000000
  0x4450	a4 14 00 00 a4 24 00 00 f7 2c 00 00 42 2e 00 00 	00000$000,00B.00
  0x4460	50 2f 00 00 e0 11 00 00 b0 29 00 00 90 2a 00 00 	P/0000000)000*00
  0x4470	e0 2a 00 00 90 2d 00 00 d0 2d 00 00 b0 2e 00 00 	0*000-000-000.00
  0x4480	90 30 00 00 e0 30 00 00 00 00 00 00 00 00 00 00 	0000000000000000
  0x4490	6e 00 65 00 77 00 64 00 65 00 76 00 2e 00 64 00 	n0e0w0d0e0v0.0d0
  0x44a0	6c 00 6c 00 00 00 00 00 53 65 74 49 6e 74 65 72 	l0l00000SetInter
  0x44b0	6e 65 74 50 6f 6c 69 63 69 65 73 00 00 00 00 00 	netPolicies00000
  0x44c0	25 00 6c 00 78 00 00 00 70 44 69 52 75 6e 46 69 	%0l0x000pDiRunFi
  0x44d0	6e 69 73 68 49 6e 73 74 61 6c 6c 4f 70 65 72 61 	nishInstallOpera
  0x44e0	74 69 6f 6e 73 00 00 00 30 52 78 e4 43 0e dc 47 	tions0000Rx0C00G
  0x44f0	82 6a 07 db c3 aa 63 d8 3d 7e 14 46 80 03 0d 45 	0j0000c0=~0F000E
  0x4500	b4 8e cc a7 f7 7d 1c 69 00 00 00 00 00 00 00 00 	00000}0i00000000
  0x4510	53 00 6f 00 66 00 74 00 77 00 61 00 72 00 65 00 	S0o0f0t0w0a0r0e0
  0x4520	5c 00 4d 00 69 00 63 00 72 00 6f 00 73 00 6f 00 	00M0i0c0r0o0s0o0
  0x4530	66 00 74 00 5c 00 57 00 69 00 6e 00 64 00 6f 00 	f0t000W0i0n0d0o0
  0x4540	77 00 73 00 5c 00 43 00 75 00 72 00 72 00 65 00 	w0s000C0u0r0r0e0
  0x4550	6e 00 74 00 56 00 65 00 72 00 73 00 69 00 6f 00 	n0t0V0e0r0s0i0o0
  0x4560	6e 00 5c 00 53 00 65 00 74 00 75 00 70 00 00 00 	n000S0e0t0u0p000
  0x4570	53 00 65 00 74 00 75 00 70 00 4f 00 76 00 65 00 	S0e0t0u0p0O0v0e0
  0x4580	72 00 72 00 69 00 64 00 65 00 00 00 00 00 00 00 	r0r0i0d0e0000000
  0x4590	4c 00 6f 00 67 00 50 00 61 00 74 00 68 00 00 00 	L0o0g0P0a0t0h000
  0x45a0	73 00 65 00 74 00 75 00 70 00 61 00 70 00 69 00 	s0e0t0u0p0a0p0i0
  0x45b0	2e 00 64 00 65 00 76 00 2e 00 6c 00 6f 00 67 00 	.0d0e0v0.0l0o0g0
  0x45c0	00 00 00 00 00 00 00 00 49 00 4e 00 46 00 00 00 	00000000I0N0F000
  0x45d0	5c 00 52 00 45 00 47 00 49 00 53 00 54 00 52 00 	00R0E0G0I0S0T0R0
  0x45e0	59 00 5c 00 4d 00 41 00 43 00 48 00 49 00 4e 00 	Y000M0A0C0H0I0N0
  0x45f0	45 00 00 00 00 00 00 00 00 00 00 00 00 00 00 00 	E000000000000000
  0x4600	5c 00 52 00 45 00 47 00 49 00 53 00 54 00 52 00 	00R0E0G0I0S0T0R0
  0x4610	59 00 5c 00 4d 00 41 00 43 00 48 00 49 00 4e 00 	Y000M0A0C0H0I0N0
  0x4620	45 00 5c 00 53 00 4f 00 46 00 54 00 57 00 41 00 	E000S0O0F0T0W0A0
  0x4630	52 00 45 00 5c 00 43 00 6c 00 61 00 73 00 73 00 	R0E000C0l0a0s0s0
  0x4640	65 00 73 00 00 00 00 00 5c 00 52 00 45 00 47 00 	e0s0000000R0E0G0
  0x4650	49 00 53 00 54 00 52 00 59 00 5c 00 55 00 53 00 	I0S0T0R0Y000U0S0
  0x4660	45 00 52 00 00 00 00 00 00 00 00 00 00 00 00 00 	E0R0000000000000
  0x4670	5c 00 52 00 45 00 47 00 49 00 53 00 54 00 52 00 	00R0E0G0I0S0T0R0
  0x4680	59 00 5c 00 4d 00 41 00 43 00 48 00 49 00 4e 00 	Y000M0A0C0H0I0N0
  0x4690	45 00 5c 00 53 00 59 00 53 00 54 00 45 00 4d 00 	E000S0Y0S0T0E0M0
  0x46a0	5c 00 43 00 75 00 72 00 72 00 65 00 6e 00 74 00 	00C0u0r0r0e0n0t0
  0x46b0	43 00 6f 00 6e 00 74 00 72 00 6f 00 6c 00 53 00 	C0o0n0t0r0o0l0S0
  0x46c0	65 00 74 00 5c 00 48 00 61 00 72 00 64 00 77 00 	e0t000H0a0r0d0w0
  0x46d0	61 00 72 00 65 00 20 00 50 00 72 00 6f 00 66 00 	a0r0e0 0P0r0o0f0
  0x46e0	69 00 6c 00 65 00 73 00 5c 00 43 00 75 00 72 00 	i0l0e0s000C0u0r0
  0x46f0	72 00 65 00 6e 00 74 00 00 00 00 00 00 00 00 00 	r0e0n0t000000000
  0x4700	73 00 65 00 74 00 75 00 70 00 61 00 70 00 69 00 	s0e0t0u0p0a0p0i0
  0x4710	2e 00 61 00 70 00 70 00 2e 00 6c 00 6f 00 67 00 	.0a0p0p0.0l0o0g0
  0x4720	00 00 00 00 00 00 00 00 73 00 65 00 74 00 75 00 	00000000s0e0t0u0
  0x4730	70 00 61 00 70 00 69 00 2e 00 6f 00 66 00 66 00 	p0a0p0i0.0o0f0f0
  0x4740	6c 00 69 00 6e 00 65 00 2e 00 6c 00 6f 00 67 00 	l0i0n0e0.0l0o0g0
  0x4750	00 00 00 00 00 00 00 00 73 00 65 00 74 00 75 00 	00000000s0e0t0u0
  0x4760	70 00 61 00 70 00 69 00 2e 00 65 00 76 00 31 00 	p0a0p0i0.0e0v010
  0x4770	00 00 00 00 00 00 00 00 73 00 65 00 74 00 75 00 	00000000s0e0t0u0
  0x4780	70 00 61 00 70 00 69 00 2e 00 65 00 76 00 32 00 	p0a0p0i0.0e0v020
  0x4790	00 00 00 00 00 00 00 00 73 00 65 00 74 00 75 00 	00000000s0e0t0u0
  0x47a0	70 00 61 00 70 00 69 00 2e 00 65 00 76 00 33 00 	p0a0p0i0.0e0v030
  0x47b0	00 00 00 00 00 00 00 00 00 00 00 00 00 00 00 00 	0000000000000000
  0x47c0	00 00 00 00 91 9f 08 26 00 00 00 00 02 00 00 00 	0000000&00000000
  0x47d0	23 00 00 00 14 48 00 00 14 32 00 00 00 00 00 00 	#0000H0002000000
  0x47e0	91 9f 08 26 00 00 00 00 0d 00 00 00 04 02 00 00 	000&000000000000
  0x47f0	38 48 00 00 38 32 00 00 00 00 00 00 91 9f 08 26 	8H0082000000000&
  0x4800	00 00 00 00 10 00 00 00 24 00 00 00 3c 4a 00 00 	00000000$000<J00
  0x4810	3c 34 00 00 52 53 44 53 5e a4 19 57 d6 86 c0 67 	<400RSDS^00W000g
  0x4820	54 21 37 b9 81 07 c6 60 01 00 00 00 4e 65 77 44 	T!70000`0000NewD
  0x4830	65 76 2e 70 64 62 00 00 47 43 54 4c 00 10 00 00 	ev.pdb00GCTL0000
  0x4840	f0 23 00 00 2e 74 65 78 74 24 6d 6e 00 00 00 00 	0#00.text$mn0000
  0x4850	f0 33 00 00 20 00 00 00 2e 74 65 78 74 24 6d 6e 	0300 000.text$mn
  0x4860	24 30 30 00 10 34 00 00 90 00 00 00 2e 74 65 78 	$00004000000.tex
  0x4870	74 24 78 00 00 40 00 00 28 01 00 00 2e 72 64 61 	t$x00@00(000.rda
  0x4880	74 61 24 62 72 63 00 00 28 41 00 00 e0 02 00 00 	ta$brc00(A000000
  0x4890	2e 69 64 61 74 61 24 35 00 00 00 00 08 44 00 00 	.idata$500000D00
  0x48a0	10 00 00 00 2e 30 30 63 66 67 00 00 18 44 00 00 	0000.00cfg000D00
  0x48b0	08 00 00 00 2e 43 52 54 24 58 43 41 00 00 00 00 	0000.CRT$XCA0000
  0x48c0	20 44 00 00 08 00 00 00 2e 43 52 54 24 58 43 41 	 D000000.CRT$XCA
  0x48d0	41 00 00 00 28 44 00 00 08 00 00 00 2e 43 52 54 	A000(D000000.CRT
  0x48e0	24 58 43 5a 00 00 00 00 30 44 00 00 08 00 00 00 	$XCZ00000D000000
  0x48f0	2e 43 52 54 24 58 49 41 00 00 00 00 38 44 00 00 	.CRT$XIA00008D00
  0x4900	08 00 00 00 2e 43 52 54 24 58 49 41 41 00 00 00 	0000.CRT$XIAA000
  0x4910	40 44 00 00 08 00 00 00 2e 43 52 54 24 58 49 59 	@D000000.CRT$XIY
  0x4920	00 00 00 00 48 44 00 00 08 00 00 00 2e 43 52 54 	0000HD000000.CRT
  0x4930	24 58 49 5a 00 00 00 00 50 44 00 00 14 00 00 00 	$XIZ0000PD000000
  0x4940	2e 67 65 68 63 6f 6e 74 00 00 00 00 64 44 00 00 	.gehcont0000dD00
  0x4950	2c 00 00 00 2e 67 66 69 64 73 00 00 90 44 00 00 	,000.gfids000D00
  0x4960	84 03 00 00 2e 72 64 61 74 61 00 00 14 48 00 00 	0000.rdata000H00
  0x4970	4c 02 00 00 2e 72 64 61 74 61 24 7a 7a 7a 64 62 	L000.rdata$zzzdb
  0x4980	67 00 00 00 60 4a 00 00 90 02 00 00 2e 78 64 61 	g000`J000000.xda
  0x4990	74 61 00 00 f0 4c 00 00 54 01 00 00 2e 69 64 61 	ta000L00T000.ida
  0x49a0	74 61 24 32 00 00 00 00 44 4e 00 00 14 00 00 00 	ta$20000DN000000
  0x49b0	2e 69 64 61 74 61 24 33 00 00 00 00 58 4e 00 00 	.idata$30000XN00
  0x49c0	e0 02 00 00 2e 69 64 61 74 61 24 34 00 00 00 00 	0000.idata$40000
  0x49d0	38 51 00 00 3a 07 00 00 2e 69 64 61 74 61 24 36 	8Q00:000.idata$6
  0x49e0	00 00 00 00 00 60 00 00 30 00 00 00 2e 64 61 74 	00000`000000.dat
  0x49f0	61 00 00 00 30 60 00 00 08 07 00 00 2e 62 73 73 	a0000`000000.bss
  0x4a00	00 00 00 00 00 70 00 00 1c 02 00 00 2e 70 64 61 	00000p000000.pda
  0x4a10	74 61 00 00 00 80 00 00 d0 02 00 00 2e 72 73 72 	ta0000000000.rsr
  0x4a20	63 24 30 31 00 00 00 00 d0 82 00 00 c8 c9 00 00 	c$01000000000000
  0x4a30	2e 72 73 72 63 24 30 32 00 00 00 00 20 00 00 00 	.rsrc$020000 000
  0x4a40	5e a4 19 57 d6 86 c0 67 54 21 37 b9 81 07 c6 60 	^00W000gT!70000`
  0x4a50	ec 90 2f 4e 2a b4 63 8b ee c4 a4 78 91 9f 08 26 	00/N*0c0000x000&
  0x4a60	01 18 0a 00 18 64 0c 00 18 54 0b 00 18 34 0a 00 	00000d000T000400
  0x4a70	18 52 14 f0 12 e0 10 70 01 0a 04 00 0a 34 06 00 	0R00000p00000400
  0x4a80	0a 32 06 70 01 04 01 00 04 a2 00 00 09 15 08 00 	020p000000000000
  0x4a90	15 74 10 00 15 64 0f 00 15 34 0e 00 15 b2 11 e0 	0t000d0004000000
  0x4aa0	40 2d 00 00 01 00 00 00 a0 13 00 00 a4 14 00 00 	@-00000000000000
  0x4ab0	01 00 00 00 a4 14 00 00 01 06 02 00 06 52 02 30 	0000000000000R00
  0x4ac0	19 24 07 00 12 64 51 00 12 34 50 00 12 01 4c 00 	0$000dQ004P000L0
  0x4ad0	0b 70 00 00 58 33 00 00 50 02 00 00 01 14 08 00 	0p00X300P0000000
  0x4ae0	14 64 0b 00 14 54 0a 00 14 34 08 00 14 52 10 70 	0d000T0004000R0p
  0x4af0	19 2f 09 00 1e e4 94 00 1e 74 93 00 1e 34 92 00 	0/0000000t000400
  0x4b00	1e 01 90 00 10 50 00 00 58 33 00 00 70 04 00 00 	00000P00X300p000
  0x4b10	19 24 07 00 12 64 4c 00 12 34 4a 00 12 01 48 00 	0$000dL004J000H0
  0x4b20	0b 70 00 00 58 33 00 00 30 02 00 00 01 06 02 00 	0p00X30000000000
  0x4b30	06 72 02 30 19 1b 03 00 09 01 50 00 02 30 00 00 	0r00000000P00000
  0x4b40	58 33 00 00 70 02 00 00 01 04 01 00 04 42 00 00 	X300p00000000B00
  0x4b50	01 05 02 00 05 34 01 00 19 28 08 00 1a 74 14 00 	000004000(000t00
  0x4b60	1a 64 13 00 1a 34 12 00 1a f2 10 50 58 33 00 00 	0d000400000PX300
  0x4b70	78 00 00 00 01 1b 0a 00 1b 74 15 00 1b 64 14 00 	x00000000t000d00
  0x4b80	1b 34 13 00 1b d2 14 f0 12 e0 10 50 19 20 09 00 	04000000000P0 00
  0x4b90	11 c2 0d f0 0b e0 09 d0 07 c0 05 70 04 60 03 50 	00000000000p0`0P
  0x4ba0	02 30 00 00 58 33 00 00 58 00 00 00 01 14 08 00 	0000X300X0000000
  0x4bb0	14 64 08 00 14 54 07 00 14 34 06 00 14 32 10 70 	0d000T000400020p
  0x4bc0	01 15 08 00 15 74 08 00 15 64 07 00 15 34 06 00 	00000t000d000400
  0x4bd0	15 32 11 e0 09 14 08 00 14 72 10 f0 0e e0 0c d0 	020000000r000000
  0x4be0	0a c0 08 70 07 60 06 30 40 2d 00 00 01 00 00 00 	000p0`00@-000000
  0x4bf0	80 24 00 00 a4 24 00 00 10 34 00 00 a4 24 00 00 	0$000$0004000$00
  0x4c00	01 06 02 00 06 32 02 50 19 32 0b 00 21 64 52 00 	0000020P0200!dR0
  0x4c10	21 34 51 00 21 01 4a 00 12 f0 10 e0 0e c0 0c 70 	!4Q0!0J00000000p
  0x4c20	0b 50 00 00 58 33 00 00 40 02 00 00 01 0f 06 00 	0P00X300@0000000
  0x4c30	0f 64 07 00 0f 34 06 00 0f 32 0b 70 01 04 01 00 	0d000400020p0000
  0x4c40	04 62 00 00 09 13 07 00 13 74 19 00 13 34 18 00 	0b0000000t000400
  0x4c50	13 01 16 00 0c e0 00 00 40 2d 00 00 01 00 00 00 	00000000@-000000
  0x4c60	1c 2b 00 00 f7 2c 00 00 5c 34 00 00 f7 2c 00 00 	0+000,0004000,00
  0x4c70	01 00 00 00 09 04 01 00 04 22 00 00 40 2d 00 00 	000000000"00@-00
  0x4c80	01 00 00 00 0c 2e 00 00 42 2e 00 00 01 00 00 00 	00000.00B.000000
  0x4c90	42 2e 00 00 01 06 02 00 06 32 02 30 09 0a 04 00 	B.00000002000000
  0x4ca0	0a 34 06 00 0a 32 06 70 40 2d 00 00 01 00 00 00 	0400020p@-000000
  0x4cb0	1d 2f 00 00 50 2f 00 00 80 34 00 00 50 2f 00 00 	0/00P/000400P/00
  0x4cc0	01 0d 04 00 0d 34 09 00 0d 32 06 50 01 04 01 00 	00000400020P0000
  0x4cd0	04 e2 00 00 01 0c 02 00 0c 01 11 00 00 00 00 00 	0000000000000000
  0x4ce0	01 00 00 00 01 02 01 00 02 30 00 00 00 00 00 00 	0000000000000000
  0x4cf0	d8 4e 00 00 00 00 00 00 00 00 00 00 7e 51 00 00 	0N0000000000~Q00
  0x4d00	a8 41 00 00 38 50 00 00 00 00 00 00 00 00 00 00 	0A008P0000000000
  0x4d10	52 52 00 00 08 43 00 00 e0 50 00 00 00 00 00 00 	RR000C000P000000
  0x4d20	00 00 00 00 cc 52 00 00 b0 43 00 00 90 4f 00 00 	00000R000C000O00
  0x4d30	00 00 00 00 00 00 00 00 a2 54 00 00 60 42 00 00 	000000000T00`B00
  0x4d40	20 4f 00 00 00 00 00 00 00 00 00 00 d0 54 00 00 	 O00000000000T00
  0x4d50	f0 41 00 00 40 4f 00 00 00 00 00 00 00 00 00 00 	0A00@O0000000000
  0x4d60	fa 54 00 00 10 42 00 00 80 4f 00 00 00 00 00 00 	0T000B000O000000
  0x4d70	00 00 00 00 1c 55 00 00 50 42 00 00 a0 4f 00 00 	00000U00PB000O00
  0x4d80	00 00 00 00 00 00 00 00 46 55 00 00 70 42 00 00 	00000000FU00pB00
  0x4d90	50 4f 00 00 00 00 00 00 00 00 00 00 70 55 00 00 	PO0000000000pU00
  0x4da0	20 42 00 00 60 4f 00 00 00 00 00 00 00 00 00 00 	 B00`O0000000000
  0x4db0	90 55 00 00 30 42 00 00 00 4f 00 00 00 00 00 00 	0U000B000O000000
  0x4dc0	00 00 00 00 ba 55 00 00 d0 41 00 00 f0 4f 00 00 	00000U000A000O00
  0x4dd0	00 00 00 00 00 00 00 00 da 55 00 00 c0 42 00 00 	000000000U000B00
  0x4de0	e0 4f 00 00 00 00 00 00 00 00 00 00 fc 55 00 00 	0O00000000000U00
  0x4df0	b0 42 00 00 00 50 00 00 00 00 00 00 00 00 00 00 	0B000P0000000000
  0x4e00	20 56 00 00 d0 42 00 00 c8 4e 00 00 00 00 00 00 	 V000B000N000000
  0x4e10	00 00 00 00 5a 56 00 00 98 41 00 00 58 4e 00 00 	0000ZV000A00XN00
  0x4e20	00 00 00 00 00 00 00 00 5e 57 00 00 28 41 00 00 	00000000^W00(A00
  0x4e30	18 50 00 00 00 00 00 00 00 00 00 00 44 58 00 00 	0P0000000000DX00
  0x4e40	e8 42 00 00 00 00 00 00 00 00 00 00 00 00 00 00 	0B00000000000000
  0x4e50	00 00 00 00 00 00 00 00 76 56 00 00 00 00 00 00 	00000000vV000000
  0x4e60	8e 56 00 00 00 00 00 00 9a 56 00 00 00 00 00 00 	0V0000000V000000
  0x4e70	b6 56 00 00 00 00 00 00 4c 57 00 00 00 00 00 00 	0V000000LW000000
  0x4e80	40 57 00 00 00 00 00 00 34 57 00 00 00 00 00 00 	@W0000004W000000
  0x4e90	20 57 00 00 00 00 00 00 0a 57 00 00 00 00 00 00 	 W0000000W000000
  0x4ea0	f6 56 00 00 00 00 00 00 c6 56 00 00 00 00 00 00 	0V0000000V000000
  0x4eb0	e4 56 00 00 00 00 00 00 66 56 00 00 00 00 00 00 	0V000000fV000000
  0x4ec0	00 00 00 00 00 00 00 00 44 56 00 00 00 00 00 00 	00000000DV000000
  0x4ed0	00 00 00 00 00 00 00 00 4c 51 00 00 00 00 00 00 	00000000LQ000000
  0x4ee0	60 51 00 00 00 00 00 00 70 51 00 00 00 00 00 00 	`Q000000pQ000000
  0x4ef0	38 51 00 00 00 00 00 00 00 00 00 00 00 00 00 00 	8Q00000000000000
  0x4f00	6a 53 00 00 00 00 00 00 7c 53 00 00 00 00 00 00 	jS000000|S000000
  0x4f10	90 53 00 00 00 00 00 00 00 00 00 00 00 00 00 00 	0S00000000000000
  0x4f20	5e 54 00 00 00 00 00 00 e8 52 00 00 00 00 00 00 	^T0000000R000000
  0x4f30	bc 53 00 00 00 00 00 00 00 00 00 00 00 00 00 00 	0S00000000000000
  0x4f40	f8 52 00 00 00 00 00 00 00 00 00 00 00 00 00 00 	0R00000000000000
  0x4f50	26 53 00 00 00 00 00 00 00 00 00 00 00 00 00 00 	&S00000000000000
  0x4f60	3c 53 00 00 00 00 00 00 da 53 00 00 00 00 00 00 	<S0000000S000000
  0x4f70	5c 53 00 00 00 00 00 00 00 00 00 00 00 00 00 00 	0S00000000000000
  0x4f80	06 53 00 00 00 00 00 00 00 00 00 00 00 00 00 00 	0S00000000000000
  0x4f90	d6 52 00 00 00 00 00 00 00 00 00 00 00 00 00 00 	0R00000000000000
  0x4fa0	7a 54 00 00 00 00 00 00 8e 54 00 00 00 00 00 00 	zT0000000T000000
  0x4fb0	aa 53 00 00 00 00 00 00 1e 54 00 00 00 00 00 00 	0S0000000T000000
  0x4fc0	4e 53 00 00 00 00 00 00 08 54 00 00 00 00 00 00 	NS0000000T000000
  0x4fd0	16 53 00 00 00 00 00 00 00 00 00 00 00 00 00 00 	0S00000000000000
  0x4fe0	ee 53 00 00 00 00 00 00 00 00 00 00 00 00 00 00 	0S00000000000000
  0x4ff0	a2 53 00 00 00 00 00 00 00 00 00 00 00 00 00 00 	0S00000000000000
  0x5000	34 54 00 00 00 00 00 00 4e 54 00 00 00 00 00 00 	4T000000NT000000
  0x5010	00 00 00 00 00 00 00 00 3a 58 00 00 00 00 00 00 	00000000:X000000
  0x5020	06 58 00 00 00 00 00 00 22 58 00 00 00 00 00 00 	0X000000"X000000
  0x5030	00 00 00 00 00 00 00 00 c8 51 00 00 00 00 00 00 	000000000Q000000
  0x5040	ba 51 00 00 00 00 00 00 ac 51 00 00 00 00 00 00 	0Q0000000Q000000
  0x5050	a2 51 00 00 00 00 00 00 8a 51 00 00 00 00 00 00 	0Q0000000Q000000
  0x5060	26 52 00 00 00 00 00 00 6c 57 00 00 00 00 00 00 	&R000000lW000000
  0x5070	7c 57 00 00 00 00 00 00 d8 51 00 00 00 00 00 00 	|W0000000Q000000
  0x5080	ea 51 00 00 00 00 00 00 f2 51 00 00 00 00 00 00 	0Q0000000Q000000
  0x5090	32 52 00 00 00 00 00 00 3c 52 00 00 00 00 00 00 	2R000000<R000000
  0x50a0	46 52 00 00 00 00 00 00 5e 52 00 00 00 00 00 00 	FR000000^R000000
  0x50b0	fa 51 00 00 00 00 00 00 04 52 00 00 00 00 00 00 	0Q0000000R000000
  0x50c0	86 57 00 00 00 00 00 00 12 52 00 00 00 00 00 00 	0W0000000R000000
  0x50d0	68 58 00 00 00 00 00 00 00 00 00 00 00 00 00 00 	hX00000000000000
  0x50e0	f4 57 00 00 00 00 00 00 e8 57 00 00 00 00 00 00 	0W0000000W000000
  0x50f0	d0 57 00 00 00 00 00 00 c6 57 00 00 00 00 00 00 	0W0000000W000000
  0x5100	ae 57 00 00 00 00 00 00 90 57 00 00 00 00 00 00 	0W0000000W000000
  0x5110	72 52 00 00 00 00 00 00 8a 52 00 00 00 00 00 00 	rR0000000R000000
  0x5120	9e 52 00 00 00 00 00 00 b8 52 00 00 00 00 00 00 	0R0000000R000000
  0x5130	00 00 00 00 00 00 00 00 ad 03 54 72 61 6e 73 6c 	0000000000Transl
  0x5140	61 74 65 4d 65 73 73 61 67 65 00 00 bd 00 44 69 	ateMessage0000Di
  0x5150	73 70 61 74 63 68 4d 65 73 73 61 67 65 57 00 00 	spatchMessageW00
  0x5160	af 02 50 6f 73 74 4d 65 73 73 61 67 65 57 00 00 	00PostMessageW00
  0x5170	89 01 47 65 74 4d 65 73 73 61 67 65 57 00 55 53 	00GetMessageW0US
  0x5180	45 52 33 32 2e 64 6c 6c 00 00 57 00 5f 5f 43 5f 	ER32.dll00W0__C_
  0x5190	73 70 65 63 69 66 69 63 5f 68 61 6e 64 6c 65 72 	specific_handler
  0x51a0	00 00 dd 04 73 77 73 63 61 6e 66 00 55 00 5f 58 	0000swscanf0U0_X
  0x51b0	63 70 74 46 69 6c 74 65 72 00 ae 00 5f 61 6d 73 	cptFilter000_ams
  0x51c0	67 5f 65 78 69 74 00 00 7f 00 5f 5f 67 65 74 6d 	g_exit0000__getm
  0x51d0	61 69 6e 61 72 67 73 00 8e 00 5f 5f 73 65 74 5f 	ainargs000__set_
  0x51e0	61 70 70 5f 74 79 70 65 00 00 32 04 65 78 69 74 	app_type0020exit
  0x51f0	00 00 0e 01 5f 65 78 69 74 00 c1 00 5f 63 65 78 	0000_exit000_cex
  0x5200	69 74 00 00 99 01 5f 69 73 6d 62 62 6c 65 61 64 	it0000_ismbblead
  0x5210	00 00 90 00 5f 5f 73 65 74 75 73 65 72 6d 61 74 	0000__setusermat
  0x5220	68 65 72 72 00 00 7d 01 5f 69 6e 69 74 74 65 72 	herr00}0_initter
  0x5230	6d 00 a2 00 5f 61 63 6d 64 6c 6e 00 27 01 5f 66 	m000_acmdln0'0_f
  0x5240	6d 6f 64 65 00 00 d2 00 5f 63 6f 6d 6d 6f 64 65 	mode0000_commode
  0x5250	00 00 6d 73 76 63 72 74 2e 64 6c 6c 00 00 2f 00 	00msvcrt.dll00/0
  0x5260	3f 74 65 72 6d 69 6e 61 74 65 40 40 59 41 58 58 	?terminate@@YAXX
  0x5270	5a 00 ff 04 52 74 6c 4e 74 53 74 61 74 75 73 54 	Z000RtlNtStatusT
  0x5280	6f 44 6f 73 45 72 72 6f 72 00 f3 02 52 74 6c 43 	oDosError000RtlC
  0x5290	61 70 74 75 72 65 43 6f 6e 74 65 78 74 00 ea 04 	aptureContext000
  0x52a0	52 74 6c 4c 6f 6f 6b 75 70 46 75 6e 63 74 69 6f 	RtlLookupFunctio
  0x52b0	6e 45 6e 74 72 79 00 00 29 06 52 74 6c 56 69 72 	nEntry00)0RtlVir
  0x52c0	74 75 61 6c 55 6e 77 69 6e 64 00 00 6e 74 64 6c 	tualUnwind00ntdl
  0x52d0	6c 2e 64 6c 6c 00 05 00 47 65 74 43 6f 6d 6d 61 	l.dll000GetComma
  0x52e0	6e 64 4c 69 6e 65 57 00 05 00 47 65 74 4c 61 73 	ndLineW000GetLas
  0x52f0	74 45 72 72 6f 72 00 00 00 00 43 6c 6f 73 65 48 	tError0000CloseH
  0x5300	61 6e 64 6c 65 00 19 00 4c 6f 61 64 4c 69 62 72 	andle000LoadLibr
  0x5310	61 72 79 57 00 00 06 00 43 72 65 61 74 65 54 68 	aryW0000CreateTh
  0x5320	72 65 61 64 00 00 0a 00 48 65 61 70 53 65 74 49 	read0000HeapSetI
  0x5330	6e 66 6f 72 6d 61 74 69 6f 6e 00 00 15 00 47 65 	nformation0000Ge
  0x5340	74 50 72 6f 63 41 64 64 72 65 73 73 00 00 08 00 	tProcAddress0000
  0x5350	45 78 69 74 50 72 6f 63 65 73 73 00 0c 00 46 72 	ExitProcess000Fr
  0x5360	65 65 4c 69 62 72 61 72 79 00 46 00 43 6f 55 6e 	eeLibrary0F0CoUn
  0x5370	69 6e 69 74 69 61 6c 69 7a 65 00 00 09 00 43 6f 	initialize0000Co
  0x5380	43 72 65 61 74 65 49 6e 73 74 61 6e 63 65 00 00 	CreateInstance00
  0x5390	28 00 43 6f 49 6e 69 74 69 61 6c 69 7a 65 45 78 	(0CoInitializeEx
  0x53a0	00 00 2d 00 53 6c 65 65 70 00 20 00 47 65 74 53 	00-0Sleep0 0GetS
  0x53b0	74 61 72 74 75 70 49 6e 66 6f 57 00 0f 00 53 65 	tartupInfoW000Se
  0x53c0	74 55 6e 68 61 6e 64 6c 65 64 45 78 63 65 70 74 	tUnhandledExcept
  0x53d0	69 6f 6e 46 69 6c 74 65 72 00 14 00 47 65 74 4d 	ionFilter000GetM
  0x53e0	6f 64 75 6c 65 48 61 6e 64 6c 65 57 00 00 00 00 	oduleHandleW0000
  0x53f0	51 75 65 72 79 50 65 72 66 6f 72 6d 61 6e 63 65 	QueryPerformance
  0x5400	43 6f 75 6e 74 65 72 00 0d 00 47 65 74 43 75 72 	Counter000GetCur
  0x5410	72 65 6e 74 50 72 6f 63 65 73 73 49 64 00 11 00 	rentProcessId000
  0x5420	47 65 74 43 75 72 72 65 6e 74 54 68 72 65 61 64 	GetCurrentThread
  0x5430	49 64 00 00 16 00 47 65 74 53 79 73 74 65 6d 54 	Id0000GetSystemT
  0x5440	69 6d 65 41 73 46 69 6c 65 54 69 6d 65 00 1a 00 	imeAsFileTime000
  0x5450	47 65 74 54 69 63 6b 43 6f 75 6e 74 00 00 11 00 	GetTickCount0000
  0x5460	55 6e 68 61 6e 64 6c 65 64 45 78 63 65 70 74 69 	UnhandledExcepti
  0x5470	6f 6e 46 69 6c 74 65 72 00 00 0c 00 47 65 74 43 	onFilter0000GetC
  0x5480	75 72 72 65 6e 74 50 72 6f 63 65 73 73 00 4f 00 	urrentProcess0O0
  0x5490	54 65 72 6d 69 6e 61 74 65 50 72 6f 63 65 73 73 	TerminateProcess
  0x54a0	00 00 61 70 69 2d 6d 73 2d 77 69 6e 2d 63 6f 72 	00api-ms-win-cor
  0x54b0	65 2d 70 72 6f 63 65 73 73 65 6e 76 69 72 6f 6e 	e-processenviron
  0x54c0	6d 65 6e 74 2d 6c 31 2d 31 2d 30 2e 64 6c 6c 00 	ment-l1-1-0.dll0
  0x54d0	61 70 69 2d 6d 73 2d 77 69 6e 2d 63 6f 72 65 2d 	api-ms-win-core-
  0x54e0	65 72 72 6f 72 68 61 6e 64 6c 69 6e 67 2d 6c 31 	errorhandling-l1
  0x54f0	2d 31 2d 30 2e 64 6c 6c 00 00 61 70 69 2d 6d 73 	-1-0.dll00api-ms
  0x5500	2d 77 69 6e 2d 63 6f 72 65 2d 68 61 6e 64 6c 65 	-win-core-handle
  0x5510	2d 6c 31 2d 31 2d 30 2e 64 6c 6c 00 61 70 69 2d 	-l1-1-0.dll0api-
  0x5520	6d 73 2d 77 69 6e 2d 63 6f 72 65 2d 6c 69 62 72 	ms-win-core-libr
  0x5530	61 72 79 6c 6f 61 64 65 72 2d 6c 31 2d 32 2d 31 	aryloader-l1-2-1
  0x5540	2e 64 6c 6c 00 00 61 70 69 2d 6d 73 2d 77 69 6e 	.dll00api-ms-win
  0x5550	2d 63 6f 72 65 2d 70 72 6f 63 65 73 73 74 68 72 	-core-processthr
  0x5560	65 61 64 73 2d 6c 31 2d 31 2d 30 2e 64 6c 6c 00 	eads-l1-1-0.dll0
  0x5570	61 70 69 2d 6d 73 2d 77 69 6e 2d 63 6f 72 65 2d 	api-ms-win-core-
  0x5580	68 65 61 70 2d 6c 31 2d 31 2d 30 2e 64 6c 6c 00 	heap-l1-1-0.dll0
  0x5590	61 70 69 2d 6d 73 2d 77 69 6e 2d 63 6f 72 65 2d 	api-ms-win-core-
  0x55a0	6c 69 62 72 61 72 79 6c 6f 61 64 65 72 2d 6c 31 	libraryloader-l1
  0x55b0	2d 32 2d 30 2e 64 6c 6c 00 00 61 70 69 2d 6d 73 	-2-0.dll00api-ms
  0x55c0	2d 77 69 6e 2d 63 6f 72 65 2d 63 6f 6d 2d 6c 31 	-win-core-com-l1
  0x55d0	2d 31 2d 30 2e 64 6c 6c 00 00 61 70 69 2d 6d 73 	-1-0.dll00api-ms
  0x55e0	2d 77 69 6e 2d 63 6f 72 65 2d 73 79 6e 63 68 2d 	-win-core-synch-
  0x55f0	6c 31 2d 32 2d 30 2e 64 6c 6c 00 00 61 70 69 2d 	l1-2-0.dll00api-
  0x5600	6d 73 2d 77 69 6e 2d 63 6f 72 65 2d 70 72 6f 66 	ms-win-core-prof
  0x5610	69 6c 65 2d 6c 31 2d 31 2d 30 2e 64 6c 6c 00 00 	ile-l1-1-0.dll00
  0x5620	61 70 69 2d 6d 73 2d 77 69 6e 2d 63 6f 72 65 2d 	api-ms-win-core-
  0x5630	73 79 73 69 6e 66 6f 2d 6c 31 2d 31 2d 30 2e 64 	sysinfo-l1-1-0.d
  0x5640	6c 6c 00 00 09 00 43 6f 6d 6d 61 6e 64 4c 69 6e 	ll0000CommandLin
  0x5650	65 54 6f 41 72 67 76 57 00 00 53 48 45 4c 4c 33 	eToArgvW00SHELL3
  0x5660	32 2e 64 6c 6c 00 c2 00 43 72 65 61 74 65 45 76 	2.dll000CreateEv
  0x5670	65 6e 74 57 00 00 ed 05 57 61 69 74 46 6f 72 53 	entW0000WaitForS
  0x5680	69 6e 67 6c 65 4f 62 6a 65 63 74 45 78 00 28 05 	ingleObjectEx0(0
  0x5690	53 65 74 45 76 65 6e 74 00 00 6b 01 45 78 70 61 	SetEvent00k0Expa
  0x56a0	6e 64 45 6e 76 69 72 6f 6e 6d 65 6e 74 53 74 72 	ndEnvironmentStr
  0x56b0	69 6e 67 73 57 00 43 05 53 65 74 4c 61 73 74 45 	ingsW0C0SetLastE
  0x56c0	72 72 6f 72 00 00 f7 02 47 65 74 53 79 73 74 65 	rror0000GetSyste
  0x56d0	6d 57 69 6e 64 6f 77 73 44 69 72 65 63 74 6f 72 	mWindowsDirector
  0x56e0	79 57 00 00 6a 04 52 61 69 73 65 45 78 63 65 70 	yW00j0RaiseExcep
  0x56f0	74 69 6f 6e 00 00 63 02 47 65 74 46 75 6c 6c 50 	tion00c0GetFullP
  0x5700	61 74 68 4e 61 6d 65 57 00 00 4f 02 47 65 74 46 	athNameW00O0GetF
  0x5710	69 6c 65 41 74 74 72 69 62 75 74 65 73 57 00 00 	ileAttributesW00
  0x5720	bd 00 43 72 65 61 74 65 44 69 72 65 63 74 6f 72 	00CreateDirector
  0x5730	79 57 00 00 53 03 48 65 61 70 41 6c 6c 6f 63 00 	yW00S0HeapAlloc0
  0x5740	57 03 48 65 61 70 46 72 65 65 00 00 be 02 47 65 	W0HeapFree0000Ge
  0x5750	74 50 72 6f 63 65 73 73 48 65 61 70 00 00 4b 45 	tProcessHeap00KE
  0x5760	52 4e 45 4c 33 32 2e 64 6c 6c 00 00 a8 02 5f 72 	RNEL32.dll0000_r
  0x5770	65 73 65 74 73 74 6b 6f 66 6c 77 00 01 05 77 63 	esetstkoflw000wc
  0x5780	73 63 68 72 00 00 10 05 77 63 73 72 63 68 72 00 	schr0000wcsrchr0
  0x5790	f0 03 52 74 6c 46 6f 72 6d 61 74 43 75 72 72 65 	00RtlFormatCurre
  0x57a0	6e 74 55 73 65 72 4b 65 79 50 61 74 68 00 fd 03 	ntUserKeyPath000
  0x57b0	52 74 6c 46 72 65 65 55 6e 69 63 6f 64 65 53 74 	RtlFreeUnicodeSt
  0x57c0	72 69 6e 67 00 00 fd 00 4e 74 43 6c 6f 73 65 00 	ring0000NtClose0
  0x57d0	70 04 52 74 6c 49 6e 69 74 55 6e 69 63 6f 64 65 	p0RtlInitUnicode
  0x57e0	53 74 72 69 6e 67 00 00 a3 01 4e 74 4f 70 65 6e 	String0000NtOpen
  0x57f0	4b 65 79 00 fe 01 4e 74 51 75 65 72 79 56 61 6c 	Key000NtQueryVal
  0x5800	75 65 4b 65 79 00 16 00 41 6c 6c 6f 63 61 74 65 	ueKey000Allocate
  0x5810	41 6e 64 49 6e 69 74 69 61 6c 69 7a 65 53 69 64 	AndInitializeSid
  0x5820	00 00 1b 00 43 68 65 63 6b 54 6f 6b 65 6e 4d 65 	0000CheckTokenMe
  0x5830	6d 62 65 72 73 68 69 70 00 00 2e 00 46 72 65 65 	mbership00.0Free
  0x5840	53 69 64 00 61 70 69 2d 6d 73 2d 77 69 6e 2d 73 	Sid0api-ms-win-s
  0x5850	65 63 75 72 69 74 79 2d 62 61 73 65 2d 6c 31 2d 	ecurity-base-l1-
  0x5860	31 2d 30 2e 64 6c 6c 00 92 04 6d 65 6d 63 70 79 	1-0.dll000memcpy
  0x5870	00 00 00 00 00 00 00 00 00 00 00 00 00 00 00 00 	0000000000000000
  0x5880	00 00 00 00 00 00 00 00 00 00 00 00 00 00 00 00 	0000000000000000
  0x5890	00 00 00 00 00 00 00 00 00 00 00 00 00 00 00 00 	0000000000000000
  0x58a0	00 00 00 00 00 00 00 00 00 00 00 00 00 00 00 00 	0000000000000000
  0x58b0	00 00 00 00 00 00 00 00 00 00 00 00 00 00 00 00 	0000000000000000
  0x58c0	00 00 00 00 00 00 00 00 00 00 00 00 00 00 00 00 	0000000000000000
  0x58d0	00 00 00 00 00 00 00 00 00 00 00 00 00 00 00 00 	0000000000000000
  0x58e0	00 00 00 00 00 00 00 00 00 00 00 00 00 00 00 00 	0000000000000000
  0x58f0	00 00 00 00 00 00 00 00 00 00 00 00 00 00 00 00 	0000000000000000
  0x5900	00 00 00 00 00 00 00 00 00 00 00 00 00 00 00 00 	0000000000000000
  0x5910	00 00 00 00 00 00 00 00 00 00 00 00 00 00 00 00 	0000000000000000
  0x5920	00 00 00 00 00 00 00 00 00 00 00 00 00 00 00 00 	0000000000000000
  0x5930	00 00 00 00 00 00 00 00 00 00 00 00 00 00 00 00 	0000000000000000
  0x5940	00 00 00 00 00 00 00 00 00 00 00 00 00 00 00 00 	0000000000000000
  0x5950	00 00 00 00 00 00 00 00 00 00 00 00 00 00 00 00 	0000000000000000
  0x5960	00 00 00 00 00 00 00 00 00 00 00 00 00 00 00 00 	0000000000000000
  0x5970	00 00 00 00 00 00 00 00 00 00 00 00 00 00 00 00 	0000000000000000
  0x5980	00 00 00 00 00 00 00 00 00 00 00 00 00 00 00 00 	0000000000000000
  0x5990	00 00 00 00 00 00 00 00 00 00 00 00 00 00 00 00 	0000000000000000
  0x59a0	00 00 00 00 00 00 00 00 00 00 00 00 00 00 00 00 	0000000000000000
  0x59b0	00 00 00 00 00 00 00 00 00 00 00 00 00 00 00 00 	0000000000000000
  0x59c0	00 00 00 00 00 00 00 00 00 00 00 00 00 00 00 00 	0000000000000000
  0x59d0	00 00 00 00 00 00 00 00 00 00 00 00 00 00 00 00 	0000000000000000
  0x59e0	00 00 00 00 00 00 00 00 00 00 00 00 00 00 00 00 	0000000000000000
  0x59f0	00 00 00 00 00 00 00 00 00 00 00 00 00 00 00 00 	0000000000000000
=== DATA BLOCK END ===

=== DATA BLOCK ADDRESS 0x6000 ===
  0x6000	01 00 00 00 00 00 00 00 32 a2 df 2d 99 2b 00 00 	00000000200-0+00
  0x6010	cd 5d 20 d2 66 d4 ff ff 00 00 00 00 00 00 00 00 	0] 0f00000000000
  0x6020	01 00 00 00 00 00 00 00 00 00 00 00 00 00 00 00 	0000000000000000
  0x6030	00 00 00 00 00 00 00 00 00 00 00 00 00 00 00 00 	0000000000000000
  0x6040	00 00 00 00 00 00 00 00 00 00 00 00 00 00 00 00 	0000000000000000
  0x6050	00 00 00 00 00 00 00 00 00 00 00 00 00 00 00 00 	0000000000000000
  0x6060	00 00 00 00 00 00 00 00 00 00 00 00 00 00 00 00 	0000000000000000
  0x6070	00 00 00 00 00 00 00 00 00 00 00 00 00 00 00 00 	0000000000000000
  0x6080	00 00 00 00 00 00 00 00 00 00 00 00 00 00 00 00 	0000000000000000
  0x6090	00 00 00 00 00 00 00 00 00 00 00 00 00 00 00 00 	0000000000000000
  0x60a0	00 00 00 00 00 00 00 00 00 00 00 00 00 00 00 00 	0000000000000000
  0x60b0	00 00 00 00 00 00 00 00 00 00 00 00 00 00 00 00 	0000000000000000
  0x60c0	00 00 00 00 00 00 00 00 00 00 00 00 00 00 00 00 	0000000000000000
  0x60d0	00 00 00 00 00 00 00 00 00 00 00 00 00 00 00 00 	0000000000000000
  0x60e0	00 00 00 00 00 00 00 00 00 00 00 00 00 00 00 00 	0000000000000000
  0x60f0	00 00 00 00 00 00 00 00 00 00 00 00 00 00 00 00 	0000000000000000
  0x6100	00 00 00 00 00 00 00 00 00 00 00 00 00 00 00 00 	0000000000000000
  0x6110	00 00 00 00 00 00 00 00 00 00 00 00 00 00 00 00 	0000000000000000
  0x6120	00 00 00 00 00 00 00 00 00 00 00 00 00 00 00 00 	0000000000000000
  0x6130	00 00 00 00 00 00 00 00 00 00 00 00 00 00 00 00 	0000000000000000
  0x6140	00 00 00 00 00 00 00 00 00 00 00 00 00 00 00 00 	0000000000000000
  0x6150	00 00 00 00 00 00 00 00 00 00 00 00 00 00 00 00 	0000000000000000
  0x6160	00 00 00 00 00 00 00 00 00 00 00 00 00 00 00 00 	0000000000000000
  0x6170	00 00 00 00 00 00 00 00 00 00 00 00 00 00 00 00 	0000000000000000
  0x6180	00 00 00 00 00 00 00 00 00 00 00 00 00 00 00 00 	0000000000000000
  0x6190	00 00 00 00 00 00 00 00 00 00 00 00 00 00 00 00 	0000000000000000
  0x61a0	00 00 00 00 00 00 00 00 00 00 00 00 00 00 00 00 	0000000000000000
  0x61b0	00 00 00 00 00 00 00 00 00 00 00 00 00 00 00 00 	0000000000000000
  0x61c0	00 00 00 00 00 00 00 00 00 00 00 00 00 00 00 00 	0000000000000000
  0x61d0	00 00 00 00 00 00 00 00 00 00 00 00 00 00 00 00 	0000000000000000
  0x61e0	00 00 00 00 00 00 00 00 00 00 00 00 00 00 00 00 	0000000000000000
  0x61f0	00 00 00 00 00 00 00 00 00 00 00 00 00 00 00 00 	0000000000000000
=== DATA BLOCK END ===

=== DATA BLOCK ADDRESS 0x7000 ===
  0x7000	08 10 00 00 4a 11 00 00 60 4a 00 00 50 11 00 00 	0000J000`J00P000
  0x7010	d3 11 00 00 78 4a 00 00 e0 11 00 00 2b 12 00 00 	0000xJ000000+000
  0x7020	84 4a 00 00 34 12 00 00 dc 14 00 00 8c 4a 00 00 	0J00400000000J00
  0x7030	e4 14 00 00 7b 15 00 00 b8 4a 00 00 84 15 00 00 	0000{0000J000000
  0x7040	32 16 00 00 78 4a 00 00 78 16 00 00 50 17 00 00 	2000xJ00x000P000
  0x7050	c0 4a 00 00 58 17 00 00 f5 17 00 00 dc 4a 00 00 	0J00X00000000J00
  0x7060	fc 17 00 00 be 19 00 00 f0 4a 00 00 c4 19 00 00 	000000000J000000
  0x7070	93 1a 00 00 10 4b 00 00 9c 1a 00 00 9b 1b 00 00 	00000K0000000000
  0x7080	2c 4b 00 00 a4 1b 00 00 7d 1c 00 00 34 4b 00 00 	,K000000}0004K00
  0x7090	84 1c 00 00 db 1c 00 00 48 4b 00 00 e4 1c 00 00 	00000000HK000000
  0x70a0	67 1d 00 00 50 4b 00 00 70 1d 00 00 b3 1e 00 00 	g000PK00p0000000
  0x70b0	58 4b 00 00 bc 1e 00 00 88 1f 00 00 2c 4b 00 00 	XK0000000000,K00
  0x70c0	90 1f 00 00 81 20 00 00 74 4b 00 00 88 20 00 00 	00000 00tK000 00
  0x70d0	db 21 00 00 8c 4b 00 00 e4 21 00 00 80 22 00 00 	0!000K000!000"00
  0x70e0	ac 4b 00 00 88 22 00 00 8b 23 00 00 c0 4b 00 00 	0K000"000#000K00
  0x70f0	94 23 00 00 ff 24 00 00 d4 4b 00 00 08 25 00 00 	0#000$000K000%00
  0x7100	33 27 00 00 08 4c 00 00 3c 27 00 00 15 28 00 00 	3'000L00<'000(00
  0x7110	2c 4c 00 00 1c 28 00 00 a6 28 00 00 48 4b 00 00 	,L000(000(00HK00
  0x7120	ac 28 00 00 9f 29 00 00 78 4a 00 00 b0 29 00 00 	0(000)00xJ000)00
  0x7130	83 2a 00 00 48 4b 00 00 90 2a 00 00 d9 2a 00 00 	0*00HK000*000*00
  0x7140	3c 4c 00 00 e0 2a 00 00 f2 2a 00 00 48 4b 00 00 	<L000*000*00HK00
  0x7150	f8 2a 00 00 3a 2d 00 00 44 4c 00 00 60 2d 00 00 	0*00:-00DL00`-00
  0x7160	7e 2d 00 00 70 4c 00 00 90 2d 00 00 c9 2d 00 00 	~-00pL000-000-00
  0x7170	48 4b 00 00 d0 2d 00 00 e8 2d 00 00 48 4b 00 00 	HK000-000-00HK00
  0x7180	fc 2d 00 00 50 2e 00 00 74 4c 00 00 58 2e 00 00 	0-00P.00tL00X.00
  0x7190	9d 2e 00 00 94 4c 00 00 10 2f 00 00 5d 2f 00 00 	0.000L000/00]/00
  0x71a0	9c 4c 00 00 a4 2f 00 00 78 30 00 00 c0 4c 00 00 	0L000/00x0000L00
  0x71b0	9c 30 00 00 d0 30 00 00 94 4c 00 00 e0 30 00 00 	000000000L000000
  0x71c0	51 32 00 00 d4 4c 00 00 58 32 00 00 4f 33 00 00 	Q2000L00X200O300
  0x71d0	cc 4c 00 00 58 33 00 00 75 33 00 00 48 4b 00 00 	0L00X300u300HK00
  0x71e0	7c 33 00 00 d7 33 00 00 e4 4c 00 00 00 34 00 00 	|30003000L000400
  0x71f0	02 34 00 00 e0 4c 00 00 10 34 00 00 56 34 00 00 	04000L000400V400
  0x7200	00 4c 00 00 5c 34 00 00 7a 34 00 00 00 4c 00 00 	0L000400z4000L00
  0x7210	80 34 00 00 a0 34 00 00 00 4c 00 00 00 00 00 00 	040004000L000000
  0x7220	00 00 00 00 00 00 00 00 00 00 00 00 00 00 00 00 	0000000000000000
  0x7230	00 00 00 00 00 00 00 00 00 00 00 00 00 00 00 00 	0000000000000000
  0x7240	00 00 00 00 00 00 00 00 00 00 00 00 00 00 00 00 	0000000000000000
  0x7250	00 00 00 00 00 00 00 00 00 00 00 00 00 00 00 00 	0000000000000000
  0x7260	00 00 00 00 00 00 00 00 00 00 00 00 00 00 00 00 	0000000000000000
  0x7270	00 00 00 00 00 00 00 00 00 00 00 00 00 00 00 00 	0000000000000000
  0x7280	00 00 00 00 00 00 00 00 00 00 00 00 00 00 00 00 	0000000000000000
  0x7290	00 00 00 00 00 00 00 00 00 00 00 00 00 00 00 00 	0000000000000000
  0x72a0	00 00 00 00 00 00 00 00 00 00 00 00 00 00 00 00 	0000000000000000
  0x72b0	00 00 00 00 00 00 00 00 00 00 00 00 00 00 00 00 	0000000000000000
  0x72c0	00 00 00 00 00 00 00 00 00 00 00 00 00 00 00 00 	0000000000000000
  0x72d0	00 00 00 00 00 00 00 00 00 00 00 00 00 00 00 00 	0000000000000000
  0x72e0	00 00 00 00 00 00 00 00 00 00 00 00 00 00 00 00 	0000000000000000
  0x72f0	00 00 00 00 00 00 00 00 00 00 00 00 00 00 00 00 	0000000000000000
  0x7300	00 00 00 00 00 00 00 00 00 00 00 00 00 00 00 00 	0000000000000000
  0x7310	00 00 00 00 00 00 00 00 00 00 00 00 00 00 00 00 	0000000000000000
  0x7320	00 00 00 00 00 00 00 00 00 00 00 00 00 00 00 00 	0000000000000000
  0x7330	00 00 00 00 00 00 00 00 00 00 00 00 00 00 00 00 	0000000000000000
  0x7340	00 00 00 00 00 00 00 00 00 00 00 00 00 00 00 00 	0000000000000000
  0x7350	00 00 00 00 00 00 00 00 00 00 00 00 00 00 00 00 	0000000000000000
  0x7360	00 00 00 00 00 00 00 00 00 00 00 00 00 00 00 00 	0000000000000000
  0x7370	00 00 00 00 00 00 00 00 00 00 00 00 00 00 00 00 	0000000000000000
  0x7380	00 00 00 00 00 00 00 00 00 00 00 00 00 00 00 00 	0000000000000000
  0x7390	00 00 00 00 00 00 00 00 00 00 00 00 00 00 00 00 	0000000000000000
  0x73a0	00 00 00 00 00 00 00 00 00 00 00 00 00 00 00 00 	0000000000000000
  0x73b0	00 00 00 00 00 00 00 00 00 00 00 00 00 00 00 00 	0000000000000000
  0x73c0	00 00 00 00 00 00 00 00 00 00 00 00 00 00 00 00 	0000000000000000
  0x73d0	00 00 00 00 00 00 00 00 00 00 00 00 00 00 00 00 	0000000000000000
  0x73e0	00 00 00 00 00 00 00 00 00 00 00 00 00 00 00 00 	0000000000000000
  0x73f0	00 00 00 00 00 00 00 00 00 00 00 00 00 00 00 00 	0000000000000000
=== DATA BLOCK END ===
