===== Assembly blocks =====

=== CODE BLOCK ADDRESS 0x1000 ===
  0x1000	int3   	
  0x1001	int3   	
  0x1002	int3   	
  0x1003	int3   	
  0x1004	int3   	
  === BLOCK LINK ===
    0x1005
=== CODE BLOCK END ===

=== CODE BLOCK ADDRESS 0x1005 ===
  0x1005	int3   	
  0x1006	int3   	
  0x1007	int3   	
  === BLOCK LINK ===
    0x1008
=== CODE BLOCK END ===

=== CODE BLOCK ADDRESS 0x100a ===
  0x100a	dec    	eax
  0x100b	sub    	esp, 0x460
  0x1011	dec    	eax
  0x1012	mov    	eax, dword ptr [0x1ff0]
  0x1018	dec    	eax
  === BLOCK LINK ===
    0x1019
=== CODE BLOCK END ===

=== CODE BLOCK ADDRESS 0x1019 ===
  0x1019	xor    	eax, esp
  0x101b	dec    	eax
  0x101c	mov    	dword ptr [esp + 0x450], eax
  0x1023	inc    	ecx
  0x1024	mov    	ecx, 0x104
  === BLOCK LINK ===
    0x1029
=== CODE BLOCK END ===

=== CODE BLOCK ADDRESS 0x1029 ===
  0x1029	dec    	esp
  0x102a	lea    	eax, [esp + 0x240]
  0x1031	mov    	edx, 0x2b
  0x1036	dec    	eax
  0x1037	mov    	ebx, ecx
  === BLOCK LINK ===
    0x1039
=== CODE BLOCK END ===

=== CODE BLOCK ADDRESS 0x1039 ===
  0x1039	dec    	eax
  0x103a	call   	dword ptr [0x1108]
  === BLOCK LINK ===
    0x1040
=== CODE BLOCK END ===

=== CODE BLOCK ADDRESS 0x1040 ===
  0x1040	nop    	dword ptr [eax + eax]
  0x1045	test   	eax, eax
  0x1047	je     	0x1092
  === BLOCK LINK ===
    0x1049
    0x1092
=== CODE BLOCK END ===

=== CODE BLOCK ADDRESS 0x1049 ===
  0x1049	inc    	ecx
  0x104a	mov    	ecx, 0x104
  0x104f	dec    	esp
  0x1050	lea    	eax, [esp + 0x30]
  0x1054	mov    	edx, 0x29
  === BLOCK LINK ===
    0x1059
=== CODE BLOCK END ===

=== CODE BLOCK ADDRESS 0x1059 ===
  0x1059	dec    	eax
  0x105a	mov    	ecx, ebx
  0x105c	dec    	eax
  0x105d	call   	dword ptr [0x10e5]
  === BLOCK LINK ===
    0x1063
=== CODE BLOCK END ===

=== CODE BLOCK ADDRESS 0x1063 ===
  0x1063	nop    	dword ptr [eax + eax]
  0x1068	test   	eax, eax
  0x106a	je     	0x1092
  === BLOCK LINK ===
    0x106c
    0x1092
=== CODE BLOCK END ===

=== CODE BLOCK ADDRESS 0x106c ===
  0x106c	dec    	esp
  0x106d	lea    	ecx, [esp + 0x30]
  0x1071	mov    	dword ptr [esp + 0x20], 0x40
  0x1079	dec    	esp
  0x107a	lea    	eax, [esp + 0x240]
  === BLOCK LINK ===
    0x1081
=== CODE BLOCK END ===

=== CODE BLOCK ADDRESS 0x1081 ===
  0x1081	xor    	edx, edx
  0x1083	dec    	eax
  0x1084	mov    	ecx, ebx
  0x1086	dec    	eax
  0x1087	call   	dword ptr [0x10ab]
  === BLOCK LINK ===
    0x108d
=== CODE BLOCK END ===

=== CODE BLOCK ADDRESS 0x108d ===
  0x108d	nop    	dword ptr [eax + eax]
  === BLOCK LINK ===
    0x1092
=== CODE BLOCK END ===

=== CODE BLOCK ADDRESS 0x109d ===
  0x109d	call   	0x1540
  === BLOCK LINK ===
    0x10a2
    0x1540
=== CODE BLOCK END ===

=== CODE BLOCK ADDRESS 0x10a2 ===
  0x10a2	dec    	eax
  0x10a3	add    	esp, 0x460
  0x10a9	pop    	ebx
  0x10aa	ret    	
  0x10ab	int3   	
  === BLOCK LINK ===
    0x10ac
=== CODE BLOCK END ===

=== CODE BLOCK ADDRESS 0x1092 ===
  0x1092	dec    	eax
  0x1093	mov    	ecx, dword ptr [esp + 0x450]
  0x109a	dec    	eax
  0x109b	xor    	ecx, esp
  === BLOCK LINK ===
    0x109d
=== CODE BLOCK END ===

=== CODE BLOCK ADDRESS 0x10ac ===
  0x10ac	int3   	
  0x10ad	int3   	
  0x10ae	int3   	
  0x10af	int3   	
  0x10b0	int3   	
  === BLOCK LINK ===
    0x10b1
=== CODE BLOCK END ===

=== CODE BLOCK ADDRESS 0x10b1 ===
  0x10b1	int3   	
  0x10b2	int3   	
  0x10b3	int3   	
  0x10b4	inc    	eax
  0x10b5	push   	ebx
  === BLOCK LINK ===
    0x10b6
=== CODE BLOCK END ===

=== CODE BLOCK ADDRESS 0x10b6 ===
  0x10b6	dec    	eax
  0x10b7	sub    	esp, 0x40
  0x10ba	dec    	eax
  0x10bb	mov    	ebx, ecx
  0x10bd	mov    	ecx, 0x4000007b
  === BLOCK LINK ===
    0x10c2
=== CODE BLOCK END ===

=== CODE BLOCK ADDRESS 0x10c2 ===
  0x10c2	dec    	eax
  0x10c3	call   	dword ptr [0x105f]
  === BLOCK LINK ===
    0x10c9
=== CODE BLOCK END ===

=== CODE BLOCK ADDRESS 0x10c9 ===
  0x10c9	nop    	dword ptr [eax + eax]
  0x10ce	test   	eax, eax
  0x10d0	je     	0x10dc
  === BLOCK LINK ===
    0x10d2
    0x10dc
=== CODE BLOCK END ===

=== CODE BLOCK ADDRESS 0x10d2 ===
  0x10d2	dec    	eax
  0x10d3	mov    	ecx, ebx
  0x10d5	call   	0x1008
  === BLOCK LINK ===
    0x10da
    0x1008
=== CODE BLOCK END ===

=== CODE BLOCK ADDRESS 0x10da ===
  0x10da	jmp    	0x1159
  === BLOCK LINK ===
    0x10dc
    0x1159
=== CODE BLOCK END ===

=== CODE BLOCK ADDRESS 0x10dc ===
  0x10dc	xor    	ecx, ecx
  0x10de	dec    	eax
  0x10df	call   	dword ptr [0x11b3]
  === BLOCK LINK ===
    0x10e5
=== CODE BLOCK END ===

=== CODE BLOCK ADDRESS 0x10e5 ===
  0x10e5	nop    	dword ptr [eax + eax]
  0x10ea	test   	eax, eax
  0x10ec	js     	0x1159
  === BLOCK LINK ===
    0x10ee
    0x1159
=== CODE BLOCK END ===

=== CODE BLOCK ADDRESS 0x10ee ===
  0x10ee	xor    	edx, edx
  0x10f0	dec    	eax
  0x10f1	lea    	eax, [esp + 0x30]
  0x10f5	dec    	esp
  0x10f6	lea    	ecx, [0x124c]
  === BLOCK LINK ===
    0x10fc
=== CODE BLOCK END ===

=== CODE BLOCK ADDRESS 0x10fc ===
  0x10fc	dec    	eax
  0x10fd	mov    	dword ptr [esp + 0x20], eax
  0x1101	dec    	eax
  0x1102	lea    	ecx, [0x1208]
  0x1108	inc    	esp
  === BLOCK LINK ===
    0x1109
=== CODE BLOCK END ===

=== CODE BLOCK ADDRESS 0x1109 ===
  0x1109	lea    	eax, [edx + 1]
  0x110c	dec    	eax
  0x110d	call   	dword ptr [0x104d]
  === BLOCK LINK ===
    0x1113
=== CODE BLOCK END ===

=== CODE BLOCK ADDRESS 0x1113 ===
  0x1113	nop    	dword ptr [eax + eax]
  0x1118	test   	eax, eax
  0x111a	js     	0x114d
  === BLOCK LINK ===
    0x111c
    0x114d
=== CODE BLOCK END ===

=== CODE BLOCK ADDRESS 0x111c ===
  0x111c	dec    	eax
  0x111d	mov    	ecx, dword ptr [esp + 0x30]
  0x1121	dec    	eax
  0x1122	lea    	edx, [0x11f8]
  0x1128	inc    	ebp
  === BLOCK LINK ===
    0x1129
=== CODE BLOCK END ===

=== CODE BLOCK ADDRESS 0x1129 ===
  0x1129	xor    	ecx, ecx
  0x112b	inc    	ebp
  0x112c	xor    	eax, eax
  0x112e	dec    	eax
  0x112f	mov    	eax, dword ptr [ecx]
  === BLOCK LINK ===
    0x1131
=== CODE BLOCK END ===

=== CODE BLOCK ADDRESS 0x1131 ===
  0x1131	dec    	eax
  0x1132	mov    	eax, dword ptr [eax + 0x18]
  0x1135	call   	dword ptr [0x1175]
  === BLOCK LINK ===
    0x113b
=== CODE BLOCK END ===

=== CODE BLOCK ADDRESS 0x113b ===
  0x113b	dec    	eax
  0x113c	mov    	ecx, dword ptr [esp + 0x30]
  0x1140	dec    	eax
  0x1141	mov    	eax, dword ptr [ecx]
  0x1143	dec    	eax
  === BLOCK LINK ===
    0x1144
=== CODE BLOCK END ===

=== CODE BLOCK ADDRESS 0x1144 ===
  0x1144	mov    	eax, dword ptr [eax + 0x10]
  0x1147	call   	dword ptr [0x1163]
  === BLOCK LINK ===
    0x114d
=== CODE BLOCK END ===

=== CODE BLOCK ADDRESS 0x114d ===
  0x114d	dec    	eax
  0x114e	call   	dword ptr [0x1004]
  === BLOCK LINK ===
    0x1154
=== CODE BLOCK END ===

=== CODE BLOCK ADDRESS 0x1154 ===
  0x1154	nop    	dword ptr [eax + eax]
  === BLOCK LINK ===
    0x1159
=== CODE BLOCK END ===

=== CODE BLOCK ADDRESS 0x1160 ===
  0x1160	ret    	
  0x1161	int3   	
  0x1162	int3   	
  0x1163	int3   	
  0x1164	int3   	
  === BLOCK LINK ===
    0x1165
=== CODE BLOCK END ===

=== CODE BLOCK ADDRESS 0x1165 ===
  0x1165	int3   	
  0x1166	int3   	
  0x1167	int3   	
  0x1168	int3   	
  0x1169	int3   	
  === BLOCK LINK ===
    0x116a
=== CODE BLOCK END ===

=== CODE BLOCK ADDRESS 0x116a ===
  0x116a	int3   	
  0x116b	int3   	
  0x116c	int3   	
  0x116d	int3   	
  0x116e	int3   	
  === BLOCK LINK ===
    0x116f
=== CODE BLOCK END ===

=== CODE BLOCK ADDRESS 0x116f ===
  0x116f	int3   	
  0x1170	dec    	eax
  0x1171	sub    	esp, 0x28
  0x1174	mov    	eax, 0x5a4d
  0x1179	cmp    	word ptr [0xffffee80], ax
  === BLOCK LINK ===
    0x1180
=== CODE BLOCK END ===

=== CODE BLOCK ADDRESS 0x1180 ===
  0x1180	je     	0x1186
  === BLOCK LINK ===
    0x1182
    0x1186
=== CODE BLOCK END ===

=== CODE BLOCK ADDRESS 0x1182 ===
  0x1182	xor    	eax, eax
  0x1184	jmp    	0x11d9
  === BLOCK LINK ===
    0x1186
    0x11d9
=== CODE BLOCK END ===

=== CODE BLOCK ADDRESS 0x1186 ===
  0x1186	dec    	eax
  0x1187	arpl   	word ptr [0xffffeeaf], cx
  0x118d	dec    	eax
  0x118e	lea    	eax, [0xffffee6c]
  0x1194	dec    	eax
  === BLOCK LINK ===
    0x1195
=== CODE BLOCK END ===

=== CODE BLOCK ADDRESS 0x1195 ===
  0x1195	add    	ecx, eax
  0x1197	cmp    	dword ptr [ecx], 0x4550
  0x119d	jne    	0x1182
  === BLOCK LINK ===
    0x119f
    0x1182
=== CODE BLOCK END ===

=== CODE BLOCK ADDRESS 0x119f ===
  0x119f	mov    	eax, 0x10b
  0x11a4	cmp    	word ptr [ecx + 0x18], ax
  0x11a8	je     	0x11c8
  === BLOCK LINK ===
    0x11aa
    0x11c8
=== CODE BLOCK END ===

=== CODE BLOCK ADDRESS 0x11aa ===
  0x11aa	mov    	eax, 0x20b
  0x11af	cmp    	word ptr [ecx + 0x18], ax
  0x11b3	jne    	0x1182
  === BLOCK LINK ===
    0x11b5
    0x1182
=== CODE BLOCK END ===

=== CODE BLOCK ADDRESS 0x11b5 ===
  0x11b5	xor    	eax, eax
  0x11b7	cmp    	dword ptr [ecx + 0x84], 0xe
  0x11be	jbe    	0x11d9
  === BLOCK LINK ===
    0x11c0
    0x11d9
=== CODE BLOCK END ===

=== CODE BLOCK ADDRESS 0x11c0 ===
  0x11c0	cmp    	dword ptr [ecx + 0xf8], eax
  0x11c6	jmp    	0x11d6
  === BLOCK LINK ===
    0x11c8
    0x11d6
=== CODE BLOCK END ===

=== CODE BLOCK ADDRESS 0x11c8 ===
  0x11c8	xor    	eax, eax
  0x11ca	cmp    	dword ptr [ecx + 0x74], 0xe
  0x11ce	jbe    	0x11d9
  === BLOCK LINK ===
    0x11d0
    0x11d9
=== CODE BLOCK END ===

=== CODE BLOCK ADDRESS 0x11d0 ===
  0x11d0	cmp    	dword ptr [ecx + 0xe8], eax
  === BLOCK LINK ===
    0x11d6
    0x1638
=== CODE BLOCK END ===

=== CODE BLOCK ADDRESS 0x11e9 ===
  0x11e9	mov    	ecx, eax
  0x11eb	call   	dword ptr [0x1077]
  === BLOCK LINK ===
    0x11f1
=== CODE BLOCK END ===

=== CODE BLOCK ADDRESS 0x11f1 ===
  0x11f1	dec    	eax
  0x11f2	mov    	ecx, dword ptr [0x1058]
  0x11f8	dec    	eax
  0x11f9	or     	eax, 0xffffffff
  0x11fc	dec    	eax
  === BLOCK LINK ===
    0x11fd
=== CODE BLOCK END ===

=== CODE BLOCK ADDRESS 0x11fd ===
  0x11fd	mov    	dword ptr [0x23cd], eax
  0x1203	dec    	eax
  0x1204	mov    	dword ptr [0x23ce], eax
  0x120a	mov    	eax, dword ptr [0x1e44]
  0x1210	mov    	dword ptr [ecx], eax
  === BLOCK LINK ===
    0x1212
=== CODE BLOCK END ===

=== CODE BLOCK ADDRESS 0x1212 ===
  0x1212	dec    	eax
  0x1213	mov    	ecx, dword ptr [0x102f]
  0x1219	mov    	eax, dword ptr [0x1e29]
  0x121f	mov    	dword ptr [ecx], eax
  0x1221	call   	0x1690
  === BLOCK LINK ===
    0x1226
    0x1690
=== CODE BLOCK END ===

=== CODE BLOCK ADDRESS 0x1226 ===
  0x1226	cmp    	dword ptr [0x1dd3], 0
  0x122d	jne    	0x123c
  === BLOCK LINK ===
    0x122f
    0x123c
=== CODE BLOCK END ===

=== CODE BLOCK ADDRESS 0x122f ===
  0x122f	dec    	eax
  0x1230	lea    	ecx, [0x45a]
  0x1236	call   	dword ptr [0x1044]
  === BLOCK LINK ===
    0x123c
=== CODE BLOCK END ===

=== CODE BLOCK ADDRESS 0x123c ===
  0x123c	xor    	eax, eax
  0x123e	dec    	eax
  0x123f	add    	esp, 0x28
  0x1242	ret    	
  0x1243	int3   	
  === BLOCK LINK ===
    0x1244
=== CODE BLOCK END ===

=== CODE BLOCK ADDRESS 0x1540 ===
=== CODE BLOCK END ===

=== CODE BLOCK ADDRESS 0x1244 ===
  0x1244	int3   	
  0x1245	int3   	
  0x1246	int3   	
  0x1247	int3   	
  0x1248	int3   	
  === BLOCK LINK ===
    0x1249
=== CODE BLOCK END ===

=== CODE BLOCK ADDRESS 0x1249 ===
  0x1249	int3   	
  0x124a	int3   	
  0x124b	int3   	
  0x124c	int3   	
  0x124d	int3   	
  === BLOCK LINK ===
    0x124e
=== CODE BLOCK END ===

=== CODE BLOCK ADDRESS 0x124e ===
  0x124e	int3   	
  0x124f	int3   	
  0x1250	dec    	eax
  0x1251	sub    	esp, 0x38
  0x1254	mov    	eax, dword ptr [0x1df6]
  === BLOCK LINK ===
    0x125a
=== CODE BLOCK END ===

=== CODE BLOCK ADDRESS 0x125a ===
  0x125a	dec    	esp
  0x125b	lea    	eax, [0x1dd7]
  0x1261	inc    	esp
  0x1262	mov    	ecx, dword ptr [0x1de4]
  0x1268	dec    	eax
  === BLOCK LINK ===
    0x1269
=== CODE BLOCK END ===

=== CODE BLOCK ADDRESS 0x1269 ===
  0x1269	lea    	edx, [0x1dc1]
  0x126f	mov    	dword ptr [0x1dcf], eax
  0x1275	dec    	eax
  0x1276	lea    	ecx, [0x1dac]
  0x127c	dec    	eax
  === BLOCK LINK ===
    0x127d
=== CODE BLOCK END ===

=== CODE BLOCK ADDRESS 0x127d ===
  0x127d	lea    	eax, [0x1dc1]
  0x1283	dec    	eax
  0x1284	mov    	dword ptr [esp + 0x20], eax
  0x1288	call   	dword ptr [0xfb2]
  === BLOCK LINK ===
    0x128e
=== CODE BLOCK END ===

=== CODE BLOCK ADDRESS 0x128e ===
  0x128e	mov    	dword ptr [0x1d98], eax
  0x1294	dec    	eax
  0x1295	add    	esp, 0x38
  0x1298	ret    	
  0x1299	int3   	
  === BLOCK LINK ===
    0x129a
=== CODE BLOCK END ===

=== CODE BLOCK ADDRESS 0x129a ===
  0x129a	int3   	
  0x129b	int3   	
  0x129c	int3   	
  0x129d	int3   	
  0x129e	int3   	
  === BLOCK LINK ===
    0x129f
=== CODE BLOCK END ===

=== CODE BLOCK ADDRESS 0x129f ===
  0x129f	int3   	
  0x12a0	dec    	eax
  0x12a1	mov    	eax, esp
  0x12a3	dec    	eax
  0x12a4	mov    	dword ptr [eax + 8], ebx
  === BLOCK LINK ===
    0x12a7
=== CODE BLOCK END ===

=== CODE BLOCK ADDRESS 0x12a7 ===
  0x12a7	dec    	eax
  0x12a8	mov    	dword ptr [eax + 0x10], esi
  0x12ab	dec    	eax
  0x12ac	mov    	dword ptr [eax + 0x18], edi
  0x12af	dec    	esp
  === BLOCK LINK ===
    0x12b0
=== CODE BLOCK END ===

=== CODE BLOCK ADDRESS 0x12b0 ===
  0x12b0	mov    	dword ptr [eax + 0x20], esi
  0x12b3	inc    	ecx
  0x12b4	push   	edi
  0x12b5	dec    	eax
  0x12b6	sub    	esp, 0xb0
  === BLOCK LINK ===
    0x12bc
=== CODE BLOCK END ===

=== CODE BLOCK ADDRESS 0x12bc ===
  0x12bc	inc    	ebp
  0x12bd	xor    	esi, esi
  0x12bf	inc    	esp
  0x12c0	mov    	dword ptr [esp + 0x20], esi
  0x12c4	dec    	eax
  === BLOCK LINK ===
    0x12c5
=== CODE BLOCK END ===

=== CODE BLOCK ADDRESS 0x12c5 ===
  0x12c5	lea    	ecx, [eax - 0x78]
  0x12c8	call   	dword ptr [0xeea]
  === BLOCK LINK ===
    0x12ce
=== CODE BLOCK END ===

=== CODE BLOCK ADDRESS 0x12ce ===
  0x12ce	nop    	
  0x12cf	dec    	eax
  0x12d1	mov    	eax, dword ptr [0x30]
  0x12d8	dec    	eax
  0x12d9	mov    	ebx, dword ptr [eax + 8]
  === BLOCK LINK ===
    0x12dc
=== CODE BLOCK END ===

=== CODE BLOCK ADDRESS 0x12dc ===
  0x12dc	inc    	ecx
  0x12dd	mov    	esi, esi
  0x12df	xor    	eax, eax
  0x12e1	.byte  	0xf0
  0x12e2	dec    	eax
  === BLOCK LINK ===
    0x12e3
=== CODE BLOCK END ===

=== CODE BLOCK ADDRESS 0x12e3 ===
  0x12e3	cmpxchg  	dword ptr [0x22f6], ebx
  0x12ea	je     	0x1307
  === BLOCK LINK ===
    0x12ec
    0x1307
=== CODE BLOCK END ===

=== CODE BLOCK ADDRESS 0x12ec ===
  0x12ec	dec    	eax
  0x12ed	cmp    	eax, ebx
  0x12ef	jne    	0x12fa
  === BLOCK LINK ===
    0x12f1
    0x12fa
=== CODE BLOCK END ===

=== CODE BLOCK ADDRESS 0x12f1 ===
  0x12f1	mov    	ebx, 1
  0x12f6	mov    	esi, ebx
  0x12f8	jmp    	0x130c
  === BLOCK LINK ===
    0x12fa
=== CODE BLOCK END ===

=== CODE BLOCK ADDRESS 0x12fa ===
  0x12fa	mov    	ecx, 0x3e8
  0x12ff	call   	dword ptr [0xef3]
  === BLOCK LINK ===
    0x1305
=== CODE BLOCK END ===

=== CODE BLOCK ADDRESS 0x1305 ===
  0x1305	jmp    	0x12df
  === BLOCK LINK ===
    0x1307
=== CODE BLOCK END ===

=== CODE BLOCK ADDRESS 0x1307 ===
  0x1307	mov    	ebx, 1
  0x130c	mov    	eax, dword ptr [0x22d6]
  0x1312	cmp    	eax, ebx
  0x1314	jne    	0x1324
  === BLOCK LINK ===
    0x1316
=== CODE BLOCK END ===

=== CODE BLOCK ADDRESS 0x1316 ===
  0x1316	mov    	edi, 0x1f
  0x131b	mov    	ecx, edi
  0x131d	call   	0x1683
  === BLOCK LINK ===
    0x1322
=== CODE BLOCK END ===

=== CODE BLOCK ADDRESS 0x1322 ===
  0x1322	jmp    	0x1390
  === BLOCK LINK ===
    0x1324
=== CODE BLOCK END ===

=== CODE BLOCK ADDRESS 0x1324 ===
  0x1324	mov    	eax, dword ptr [0x22be]
  0x132a	test   	eax, eax
  0x132c	jne    	0x1385
  === BLOCK LINK ===
    0x132e
=== CODE BLOCK END ===

=== CODE BLOCK ADDRESS 0x132e ===
  0x132e	mov    	dword ptr [0x22b4], ebx
  0x1334	dec    	esp
  0x1335	lea    	edi, [0xfad]
  0x133b	dec    	eax
  0x133c	lea    	edi, [0xf8e]
  === BLOCK LINK ===
    0x1342
=== CODE BLOCK END ===

=== CODE BLOCK ADDRESS 0x1342 ===
  0x1342	dec    	eax
  0x1343	mov    	dword ptr [esp + 0x30], edi
  0x1347	inc    	ecx
  0x1348	mov    	eax, esi
  0x134a	mov    	dword ptr [esp + 0x24], eax
  === BLOCK LINK ===
    0x134e
=== CODE BLOCK END ===

=== CODE BLOCK ADDRESS 0x134e ===
  0x134e	dec    	ecx
  0x134f	cmp    	edi, edi
  0x1351	jae    	0x1377
  === BLOCK LINK ===
    0x1353
=== CODE BLOCK END ===

=== CODE BLOCK ADDRESS 0x1353 ===
  0x1353	test   	eax, eax
  0x1355	jne    	0x137b
  === BLOCK LINK ===
    0x1357
=== CODE BLOCK END ===

=== CODE BLOCK ADDRESS 0x1357 ===
  0x1357	dec    	esp
  0x1358	cmp    	dword ptr [edi], esi
  0x135a	je     	0x136c
  === BLOCK LINK ===
    0x135c
=== CODE BLOCK END ===

=== CODE BLOCK ADDRESS 0x135c ===
  0x135c	dec    	eax
  0x135d	mov    	eax, dword ptr [edi]
  0x135f	dec    	eax
  0x1360	mov    	ecx, dword ptr [0xf4a]
  0x1366	call   	ecx
  === BLOCK LINK ===
    0x1368
=== CODE BLOCK END ===

=== CODE BLOCK ADDRESS 0x1368 ===
  0x1368	mov    	dword ptr [esp + 0x24], eax
  0x136c	dec    	eax
  0x136d	add    	edi, 8
  0x1370	dec    	eax
  0x1371	mov    	dword ptr [esp + 0x30], edi
  === BLOCK LINK ===
    0x1375
=== CODE BLOCK END ===

=== CODE BLOCK ADDRESS 0x1375 ===
  0x1375	jmp    	0x134e
  === BLOCK LINK ===
    0x1377
=== CODE BLOCK END ===

=== CODE BLOCK ADDRESS 0x1377 ===
  0x1377	test   	eax, eax
  0x1379	je     	0x138b
  === BLOCK LINK ===
    0x137b
=== CODE BLOCK END ===

=== CODE BLOCK ADDRESS 0x137b ===
  0x137b	mov    	eax, 0xff
  0x1380	jmp    	0x14e6
  === BLOCK LINK ===
    0x1385
=== CODE BLOCK END ===

=== CODE BLOCK ADDRESS 0x1385 ===
  0x1385	mov    	dword ptr [0x1c99], ebx
  0x138b	mov    	edi, 0x1f
  0x1390	mov    	eax, dword ptr [0x2252]
  0x1396	cmp    	eax, ebx
  0x1398	jne    	0x13b7
  === BLOCK LINK ===
    0x139a
=== CODE BLOCK END ===

=== CODE BLOCK ADDRESS 0x139a ===
  0x139a	dec    	eax
  0x139b	lea    	edx, [0xf27]
  0x13a1	dec    	eax
  0x13a2	lea    	ecx, [0xf10]
  0x13a8	call   	0x185e
  === BLOCK LINK ===
    0x13ad
=== CODE BLOCK END ===

=== CODE BLOCK ADDRESS 0x13ad ===
  0x13ad	mov    	dword ptr [0x2231], 2
  0x13b7	test   	esi, esi
  0x13b9	jne    	0x13c5
  === BLOCK LINK ===
    0x13bb
=== CODE BLOCK END ===

=== CODE BLOCK ADDRESS 0x13bb ===
  0x13bb	dec    	ecx
  0x13bc	mov    	eax, esi
  0x13be	dec    	eax
  0x13bf	xchg   	dword ptr [0x221b], eax
  0x13c5	dec    	esp
  === BLOCK LINK ===
    0x13c6
=== CODE BLOCK END ===

=== CODE BLOCK ADDRESS 0x13c6 ===
  0x13c6	cmp    	dword ptr [0x2224], esi
  0x13cc	je     	0x13f8
  === BLOCK LINK ===
    0x13ce
=== CODE BLOCK END ===

=== CODE BLOCK ADDRESS 0x13ce ===
  0x13ce	dec    	eax
  0x13cf	lea    	ecx, [0x221b]
  0x13d5	call   	0x16f0
  === BLOCK LINK ===
    0x13da
=== CODE BLOCK END ===

=== CODE BLOCK ADDRESS 0x13da ===
  0x13da	test   	eax, eax
  0x13dc	je     	0x13f8
  === BLOCK LINK ===
    0x13de
=== CODE BLOCK END ===

=== CODE BLOCK ADDRESS 0x13de ===
  0x13de	inc    	ebp
  0x13df	xor    	eax, eax
  0x13e1	inc    	ecx
  0x13e2	lea    	edx, [eax + 2]
  0x13e5	xor    	ecx, ecx
  === BLOCK LINK ===
    0x13e7
=== CODE BLOCK END ===

=== CODE BLOCK ADDRESS 0x13e7 ===
  0x13e7	dec    	eax
  0x13e8	mov    	eax, dword ptr [0x2202]
  0x13ee	dec    	esp
  0x13ef	mov    	ecx, dword ptr [0xebb]
  0x13f5	inc    	ecx
  === BLOCK LINK ===
    0x13f6
=== CODE BLOCK END ===

=== CODE BLOCK ADDRESS 0x13f6 ===
  0x13f6	call   	ecx
  === BLOCK LINK ===
    0x13f8
=== CODE BLOCK END ===

=== CODE BLOCK ADDRESS 0x13f8 ===
  0x13f8	dec    	eax
  0x13f9	mov    	eax, dword ptr [0xe59]
  0x13ff	dec    	eax
  0x1400	mov    	ecx, dword ptr [eax]
  0x1402	dec    	eax
  === BLOCK LINK ===
    0x1403
=== CODE BLOCK END ===

=== CODE BLOCK ADDRESS 0x1403 ===
  0x1403	test   	ecx, ecx
  0x1405	jne    	0x1411
  === BLOCK LINK ===
    0x1407
=== CODE BLOCK END ===

=== CODE BLOCK ADDRESS 0x1407 ===
  0x1407	mov    	eax, 0xff
  0x140c	jmp    	0x14e6
  === BLOCK LINK ===
    0x1411
=== CODE BLOCK END ===

=== CODE BLOCK ADDRESS 0x1411 ===
  0x1411	dec    	eax
  0x1412	mov    	dword ptr [esp + 0x28], ecx
  0x1416	mov    	edx, dword ptr [esp + 0x20]
  0x141a	movzx  	eax, word ptr [ecx]
  0x141d	cmp    	ax, 0x20
  === BLOCK LINK ===
    0x1421
=== CODE BLOCK END ===

=== CODE BLOCK ADDRESS 0x1421 ===
  0x1421	ja     	0x1497
  === BLOCK LINK ===
    0x1423
=== CODE BLOCK END ===

=== CODE BLOCK ADDRESS 0x1423 ===
  0x1423	test   	ax, ax
  0x1426	je     	0x142c
  === BLOCK LINK ===
    0x1428
=== CODE BLOCK END ===

=== CODE BLOCK ADDRESS 0x1428 ===
  0x1428	test   	edx, edx
  0x142a	jne    	0x1497
  === BLOCK LINK ===
    0x142c
=== CODE BLOCK END ===

=== CODE BLOCK ADDRESS 0x142c ===
  0x142c	sub    	ax, bx
  0x142f	cmp    	ax, di
  0x1432	ja     	0x1442
  === BLOCK LINK ===
    0x1434
=== CODE BLOCK END ===

=== CODE BLOCK ADDRESS 0x1434 ===
  0x1434	dec    	eax
  0x1435	add    	ecx, 2
  0x1438	dec    	eax
  0x1439	mov    	dword ptr [esp + 0x28], ecx
  0x143d	movzx  	eax, word ptr [ecx]
  === BLOCK LINK ===
    0x1440
=== CODE BLOCK END ===

=== CODE BLOCK ADDRESS 0x1440 ===
  0x1440	jmp    	0x142c
  === BLOCK LINK ===
    0x1442
=== CODE BLOCK END ===

=== CODE BLOCK ADDRESS 0x1442 ===
  0x1442	test   	byte ptr [esp + 0x7c], bl
  0x1446	movzx  	eax, word ptr [esp + 0x80]
  0x144e	inc    	ecx
  0x144f	mov    	ecx, 0xa
  0x1454	inc    	esp
  === BLOCK LINK ===
    0x1455
=== CODE BLOCK END ===

=== CODE BLOCK ADDRESS 0x1455 ===
  0x1455	cmovne  	ecx, eax
  0x1458	dec    	esp
  0x1459	mov    	eax, ecx
  0x145b	xor    	edx, edx
  0x145d	dec    	eax
  === BLOCK LINK ===
    0x145e
=== CODE BLOCK END ===

=== CODE BLOCK ADDRESS 0x145e ===
  0x145e	lea    	ecx, [0xffffeb9c]
  0x1464	call   	0x10b4
  === BLOCK LINK ===
    0x1469
=== CODE BLOCK END ===

=== CODE BLOCK ADDRESS 0x1469 ===
  0x1469	mov    	dword ptr [0x1bb1], eax
  0x146f	inc    	esp
  0x1470	cmp    	dword ptr [0x1bca], esi
  0x1476	jne    	0x1480
  === BLOCK LINK ===
    0x1478
=== CODE BLOCK END ===

=== CODE BLOCK ADDRESS 0x1478 ===
  0x1478	mov    	ecx, eax
  0x147a	call   	dword ptr [0xdf0]
  === BLOCK LINK ===
    0x1480
=== CODE BLOCK END ===

=== CODE BLOCK ADDRESS 0x1480 ===
  0x1480	inc    	esp
  0x1481	cmp    	dword ptr [0x1b9d], esi
  0x1487	jne    	0x1495
  === BLOCK LINK ===
    0x1489
=== CODE BLOCK END ===

=== CODE BLOCK ADDRESS 0x1489 ===
  0x1489	call   	dword ptr [0xd91]
  === BLOCK LINK ===
    0x148f
=== CODE BLOCK END ===

=== CODE BLOCK ADDRESS 0x148f ===
  0x148f	mov    	eax, dword ptr [0x1b8b]
  0x1495	jmp    	0x14e6
  === BLOCK LINK ===
    0x1497
=== CODE BLOCK END ===

=== CODE BLOCK ADDRESS 0x1497 ===
  0x1497	cmp    	ax, 0x22
  0x149b	jne    	0x14ab
  === BLOCK LINK ===
    0x149d
=== CODE BLOCK END ===

=== CODE BLOCK ADDRESS 0x149d ===
  0x149d	inc    	ecx
  0x149e	mov    	eax, esi
  0x14a0	test   	edx, edx
  0x14a2	sete   	al
  0x14a5	mov    	edx, eax
  === BLOCK LINK ===
    0x14a7
=== CODE BLOCK END ===

=== CODE BLOCK ADDRESS 0x14a7 ===
  0x14a7	mov    	dword ptr [esp + 0x20], eax
  0x14ab	dec    	eax
  0x14ac	add    	ecx, 2
  0x14af	dec    	eax
  0x14b0	mov    	dword ptr [esp + 0x28], ecx
  === BLOCK LINK ===
    0x14b4
=== CODE BLOCK END ===

=== CODE BLOCK ADDRESS 0x14b4 ===
  0x14b4	jmp    	0x141a
  === BLOCK LINK ===
    0x14b9
=== CODE BLOCK END ===

=== CODE BLOCK ADDRESS 0x14b9 ===
  0x14b9	mov    	dword ptr [0x1b61], eax
  0x14bf	cmp    	dword ptr [0x1b7a], 0
  0x14c6	jne    	0x14d1
  === BLOCK LINK ===
    0x14c8
=== CODE BLOCK END ===

=== CODE BLOCK ADDRESS 0x14c8 ===
  0x14c8	mov    	ecx, eax
  0x14ca	call   	dword ptr [0xdb8]
  === BLOCK LINK ===
    0x14d0
=== CODE BLOCK END ===

=== CODE BLOCK ADDRESS 0x14d0 ===
  0x14d0	int3   	
  0x14d1	cmp    	dword ptr [0x1b4c], 0
  0x14d8	jne    	0x14e6
  === BLOCK LINK ===
    0x14da
=== CODE BLOCK END ===

=== CODE BLOCK ADDRESS 0x14da ===
  0x14da	call   	dword ptr [0xd40]
  === BLOCK LINK ===
    0x14e0
=== CODE BLOCK END ===

=== CODE BLOCK ADDRESS 0x14e0 ===
  0x14e0	mov    	eax, dword ptr [0x1b3a]
  0x14e6	dec    	esp
  0x14e7	lea    	ebx, [esp + 0xb0]
  0x14ee	dec    	ecx
  0x14ef	mov    	ebx, dword ptr [ebx + 0x10]
  === BLOCK LINK ===
    0x14f2
=== CODE BLOCK END ===

=== CODE BLOCK ADDRESS 0x14f2 ===
  0x14f2	dec    	ecx
  0x14f3	mov    	esi, dword ptr [ebx + 0x18]
  0x14f6	dec    	ecx
  0x14f7	mov    	edi, dword ptr [ebx + 0x20]
  0x14fa	dec    	ebp
  === BLOCK LINK ===
    0x14fb
=== CODE BLOCK END ===

=== CODE BLOCK ADDRESS 0x14fb ===
  0x14fb	mov    	esi, dword ptr [ebx + 0x28]
  0x14fe	dec    	ecx
  0x14ff	mov    	esp, ebx
  0x1501	inc    	ecx
  0x1502	pop    	edi
  === BLOCK LINK ===
    0x1503
=== CODE BLOCK END ===

=== CODE BLOCK ADDRESS 0x1503 ===
  0x1503	ret    	
  0x1504	int3   	
  0x1505	int3   	
  0x1506	int3   	
  0x1507	int3   	
  === BLOCK LINK ===
    0x1508
=== CODE BLOCK END ===

=== CODE BLOCK ADDRESS 0x1008 ===
  0x1008	inc    	eax
  0x1009	push   	ebx
  === BLOCK LINK ===
    0x100a
=== CODE BLOCK END ===

=== CODE BLOCK ADDRESS 0x1508 ===
  0x1508	int3   	
  0x1509	int3   	
  0x150a	int3   	
  0x150b	int3   	
  0x150c	int3   	
  === BLOCK LINK ===
    0x150d
=== CODE BLOCK END ===

=== CODE BLOCK ADDRESS 0x150d ===
  0x150d	int3   	
  0x150e	int3   	
  0x150f	int3   	
  0x1510	dec    	eax
  0x1511	sub    	esp, 0x28
  === BLOCK LINK ===
    0x1514
=== CODE BLOCK END ===

=== CODE BLOCK ADDRESS 0x1514 ===
  0x1514	call   	0x1784
  === BLOCK LINK ===
    0x1519
=== CODE BLOCK END ===

=== CODE BLOCK ADDRESS 0x1519 ===
  0x1519	dec    	eax
  0x151a	add    	esp, 0x28
  0x151d	jmp    	0x12a0
  === BLOCK LINK ===
    0x1522
=== CODE BLOCK END ===

=== CODE BLOCK ADDRESS 0x1522 ===
  0x1522	int3   	
  0x1523	int3   	
  0x1524	int3   	
  0x1525	int3   	
  0x1526	int3   	
  === BLOCK LINK ===
    0x1527
=== CODE BLOCK END ===

=== CODE BLOCK ADDRESS 0x1527 ===
  0x1527	int3   	
  0x1528	int3   	
  0x1529	int3   	
  0x152a	int3   	
  0x152b	int3   	
  === BLOCK LINK ===
    0x152c
=== CODE BLOCK END ===

=== CODE BLOCK ADDRESS 0x152c ===
  0x152c	int3   	
  0x152d	int3   	
  0x152e	int3   	
  0x152f	int3   	
  0x1530	int3   	
  === BLOCK LINK ===
    0x1531
=== CODE BLOCK END ===

=== CODE BLOCK ADDRESS 0x1531 ===
  0x1531	int3   	
  0x1532	int3   	
  0x1533	int3   	
  0x1534	int3   	
  0x1535	int3   	
  === BLOCK LINK ===
    0x1536
=== CODE BLOCK END ===

=== CODE BLOCK ADDRESS 0x1536 ===
  0x1536	nop    	word ptr [eax + eax]
  0x1540	dec    	eax
  0x1541	cmp    	ecx, dword ptr [0x1ac1]
  0x1547	jne    	0x1559
  === BLOCK LINK ===
    0x1549
=== CODE BLOCK END ===

=== CODE BLOCK ADDRESS 0x1549 ===
  0x1549	dec    	eax
  0x154a	rol    	ecx, 0x10
  0x154d	test   	cx, 0xffff
  0x1552	jne    	0x1555
  === BLOCK LINK ===
    0x1554
=== CODE BLOCK END ===

=== CODE BLOCK ADDRESS 0x1554 ===
  0x1554	ret    	
  0x1555	dec    	eax
  0x1556	ror    	ecx, 0x10
  0x1559	jmp    	0x18d0
  === BLOCK LINK ===
    0x155e
=== CODE BLOCK END ===

=== CODE BLOCK ADDRESS 0x1159 ===
  0x1159	xor    	eax, eax
  0x115b	dec    	eax
  0x115c	add    	esp, 0x40
  0x115f	pop    	ebx
  === BLOCK LINK ===
    0x1160
=== CODE BLOCK END ===

=== CODE BLOCK ADDRESS 0x155e ===
  0x155e	int3   	
  0x155f	int3   	
  0x1560	int3   	
  0x1561	int3   	
  0x1562	int3   	
  === BLOCK LINK ===
    0x1563
=== CODE BLOCK END ===

=== CODE BLOCK ADDRESS 0x1563 ===
  0x1563	int3   	
  0x1564	int3   	
  0x1565	int3   	
  0x1566	int3   	
  0x1567	int3   	
  === BLOCK LINK ===
    0x1568
=== CODE BLOCK END ===

=== CODE BLOCK ADDRESS 0x1568 ===
  0x1568	int3   	
  0x1569	int3   	
  0x156a	int3   	
  0x156b	int3   	
  0x156c	int3   	
  === BLOCK LINK ===
    0x156d
=== CODE BLOCK END ===

=== CODE BLOCK ADDRESS 0x156d ===
  0x156d	int3   	
  0x156e	int3   	
  0x156f	int3   	
  0x1570	dec    	eax
  0x1571	sub    	esp, 0x28
  === BLOCK LINK ===
    0x1574
=== CODE BLOCK END ===

=== CODE BLOCK ADDRESS 0x1574 ===
  0x1574	dec    	eax
  0x1575	mov    	eax, dword ptr [ecx]
  0x1577	cmp    	dword ptr [eax], 0xe06d7363
  0x157d	jne    	0x15a2
  === BLOCK LINK ===
    0x157f
=== CODE BLOCK END ===

=== CODE BLOCK ADDRESS 0x157f ===
  0x157f	cmp    	dword ptr [eax + 0x18], 4
  0x1583	jne    	0x15a2
  === BLOCK LINK ===
    0x1585
=== CODE BLOCK END ===

=== CODE BLOCK ADDRESS 0x1585 ===
  0x1585	mov    	ecx, dword ptr [eax + 0x20]
  0x1588	lea    	eax, [ecx - 0x19930520]
  0x158e	cmp    	eax, 2
  0x1591	jbe    	0x159b
  === BLOCK LINK ===
    0x1593
=== CODE BLOCK END ===

=== CODE BLOCK ADDRESS 0x1593 ===
  0x1593	cmp    	ecx, 0x1994000
  0x1599	jne    	0x15a2
  === BLOCK LINK ===
    0x159b
=== CODE BLOCK END ===

=== CODE BLOCK ADDRESS 0x159b ===
  0x159b	call   	dword ptr [0xc87]
  === BLOCK LINK ===
    0x15a1
=== CODE BLOCK END ===

=== CODE BLOCK ADDRESS 0x15a1 ===
  0x15a1	int3   	
  0x15a2	xor    	eax, eax
  0x15a4	dec    	eax
  0x15a5	add    	esp, 0x28
  0x15a8	ret    	
  === BLOCK LINK ===
    0x15a9
=== CODE BLOCK END ===

=== CODE BLOCK ADDRESS 0x15a9 ===
  0x15a9	int3   	
  0x15aa	int3   	
  0x15ab	int3   	
  0x15ac	int3   	
  0x15ad	int3   	
  === BLOCK LINK ===
    0x15ae
=== CODE BLOCK END ===

=== CODE BLOCK ADDRESS 0x15ae ===
  0x15ae	int3   	
  0x15af	int3   	
  0x15b0	dec    	eax
  0x15b1	sub    	esp, 0x28
  0x15b4	dec    	eax
  === BLOCK LINK ===
    0x15b5
=== CODE BLOCK END ===

=== CODE BLOCK ADDRESS 0x15b5 ===
  0x15b5	lea    	ecx, [0xffffffb5]
  0x15bb	call   	dword ptr [0xbb7]
  === BLOCK LINK ===
    0x15c1
=== CODE BLOCK END ===

=== CODE BLOCK ADDRESS 0x15c1 ===
  0x15c1	xor    	eax, eax
  0x15c3	dec    	eax
  0x15c4	add    	esp, 0x28
  0x15c7	ret    	
  0x15c8	int3   	
  === BLOCK LINK ===
    0x15c9
=== CODE BLOCK END ===

=== CODE BLOCK ADDRESS 0x15c9 ===
  0x15c9	int3   	
  0x15ca	int3   	
  0x15cb	int3   	
  0x15cc	int3   	
  0x15cd	int3   	
  === BLOCK LINK ===
    0x15ce
=== CODE BLOCK END ===

=== CODE BLOCK ADDRESS 0x15ce ===
  0x15ce	jmp    	dword ptr [0xc5c]
  === BLOCK LINK ===
    0x15d4
=== CODE BLOCK END ===

=== CODE BLOCK ADDRESS 0x15d4 ===
  0x15d4	int3   	
  0x15d5	int3   	
  0x15d6	int3   	
  0x15d7	int3   	
  0x15d8	int3   	
  === BLOCK LINK ===
    0x15d9
=== CODE BLOCK END ===

=== CODE BLOCK ADDRESS 0x15d9 ===
  0x15d9	int3   	
  0x15da	int3   	
  0x15db	int3   	
  0x15dc	dec    	eax
  0x15dd	sub    	esp, 0x18
  === BLOCK LINK ===
    0x15e0
=== CODE BLOCK END ===

=== CODE BLOCK ADDRESS 0x15e0 ===
  0x15e0	xor    	edx, edx
  0x15e2	dec    	eax
  0x15e3	lea    	eax, [ecx - 1]
  0x15e6	dec    	eax
  0x15e7	cmp    	eax, -3
  === BLOCK LINK ===
    0x15ea
=== CODE BLOCK END ===

=== CODE BLOCK ADDRESS 0x15ea ===
  0x15ea	ja     	0x1628
  === BLOCK LINK ===
    0x15ec
=== CODE BLOCK END ===

=== CODE BLOCK ADDRESS 0x15ec ===
  0x15ec	mov    	eax, 0x5a4d
  0x15f1	cmp    	word ptr [ecx], ax
  0x15f4	jne    	0x1620
  === BLOCK LINK ===
    0x15f6
=== CODE BLOCK END ===

=== CODE BLOCK ADDRESS 0x15f6 ===
  0x15f6	cmp    	dword ptr [ecx + 0x3c], edx
  0x15f9	jl     	0x1620
  === BLOCK LINK ===
    0x15fb
=== CODE BLOCK END ===

=== CODE BLOCK ADDRESS 0x15fb ===
  0x15fb	cmp    	dword ptr [ecx + 0x3c], 0x10000000
  0x1602	jae    	0x1620
  === BLOCK LINK ===
    0x1604
=== CODE BLOCK END ===

=== CODE BLOCK ADDRESS 0x1604 ===
  0x1604	dec    	eax
  0x1605	arpl   	word ptr [ecx + 0x3c], ax
  0x1608	dec    	eax
  0x1609	add    	eax, ecx
  0x160b	dec    	eax
  === BLOCK LINK ===
    0x160c
=== CODE BLOCK END ===

=== CODE BLOCK ADDRESS 0x160c ===
  0x160c	mov    	dword ptr [esp], eax
  0x160f	cmp    	dword ptr [eax], 0x4550
  0x1615	dec    	eax
  0x1616	cmovne  	eax, edx
  0x1619	dec    	eax
  === BLOCK LINK ===
    0x161a
=== CODE BLOCK END ===

=== CODE BLOCK ADDRESS 0x161a ===
  0x161a	mov    	edx, eax
  0x161c	dec    	eax
  0x161d	mov    	dword ptr [esp], eax
  0x1620	jmp    	0x1628
  === BLOCK LINK ===
    0x1622
=== CODE BLOCK END ===

=== CODE BLOCK ADDRESS 0x1622 ===
  0x1622	xor    	edx, edx
  0x1624	dec    	eax
  0x1625	mov    	dword ptr [esp], edx
  0x1628	dec    	eax
  0x1629	mov    	eax, edx
  === BLOCK LINK ===
    0x162b
=== CODE BLOCK END ===

=== CODE BLOCK ADDRESS 0x162b ===
  0x162b	dec    	eax
  0x162c	add    	esp, 0x18
  0x162f	ret    	
  0x1630	int3   	
  0x1631	int3   	
  === BLOCK LINK ===
    0x1632
=== CODE BLOCK END ===

=== CODE BLOCK ADDRESS 0x1632 ===
  0x1632	int3   	
  0x1633	int3   	
  0x1634	int3   	
  0x1635	int3   	
  0x1636	int3   	
  === BLOCK LINK ===
    0x1637
=== CODE BLOCK END ===

=== CODE BLOCK ADDRESS 0x1637 ===
  0x1637	int3   	
  === BLOCK LINK ===
    0x1638
=== CODE BLOCK END ===

=== CODE BLOCK ADDRESS 0x163e ===
  0x163e	mov    	ebx, ecx
  0x1640	xor    	ecx, ecx
  0x1642	call   	dword ptr [0xb40]
  === BLOCK LINK ===
    0x1648
=== CODE BLOCK END ===

=== CODE BLOCK ADDRESS 0x1648 ===
  0x1648	dec    	eax
  0x1649	test   	eax, eax
  0x164b	je     	0x1675
  === BLOCK LINK ===
    0x164d
=== CODE BLOCK END ===

=== CODE BLOCK ADDRESS 0x164d ===
  0x164d	dec    	eax
  0x164e	mov    	ecx, eax
  0x1650	call   	0x15dc
  === BLOCK LINK ===
    0x1655
=== CODE BLOCK END ===

=== CODE BLOCK ADDRESS 0x1655 ===
  0x1655	dec    	eax
  0x1656	test   	eax, eax
  0x1658	je     	0x1675
  === BLOCK LINK ===
    0x165a
=== CODE BLOCK END ===

=== CODE BLOCK ADDRESS 0x165a ===
  0x165a	mov    	ecx, 2
  0x165f	cmp    	word ptr [eax + 0x5c], cx
  0x1663	jne    	0x1669
  === BLOCK LINK ===
    0x1665
=== CODE BLOCK END ===

=== CODE BLOCK ADDRESS 0x1665 ===
  0x1665	mov    	eax, ecx
  0x1667	jmp    	0x1677
  === BLOCK LINK ===
    0x1669
=== CODE BLOCK END ===

=== CODE BLOCK ADDRESS 0x1669 ===
  0x1669	cmp    	word ptr [eax + 0x5c], 3
  0x166e	mov    	eax, 1
  0x1673	je     	0x1677
  === BLOCK LINK ===
    0x1675
=== CODE BLOCK END ===

=== CODE BLOCK ADDRESS 0x1675 ===
  0x1675	mov    	eax, ebx
  0x1677	dec    	eax
  0x1678	add    	esp, 0x20
  0x167b	pop    	ebx
  0x167c	ret    	
  === BLOCK LINK ===
    0x167d
=== CODE BLOCK END ===

=== CODE BLOCK ADDRESS 0x11d9 ===
  0x11d9	mov    	ecx, 2
  0x11de	mov    	dword ptr [0x1e5c], eax
  0x11e4	call   	0x1638
  === BLOCK LINK ===
    0x11e9
=== CODE BLOCK END ===

=== CODE BLOCK ADDRESS 0x167d ===
  0x167d	int3   	
  0x167e	int3   	
  0x167f	int3   	
  0x1680	int3   	
  0x1681	int3   	
  === BLOCK LINK ===
    0x1682
=== CODE BLOCK END ===

=== CODE BLOCK ADDRESS 0x1682 ===
  0x1682	int3   	
  0x1683	jmp    	dword ptr [0xbaf]
  === BLOCK LINK ===
    0x1689
=== CODE BLOCK END ===

=== CODE BLOCK ADDRESS 0x1689 ===
  0x1689	int3   	
  0x168a	int3   	
  0x168b	int3   	
  0x168c	int3   	
  0x168d	int3   	
  === BLOCK LINK ===
    0x168e
=== CODE BLOCK END ===

=== CODE BLOCK ADDRESS 0x168e ===
  0x168e	int3   	
  0x168f	int3   	
  === BLOCK LINK ===
    0x1690
=== CODE BLOCK END ===

=== CODE BLOCK ADDRESS 0x1694 ===
  0x1694	int3   	
  0x1695	int3   	
  0x1696	int3   	
  0x1697	int3   	
  0x1698	int3   	
  === BLOCK LINK ===
    0x1699
=== CODE BLOCK END ===

=== CODE BLOCK ADDRESS 0x1699 ===
  0x1699	int3   	
  0x169a	int3   	
  0x169b	int3   	
  0x169c	int3   	
  0x169d	int3   	
  === BLOCK LINK ===
    0x169e
=== CODE BLOCK END ===

=== CODE BLOCK ADDRESS 0x169e ===
  0x169e	int3   	
  0x169f	int3   	
  0x16a0	dec    	esp
  0x16a1	arpl   	word ptr [ecx + 0x3c], ax
  0x16a4	inc    	ebp
  === BLOCK LINK ===
    0x16a5
=== CODE BLOCK END ===

=== CODE BLOCK ADDRESS 0x16a5 ===
  0x16a5	xor    	ecx, ecx
  0x16a7	dec    	esp
  0x16a8	add    	eax, ecx
  0x16aa	dec    	esp
  0x16ab	mov    	edx, edx
  === BLOCK LINK ===
    0x16ad
=== CODE BLOCK END ===

=== CODE BLOCK ADDRESS 0x16ad ===
  0x16ad	inc    	ecx
  0x16ae	movzx  	eax, word ptr [eax + 0x14]
  0x16b2	inc    	ebp
  0x16b3	movzx  	ebx, word ptr [eax + 6]
  0x16b7	dec    	eax
  === BLOCK LINK ===
    0x16b8
=== CODE BLOCK END ===

=== CODE BLOCK ADDRESS 0x16b8 ===
  0x16b8	add    	eax, 0x18
  0x16bb	dec    	ecx
  0x16bc	add    	eax, eax
  0x16be	inc    	ebp
  0x16bf	test   	ebx, ebx
  === BLOCK LINK ===
    0x16c1
=== CODE BLOCK END ===

=== CODE BLOCK ADDRESS 0x16c1 ===
  0x16c1	je     	0x16e1
  === BLOCK LINK ===
    0x16c3
=== CODE BLOCK END ===

=== CODE BLOCK ADDRESS 0x16c3 ===
  0x16c3	mov    	edx, dword ptr [eax + 0xc]
  0x16c6	dec    	esp
  0x16c7	cmp    	edx, edx
  0x16c9	jb     	0x16d5
  === BLOCK LINK ===
    0x16cb
=== CODE BLOCK END ===

=== CODE BLOCK ADDRESS 0x16cb ===
  0x16cb	mov    	ecx, dword ptr [eax + 8]
  0x16ce	add    	ecx, edx
  0x16d0	dec    	esp
  0x16d1	cmp    	edx, ecx
  0x16d3	jb     	0x16e3
  === BLOCK LINK ===
    0x16d5
=== CODE BLOCK END ===

=== CODE BLOCK ADDRESS 0x16d5 ===
  0x16d5	inc    	ecx
  0x16d6	inc    	ecx
  0x16d8	dec    	eax
  0x16d9	add    	eax, 0x28
  0x16dc	inc    	ebp
  === BLOCK LINK ===
    0x16dd
=== CODE BLOCK END ===

=== CODE BLOCK ADDRESS 0x16dd ===
  0x16dd	cmp    	ecx, ebx
  0x16df	jb     	0x16c3
  === BLOCK LINK ===
    0x16e1
=== CODE BLOCK END ===

=== CODE BLOCK ADDRESS 0x16e1 ===
  0x16e1	xor    	eax, eax
  0x16e3	ret    	
  0x16e4	int3   	
  0x16e5	int3   	
  0x16e6	int3   	
  === BLOCK LINK ===
    0x16e7
=== CODE BLOCK END ===

=== CODE BLOCK ADDRESS 0x16e7 ===
  0x16e7	int3   	
  0x16e8	int3   	
  0x16e9	int3   	
  0x16ea	int3   	
  0x16eb	int3   	
  === BLOCK LINK ===
    0x16ec
=== CODE BLOCK END ===

=== CODE BLOCK ADDRESS 0x16ec ===
  0x16ec	int3   	
  0x16ed	int3   	
  0x16ee	int3   	
  0x16ef	int3   	
  0x16f0	dec    	eax
  === BLOCK LINK ===
    0x16f1
=== CODE BLOCK END ===

=== CODE BLOCK ADDRESS 0x16f1 ===
  0x16f1	mov    	dword ptr [esp + 8], ebx
  0x16f5	push   	edi
  0x16f6	dec    	eax
  0x16f7	sub    	esp, 0x20
  0x16fa	dec    	eax
  === BLOCK LINK ===
    0x16fb
=== CODE BLOCK END ===

=== CODE BLOCK ADDRESS 0x16fb ===
  0x16fb	mov    	ebx, ecx
  0x16fd	dec    	eax
  0x16fe	lea    	edi, [0xffffe8fc]
  0x1704	dec    	eax
  0x1705	mov    	ecx, edi
  === BLOCK LINK ===
    0x1707
=== CODE BLOCK END ===

=== CODE BLOCK ADDRESS 0x1707 ===
  0x1707	call   	0x1750
  === BLOCK LINK ===
    0x170c
=== CODE BLOCK END ===

=== CODE BLOCK ADDRESS 0x170c ===
  0x170c	test   	eax, eax
  0x170e	je     	0x1732
  === BLOCK LINK ===
    0x1710
=== CODE BLOCK END ===

=== CODE BLOCK ADDRESS 0x1710 ===
  0x1710	dec    	eax
  0x1711	sub    	ebx, edi
  0x1713	dec    	eax
  0x1714	mov    	edx, ebx
  0x1716	dec    	eax
  === BLOCK LINK ===
    0x1717
=== CODE BLOCK END ===

=== CODE BLOCK ADDRESS 0x1717 ===
  0x1717	mov    	ecx, edi
  0x1719	call   	0x16a0
  === BLOCK LINK ===
    0x171e
=== CODE BLOCK END ===

=== CODE BLOCK ADDRESS 0x171e ===
  0x171e	dec    	eax
  0x171f	test   	eax, eax
  0x1721	je     	0x1732
  === BLOCK LINK ===
    0x1723
=== CODE BLOCK END ===

=== CODE BLOCK ADDRESS 0x1723 ===
  0x1723	mov    	eax, dword ptr [eax + 0x24]
  0x1726	shr    	eax, 0x1f
  0x1729	not    	eax
  0x172b	and    	eax, 1
  0x172e	jmp    	0x1732
  === BLOCK LINK ===
    0x1730
=== CODE BLOCK END ===

=== CODE BLOCK ADDRESS 0x1730 ===
  0x1730	xor    	eax, eax
  0x1732	dec    	eax
  0x1733	mov    	ebx, dword ptr [esp + 0x30]
  0x1737	dec    	eax
  0x1738	add    	esp, 0x20
  === BLOCK LINK ===
    0x173b
=== CODE BLOCK END ===

=== CODE BLOCK ADDRESS 0x173b ===
  0x173b	pop    	edi
  0x173c	ret    	
  0x173d	int3   	
  0x173e	int3   	
  0x173f	int3   	
  === BLOCK LINK ===
    0x1740
=== CODE BLOCK END ===

=== CODE BLOCK ADDRESS 0x1740 ===
  0x1740	int3   	
  0x1741	int3   	
  0x1742	int3   	
  0x1743	int3   	
  0x1744	int3   	
  === BLOCK LINK ===
    0x1745
=== CODE BLOCK END ===

=== CODE BLOCK ADDRESS 0x1745 ===
  0x1745	int3   	
  0x1746	int3   	
  0x1747	int3   	
  0x1748	int3   	
  0x1749	int3   	
  === BLOCK LINK ===
    0x174a
=== CODE BLOCK END ===

=== CODE BLOCK ADDRESS 0x174a ===
  0x174a	int3   	
  0x174b	int3   	
  0x174c	int3   	
  0x174d	int3   	
  0x174e	int3   	
  === BLOCK LINK ===
    0x174f
=== CODE BLOCK END ===

=== CODE BLOCK ADDRESS 0x174f ===
  0x174f	int3   	
  0x1750	mov    	eax, 0x5a4d
  0x1755	cmp    	word ptr [ecx], ax
  0x1758	jne    	0x177a
  === BLOCK LINK ===
    0x175a
=== CODE BLOCK END ===

=== CODE BLOCK ADDRESS 0x175a ===
  0x175a	dec    	eax
  0x175b	arpl   	word ptr [ecx + 0x3c], ax
  0x175e	dec    	eax
  0x175f	add    	eax, ecx
  0x1761	cmp    	dword ptr [eax], 0x4550
  === BLOCK LINK ===
    0x1767
=== CODE BLOCK END ===

=== CODE BLOCK ADDRESS 0x1767 ===
  0x1767	jne    	0x177a
  === BLOCK LINK ===
    0x1769
=== CODE BLOCK END ===

=== CODE BLOCK ADDRESS 0x1769 ===
  0x1769	mov    	ecx, 0x20b
  0x176e	cmp    	word ptr [eax + 0x18], cx
  0x1772	jne    	0x177a
  === BLOCK LINK ===
    0x1774
=== CODE BLOCK END ===

=== CODE BLOCK ADDRESS 0x1774 ===
  0x1774	mov    	eax, 1
  0x1779	ret    	
  0x177a	xor    	eax, eax
  0x177c	ret    	
  0x177d	int3   	
  === BLOCK LINK ===
    0x177e
=== CODE BLOCK END ===

=== CODE BLOCK ADDRESS 0x11d6 ===
  0x11d6	setne  	al
  === BLOCK LINK ===
    0x11d9
=== CODE BLOCK END ===

=== CODE BLOCK ADDRESS 0x177e ===
  0x177e	int3   	
  0x177f	int3   	
  0x1780	int3   	
  0x1781	int3   	
  0x1782	int3   	
  === BLOCK LINK ===
    0x1783
=== CODE BLOCK END ===

=== CODE BLOCK ADDRESS 0x1783 ===
  0x1783	int3   	
  0x1784	dec    	eax
  0x1785	mov    	dword ptr [esp + 0x20], ebx
  0x1789	push   	ebp
  0x178a	dec    	eax
  === BLOCK LINK ===
    0x178b
=== CODE BLOCK END ===

=== CODE BLOCK ADDRESS 0x178b ===
  0x178b	mov    	ebp, esp
  0x178d	dec    	eax
  0x178e	sub    	esp, 0x20
  0x1791	dec    	eax
  0x1792	and    	dword ptr [ebp + 0x18], 0
  === BLOCK LINK ===
    0x1796
=== CODE BLOCK END ===

=== CODE BLOCK ADDRESS 0x1796 ===
  0x1796	dec    	eax
  0x1797	mov    	ebx, 0x2ddfa232
  0x179c	cdq    	
  0x179d	sub    	eax, dword ptr [eax]
  0x179f	add    	byte ptr [eax - 0x75], cl
  === BLOCK LINK ===
    0x17a2
=== CODE BLOCK END ===

=== CODE BLOCK ADDRESS 0x17a2 ===
  0x17a2	add    	eax, 0x1861
  0x17a7	dec    	eax
  0x17a8	cmp    	eax, ebx
  0x17aa	jne    	0x1843
  === BLOCK LINK ===
    0x17b0
=== CODE BLOCK END ===

=== CODE BLOCK ADDRESS 0x17b0 ===
  0x17b0	dec    	eax
  0x17b1	lea    	ecx, [ebp + 0x18]
  0x17b4	call   	dword ptr [0xa4e]
  === BLOCK LINK ===
    0x17ba
=== CODE BLOCK END ===

=== CODE BLOCK ADDRESS 0x17ba ===
  0x17ba	dec    	eax
  0x17bb	mov    	eax, dword ptr [ebp + 0x18]
  0x17be	dec    	eax
  0x17bf	mov    	dword ptr [ebp + 0x10], eax
  0x17c2	call   	dword ptr [0x9d8]
  === BLOCK LINK ===
    0x17c8
=== CODE BLOCK END ===

=== CODE BLOCK ADDRESS 0x17c8 ===
  0x17c8	mov    	eax, eax
  0x17ca	dec    	eax
  0x17cb	xor    	dword ptr [ebp + 0x10], eax
  0x17ce	call   	dword ptr [0x9c4]
  === BLOCK LINK ===
    0x17d4
=== CODE BLOCK END ===

=== CODE BLOCK ADDRESS 0x17d4 ===
  0x17d4	mov    	eax, eax
  0x17d6	dec    	eax
  0x17d7	xor    	dword ptr [ebp + 0x10], eax
  0x17da	call   	dword ptr [0xa30]
  === BLOCK LINK ===
    0x17e0
=== CODE BLOCK END ===

=== CODE BLOCK ADDRESS 0x17e0 ===
  0x17e0	mov    	eax, eax
  0x17e2	dec    	eax
  0x17e3	shl    	eax, 0x18
  0x17e6	dec    	eax
  0x17e7	xor    	dword ptr [ebp + 0x10], eax
  === BLOCK LINK ===
    0x17ea
=== CODE BLOCK END ===

=== CODE BLOCK ADDRESS 0x17ea ===
  0x17ea	call   	dword ptr [0xa20]
  === BLOCK LINK ===
    0x17f0
=== CODE BLOCK END ===

=== CODE BLOCK ADDRESS 0x17f0 ===
  0x17f0	mov    	eax, eax
  0x17f2	dec    	eax
  0x17f3	lea    	ecx, [ebp + 0x10]
  0x17f6	dec    	eax
  0x17f7	xor    	eax, dword ptr [ebp + 0x10]
  === BLOCK LINK ===
    0x17fa
=== CODE BLOCK END ===

=== CODE BLOCK ADDRESS 0x17fa ===
  0x17fa	dec    	eax
  0x17fb	xor    	eax, ecx
  0x17fd	dec    	eax
  0x17fe	lea    	ecx, [ebp + 0x20]
  0x1801	dec    	eax
  === BLOCK LINK ===
    0x1802
=== CODE BLOCK END ===

=== CODE BLOCK ADDRESS 0x1802 ===
  0x1802	mov    	dword ptr [ebp + 0x10], eax
  0x1805	call   	dword ptr [0x9bd]
  === BLOCK LINK ===
    0x180b
=== CODE BLOCK END ===

=== CODE BLOCK ADDRESS 0x180b ===
  0x180b	mov    	eax, dword ptr [ebp + 0x20]
  0x180e	dec    	eax
  0x180f	mov    	ecx, 0xffffffff
  0x1814	.byte  	0xff
  0x1815	inc    	dword ptr [eax]
  === BLOCK LINK ===
    0x1817
=== CODE BLOCK END ===

=== CODE BLOCK ADDRESS 0x1817 ===
  0x1817	add    	byte ptr [eax - 0x3f], cl
  0x181a	loopne  	0x183c
  === BLOCK LINK ===
    0x181c
=== CODE BLOCK END ===

=== CODE BLOCK ADDRESS 0x181c ===
  0x181c	dec    	eax
  0x181d	xor    	eax, dword ptr [ebp + 0x20]
  0x1820	dec    	eax
  0x1821	xor    	eax, dword ptr [ebp + 0x10]
  0x1824	dec    	eax
  === BLOCK LINK ===
    0x1825
=== CODE BLOCK END ===

=== CODE BLOCK ADDRESS 0x1825 ===
  0x1825	and    	eax, ecx
  0x1827	dec    	eax
  0x1828	mov    	ecx, eax
  0x182a	dec    	eax
  0x182b	cmp    	eax, ebx
  === BLOCK LINK ===
    0x182d
=== CODE BLOCK END ===

=== CODE BLOCK ADDRESS 0x182d ===
  0x182d	jne    	0x183c
  === BLOCK LINK ===
    0x182f
=== CODE BLOCK END ===

=== CODE BLOCK ADDRESS 0x182f ===
  0x182f	dec    	eax
  0x1830	mov    	eax, 0x2ddfa233
  0x1835	cdq    	
  0x1836	sub    	eax, dword ptr [eax]
  0x1838	add    	byte ptr [eax - 0x75], cl
  === BLOCK LINK ===
    0x183b
=== CODE BLOCK END ===

=== CODE BLOCK ADDRESS 0x183b ===
  0x183b	enter  	-0x76b8, 0xd
  0x183f	lds    	edx, ptr [edi]
  0x1841	add    	byte ptr [eax], al
  0x1843	dec    	eax
  0x1844	mov    	ebx, dword ptr [esp + 0x48]
  === BLOCK LINK ===
    0x1848
=== CODE BLOCK END ===

=== CODE BLOCK ADDRESS 0x1848 ===
  0x1848	dec    	eax
  0x1849	not    	eax
  0x184b	dec    	eax
  0x184c	mov    	dword ptr [0x17be], eax
  0x1852	dec    	eax
  === BLOCK LINK ===
    0x1853
=== CODE BLOCK END ===

=== CODE BLOCK ADDRESS 0x1853 ===
  0x1853	add    	esp, 0x20
  0x1856	pop    	ebp
  0x1857	ret    	
  0x1858	int3   	
  0x1859	int3   	
  === BLOCK LINK ===
    0x185a
=== CODE BLOCK END ===

=== CODE BLOCK ADDRESS 0x185a ===
  0x185a	int3   	
  0x185b	int3   	
  0x185c	int3   	
  0x185d	int3   	
  0x185e	jmp    	dword ptr [0xa14]
  === BLOCK LINK ===
    0x1864
=== CODE BLOCK END ===

=== CODE BLOCK ADDRESS 0x1864 ===
  0x1864	int3   	
  0x1865	int3   	
  0x1866	int3   	
  0x1867	int3   	
  0x1868	int3   	
  === BLOCK LINK ===
    0x1869
=== CODE BLOCK END ===

=== CODE BLOCK ADDRESS 0x1869 ===
  0x1869	int3   	
  0x186a	jmp    	dword ptr [0x9f0]
  === BLOCK LINK ===
    0x1870
=== CODE BLOCK END ===

=== CODE BLOCK ADDRESS 0x1870 ===
  0x1870	int3   	
  0x1871	int3   	
  0x1872	int3   	
  0x1873	int3   	
  0x1874	int3   	
  === BLOCK LINK ===
    0x1875
=== CODE BLOCK END ===

=== CODE BLOCK ADDRESS 0x1875 ===
  0x1875	int3   	
  0x1876	int3   	
  0x1877	int3   	
  0x1878	int3   	
  0x1879	int3   	
  === BLOCK LINK ===
    0x187a
=== CODE BLOCK END ===

=== CODE BLOCK ADDRESS 0x187a ===
  0x187a	int3   	
  0x187b	int3   	
  0x187c	int3   	
  0x187d	int3   	
  0x187e	int3   	
  === BLOCK LINK ===
    0x187f
=== CODE BLOCK END ===

=== CODE BLOCK ADDRESS 0x187f ===
  0x187f	int3   	
  0x1880	ret    	0
  0x1883	int3   	
  0x1884	int3   	
  0x1885	int3   	
  === BLOCK LINK ===
    0x1886
=== CODE BLOCK END ===

=== CODE BLOCK ADDRESS 0x1638 ===
  0x1638	inc    	eax
  0x1639	push   	ebx
  0x163a	dec    	eax
  0x163b	sub    	esp, 0x20
  === BLOCK LINK ===
    0x163e
=== CODE BLOCK END ===

=== CODE BLOCK ADDRESS 0x1886 ===
  0x1886	int3   	
  0x1887	int3   	
  0x1888	int3   	
  0x1889	int3   	
  0x188a	int3   	
  === BLOCK LINK ===
    0x188b
=== CODE BLOCK END ===

=== CODE BLOCK ADDRESS 0x188b ===
  0x188b	int3   	
  0x188c	inc    	eax
  0x188d	push   	ebx
  0x188e	dec    	eax
  0x188f	sub    	esp, 0x20
  === BLOCK LINK ===
    0x1892
=== CODE BLOCK END ===

=== CODE BLOCK ADDRESS 0x1892 ===
  0x1892	dec    	eax
  0x1893	mov    	ebx, ecx
  0x1895	xor    	ecx, ecx
  0x1897	call   	dword ptr [0x8db]
  === BLOCK LINK ===
    0x189d
=== CODE BLOCK END ===

=== CODE BLOCK ADDRESS 0x189d ===
  0x189d	dec    	eax
  0x189e	mov    	ecx, ebx
  0x18a0	call   	dword ptr [0x8ca]
  === BLOCK LINK ===
    0x18a6
=== CODE BLOCK END ===

=== CODE BLOCK ADDRESS 0x18a6 ===
  0x18a6	call   	dword ptr [0x8fc]
  === BLOCK LINK ===
    0x18ac
=== CODE BLOCK END ===

=== CODE BLOCK ADDRESS 0x18ac ===
  0x18ac	dec    	eax
  0x18ad	mov    	ecx, eax
  0x18af	mov    	edx, 0xc0000409
  0x18b4	dec    	eax
  0x18b5	add    	esp, 0x20
  === BLOCK LINK ===
    0x18b8
=== CODE BLOCK END ===

=== CODE BLOCK ADDRESS 0x18b8 ===
  0x18b8	pop    	ebx
  0x18b9	dec    	eax
  0x18ba	jmp    	dword ptr [0x8f0]
  === BLOCK LINK ===
    0x18c0
=== CODE BLOCK END ===

=== CODE BLOCK ADDRESS 0x18c0 ===
  0x18c0	int3   	
  0x18c1	int3   	
  0x18c2	int3   	
  0x18c3	int3   	
  0x18c4	int3   	
  === BLOCK LINK ===
    0x18c5
=== CODE BLOCK END ===

=== CODE BLOCK ADDRESS 0x18c5 ===
  0x18c5	int3   	
  0x18c6	int3   	
  0x18c7	int3   	
  0x18c8	int3   	
  0x18c9	int3   	
  === BLOCK LINK ===
    0x18ca
=== CODE BLOCK END ===

=== CODE BLOCK ADDRESS 0x18ca ===
  0x18ca	int3   	
  0x18cb	int3   	
  0x18cc	int3   	
  0x18cd	int3   	
  0x18ce	int3   	
  === BLOCK LINK ===
    0x18cf
=== CODE BLOCK END ===

=== CODE BLOCK ADDRESS 0x18cf ===
  0x18cf	int3   	
  0x18d0	dec    	eax
  0x18d1	mov    	dword ptr [esp + 8], ecx
  0x18d5	dec    	eax
  0x18d6	sub    	esp, 0x88
  === BLOCK LINK ===
    0x18dc
=== CODE BLOCK END ===

=== CODE BLOCK ADDRESS 0x18dc ===
  0x18dc	dec    	eax
  0x18dd	lea    	ecx, [0x181d]
  0x18e3	call   	dword ptr [0x8ef]
  === BLOCK LINK ===
    0x18e9
=== CODE BLOCK END ===

=== CODE BLOCK ADDRESS 0x18e9 ===
  0x18e9	dec    	eax
  0x18ea	mov    	eax, dword ptr [0x1908]
  0x18f0	dec    	eax
  0x18f1	mov    	dword ptr [esp + 0x48], eax
  0x18f5	inc    	ebp
  === BLOCK LINK ===
    0x18f6
=== CODE BLOCK END ===

=== CODE BLOCK ADDRESS 0x18f6 ===
  0x18f6	xor    	eax, eax
  0x18f8	dec    	eax
  0x18f9	lea    	edx, [esp + 0x50]
  0x18fd	dec    	eax
  0x18fe	mov    	ecx, dword ptr [esp + 0x48]
  === BLOCK LINK ===
    0x1902
=== CODE BLOCK END ===

=== CODE BLOCK ADDRESS 0x1902 ===
  0x1902	call   	dword ptr [0x8d8]
  === BLOCK LINK ===
    0x1908
=== CODE BLOCK END ===

=== CODE BLOCK ADDRESS 0x1908 ===
  0x1908	dec    	eax
  0x1909	mov    	dword ptr [esp + 0x40], eax
  0x190d	dec    	eax
  0x190e	cmp    	dword ptr [esp + 0x40], 0
  0x1913	je     	0x1957
  === BLOCK LINK ===
    0x1915
=== CODE BLOCK END ===

=== CODE BLOCK ADDRESS 0x1915 ===
  0x1915	dec    	eax
  0x1916	mov    	dword ptr [esp + 0x38], 0
  0x191e	dec    	eax
  0x191f	lea    	eax, [esp + 0x58]
  0x1923	dec    	eax
  === BLOCK LINK ===
    0x1924
=== CODE BLOCK END ===

=== CODE BLOCK ADDRESS 0x1924 ===
  0x1924	mov    	dword ptr [esp + 0x30], eax
  0x1928	dec    	eax
  0x1929	lea    	eax, [esp + 0x60]
  0x192d	dec    	eax
  0x192e	mov    	dword ptr [esp + 0x28], eax
  === BLOCK LINK ===
    0x1932
=== CODE BLOCK END ===

=== CODE BLOCK ADDRESS 0x1932 ===
  0x1932	dec    	eax
  0x1933	lea    	eax, [0x17c7]
  0x1939	dec    	eax
  0x193a	mov    	dword ptr [esp + 0x20], eax
  0x193e	dec    	esp
  === BLOCK LINK ===
    0x193f
=== CODE BLOCK END ===

=== CODE BLOCK ADDRESS 0x193f ===
  0x193f	mov    	ecx, dword ptr [esp + 0x40]
  0x1943	dec    	esp
  0x1944	mov    	eax, dword ptr [esp + 0x48]
  0x1948	dec    	eax
  0x1949	mov    	edx, dword ptr [esp + 0x50]
  === BLOCK LINK ===
    0x194d
=== CODE BLOCK END ===

=== CODE BLOCK ADDRESS 0x194d ===
  0x194d	xor    	ecx, ecx
  0x194f	call   	dword ptr [0x893]
  === BLOCK LINK ===
    0x1955
=== CODE BLOCK END ===

=== CODE BLOCK ADDRESS 0x1955 ===
  0x1955	jmp    	0x197a
  === BLOCK LINK ===
    0x1957
=== CODE BLOCK END ===

=== CODE BLOCK ADDRESS 0x1957 ===
  0x1957	dec    	eax
  0x1958	mov    	eax, dword ptr [0x183a]
  0x195e	dec    	eax
  0x195f	mov    	eax, dword ptr [eax]
  0x1961	dec    	eax
  === BLOCK LINK ===
    0x1962
=== CODE BLOCK END ===

=== CODE BLOCK ADDRESS 0x1962 ===
  0x1962	mov    	dword ptr [0x1890], eax
  0x1968	dec    	eax
  0x1969	mov    	eax, dword ptr [0x1829]
  0x196f	dec    	eax
  0x1970	add    	eax, 8
  === BLOCK LINK ===
    0x1973
=== CODE BLOCK END ===

=== CODE BLOCK ADDRESS 0x1973 ===
  0x1973	dec    	eax
  0x1974	mov    	dword ptr [0x181e], eax
  0x197a	dec    	eax
  0x197b	mov    	eax, dword ptr [0x1877]
  0x1981	dec    	eax
  === BLOCK LINK ===
    0x1982
=== CODE BLOCK END ===

=== CODE BLOCK ADDRESS 0x1982 ===
  0x1982	mov    	dword ptr [0x16e8], eax
  0x1988	dec    	eax
  0x1989	mov    	eax, dword ptr [esp + 0x90]
  0x1990	dec    	eax
  0x1991	mov    	dword ptr [0x17e9], eax
  === BLOCK LINK ===
    0x1997
=== CODE BLOCK END ===

=== CODE BLOCK ADDRESS 0x1997 ===
  0x1997	mov    	dword ptr [0x16bf], 0xc0000409
  0x19a1	mov    	dword ptr [0x16b9], 1
  0x19ab	mov    	dword ptr [0x16c3], 3
  0x19b5	mov    	eax, 8
  0x19ba	dec    	eax
  === BLOCK LINK ===
    0x19bb
=== CODE BLOCK END ===

=== CODE BLOCK ADDRESS 0x19bb ===
  0x19bb	imul   	eax, eax, 0
  0x19be	dec    	eax
  0x19bf	lea    	ecx, [0x16bb]
  0x19c5	dec    	eax
  0x19c6	mov    	dword ptr [ecx + eax], 2
  === BLOCK LINK ===
    0x19cd
=== CODE BLOCK END ===

=== CODE BLOCK ADDRESS 0x19cd ===
  0x19cd	mov    	eax, 8
  0x19d2	dec    	eax
  0x19d3	imul   	eax, eax, 1
  0x19d6	dec    	eax
  0x19d7	lea    	ecx, [0x16a3]
  === BLOCK LINK ===
    0x19dd
=== CODE BLOCK END ===

=== CODE BLOCK ADDRESS 0x19dd ===
  0x19dd	dec    	eax
  0x19de	mov    	edx, dword ptr [0x1624]
  0x19e4	dec    	eax
  0x19e5	mov    	dword ptr [ecx + eax], edx
  0x19e8	mov    	eax, 8
  === BLOCK LINK ===
    0x19ed
=== CODE BLOCK END ===

=== CODE BLOCK ADDRESS 0x19ed ===
  0x19ed	dec    	eax
  0x19ee	imul   	eax, eax, 2
  0x19f1	dec    	eax
  0x19f2	lea    	ecx, [0x1688]
  0x19f8	dec    	eax
  === BLOCK LINK ===
    0x19f9
=== CODE BLOCK END ===

=== CODE BLOCK ADDRESS 0x19f9 ===
  0x19f9	mov    	edx, dword ptr [0x1611]
  0x19ff	dec    	eax
  0x1a00	mov    	dword ptr [ecx + eax], edx
  0x1a03	mov    	eax, 8
  0x1a08	dec    	eax
  === BLOCK LINK ===
    0x1a09
=== CODE BLOCK END ===

=== CODE BLOCK ADDRESS 0x1a09 ===
  0x1a09	imul   	eax, eax, 0
  0x1a0c	dec    	eax
  0x1a0d	mov    	ecx, dword ptr [0x15f5]
  0x1a13	dec    	eax
  0x1a14	mov    	dword ptr [esp + eax + 0x68], ecx
  === BLOCK LINK ===
    0x1a18
=== CODE BLOCK END ===

=== CODE BLOCK ADDRESS 0x1a18 ===
  0x1a18	mov    	eax, 8
  0x1a1d	dec    	eax
  0x1a1e	imul   	eax, eax, 1
  0x1a21	dec    	eax
  0x1a22	mov    	ecx, dword ptr [0x15e8]
  === BLOCK LINK ===
    0x1a28
=== CODE BLOCK END ===

=== CODE BLOCK ADDRESS 0x1a28 ===
  0x1a28	dec    	eax
  0x1a29	mov    	dword ptr [esp + eax + 0x68], ecx
  0x1a2d	dec    	eax
  0x1a2e	lea    	ecx, [0x5cc]
  0x1a34	call   	0x188c
  === BLOCK LINK ===
    0x1a39
=== CODE BLOCK END ===

=== CODE BLOCK ADDRESS 0x1a39 ===
  0x1a39	dec    	eax
  0x1a3a	add    	esp, 0x88
  0x1a40	ret    	
  0x1a41	int3   	
  0x1a42	int3   	
  === BLOCK LINK ===
    0x1a43
=== CODE BLOCK END ===

=== CODE BLOCK ADDRESS 0x1690 ===
  0x1690	xor    	eax, eax
  0x1692	ret    	
  0x1693	int3   	
  === BLOCK LINK ===
    0x1694
=== CODE BLOCK END ===

=== CODE BLOCK ADDRESS 0x1a43 ===
  0x1a43	int3   	
  0x1a44	int3   	
  0x1a45	int3   	
  0x1a46	int3   	
  0x1a47	int3   	
  === BLOCK LINK ===
    0x1a48
=== CODE BLOCK END ===

=== CODE BLOCK ADDRESS 0x1a48 ===
  0x1a48	int3   	
  0x1a49	int3   	
  0x1a4a	int3   	
  0x1a4b	int3   	
  0x1a4c	int3   	
  === BLOCK LINK ===
    0x1a4d
=== CODE BLOCK END ===

=== CODE BLOCK ADDRESS 0x1a4d ===
  0x1a4d	int3   	
  0x1a4e	int3   	
  0x1a4f	int3   	
  0x1a50	int3   	
  0x1a51	int3   	
  === BLOCK LINK ===
    0x1a52
=== CODE BLOCK END ===

=== CODE BLOCK ADDRESS 0x1a52 ===
  0x1a52	int3   	
  0x1a53	int3   	
  0x1a54	int3   	
  0x1a55	int3   	
  0x1a56	int3   	
  === BLOCK LINK ===
    0x1a57
=== CODE BLOCK END ===

=== CODE BLOCK ADDRESS 0x1a57 ===
  0x1a57	int3   	
  0x1a58	dec    	eax
  0x1a59	sub    	esp, 0x28
  0x1a5c	dec    	ebp
  0x1a5d	mov    	eax, dword ptr [ecx + 0x38]
  === BLOCK LINK ===
    0x1a60
=== CODE BLOCK END ===

=== CODE BLOCK ADDRESS 0x1a60 ===
  0x1a60	dec    	eax
  0x1a61	mov    	ecx, edx
  0x1a63	dec    	ecx
  0x1a64	mov    	edx, ecx
  0x1a66	call   	0x1a7c
  === BLOCK LINK ===
    0x1a6b
=== CODE BLOCK END ===

=== CODE BLOCK ADDRESS 0x1a6b ===
  0x1a6b	mov    	eax, 1
  0x1a70	dec    	eax
  0x1a71	add    	esp, 0x28
  0x1a74	ret    	
  0x1a75	int3   	
  === BLOCK LINK ===
    0x1a76
=== CODE BLOCK END ===

=== CODE BLOCK ADDRESS 0x1a76 ===
  0x1a76	int3   	
  0x1a77	int3   	
  0x1a78	int3   	
  0x1a79	int3   	
  0x1a7a	int3   	
  === BLOCK LINK ===
    0x1a7b
=== CODE BLOCK END ===

=== CODE BLOCK ADDRESS 0x1a7b ===
  0x1a7b	int3   	
  0x1a7c	inc    	eax
  0x1a7d	push   	ebx
  0x1a7e	inc    	ebp
  0x1a7f	mov    	ebx, dword ptr [eax]
  === BLOCK LINK ===
    0x1a81
=== CODE BLOCK END ===

=== CODE BLOCK ADDRESS 0x1a81 ===
  0x1a81	dec    	eax
  0x1a82	mov    	ebx, edx
  0x1a84	inc    	ecx
  0x1a85	and    	ebx, 0xfffffff8
  0x1a88	dec    	esp
  === BLOCK LINK ===
    0x1a89
=== CODE BLOCK END ===

=== CODE BLOCK ADDRESS 0x1a89 ===
  0x1a89	mov    	ecx, ecx
  0x1a8b	inc    	ecx
  0x1a8c	test   	byte ptr [eax], 4
  0x1a8f	dec    	esp
  0x1a90	mov    	edx, ecx
  === BLOCK LINK ===
    0x1a92
=== CODE BLOCK END ===

=== CODE BLOCK ADDRESS 0x1a92 ===
  0x1a92	je     	0x1aa7
  === BLOCK LINK ===
    0x1a94
=== CODE BLOCK END ===

=== CODE BLOCK ADDRESS 0x1a94 ===
  0x1a94	inc    	ecx
  0x1a95	mov    	eax, dword ptr [eax + 8]
  0x1a98	dec    	ebp
  0x1a99	arpl   	word ptr [eax + 4], dx
  0x1a9c	neg    	eax
  === BLOCK LINK ===
    0x1a9e
=== CODE BLOCK END ===

=== CODE BLOCK ADDRESS 0x1a9e ===
  0x1a9e	dec    	esp
  0x1a9f	add    	edx, ecx
  0x1aa1	dec    	eax
  0x1aa2	arpl   	ax, cx
  0x1aa4	dec    	esp
  === BLOCK LINK ===
    0x1aa5
=== CODE BLOCK END ===

=== CODE BLOCK ADDRESS 0x1aa5 ===
  0x1aa5	and    	edx, ecx
  0x1aa7	dec    	ecx
  0x1aa8	arpl   	bx, ax
  0x1aaa	dec    	edx
  0x1aab	mov    	edx, dword ptr [eax + edx]
  === BLOCK LINK ===
    0x1aae
=== CODE BLOCK END ===

=== CODE BLOCK ADDRESS 0x1aae ===
  0x1aae	dec    	eax
  0x1aaf	mov    	eax, dword ptr [ebx + 0x10]
  0x1ab2	mov    	ecx, dword ptr [eax + 8]
  0x1ab5	dec    	eax
  0x1ab6	mov    	eax, dword ptr [ebx + 8]
  === BLOCK LINK ===
    0x1ab9
=== CODE BLOCK END ===

=== CODE BLOCK ADDRESS 0x1ab9 ===
  0x1ab9	test   	byte ptr [ecx + eax + 3], 0xf
  0x1abe	je     	0x1acb
  === BLOCK LINK ===
    0x1ac0
=== CODE BLOCK END ===

=== CODE BLOCK ADDRESS 0x1ac0 ===
  0x1ac0	movzx  	eax, byte ptr [ecx + eax + 3]
  0x1ac5	and    	eax, 0xfffffff0
  0x1ac8	dec    	esp
  0x1ac9	add    	ecx, eax
  0x1acb	dec    	esp
  === BLOCK LINK ===
    0x1acc
=== CODE BLOCK END ===

=== CODE BLOCK ADDRESS 0x1acc ===
  0x1acc	xor    	ecx, edx
  0x1ace	dec    	ecx
  0x1acf	mov    	ecx, ecx
  0x1ad1	pop    	ebx
  0x1ad2	jmp    	0x1540
  === BLOCK LINK ===
    0x1ad7
=== CODE BLOCK END ===

=== CODE BLOCK ADDRESS 0x1ad7 ===
  0x1ad7	int3   	
  0x1ad8	int3   	
  0x1ad9	int3   	
  0x1ada	int3   	
  0x1adb	int3   	
  === BLOCK LINK ===
    0x1adc
=== CODE BLOCK END ===

=== CODE BLOCK ADDRESS 0x1adc ===
  0x1adc	int3   	
  0x1add	int3   	
  0x1ade	int3   	
  0x1adf	int3   	
  0x1ae0	int3   	
  === BLOCK LINK ===
    0x1ae1
=== CODE BLOCK END ===

=== CODE BLOCK ADDRESS 0x1ae1 ===
  0x1ae1	int3   	
  0x1ae2	int3   	
  0x1ae3	int3   	
  0x1ae4	int3   	
  0x1ae5	int3   	
  === BLOCK LINK ===
    0x1ae6
=== CODE BLOCK END ===

=== CODE BLOCK ADDRESS 0x1ae6 ===
  0x1ae6	nop    	word ptr [eax + eax]
  0x1af0	jmp    	eax
  === BLOCK LINK ===
    0x1af2
=== CODE BLOCK END ===

=== CODE BLOCK ADDRESS 0x1af2 ===
  0x1af2	int3   	
  0x1af3	int3   	
  0x1af4	int3   	
  0x1af5	int3   	
  0x1af6	int3   	
  === BLOCK LINK ===
    0x1af7
=== CODE BLOCK END ===

=== CODE BLOCK ADDRESS 0x1af7 ===
  0x1af7	int3   	
  0x1af8	int3   	
  0x1af9	int3   	
  0x1afa	int3   	
  0x1afb	int3   	
  === BLOCK LINK ===
    0x1afc
=== CODE BLOCK END ===

=== CODE BLOCK ADDRESS 0x1afc ===
  0x1afc	int3   	
  0x1afd	int3   	
  0x1afe	int3   	
  0x1aff	int3   	
  0x1b00	inc    	eax
  === BLOCK LINK ===
    0x1b01
=== CODE BLOCK END ===

=== CODE BLOCK ADDRESS 0x1b01 ===
  0x1b01	push   	ebp
  0x1b02	dec    	eax
  0x1b03	sub    	esp, 0x20
  0x1b06	dec    	eax
  0x1b07	mov    	ebp, edx
  === BLOCK LINK ===
    0x1b09
=== CODE BLOCK END ===

=== CODE BLOCK ADDRESS 0x1b09 ===
  0x1b09	dec    	eax
  0x1b0a	mov    	eax, dword ptr [ecx]
  0x1b0c	dec    	eax
  0x1b0d	mov    	edx, ecx
  0x1b0f	mov    	ecx, dword ptr [eax]
  === BLOCK LINK ===
    0x1b11
=== CODE BLOCK END ===

=== CODE BLOCK ADDRESS 0x1b11 ===
  0x1b11	call   	0x15ce
  === BLOCK LINK ===
    0x1b16
=== CODE BLOCK END ===

=== CODE BLOCK ADDRESS 0x1b16 ===
  0x1b16	nop    	
  0x1b17	dec    	eax
  0x1b18	add    	esp, 0x20
  0x1b1b	pop    	ebp
  0x1b1c	ret    	
  === BLOCK LINK ===
    0x1b1d
=== CODE BLOCK END ===

=== CODE BLOCK ADDRESS 0x1b1d ===
  0x1b1d	int3   	
  0x1b1e	int3   	
  0x1b1f	int3   	
  0x1b20	int3   	
  0x1b21	int3   	
  === BLOCK LINK ===
    0x1b22
=== CODE BLOCK END ===

=== CODE BLOCK ADDRESS 0x1b22 ===
  0x1b22	int3   	
  0x1b23	int3   	
  0x1b24	int3   	
  0x1b25	int3   	
  0x1b26	int3   	
  === BLOCK LINK ===
    0x1b27
=== CODE BLOCK END ===

=== CODE BLOCK ADDRESS 0x1b27 ===
  0x1b27	int3   	
  0x1b28	int3   	
  0x1b29	int3   	
  0x1b2a	int3   	
  0x1b2b	int3   	
  === BLOCK LINK ===
    0x1b2c
=== CODE BLOCK END ===

=== CODE BLOCK ADDRESS 0x1b2c ===
  0x1b2c	int3   	
  0x1b2d	int3   	
  0x1b2e	int3   	
  0x1b2f	int3   	
  0x1b30	inc    	eax
  === BLOCK LINK ===
    0x1b31
=== CODE BLOCK END ===

=== CODE BLOCK ADDRESS 0x1b31 ===
  0x1b31	push   	ebp
  0x1b32	dec    	eax
  0x1b33	sub    	esp, 0x20
  0x1b36	dec    	eax
  0x1b37	mov    	ebp, edx
  === BLOCK LINK ===
    0x1b39
=== CODE BLOCK END ===

=== CODE BLOCK ADDRESS 0x1b39 ===
  0x1b39	dec    	eax
  0x1b3a	mov    	eax, dword ptr [ecx]
  0x1b3c	xor    	ecx, ecx
  0x1b3e	cmp    	dword ptr [eax], 0xc0000005
  0x1b44	sete   	cl
  === BLOCK LINK ===
    0x1b47
=== CODE BLOCK END ===

=== CODE BLOCK ADDRESS 0x1b47 ===
  0x1b47	mov    	eax, ecx
  0x1b49	dec    	eax
  0x1b4a	add    	esp, 0x20
  0x1b4d	pop    	ebp
  0x1b4e	ret    	
  === BLOCK LINK ===
    0x1b4f
=== CODE BLOCK END ===

=== CODE BLOCK ADDRESS 0x1b4f ===
  0x1b4f	int3   	
  0x1b50	add    	byte ptr [eax], al
  0x1b52	add    	byte ptr [eax], al
  0x1b54	add    	byte ptr [eax], al
  0x1b56	add    	byte ptr [eax], al
  === BLOCK LINK ===
    0x1b58
=== CODE BLOCK END ===

=== CODE BLOCK ADDRESS 0x1b58 ===
  0x1b58	add    	byte ptr [eax], al
  0x1b5a	add    	byte ptr [eax], al
  0x1b5c	add    	byte ptr [eax], al
  0x1b5e	add    	byte ptr [eax], al
  0x1b60	add    	byte ptr [eax], al
  === BLOCK LINK ===
    0x1b62
=== CODE BLOCK END ===

=== CODE BLOCK ADDRESS 0x1b62 ===
  0x1b62	add    	byte ptr [eax], al
  0x1b64	add    	byte ptr [eax], al
  0x1b66	add    	byte ptr [eax], al
  0x1b68	add    	byte ptr [eax], al
  0x1b6a	add    	byte ptr [eax], al
  === BLOCK LINK ===
    0x1b6c
=== CODE BLOCK END ===

=== CODE BLOCK ADDRESS 0x1b6c ===
  0x1b6c	add    	byte ptr [eax], al
  0x1b6e	add    	byte ptr [eax], al
  0x1b70	add    	byte ptr [eax], al
  0x1b72	add    	byte ptr [eax], al
  0x1b74	add    	byte ptr [eax], al
  === BLOCK LINK ===
    0x1b76
=== CODE BLOCK END ===

=== CODE BLOCK ADDRESS 0x1b76 ===
  0x1b76	add    	byte ptr [eax], al
  0x1b78	add    	byte ptr [eax], al
  0x1b7a	add    	byte ptr [eax], al
  0x1b7c	add    	byte ptr [eax], al
  0x1b7e	add    	byte ptr [eax], al
  === BLOCK LINK ===
    0x1b80
=== CODE BLOCK END ===

=== CODE BLOCK ADDRESS 0x1b80 ===
  0x1b80	add    	byte ptr [eax], al
  0x1b82	add    	byte ptr [eax], al
  0x1b84	add    	byte ptr [eax], al
  0x1b86	add    	byte ptr [eax], al
  0x1b88	add    	byte ptr [eax], al
  === BLOCK LINK ===
    0x1b8a
=== CODE BLOCK END ===

=== CODE BLOCK ADDRESS 0x1b8a ===
  0x1b8a	add    	byte ptr [eax], al
  0x1b8c	add    	byte ptr [eax], al
  0x1b8e	add    	byte ptr [eax], al
  0x1b90	add    	byte ptr [eax], al
  0x1b92	add    	byte ptr [eax], al
  === BLOCK LINK ===
    0x1b94
=== CODE BLOCK END ===

=== CODE BLOCK ADDRESS 0x1b94 ===
  0x1b94	add    	byte ptr [eax], al
  0x1b96	add    	byte ptr [eax], al
  0x1b98	add    	byte ptr [eax], al
  0x1b9a	add    	byte ptr [eax], al
  0x1b9c	add    	byte ptr [eax], al
  === BLOCK LINK ===
    0x1b9e
=== CODE BLOCK END ===

=== CODE BLOCK ADDRESS 0x1b9e ===
  0x1b9e	add    	byte ptr [eax], al
  0x1ba0	add    	byte ptr [eax], al
  0x1ba2	add    	byte ptr [eax], al
  0x1ba4	add    	byte ptr [eax], al
  0x1ba6	add    	byte ptr [eax], al
  === BLOCK LINK ===
    0x1ba8
=== CODE BLOCK END ===

=== CODE BLOCK ADDRESS 0x1ba8 ===
  0x1ba8	add    	byte ptr [eax], al
  0x1baa	add    	byte ptr [eax], al
  0x1bac	add    	byte ptr [eax], al
  0x1bae	add    	byte ptr [eax], al
  0x1bb0	add    	byte ptr [eax], al
  === BLOCK LINK ===
    0x1bb2
=== CODE BLOCK END ===

=== CODE BLOCK ADDRESS 0x1bb2 ===
  0x1bb2	add    	byte ptr [eax], al
  0x1bb4	add    	byte ptr [eax], al
  0x1bb6	add    	byte ptr [eax], al
  0x1bb8	add    	byte ptr [eax], al
  0x1bba	add    	byte ptr [eax], al
  === BLOCK LINK ===
    0x1bbc
=== CODE BLOCK END ===

=== CODE BLOCK ADDRESS 0x1bbc ===
  0x1bbc	add    	byte ptr [eax], al
  0x1bbe	add    	byte ptr [eax], al
  0x1bc0	add    	byte ptr [eax], al
  0x1bc2	add    	byte ptr [eax], al
  0x1bc4	add    	byte ptr [eax], al
  === BLOCK LINK ===
    0x1bc6
=== CODE BLOCK END ===

=== CODE BLOCK ADDRESS 0x1bc6 ===
  0x1bc6	add    	byte ptr [eax], al
  0x1bc8	add    	byte ptr [eax], al
  0x1bca	add    	byte ptr [eax], al
  0x1bcc	add    	byte ptr [eax], al
  0x1bce	add    	byte ptr [eax], al
  === BLOCK LINK ===
    0x1bd0
=== CODE BLOCK END ===

=== CODE BLOCK ADDRESS 0x1bd0 ===
  0x1bd0	add    	byte ptr [eax], al
  0x1bd2	add    	byte ptr [eax], al
  0x1bd4	add    	byte ptr [eax], al
  0x1bd6	add    	byte ptr [eax], al
  0x1bd8	add    	byte ptr [eax], al
  === BLOCK LINK ===
    0x1bda
=== CODE BLOCK END ===

=== CODE BLOCK ADDRESS 0x1bda ===
  0x1bda	add    	byte ptr [eax], al
  0x1bdc	add    	byte ptr [eax], al
  0x1bde	add    	byte ptr [eax], al
  0x1be0	add    	byte ptr [eax], al
  0x1be2	add    	byte ptr [eax], al
  === BLOCK LINK ===
    0x1be4
=== CODE BLOCK END ===

=== CODE BLOCK ADDRESS 0x1be4 ===
  0x1be4	add    	byte ptr [eax], al
  0x1be6	add    	byte ptr [eax], al
  0x1be8	add    	byte ptr [eax], al
  0x1bea	add    	byte ptr [eax], al
  0x1bec	add    	byte ptr [eax], al
  === BLOCK LINK ===
    0x1bee
=== CODE BLOCK END ===

=== CODE BLOCK ADDRESS 0x1bee ===
  0x1bee	add    	byte ptr [eax], al
  0x1bf0	add    	byte ptr [eax], al
  0x1bf2	add    	byte ptr [eax], al
  0x1bf4	add    	byte ptr [eax], al
  0x1bf6	add    	byte ptr [eax], al
  === BLOCK LINK ===
    0x1bf8
=== CODE BLOCK END ===

=== CODE BLOCK ADDRESS 0x1bf8 ===
  0x1bf8	add    	byte ptr [eax], al
  0x1bfa	add    	byte ptr [eax], al
  0x1bfc	add    	byte ptr [eax], al
=== CODE BLOCK END ===

=== DATA BLOCK ADDRESS 0x2000 ===
  0x2000	60 30 00 40 01 00 00 00 00 31 00 40 01 00 00 00 	`00@0000010@0000
  0x2010	18 01 00 00 00 00 00 00 00 00 00 00 00 00 00 00 	0000000000000000
  0x2020	00 00 00 00 00 00 00 00 00 00 00 00 00 00 00 00 	0000000000000000
  0x2030	00 00 00 00 00 00 00 00 00 00 00 00 00 00 00 00 	0000000000000000
  0x2040	00 00 00 00 00 00 00 00 00 00 00 00 00 00 00 00 	0000000000000000
  0x2050	00 00 00 00 00 00 00 00 00 00 00 00 00 00 00 00 	0000000000000000
  0x2060	00 00 00 00 00 00 00 00 08 30 00 40 01 00 00 00 	00000000000@0000
  0x2070	00 00 00 00 00 00 00 00 00 00 00 00 00 00 00 00 	0000000000000000
  0x2080	a8 22 00 40 01 00 00 00 b0 22 00 40 01 00 00 00 	0"0@00000"0@0000
  0x2090	f0 22 00 40 01 00 00 00 08 00 00 00 00 00 00 00 	0"0@000000000000
  0x20a0	00 75 01 00 00 00 00 00 00 00 00 00 00 00 00 00 	0u00000000000000
  0x20b0	00 00 00 00 00 00 00 00 00 00 00 00 00 00 00 00 	0000000000000000
  0x20c0	00 00 00 00 00 00 00 00 00 00 00 00 00 00 00 00 	0000000000000000
  0x20d0	00 00 00 00 00 00 00 00 00 00 00 00 00 00 00 00 	0000000000000000
  0x20e0	00 00 00 00 00 00 00 00 00 00 00 00 00 00 00 00 	0000000000000000
  0x20f0	00 00 00 00 00 00 00 00 00 00 00 00 00 00 00 00 	0000000000000000
  0x2100	00 00 00 00 00 00 00 00 00 00 00 00 00 00 00 00 	0000000000000000
  0x2110	00 00 00 00 00 00 00 00 00 00 00 00 00 00 00 00 	0000000000000000
  0x2120	00 00 00 00 00 00 00 00 64 00 00 00 00 00 00 80 	00000000d0000000
  0x2130	00 00 00 00 00 00 00 00 84 01 00 00 00 00 00 80 	0000000000000000
  0x2140	00 00 00 00 00 00 00 00 68 29 00 00 00 00 00 00 	00000000h)000000
  0x2150	00 00 00 00 00 00 00 00 6c 2a 00 00 00 00 00 00 	00000000l*000000
  0x2160	7e 2a 00 00 00 00 00 00 00 00 00 00 00 00 00 00 	~*00000000000000
  0x2170	90 2b 00 00 00 00 00 00 ac 2a 00 00 00 00 00 00 	0+0000000*000000
  0x2180	00 00 00 00 00 00 00 00 ca 2a 00 00 00 00 00 00 	000000000*000000
  0x2190	00 00 00 00 00 00 00 00 0e 2b 00 00 00 00 00 00 	000000000+000000
  0x21a0	f8 2a 00 00 00 00 00 00 ac 2b 00 00 00 00 00 00 	0*0000000+000000
  0x21b0	c0 2b 00 00 00 00 00 00 9a 2a 00 00 00 00 00 00 	0+0000000*000000
  0x21c0	00 00 00 00 00 00 00 00 de 2a 00 00 00 00 00 00 	000000000*000000
  0x21d0	00 00 00 00 00 00 00 00 4e 2b 00 00 00 00 00 00 	00000000N+000000
  0x21e0	62 2b 00 00 00 00 00 00 7c 2b 00 00 00 00 00 00 	b+000000|+000000
  0x21f0	00 00 00 00 00 00 00 00 92 2a 00 00 00 00 00 00 	000000000*000000
  0x2200	00 00 00 00 00 00 00 00 24 2b 00 00 00 00 00 00 	00000000$+000000
  0x2210	3e 2b 00 00 00 00 00 00 00 00 00 00 00 00 00 00 	>+00000000000000
  0x2220	d2 29 00 00 00 00 00 00 34 2a 00 00 00 00 00 00 	0)0000004*000000
  0x2230	82 29 00 00 00 00 00 00 90 29 00 00 00 00 00 00 	0)0000000)000000
  0x2240	9e 29 00 00 00 00 00 00 28 2a 00 00 00 00 00 00 	0)000000(*000000
  0x2250	1e 2a 00 00 00 00 00 00 14 2a 00 00 00 00 00 00 	0*0000000*000000
  0x2260	fc 29 00 00 00 00 00 00 b0 29 00 00 00 00 00 00 	0)0000000)000000
  0x2270	c2 29 00 00 00 00 00 00 f0 29 00 00 00 00 00 00 	0)0000000)000000
  0x2280	dc 29 00 00 00 00 00 00 ca 29 00 00 00 00 00 00 	0)0000000)000000
  0x2290	00 00 00 00 00 00 00 00 02 2d 00 00 00 00 00 00 	000000000-000000
  0x22a0	00 00 00 00 00 00 00 00 80 18 00 40 01 00 00 00 	00000000000@0000
  0x22b0	f0 1a 00 40 01 00 00 00 00 00 00 00 00 00 00 00 	000@000000000000
  0x22c0	50 12 00 40 01 00 00 00 00 00 00 00 00 00 00 00 	P00@000000000000
  0x22d0	00 00 00 00 00 00 00 00 70 11 00 40 01 00 00 00 	00000000p00@0000
  0x22e0	b0 15 00 40 01 00 00 00 00 00 00 00 00 00 00 00 	000@000000000000
  0x22f0	70 11 00 00 50 12 00 00 10 15 00 00 70 15 00 00 	p000P0000000p000
  0x2300	b0 15 00 00 90 16 00 00 80 18 00 00 d0 18 00 00 	0000000000000000
  0x2310	85 2d 62 06 56 68 60 44 8d e1 a8 19 21 b4 1c 4b 	0-b0Vh`D0000!00K
  0x2320	4d 00 69 00 63 00 72 00 6f 00 73 00 6f 00 66 00 	M0i0c0r0o0s0o0f0
  0x2330	74 00 2e 00 44 00 69 00 73 00 70 00 6c 00 61 00 	t0.0D0i0s0p0l0a0
  0x2340	79 00 00 00 00 00 00 00 62 d8 1a d1 de 66 f4 4d 	y0000000b0000f0M
  0x2350	bf 6c 1f 56 21 99 6a f1 00 00 00 00 00 00 00 00 	0l0V!0j000000000
  0x2360	00 00 00 00 67 46 25 49 00 00 00 00 02 00 00 00 	0000gF%I00000000
  0x2370	27 00 00 00 b4 23 00 00 b4 13 00 00 00 00 00 00 	'0000#0000000000
  0x2380	67 46 25 49 00 00 00 00 0d 00 00 00 f0 01 00 00 	gF%I000000000000
  0x2390	dc 23 00 00 dc 13 00 00 00 00 00 00 67 46 25 49 	0#0000000000gF%I
  0x23a0	00 00 00 00 10 00 00 00 24 00 00 00 cc 25 00 00 	00000000$0000%00
  0x23b0	cc 15 00 00 52 53 44 53 55 a0 06 a5 76 b2 b3 4f 	0000RSDSU000v00O
  0x23c0	44 e8 32 f8 72 03 97 77 01 00 00 00 44 70 69 53 	D020r00w0000DpiS
  0x23d0	63 61 6c 69 6e 67 2e 70 64 62 00 00 47 43 54 4c 	caling.pdb00GCTL
  0x23e0	00 10 00 00 e0 0a 00 00 2e 74 65 78 74 24 6d 6e 	00000000.text$mn
  0x23f0	00 00 00 00 e0 1a 00 00 20 00 00 00 2e 74 65 78 	00000000 000.tex
  0x2400	74 24 6d 6e 24 30 30 00 00 1b 00 00 50 00 00 00 	t$mn$0000000P000
  0x2410	2e 74 65 78 74 24 78 00 00 20 00 00 28 01 00 00 	.text$x00 00(000
  0x2420	2e 72 64 61 74 61 24 62 72 63 00 00 28 21 00 00 	.rdata$brc00(!00
  0x2430	80 01 00 00 2e 69 64 61 74 61 24 35 00 00 00 00 	0000.idata$50000
  0x2440	a8 22 00 00 10 00 00 00 2e 30 30 63 66 67 00 00 	0"000000.00cfg00
  0x2450	b8 22 00 00 08 00 00 00 2e 43 52 54 24 58 43 41 	0"000000.CRT$XCA
  0x2460	00 00 00 00 c0 22 00 00 08 00 00 00 2e 43 52 54 	00000"000000.CRT
  0x2470	24 58 43 41 41 00 00 00 c8 22 00 00 08 00 00 00 	$XCAA0000"000000
  0x2480	2e 43 52 54 24 58 43 5a 00 00 00 00 d0 22 00 00 	.CRT$XCZ00000"00
  0x2490	08 00 00 00 2e 43 52 54 24 58 49 41 00 00 00 00 	0000.CRT$XIA0000
  0x24a0	d8 22 00 00 08 00 00 00 2e 43 52 54 24 58 49 41 	0"000000.CRT$XIA
  0x24b0	41 00 00 00 e0 22 00 00 08 00 00 00 2e 43 52 54 	A0000"000000.CRT
  0x24c0	24 58 49 59 00 00 00 00 e8 22 00 00 08 00 00 00 	$XIY00000"000000
  0x24d0	2e 43 52 54 24 58 49 5a 00 00 00 00 f0 22 00 00 	.CRT$XIZ00000"00
  0x24e0	20 00 00 00 2e 67 66 69 64 73 00 00 10 23 00 00 	 000.gfids000#00
  0x24f0	a4 00 00 00 2e 72 64 61 74 61 00 00 b4 23 00 00 	0000.rdata000#00
  0x2500	3c 02 00 00 2e 72 64 61 74 61 24 7a 7a 7a 64 62 	<000.rdata$zzzdb
  0x2510	67 00 00 00 f0 25 00 00 dc 00 00 00 2e 78 64 61 	g0000%000000.xda
  0x2520	74 61 00 00 cc 26 00 00 04 01 00 00 2e 69 64 61 	ta000&000000.ida
  0x2530	74 61 24 32 00 00 00 00 d0 27 00 00 18 00 00 00 	ta$200000'000000
  0x2540	2e 69 64 61 74 61 24 33 00 00 00 00 e8 27 00 00 	.idata$300000'00
  0x2550	80 01 00 00 2e 69 64 61 74 61 24 34 00 00 00 00 	0000.idata$40000
  0x2560	68 29 00 00 b4 03 00 00 2e 69 64 61 74 61 24 36 	h)000000.idata$6
  0x2570	00 00 00 00 00 30 00 00 20 00 00 00 2e 64 61 74 	00000000 000.dat
  0x2580	61 00 00 00 20 30 00 00 58 06 00 00 2e 62 73 73 	a000 000X000.bss
  0x2590	00 00 00 00 00 40 00 00 f0 00 00 00 2e 70 64 61 	00000@000000.pda
  0x25a0	74 61 00 00 00 50 00 00 30 03 00 00 2e 72 73 72 	ta000P000000.rsr
  0x25b0	63 24 30 31 00 00 00 00 30 53 00 00 60 0d 01 00 	c$0100000S00`000
  0x25c0	2e 72 73 72 63 24 30 32 00 00 00 00 20 00 00 00 	.rsrc$020000 000
  0x25d0	55 a0 06 a5 76 b2 b3 4f 44 e8 32 f8 72 03 97 77 	U000v00OD020r00w
  0x25e0	ad d3 b0 83 2b 9d 1e 4f c8 eb 72 a1 67 46 25 49 	0000+00O00r0gF%I
  0x25f0	19 1b 03 00 09 01 8c 00 02 30 00 00 58 1a 00 00 	000000000000X000
  0x2600	50 04 00 00 01 06 02 00 06 72 02 30 01 04 01 00 	P00000000r000000
  0x2610	04 42 00 00 01 04 01 00 04 62 00 00 09 1c 0b 00 	0B0000000b000000
  0x2620	1c e4 1b 00 1c 74 1a 00 1c 64 19 00 1c 34 18 00 	00000t000d000400
  0x2630	1c 01 16 00 15 f0 00 00 6a 18 00 00 01 00 00 00 	00000000j0000000
  0x2640	cf 12 00 00 b9 14 00 00 00 1b 00 00 b9 14 00 00 	0000000000000000
  0x2650	01 06 02 00 06 32 02 50 01 00 00 00 09 04 01 00 	0000020P00000000
  0x2660	04 22 00 00 6a 18 00 00 01 00 00 00 ec 15 00 00 	0"00j00000000000
  0x2670	22 16 00 00 01 00 00 00 22 16 00 00 01 06 02 00 	"0000000"0000000
  0x2680	06 32 02 30 09 0a 04 00 0a 34 06 00 0a 32 06 70 	020000000400020p
  0x2690	6a 18 00 00 01 00 00 00 fd 16 00 00 30 17 00 00 	j000000000000000
  0x26a0	30 1b 00 00 30 17 00 00 01 0d 04 00 0d 34 09 00 	0000000000000400
  0x26b0	0d 32 06 50 01 0c 02 00 0c 01 11 00 00 00 00 00 	020P000000000000
  0x26c0	01 00 00 00 01 02 01 00 02 30 00 00 08 28 00 00 	0000000000000(00
  0x26d0	00 00 00 00 00 00 00 00 76 29 00 00 48 21 00 00 	00000000v)00H!00
  0x26e0	e0 28 00 00 00 00 00 00 00 00 00 00 48 2a 00 00 	0(0000000000H*00
  0x26f0	20 22 00 00 e8 27 00 00 00 00 00 00 00 00 00 00 	 "000'0000000000
  0x2700	54 2a 00 00 28 21 00 00 f8 27 00 00 00 00 00 00 	T*00(!000'000000
  0x2710	00 00 00 00 60 2a 00 00 38 21 00 00 18 28 00 00 	0000`*008!000(00
  0x2720	00 00 00 00 00 00 00 00 d4 2b 00 00 58 21 00 00 	000000000+00X!00
  0x2730	b8 28 00 00 00 00 00 00 00 00 00 00 f4 2b 00 00 	0(00000000000+00
  0x2740	f8 21 00 00 58 28 00 00 00 00 00 00 00 00 00 00 	0!00X(0000000000
  0x2750	16 2c 00 00 98 21 00 00 30 28 00 00 00 00 00 00 	0,000!000(000000
  0x2760	00 00 00 00 40 2c 00 00 70 21 00 00 48 28 00 00 	0000@,00p!00H(00
  0x2770	00 00 00 00 00 00 00 00 6a 2c 00 00 88 21 00 00 	00000000j,000!00
  0x2780	88 28 00 00 00 00 00 00 00 00 00 00 94 2c 00 00 	0(00000000000,00
  0x2790	c8 21 00 00 c8 28 00 00 00 00 00 00 00 00 00 00 	0!000(0000000000
  0x27a0	b8 2c 00 00 08 22 00 00 98 28 00 00 00 00 00 00 	0,000"000(000000
  0x27b0	00 00 00 00 dc 2c 00 00 d8 21 00 00 58 29 00 00 	00000,000!00X)00
  0x27c0	00 00 00 00 00 00 00 00 12 2d 00 00 98 22 00 00 	000000000-000"00
  0x27d0	00 00 00 00 00 00 00 00 00 00 00 00 00 00 00 00 	0000000000000000
  0x27e0	00 00 00 00 00 00 00 00 64 00 00 00 00 00 00 80 	00000000d0000000
  0x27f0	00 00 00 00 00 00 00 00 84 01 00 00 00 00 00 80 	0000000000000000
  0x2800	00 00 00 00 00 00 00 00 68 29 00 00 00 00 00 00 	00000000h)000000
  0x2810	00 00 00 00 00 00 00 00 6c 2a 00 00 00 00 00 00 	00000000l*000000
  0x2820	7e 2a 00 00 00 00 00 00 00 00 00 00 00 00 00 00 	~*00000000000000
  0x2830	90 2b 00 00 00 00 00 00 ac 2a 00 00 00 00 00 00 	0+0000000*000000
  0x2840	00 00 00 00 00 00 00 00 ca 2a 00 00 00 00 00 00 	000000000*000000
  0x2850	00 00 00 00 00 00 00 00 0e 2b 00 00 00 00 00 00 	000000000+000000
  0x2860	f8 2a 00 00 00 00 00 00 ac 2b 00 00 00 00 00 00 	0*0000000+000000
  0x2870	c0 2b 00 00 00 00 00 00 9a 2a 00 00 00 00 00 00 	0+0000000*000000
  0x2880	00 00 00 00 00 00 00 00 de 2a 00 00 00 00 00 00 	000000000*000000
  0x2890	00 00 00 00 00 00 00 00 4e 2b 00 00 00 00 00 00 	00000000N+000000
  0x28a0	62 2b 00 00 00 00 00 00 7c 2b 00 00 00 00 00 00 	b+000000|+000000
  0x28b0	00 00 00 00 00 00 00 00 92 2a 00 00 00 00 00 00 	000000000*000000
  0x28c0	00 00 00 00 00 00 00 00 24 2b 00 00 00 00 00 00 	00000000$+000000
  0x28d0	3e 2b 00 00 00 00 00 00 00 00 00 00 00 00 00 00 	>+00000000000000
  0x28e0	d2 29 00 00 00 00 00 00 34 2a 00 00 00 00 00 00 	0)0000004*000000
  0x28f0	82 29 00 00 00 00 00 00 90 29 00 00 00 00 00 00 	0)0000000)000000
  0x2900	9e 29 00 00 00 00 00 00 28 2a 00 00 00 00 00 00 	0)000000(*000000
  0x2910	1e 2a 00 00 00 00 00 00 14 2a 00 00 00 00 00 00 	0*0000000*000000
  0x2920	fc 29 00 00 00 00 00 00 b0 29 00 00 00 00 00 00 	0)0000000)000000
  0x2930	c2 29 00 00 00 00 00 00 f0 29 00 00 00 00 00 00 	0)0000000)000000
  0x2940	dc 29 00 00 00 00 00 00 ca 29 00 00 00 00 00 00 	0)0000000)000000
  0x2950	00 00 00 00 00 00 00 00 02 2d 00 00 00 00 00 00 	000000000-000000
  0x2960	00 00 00 00 00 00 00 00 67 02 4c 6f 61 64 53 74 	00000000g0LoadSt
  0x2970	72 69 6e 67 57 00 55 53 45 52 33 32 2e 64 6c 6c 	ringW0USER32.dll
  0x2980	00 00 55 00 5f 58 63 70 74 46 69 6c 74 65 72 00 	00U0_XcptFilter0
  0x2990	ae 00 5f 61 6d 73 67 5f 65 78 69 74 00 00 9d 00 	00_amsg_exit0000
  0x29a0	5f 5f 77 67 65 74 6d 61 69 6e 61 72 67 73 00 00 	__wgetmainargs00
  0x29b0	8e 00 5f 5f 73 65 74 5f 61 70 70 5f 74 79 70 65 	00__set_app_type
  0x29c0	00 00 32 04 65 78 69 74 00 00 0e 01 5f 65 78 69 	0020exit0000_exi
  0x29d0	74 00 c1 00 5f 63 65 78 69 74 00 00 90 00 5f 5f 	t000_cexit0000__
  0x29e0	73 65 74 75 73 65 72 6d 61 74 68 65 72 72 00 00 	setusermatherr00
  0x29f0	7d 01 5f 69 6e 69 74 74 65 72 6d 00 57 00 5f 5f 	}0_initterm0W0__
  0x2a00	43 5f 73 70 65 63 69 66 69 63 5f 68 61 6e 64 6c 	C_specific_handl
  0x2a10	65 72 00 00 82 03 5f 77 63 6d 64 6c 6e 00 27 01 	er0000_wcmdln0'0
  0x2a20	5f 66 6d 6f 64 65 00 00 d2 00 5f 63 6f 6d 6d 6f 	_fmode0000_commo
  0x2a30	64 65 00 00 2f 00 3f 74 65 72 6d 69 6e 61 74 65 	de00/0?terminate
  0x2a40	40 40 59 41 58 58 5a 00 6d 73 76 63 72 74 2e 64 	@@YAXXZ0msvcrt.d
  0x2a50	6c 6c 00 00 53 48 45 4c 4c 33 32 2e 64 6c 6c 00 	ll00SHELL32.dll0
  0x2a60	53 48 4c 57 41 50 49 2e 64 6c 6c 00 46 00 43 6f 	SHLWAPI.dll0F0Co
  0x2a70	55 6e 69 6e 69 74 69 61 6c 69 7a 65 00 00 09 00 	Uninitialize0000
  0x2a80	43 6f 43 72 65 61 74 65 49 6e 73 74 61 6e 63 65 	CoCreateInstance
  0x2a90	00 00 2d 00 53 6c 65 65 70 00 20 00 47 65 74 53 	00-0Sleep0 0GetS
  0x2aa0	74 61 72 74 75 70 49 6e 66 6f 57 00 0f 00 53 65 	tartupInfoW000Se
  0x2ab0	74 55 6e 68 61 6e 64 6c 65 64 45 78 63 65 70 74 	tUnhandledExcept
  0x2ac0	69 6f 6e 46 69 6c 74 65 72 00 14 00 47 65 74 4d 	ionFilter000GetM
  0x2ad0	6f 64 75 6c 65 48 61 6e 64 6c 65 57 00 00 00 00 	oduleHandleW0000
  0x2ae0	51 75 65 72 79 50 65 72 66 6f 72 6d 61 6e 63 65 	QueryPerformance
  0x2af0	43 6f 75 6e 74 65 72 00 0d 00 47 65 74 43 75 72 	Counter000GetCur
  0x2b00	72 65 6e 74 50 72 6f 63 65 73 73 49 64 00 11 00 	rentProcessId000
  0x2b10	47 65 74 43 75 72 72 65 6e 74 54 68 72 65 61 64 	GetCurrentThread
  0x2b20	49 64 00 00 16 00 47 65 74 53 79 73 74 65 6d 54 	Id0000GetSystemT
  0x2b30	69 6d 65 41 73 46 69 6c 65 54 69 6d 65 00 1a 00 	imeAsFileTime000
  0x2b40	47 65 74 54 69 63 6b 43 6f 75 6e 74 00 00 02 00 	GetTickCount0000
  0x2b50	52 74 6c 43 61 70 74 75 72 65 43 6f 6e 74 65 78 	RtlCaptureContex
  0x2b60	74 00 0a 00 52 74 6c 4c 6f 6f 6b 75 70 46 75 6e 	t000RtlLookupFun
  0x2b70	63 74 69 6f 6e 45 6e 74 72 79 00 00 10 00 52 74 	ctionEntry0000Rt
  0x2b80	6c 56 69 72 74 75 61 6c 55 6e 77 69 6e 64 00 00 	lVirtualUnwind00
  0x2b90	11 00 55 6e 68 61 6e 64 6c 65 64 45 78 63 65 70 	00UnhandledExcep
  0x2ba0	74 69 6f 6e 46 69 6c 74 65 72 00 00 0c 00 47 65 	tionFilter0000Ge
  0x2bb0	74 43 75 72 72 65 6e 74 50 72 6f 63 65 73 73 00 	tCurrentProcess0
  0x2bc0	4e 00 54 65 72 6d 69 6e 61 74 65 50 72 6f 63 65 	N0TerminateProce
  0x2bd0	73 73 00 00 61 70 69 2d 6d 73 2d 77 69 6e 2d 63 	ss00api-ms-win-c
  0x2be0	6f 72 65 2d 63 6f 6d 2d 6c 31 2d 31 2d 30 2e 64 	ore-com-l1-1-0.d
  0x2bf0	6c 6c 00 00 61 70 69 2d 6d 73 2d 77 69 6e 2d 63 	ll00api-ms-win-c
  0x2c00	6f 72 65 2d 73 79 6e 63 68 2d 6c 31 2d 32 2d 30 	ore-synch-l1-2-0
  0x2c10	2e 64 6c 6c 00 00 61 70 69 2d 6d 73 2d 77 69 6e 	.dll00api-ms-win
  0x2c20	2d 63 6f 72 65 2d 70 72 6f 63 65 73 73 74 68 72 	-core-processthr
  0x2c30	65 61 64 73 2d 6c 31 2d 31 2d 30 2e 64 6c 6c 00 	eads-l1-1-0.dll0
  0x2c40	61 70 69 2d 6d 73 2d 77 69 6e 2d 63 6f 72 65 2d 	api-ms-win-core-
  0x2c50	65 72 72 6f 72 68 61 6e 64 6c 69 6e 67 2d 6c 31 	errorhandling-l1
  0x2c60	2d 31 2d 30 2e 64 6c 6c 00 00 61 70 69 2d 6d 73 	-1-0.dll00api-ms
  0x2c70	2d 77 69 6e 2d 63 6f 72 65 2d 6c 69 62 72 61 72 	-win-core-librar
  0x2c80	79 6c 6f 61 64 65 72 2d 6c 31 2d 32 2d 30 2e 64 	yloader-l1-2-0.d
  0x2c90	6c 6c 00 00 61 70 69 2d 6d 73 2d 77 69 6e 2d 63 	ll00api-ms-win-c
  0x2ca0	6f 72 65 2d 70 72 6f 66 69 6c 65 2d 6c 31 2d 31 	ore-profile-l1-1
  0x2cb0	2d 30 2e 64 6c 6c 00 00 61 70 69 2d 6d 73 2d 77 	-0.dll00api-ms-w
  0x2cc0	69 6e 2d 63 6f 72 65 2d 73 79 73 69 6e 66 6f 2d 	in-core-sysinfo-
  0x2cd0	6c 31 2d 31 2d 30 2e 64 6c 6c 00 00 61 70 69 2d 	l1-1-0.dll00api-
  0x2ce0	6d 73 2d 77 69 6e 2d 63 6f 72 65 2d 72 74 6c 73 	ms-win-core-rtls
  0x2cf0	75 70 70 6f 72 74 2d 6c 31 2d 31 2d 30 2e 64 6c 	upport-l1-1-0.dl
  0x2d00	6c 00 60 00 43 6f 49 6e 69 74 69 61 6c 69 7a 65 	l0`0CoInitialize
  0x2d10	00 00 6f 6c 65 33 32 2e 64 6c 6c 00 00 00 00 00 	00ole32.dll00000
  0x2d20	00 00 00 00 00 00 00 00 00 00 00 00 00 00 00 00 	0000000000000000
  0x2d30	00 00 00 00 00 00 00 00 00 00 00 00 00 00 00 00 	0000000000000000
  0x2d40	00 00 00 00 00 00 00 00 00 00 00 00 00 00 00 00 	0000000000000000
  0x2d50	00 00 00 00 00 00 00 00 00 00 00 00 00 00 00 00 	0000000000000000
  0x2d60	00 00 00 00 00 00 00 00 00 00 00 00 00 00 00 00 	0000000000000000
  0x2d70	00 00 00 00 00 00 00 00 00 00 00 00 00 00 00 00 	0000000000000000
  0x2d80	00 00 00 00 00 00 00 00 00 00 00 00 00 00 00 00 	0000000000000000
  0x2d90	00 00 00 00 00 00 00 00 00 00 00 00 00 00 00 00 	0000000000000000
  0x2da0	00 00 00 00 00 00 00 00 00 00 00 00 00 00 00 00 	0000000000000000
  0x2db0	00 00 00 00 00 00 00 00 00 00 00 00 00 00 00 00 	0000000000000000
  0x2dc0	00 00 00 00 00 00 00 00 00 00 00 00 00 00 00 00 	0000000000000000
  0x2dd0	00 00 00 00 00 00 00 00 00 00 00 00 00 00 00 00 	0000000000000000
  0x2de0	00 00 00 00 00 00 00 00 00 00 00 00 00 00 00 00 	0000000000000000
  0x2df0	00 00 00 00 00 00 00 00 00 00 00 00 00 00 00 00 	0000000000000000
=== DATA BLOCK END ===

=== DATA BLOCK ADDRESS 0x3000 ===
  0x3000	01 00 00 00 00 00 00 00 32 a2 df 2d 99 2b 00 00 	00000000200-0+00
  0x3010	cd 5d 20 d2 66 d4 ff ff 00 00 00 00 00 00 00 00 	0] 0f00000000000
  0x3020	00 00 00 00 00 00 00 00 00 00 00 00 00 00 00 00 	0000000000000000
  0x3030	00 00 00 00 00 00 00 00 00 00 00 00 00 00 00 00 	0000000000000000
  0x3040	00 00 00 00 00 00 00 00 00 00 00 00 00 00 00 00 	0000000000000000
  0x3050	00 00 00 00 00 00 00 00 00 00 00 00 00 00 00 00 	0000000000000000
  0x3060	00 00 00 00 00 00 00 00 00 00 00 00 00 00 00 00 	0000000000000000
  0x3070	00 00 00 00 00 00 00 00 00 00 00 00 00 00 00 00 	0000000000000000
  0x3080	00 00 00 00 00 00 00 00 00 00 00 00 00 00 00 00 	0000000000000000
  0x3090	00 00 00 00 00 00 00 00 00 00 00 00 00 00 00 00 	0000000000000000
  0x30a0	00 00 00 00 00 00 00 00 00 00 00 00 00 00 00 00 	0000000000000000
  0x30b0	00 00 00 00 00 00 00 00 00 00 00 00 00 00 00 00 	0000000000000000
  0x30c0	00 00 00 00 00 00 00 00 00 00 00 00 00 00 00 00 	0000000000000000
  0x30d0	00 00 00 00 00 00 00 00 00 00 00 00 00 00 00 00 	0000000000000000
  0x30e0	00 00 00 00 00 00 00 00 00 00 00 00 00 00 00 00 	0000000000000000
  0x30f0	00 00 00 00 00 00 00 00 00 00 00 00 00 00 00 00 	0000000000000000
  0x3100	00 00 00 00 00 00 00 00 00 00 00 00 00 00 00 00 	0000000000000000
  0x3110	00 00 00 00 00 00 00 00 00 00 00 00 00 00 00 00 	0000000000000000
  0x3120	00 00 00 00 00 00 00 00 00 00 00 00 00 00 00 00 	0000000000000000
  0x3130	00 00 00 00 00 00 00 00 00 00 00 00 00 00 00 00 	0000000000000000
  0x3140	00 00 00 00 00 00 00 00 00 00 00 00 00 00 00 00 	0000000000000000
  0x3150	00 00 00 00 00 00 00 00 00 00 00 00 00 00 00 00 	0000000000000000
  0x3160	00 00 00 00 00 00 00 00 00 00 00 00 00 00 00 00 	0000000000000000
  0x3170	00 00 00 00 00 00 00 00 00 00 00 00 00 00 00 00 	0000000000000000
  0x3180	00 00 00 00 00 00 00 00 00 00 00 00 00 00 00 00 	0000000000000000
  0x3190	00 00 00 00 00 00 00 00 00 00 00 00 00 00 00 00 	0000000000000000
  0x31a0	00 00 00 00 00 00 00 00 00 00 00 00 00 00 00 00 	0000000000000000
  0x31b0	00 00 00 00 00 00 00 00 00 00 00 00 00 00 00 00 	0000000000000000
  0x31c0	00 00 00 00 00 00 00 00 00 00 00 00 00 00 00 00 	0000000000000000
  0x31d0	00 00 00 00 00 00 00 00 00 00 00 00 00 00 00 00 	0000000000000000
  0x31e0	00 00 00 00 00 00 00 00 00 00 00 00 00 00 00 00 	0000000000000000
  0x31f0	00 00 00 00 00 00 00 00 00 00 00 00 00 00 00 00 	0000000000000000
=== DATA BLOCK END ===

=== DATA BLOCK ADDRESS 0x4000 ===
  0x4000	08 10 00 00 ac 10 00 00 f0 25 00 00 b4 10 00 00 	000000000%000000
  0x4010	62 11 00 00 04 26 00 00 70 11 00 00 43 12 00 00 	b0000&00p000C000
  0x4020	0c 26 00 00 50 12 00 00 99 12 00 00 14 26 00 00 	0&00P00000000&00
  0x4030	a0 12 00 00 04 15 00 00 1c 26 00 00 10 15 00 00 	000000000&000000
  0x4040	22 15 00 00 0c 26 00 00 40 15 00 00 5e 15 00 00 	"0000&00@000^000
  0x4050	58 26 00 00 70 15 00 00 a9 15 00 00 0c 26 00 00 	X&00p00000000&00
  0x4060	b0 15 00 00 c8 15 00 00 0c 26 00 00 dc 15 00 00 	000000000&000000
  0x4070	30 16 00 00 5c 26 00 00 38 16 00 00 7d 16 00 00 	00000&008000}000
  0x4080	7c 26 00 00 f0 16 00 00 3d 17 00 00 84 26 00 00 	|&000000=0000&00
  0x4090	84 17 00 00 58 18 00 00 a8 26 00 00 8c 18 00 00 	0000X0000&000000
  0x40a0	c0 18 00 00 7c 26 00 00 d0 18 00 00 41 1a 00 00 	0000|&000000A000
  0x40b0	b4 26 00 00 58 1a 00 00 75 1a 00 00 0c 26 00 00 	0&00X000u0000&00
  0x40c0	7c 1a 00 00 d7 1a 00 00 c4 26 00 00 f0 1a 00 00 	|00000000&000000
  0x40d0	f2 1a 00 00 c0 26 00 00 00 1b 00 00 1e 1b 00 00 	00000&0000000000
  0x40e0	50 26 00 00 30 1b 00 00 50 1b 00 00 50 26 00 00 	P&000000P000P&00
  0x40f0	00 00 00 00 00 00 00 00 00 00 00 00 00 00 00 00 	0000000000000000
  0x4100	00 00 00 00 00 00 00 00 00 00 00 00 00 00 00 00 	0000000000000000
  0x4110	00 00 00 00 00 00 00 00 00 00 00 00 00 00 00 00 	0000000000000000
  0x4120	00 00 00 00 00 00 00 00 00 00 00 00 00 00 00 00 	0000000000000000
  0x4130	00 00 00 00 00 00 00 00 00 00 00 00 00 00 00 00 	0000000000000000
  0x4140	00 00 00 00 00 00 00 00 00 00 00 00 00 00 00 00 	0000000000000000
  0x4150	00 00 00 00 00 00 00 00 00 00 00 00 00 00 00 00 	0000000000000000
  0x4160	00 00 00 00 00 00 00 00 00 00 00 00 00 00 00 00 	0000000000000000
  0x4170	00 00 00 00 00 00 00 00 00 00 00 00 00 00 00 00 	0000000000000000
  0x4180	00 00 00 00 00 00 00 00 00 00 00 00 00 00 00 00 	0000000000000000
  0x4190	00 00 00 00 00 00 00 00 00 00 00 00 00 00 00 00 	0000000000000000
  0x41a0	00 00 00 00 00 00 00 00 00 00 00 00 00 00 00 00 	0000000000000000
  0x41b0	00 00 00 00 00 00 00 00 00 00 00 00 00 00 00 00 	0000000000000000
  0x41c0	00 00 00 00 00 00 00 00 00 00 00 00 00 00 00 00 	0000000000000000
  0x41d0	00 00 00 00 00 00 00 00 00 00 00 00 00 00 00 00 	0000000000000000
  0x41e0	00 00 00 00 00 00 00 00 00 00 00 00 00 00 00 00 	0000000000000000
  0x41f0	00 00 00 00 00 00 00 00 00 00 00 00 00 00 00 00 	0000000000000000
=== DATA BLOCK END ===
