===== Assembly blocks =====

=== CODE BLOCK ADDRESS 0x1000 ===
  0x1000	int3   	
  0x1001	int3   	
  0x1002	int3   	
  0x1003	int3   	
  0x1004	int3   	
  === BLOCK LINK ===
    0x1005
=== CODE BLOCK END ===

=== CODE BLOCK ADDRESS 0x1005 ===
  0x1005	int3   	
  0x1006	int3   	
  0x1007	int3   	
  0x1008	inc    	eax
  0x1009	push   	ebx
  === BLOCK LINK ===
    0x100a
=== CODE BLOCK END ===

=== CODE BLOCK ADDRESS 0x100a ===
  0x100a	dec    	eax
  0x100b	sub    	esp, 0x20
  0x100e	mov    	eax, dword ptr [ecx + 0x18]
  0x1011	dec    	eax
  0x1012	mov    	ebx, ecx
  === BLOCK LINK ===
    0x1014
=== CODE BLOCK END ===

=== CODE BLOCK ADDRESS 0x1014 ===
  0x1014	cmp    	eax, 2
  0x1017	jb     	0x1065
  === BLOCK LINK ===
    0x1019
    0x1065
=== CODE BLOCK END ===

=== CODE BLOCK ADDRESS 0x1019 ===
  0x1019	dec    	eax
  0x101a	mov    	ecx, dword ptr [ecx + 0x10]
  0x101d	cmp    	word ptr [ecx], 0x22
  0x1021	jne    	0x1065
  === BLOCK LINK ===
    0x1023
    0x1065
=== CODE BLOCK END ===

=== CODE BLOCK ADDRESS 0x1023 ===
  0x1023	lea    	edx, [eax - 1]
  0x1026	cmp    	edx, eax
  0x1028	jae    	0x1030
  === BLOCK LINK ===
    0x102a
    0x1030
=== CODE BLOCK END ===

=== CODE BLOCK ADDRESS 0x102a ===
  0x102a	movzx  	ecx, word ptr [ecx + edx*2]
  0x102e	jmp    	0x1035
  === BLOCK LINK ===
    0x1030
    0x1035
=== CODE BLOCK END ===

=== CODE BLOCK ADDRESS 0x1030 ===
  0x1030	mov    	ecx, 0xffff
  === BLOCK LINK ===
    0x1035
    0x1065
=== CODE BLOCK END ===

=== CODE BLOCK ADDRESS 0x103b ===
  0x103b	inc    	ecx
  0x103c	mov    	eax, 1
  0x1041	dec    	eax
  0x1042	mov    	ecx, ebx
  0x1044	dec    	eax
  === BLOCK LINK ===
    0x1045
=== CODE BLOCK END ===

=== CODE BLOCK ADDRESS 0x1045 ===
  0x1045	call   	dword ptr [0x32dd]
  === BLOCK LINK ===
    0x104b
=== CODE BLOCK END ===

=== CODE BLOCK ADDRESS 0x104b ===
  0x104b	nop    	dword ptr [eax + eax]
  0x1050	xor    	edx, edx
  0x1052	dec    	eax
  0x1053	mov    	ecx, ebx
  0x1055	inc    	esp
  === BLOCK LINK ===
    0x1056
=== CODE BLOCK END ===

=== CODE BLOCK ADDRESS 0x1056 ===
  0x1056	lea    	eax, [edx + 1]
  0x1059	dec    	eax
  0x105a	call   	dword ptr [0x32c8]
  === BLOCK LINK ===
    0x1060
=== CODE BLOCK END ===

=== CODE BLOCK ADDRESS 0x1060 ===
  0x1060	nop    	dword ptr [eax + eax]
  0x1065	dec    	eax
  0x1066	add    	esp, 0x20
  0x1069	pop    	ebx
  0x106a	ret    	
  === BLOCK LINK ===
    0x106b
=== CODE BLOCK END ===

=== CODE BLOCK ADDRESS 0x1065 ===
=== CODE BLOCK END ===

=== CODE BLOCK ADDRESS 0x106b ===
  0x106b	int3   	
  0x106c	int3   	
  0x106d	int3   	
  0x106e	int3   	
  0x106f	int3   	
  === BLOCK LINK ===
    0x1070
=== CODE BLOCK END ===

=== CODE BLOCK ADDRESS 0x1070 ===
  0x1070	int3   	
  0x1071	int3   	
  0x1072	int3   	
  0x1073	int3   	
  0x1074	dec    	eax
  === BLOCK LINK ===
    0x1075
=== CODE BLOCK END ===

=== CODE BLOCK ADDRESS 0x1075 ===
  0x1075	mov    	eax, esp
  0x1077	dec    	eax
  0x1078	mov    	dword ptr [eax + 8], ebx
  0x107b	dec    	eax
  0x107c	mov    	dword ptr [eax + 0x10], ebp
  === BLOCK LINK ===
    0x107f
=== CODE BLOCK END ===

=== CODE BLOCK ADDRESS 0x107f ===
  0x107f	dec    	eax
  0x1080	mov    	dword ptr [eax + 0x18], esi
  0x1083	push   	edi
  0x1084	inc    	ecx
  0x1085	push   	esi
  === BLOCK LINK ===
    0x1086
=== CODE BLOCK END ===

=== CODE BLOCK ADDRESS 0x1086 ===
  0x1086	inc    	ecx
  0x1087	push   	edi
  0x1088	dec    	eax
  0x1089	sub    	esp, 0x90
  0x108f	dec    	esp
  === BLOCK LINK ===
    0x1090
=== CODE BLOCK END ===

=== CODE BLOCK ADDRESS 0x1090 ===
  0x1090	mov    	esi, ecx
  0x1092	dec    	ebp
  0x1093	mov    	edi, ecx
  0x1095	dec    	eax
  0x1096	lea    	ecx, [eax - 0x78]
  === BLOCK LINK ===
    0x1099
=== CODE BLOCK END ===

=== CODE BLOCK ADDRESS 0x1099 ===
  0x1099	inc    	ecx
  0x109a	mov    	ch, al
  0x109c	mov    	esi, edx
  0x109e	dec    	eax
  0x109f	call   	dword ptr [0x3363]
  === BLOCK LINK ===
    0x10a5
=== CODE BLOCK END ===

=== CODE BLOCK ADDRESS 0x10a5 ===
  0x10a5	nop    	dword ptr [eax + eax]
  0x10aa	dec    	eax
  0x10ab	lea    	ecx, [esp + 0x60]
  0x10af	dec    	eax
  0x10b0	call   	dword ptr [0x3352]
  === BLOCK LINK ===
    0x10b6
=== CODE BLOCK END ===

=== CODE BLOCK ADDRESS 0x10b6 ===
  0x10b6	nop    	dword ptr [eax + eax]
  0x10bb	xor    	ebx, ebx
  0x10bd	mov    	edi, ebx
  0x10bf	test   	esi, esi
  0x10c1	je     	0x1181
  === BLOCK LINK ===
    0x10c7
    0x1181
=== CODE BLOCK END ===

=== CODE BLOCK ADDRESS 0x10c7 ===
  0x10c7	test   	edi, edi
  0x10c9	je     	0x10d9
  === BLOCK LINK ===
    0x10cb
    0x10d9
=== CODE BLOCK END ===

=== CODE BLOCK ADDRESS 0x10cb ===
  0x10cb	lea    	eax, [edi - 1]
  0x10ce	inc    	cx
  0x10d0	cmp    	dword ptr [esi + eax*2], ebx
  0x10d3	jne    	0x1177
  === BLOCK LINK ===
    0x10d9
    0x1177
=== CODE BLOCK END ===

=== CODE BLOCK ADDRESS 0x10d9 ===
  0x10d9	inc    	ecx
  0x10da	or     	eax, 0xffffffff
  0x10dd	dec    	eax
  0x10de	lea    	ecx, [esp + 0x30]
  0x10e2	dec    	eax
  === BLOCK LINK ===
    0x10e3
=== CODE BLOCK END ===

=== CODE BLOCK ADDRESS 0x10e3 ===
  0x10e3	lea    	edx, [0x33ab]
  0x10e9	inc    	eax
  0x10ea	test   	ch, ch
  0x10ec	jne    	0x10f5
  === BLOCK LINK ===
    0x10ee
    0x10f5
=== CODE BLOCK END ===

=== CODE BLOCK ADDRESS 0x10ee ===
  0x10ee	dec    	eax
  0x10ef	lea    	edx, [0x339b]
  === BLOCK LINK ===
    0x10f5
=== CODE BLOCK END ===

=== CODE BLOCK ADDRESS 0x10fc ===
  0x10fc	nop    	dword ptr [eax + eax]
  0x1101	test   	al, al
  0x1103	je     	0x1183
  === BLOCK LINK ===
    0x1105
    0x1183
=== CODE BLOCK END ===

=== CODE BLOCK ADDRESS 0x1105 ===
  0x1105	mov    	eax, edi
  0x1107	dec    	eax
  0x1108	lea    	ecx, [esp + 0x60]
  0x110c	inc    	ecx
  0x110d	or     	eax, 0xffffffff
  === BLOCK LINK ===
    0x1110
=== CODE BLOCK END ===

=== CODE BLOCK ADDRESS 0x1110 ===
  0x1110	dec    	ecx
  0x1111	lea    	edx, [esi + eax*2]
  0x1114	dec    	eax
  0x1115	call   	dword ptr [0x31e5]
  === BLOCK LINK ===
    0x111b
=== CODE BLOCK END ===

=== CODE BLOCK ADDRESS 0x111b ===
  0x111b	nop    	dword ptr [eax + eax]
  0x1120	test   	al, al
  0x1122	je     	0x1183
  === BLOCK LINK ===
    0x1124
    0x1183
=== CODE BLOCK END ===

=== CODE BLOCK ADDRESS 0x1124 ===
  0x1124	dec    	eax
  0x1125	lea    	edx, [esp + 0x60]
  0x1129	dec    	eax
  0x112a	lea    	ecx, [esp + 0x30]
  0x112e	dec    	eax
  === BLOCK LINK ===
    0x112f
=== CODE BLOCK END ===

=== CODE BLOCK ADDRESS 0x112f ===
  0x112f	call   	dword ptr [0x3203]
  === BLOCK LINK ===
    0x1135
=== CODE BLOCK END ===

=== CODE BLOCK ADDRESS 0x1135 ===
  0x1135	nop    	dword ptr [eax + eax]
  0x113a	test   	al, al
  0x113c	je     	0x1183
  === BLOCK LINK ===
    0x113e
    0x1183
=== CODE BLOCK END ===

=== CODE BLOCK ADDRESS 0x113e ===
  0x113e	dec    	ecx
  0x113f	mov    	eax, dword ptr [edi]
  0x1141	inc    	ecx
  0x1142	mov    	ecx, 3
  0x1147	inc    	ebp
  === BLOCK LINK ===
    0x1148
=== CODE BLOCK END ===

=== CODE BLOCK ADDRESS 0x1148 ===
  0x1148	xor    	eax, eax
  0x114a	mov    	edx, 0x41e
  0x114f	dec    	ecx
  0x1150	mov    	ecx, edi
  0x1152	dec    	eax
  === BLOCK LINK ===
    0x1153
=== CODE BLOCK END ===

=== CODE BLOCK ADDRESS 0x1153 ===
  0x1153	mov    	eax, dword ptr [eax + 0x20]
  0x1156	call   	dword ptr [0x32c4]
  === BLOCK LINK ===
    0x115c
=== CODE BLOCK END ===

=== CODE BLOCK ADDRESS 0x115c ===
  0x115c	dec    	esp
  0x115d	lea    	eax, [esp + 0x30]
  0x1161	dec    	ecx
  0x1162	mov    	ecx, edi
  0x1164	dec    	eax
  === BLOCK LINK ===
    0x1165
=== CODE BLOCK END ===

=== CODE BLOCK ADDRESS 0x1165 ===
  0x1165	lea    	edx, [0x3331]
  0x116b	dec    	eax
  0x116c	call   	dword ptr [0x31d6]
  === BLOCK LINK ===
    0x1172
=== CODE BLOCK END ===

=== CODE BLOCK ADDRESS 0x1172 ===
  0x1172	nop    	dword ptr [eax + eax]
  === BLOCK LINK ===
    0x1177
    0x10c7
=== CODE BLOCK END ===

=== CODE BLOCK ADDRESS 0x1181 ===
  0x1181	mov    	bl, 1
  === BLOCK LINK ===
    0x1183
=== CODE BLOCK END ===

=== CODE BLOCK ADDRESS 0x118f ===
  0x118f	nop    	dword ptr [eax + eax]
  0x1194	dec    	eax
  0x1195	lea    	ecx, [esp + 0x30]
  0x1199	dec    	eax
  0x119a	call   	dword ptr [0x30f8]
  === BLOCK LINK ===
    0x11a0
=== CODE BLOCK END ===

=== CODE BLOCK ADDRESS 0x11a0 ===
  0x11a0	nop    	dword ptr [eax + eax]
  0x11a5	dec    	esp
  0x11a6	lea    	ebx, [esp + 0x90]
  0x11ad	mov    	al, bl
  0x11af	dec    	ecx
  === BLOCK LINK ===
    0x11b0
=== CODE BLOCK END ===

=== CODE BLOCK ADDRESS 0x11b0 ===
  0x11b0	mov    	ebx, dword ptr [ebx + 0x20]
  0x11b3	dec    	ecx
  0x11b4	mov    	ebp, dword ptr [ebx + 0x28]
  0x11b7	dec    	ecx
  0x11b8	mov    	esi, dword ptr [ebx + 0x30]
  === BLOCK LINK ===
    0x11bb
=== CODE BLOCK END ===

=== CODE BLOCK ADDRESS 0x11bb ===
  0x11bb	dec    	ecx
  0x11bc	mov    	esp, ebx
  0x11be	inc    	ecx
  0x11bf	pop    	edi
  0x11c0	inc    	ecx
  === BLOCK LINK ===
    0x11c1
=== CODE BLOCK END ===

=== CODE BLOCK ADDRESS 0x11c1 ===
  0x11c1	pop    	esi
  0x11c2	pop    	edi
  0x11c3	ret    	
  0x11c4	int3   	
  0x11c5	int3   	
  === BLOCK LINK ===
    0x11c6
=== CODE BLOCK END ===

=== CODE BLOCK ADDRESS 0x11c6 ===
  0x11c6	int3   	
  0x11c7	int3   	
  0x11c8	int3   	
  0x11c9	int3   	
  0x11ca	int3   	
  === BLOCK LINK ===
    0x11cb
=== CODE BLOCK END ===

=== CODE BLOCK ADDRESS 0x11cb ===
  0x11cb	int3   	
  0x11cc	dec    	eax
  0x11cd	mov    	dword ptr [esp + 8], ebx
  0x11d1	dec    	eax
  0x11d2	mov    	dword ptr [esp + 0x10], ebp
  === BLOCK LINK ===
    0x11d6
=== CODE BLOCK END ===

=== CODE BLOCK ADDRESS 0x11d6 ===
  0x11d6	dec    	eax
  0x11d7	mov    	dword ptr [esp + 0x18], esi
  0x11db	push   	edi
  0x11dc	inc    	ecx
  0x11dd	push   	esi
  === BLOCK LINK ===
    0x11de
=== CODE BLOCK END ===

=== CODE BLOCK ADDRESS 0x11de ===
  0x11de	inc    	ecx
  0x11df	push   	edi
  0x11e0	dec    	eax
  0x11e1	sub    	esp, 0x30
  0x11e4	inc    	esp
  === BLOCK LINK ===
    0x11e5
=== CODE BLOCK END ===

=== CODE BLOCK ADDRESS 0x11e5 ===
  0x11e5	mov    	ecx, dword ptr [ecx + 0x18]
  0x11e8	xor    	ebp, ebp
  0x11ea	dec    	eax
  0x11eb	mov    	dword ptr [edx], ebp
  0x11ed	dec    	ecx
  === BLOCK LINK ===
    0x11ee
=== CODE BLOCK END ===

=== CODE BLOCK ADDRESS 0x11ee ===
  0x11ee	mov    	esi, eax
  0x11f0	dec    	ecx
  0x11f1	mov    	dword ptr [eax], ebp
  0x11f3	dec    	esp
  0x11f4	mov    	esi, edx
  === BLOCK LINK ===
    0x11f6
=== CODE BLOCK END ===

=== CODE BLOCK ADDRESS 0x11f6 ===
  0x11f6	dec    	eax
  0x11f7	mov    	edi, ecx
  0x11f9	movzx  	eax, bp
  0x11fc	mov    	ebx, ebp
  0x11fe	inc    	ecx
  === BLOCK LINK ===
    0x11ff
=== CODE BLOCK END ===

=== CODE BLOCK ADDRESS 0x11ff ===
  0x11ff	mov    	edi, 0xffff
  0x1204	inc    	cx
  0x1206	mov    	ebx, 0x85450020
  0x120b	leave  	
  0x120c	je     	0x122f
  === BLOCK LINK ===
    0x120e
    0x122f
=== CODE BLOCK END ===

=== CODE BLOCK ADDRESS 0x120e ===
  0x120e	inc    	ecx
  0x120f	cmp    	ebx, ecx
  0x1211	jae    	0x121f
  === BLOCK LINK ===
    0x1213
    0x121f
=== CODE BLOCK END ===

=== CODE BLOCK ADDRESS 0x1213 ===
  0x1213	dec    	eax
  0x1214	mov    	eax, dword ptr [edi + 0x10]
  0x1217	mov    	ecx, ebx
  0x1219	movzx  	eax, word ptr [eax + ecx*2]
  0x121d	jmp    	0x1222
  === BLOCK LINK ===
    0x121f
    0x1222
=== CODE BLOCK END ===

=== CODE BLOCK ADDRESS 0x121f ===
  0x121f	inc    	ecx
  0x1220	mov    	eax, edi
  === BLOCK LINK ===
    0x1222
    0x122f
=== CODE BLOCK END ===

=== CODE BLOCK ADDRESS 0x1228 ===
  0x1228	inc    	ebx
  0x122a	inc    	ecx
  0x122b	cmp    	ebx, ecx
  0x122d	jb     	0x1213
  === BLOCK LINK ===
    0x122f
    0x1213
=== CODE BLOCK END ===

=== CODE BLOCK ADDRESS 0x122f ===
  0x122f	inc    	esp
  0x1230	mov    	edx, ebx
  0x1232	jmp    	0x124c
  === BLOCK LINK ===
    0x1234
    0x124c
=== CODE BLOCK END ===

=== CODE BLOCK ADDRESS 0x1234 ===
  0x1234	dec    	eax
  0x1235	mov    	eax, dword ptr [edi + 0x10]
  0x1238	mov    	ecx, ebx
  0x123a	movzx  	eax, word ptr [eax + ecx*2]
  0x123e	inc    	cx
  === BLOCK LINK ===
    0x1240
=== CODE BLOCK END ===

=== CODE BLOCK ADDRESS 0x1240 ===
  0x1240	cmp    	eax, ebx
  0x1242	je     	0x1251
  === BLOCK LINK ===
    0x1244
    0x1251
=== CODE BLOCK END ===

=== CODE BLOCK ADDRESS 0x1244 ===
  0x1244	cmp    	ax, 0x3d
  0x1248	je     	0x1251
  === BLOCK LINK ===
    0x124a
    0x1251
=== CODE BLOCK END ===

=== CODE BLOCK ADDRESS 0x124a ===
  0x124a	inc    	ebx
  === BLOCK LINK ===
    0x124c
    0x1234
=== CODE BLOCK END ===

=== CODE BLOCK ADDRESS 0x1251 ===
  0x1251	inc    	esp
  0x1252	mov    	eax, ebx
  0x1254	inc    	esp
  0x1255	cmp    	edx, ebx
  0x1257	je     	0x1339
  === BLOCK LINK ===
    0x125d
    0x1339
=== CODE BLOCK END ===

=== CODE BLOCK ADDRESS 0x125d ===
  0x125d	jmp    	0x1271
  === BLOCK LINK ===
    0x125f
    0x1271
=== CODE BLOCK END ===

=== CODE BLOCK ADDRESS 0x125f ===
  0x125f	dec    	eax
  0x1260	mov    	eax, dword ptr [edi + 0x10]
  0x1263	mov    	ecx, ebx
  0x1265	movzx  	eax, word ptr [eax + ecx*2]
  0x1269	inc    	cx
  === BLOCK LINK ===
    0x126b
=== CODE BLOCK END ===

=== CODE BLOCK ADDRESS 0x126b ===
  0x126b	cmp    	eax, ebx
  0x126d	jne    	0x1276
  === BLOCK LINK ===
    0x126f
    0x1276
=== CODE BLOCK END ===

=== CODE BLOCK ADDRESS 0x126f ===
  0x126f	inc    	ebx
  === BLOCK LINK ===
    0x1271
=== CODE BLOCK END ===

=== CODE BLOCK ADDRESS 0x1276 ===
  0x1276	cmp    	ax, 0x3d
  0x127a	jne    	0x1339
  === BLOCK LINK ===
    0x1280
=== CODE BLOCK END ===

=== CODE BLOCK ADDRESS 0x1280 ===
  0x1280	jmp    	0x1290
  === BLOCK LINK ===
    0x1282
=== CODE BLOCK END ===

=== CODE BLOCK ADDRESS 0x1282 ===
  0x1282	dec    	eax
  0x1283	mov    	eax, dword ptr [edi + 0x10]
  0x1286	movzx  	edx, word ptr [eax + ebx*2]
  0x128a	inc    	cx
  0x128c	cmp    	edx, ebx
  === BLOCK LINK ===
    0x128e
=== CODE BLOCK END ===

=== CODE BLOCK ADDRESS 0x128e ===
  0x128e	jne    	0x1297
  === BLOCK LINK ===
    0x1290
=== CODE BLOCK END ===

=== CODE BLOCK ADDRESS 0x1290 ===
  0x1290	inc    	ebx
  0x1292	inc    	ecx
  0x1293	cmp    	ebx, ecx
  0x1295	jb     	0x1282
  === BLOCK LINK ===
    0x1297
=== CODE BLOCK END ===

=== CODE BLOCK ADDRESS 0x1297 ===
  0x1297	inc    	ebp
  0x1298	sub    	eax, edx
  0x129a	mov    	byte ptr [esp + 0x28], 1
  0x129f	inc    	ebp
  0x12a0	xor    	ecx, ecx
  === BLOCK LINK ===
    0x12a2
=== CODE BLOCK END ===

=== CODE BLOCK ADDRESS 0x12a2 ===
  0x12a2	mov    	dword ptr [esp + 0x20], ebp
  0x12a6	inc    	ecx
  0x12a7	mov    	edx, edx
  0x12a9	dec    	eax
  0x12aa	mov    	ecx, edi
  === BLOCK LINK ===
    0x12ac
=== CODE BLOCK END ===

=== CODE BLOCK ADDRESS 0x12ac ===
  0x12ac	dec    	eax
  0x12ad	call   	dword ptr [0x307d]
  === BLOCK LINK ===
    0x12b3
=== CODE BLOCK END ===

=== CODE BLOCK ADDRESS 0x12b3 ===
  0x12b3	nop    	dword ptr [eax + eax]
  0x12b8	inc    	ebp
  0x12b9	xor    	ecx, ecx
  0x12bb	mov    	byte ptr [esp + 0x28], 1
  0x12c0	inc    	ecx
  === BLOCK LINK ===
    0x12c1
=== CODE BLOCK END ===

=== CODE BLOCK ADDRESS 0x12c1 ===
  0x12c1	or     	eax, 0xffffffff
  0x12c4	dec    	ecx
  0x12c5	mov    	dword ptr [esi], eax
  0x12c7	mov    	edx, ebx
  0x12c9	mov    	dword ptr [esp + 0x20], ebp
  === BLOCK LINK ===
    0x12cd
=== CODE BLOCK END ===

=== CODE BLOCK ADDRESS 0x12cd ===
  0x12cd	dec    	eax
  0x12ce	mov    	ecx, edi
  0x12d0	dec    	eax
  0x12d1	call   	dword ptr [0x3059]
  === BLOCK LINK ===
    0x12d7
=== CODE BLOCK END ===

=== CODE BLOCK ADDRESS 0x12d7 ===
  0x12d7	nop    	dword ptr [eax + eax]
  0x12dc	dec    	ebp
  0x12dd	mov    	eax, dword ptr [esi]
  0x12df	dec    	eax
  0x12e0	mov    	dword ptr [esi], eax
  === BLOCK LINK ===
    0x12e2
=== CODE BLOCK END ===

=== CODE BLOCK ADDRESS 0x12e2 ===
  0x12e2	dec    	ebp
  0x12e3	test   	eax, eax
  0x12e5	je     	0x1310
  === BLOCK LINK ===
    0x12e7
=== CODE BLOCK END ===

=== CODE BLOCK ADDRESS 0x12e7 ===
  0x12e7	dec    	eax
  0x12e8	test   	eax, eax
  0x12ea	je     	0x12f0
  === BLOCK LINK ===
    0x12ec
=== CODE BLOCK END ===

=== CODE BLOCK ADDRESS 0x12ec ===
  0x12ec	mov    	al, 1
  0x12ee	jmp    	0x133b
  === BLOCK LINK ===
    0x12f0
=== CODE BLOCK END ===

=== CODE BLOCK ADDRESS 0x12f0 ===
  0x12f0	dec    	ebp
  0x12f1	test   	eax, eax
  0x12f3	je     	0x1310
  === BLOCK LINK ===
    0x12f5
=== CODE BLOCK END ===

=== CODE BLOCK ADDRESS 0x12f5 ===
  0x12f5	dec    	eax
  0x12f7	mov    	ecx, dword ptr [0x60]
  0x12fe	xor    	edx, edx
  0x1300	dec    	eax
  0x1301	mov    	ecx, dword ptr [ecx + 0x30]
  === BLOCK LINK ===
    0x1304
=== CODE BLOCK END ===

=== CODE BLOCK ADDRESS 0x1304 ===
  0x1304	dec    	eax
  0x1305	call   	dword ptr [0x2f6d]
  === BLOCK LINK ===
    0x130b
=== CODE BLOCK END ===

=== CODE BLOCK ADDRESS 0x130b ===
  0x130b	nop    	dword ptr [eax + eax]
  0x1310	dec    	esp
  0x1311	mov    	eax, dword ptr [esi]
  0x1313	dec    	ecx
  0x1314	mov    	dword ptr [esi], ebp
  === BLOCK LINK ===
    0x1316
=== CODE BLOCK END ===

=== CODE BLOCK ADDRESS 0x1316 ===
  0x1316	dec    	ebp
  0x1317	test   	eax, eax
  0x1319	je     	0x1336
  === BLOCK LINK ===
    0x131b
=== CODE BLOCK END ===

=== CODE BLOCK ADDRESS 0x131b ===
  0x131b	dec    	eax
  0x131d	mov    	ecx, dword ptr [0x60]
  0x1324	xor    	edx, edx
  0x1326	dec    	eax
  0x1327	mov    	ecx, dword ptr [ecx + 0x30]
  === BLOCK LINK ===
    0x132a
=== CODE BLOCK END ===

=== CODE BLOCK ADDRESS 0x132a ===
  0x132a	dec    	eax
  0x132b	call   	dword ptr [0x2f47]
  === BLOCK LINK ===
    0x1331
=== CODE BLOCK END ===

=== CODE BLOCK ADDRESS 0x1331 ===
  0x1331	nop    	dword ptr [eax + eax]
  0x1336	dec    	eax
  0x1337	mov    	dword ptr [esi], ebp
  === BLOCK LINK ===
    0x1339
=== CODE BLOCK END ===

=== CODE BLOCK ADDRESS 0x133c ===
  0x133c	mov    	ebx, dword ptr [esp + 0x50]
  0x1340	dec    	eax
  0x1341	mov    	ebp, dword ptr [esp + 0x58]
  0x1345	dec    	eax
  0x1346	mov    	esi, dword ptr [esp + 0x60]
  === BLOCK LINK ===
    0x134a
=== CODE BLOCK END ===

=== CODE BLOCK ADDRESS 0x134a ===
  0x134a	dec    	eax
  0x134b	add    	esp, 0x30
  0x134e	inc    	ecx
  0x134f	pop    	edi
  0x1350	inc    	ecx
  === BLOCK LINK ===
    0x1351
=== CODE BLOCK END ===

=== CODE BLOCK ADDRESS 0x1351 ===
  0x1351	pop    	esi
  0x1352	pop    	edi
  0x1353	ret    	
  0x1354	int3   	
  0x1355	int3   	
  === BLOCK LINK ===
    0x1356
=== CODE BLOCK END ===

=== CODE BLOCK ADDRESS 0x1356 ===
  0x1356	int3   	
  0x1357	int3   	
  0x1358	int3   	
  0x1359	int3   	
  0x135a	int3   	
  === BLOCK LINK ===
    0x135b
=== CODE BLOCK END ===

=== CODE BLOCK ADDRESS 0x135b ===
  0x135b	int3   	
  0x135c	dec    	eax
  0x135d	mov    	eax, esp
  0x135f	dec    	eax
  0x1360	mov    	dword ptr [eax + 8], ebx
  === BLOCK LINK ===
    0x1363
=== CODE BLOCK END ===

=== CODE BLOCK ADDRESS 0x1363 ===
  0x1363	dec    	eax
  0x1364	mov    	dword ptr [eax + 0x10], ebp
  0x1367	dec    	eax
  0x1368	mov    	dword ptr [eax + 0x18], esi
  0x136b	dec    	eax
  === BLOCK LINK ===
    0x136c
=== CODE BLOCK END ===

=== CODE BLOCK ADDRESS 0x136c ===
  0x136c	mov    	dword ptr [eax + 0x20], edi
  0x136f	inc    	ecx
  0x1370	push   	esi
  0x1371	dec    	eax
  0x1372	sub    	esp, 0x40
  === BLOCK LINK ===
    0x1375
=== CODE BLOCK END ===

=== CODE BLOCK ADDRESS 0x1375 ===
  0x1375	dec    	ecx
  0x1376	mov    	esi, eax
  0x1378	inc    	esp
  0x1379	mov    	dh, dl
  0x137b	dec    	eax
  === BLOCK LINK ===
    0x137c
=== CODE BLOCK END ===

=== CODE BLOCK ADDRESS 0x137c ===
  0x137c	mov    	ebp, ecx
  0x137e	dec    	eax
  0x137f	call   	dword ptr [0x2e23]
  === BLOCK LINK ===
    0x1385
=== CODE BLOCK END ===

=== CODE BLOCK ADDRESS 0x1385 ===
  0x1385	nop    	dword ptr [eax + eax]
  0x138a	dec    	eax
  0x138c	mov    	ecx, dword ptr [0x60]
  0x1393	xor    	edx, edx
  0x1395	mov    	ebx, eax
  === BLOCK LINK ===
    0x1397
=== CODE BLOCK END ===

=== CODE BLOCK ADDRESS 0x1397 ===
  0x1397	inc    	esp
  0x1398	lea    	eax, [eax + 1]
  0x139b	dec    	eax
  0x139c	mov    	ecx, dword ptr [ecx + 0x30]
  0x139f	dec    	eax
  === BLOCK LINK ===
    0x13a0
=== CODE BLOCK END ===

=== CODE BLOCK ADDRESS 0x13a0 ===
  0x13a0	call   	dword ptr [0x2eda]
  === BLOCK LINK ===
    0x13a6
=== CODE BLOCK END ===

=== CODE BLOCK ADDRESS 0x13a6 ===
  0x13a6	nop    	dword ptr [eax + eax]
  0x13ab	dec    	eax
  0x13ac	mov    	edi, eax
  0x13ae	dec    	eax
  0x13af	test   	eax, eax
  === BLOCK LINK ===
    0x13b1
=== CODE BLOCK END ===

=== CODE BLOCK ADDRESS 0x13b1 ===
  0x13b1	jne    	0x1401
  === BLOCK LINK ===
    0x13b3
=== CODE BLOCK END ===

=== CODE BLOCK ADDRESS 0x13b3 ===
  0x13b3	dec    	eax
  0x13b4	lea    	ecx, [0x30e6]
  0x13ba	dec    	eax
  0x13bb	call   	dword ptr [0x2f97]
  === BLOCK LINK ===
    0x13c1
=== CODE BLOCK END ===

=== CODE BLOCK ADDRESS 0x13c1 ===
  0x13c1	nop    	dword ptr [eax + eax]
  0x13c6	mov    	dword ptr [esp + 0x30], 0x103
  0x13ce	dec    	eax
  0x13cf	mov    	dword ptr [esp + 0x28], eax
  0x13d3	inc    	ecx
  === BLOCK LINK ===
    0x13d4
=== CODE BLOCK END ===

=== CODE BLOCK ADDRESS 0x13d4 ===
  0x13d4	mov    	ecx, 3
  0x13d9	dec    	eax
  0x13da	lea    	eax, [0x30e0]
  0x13e0	mov    	edx, 0x43c
  0x13e5	dec    	eax
  === BLOCK LINK ===
    0x13e6
=== CODE BLOCK END ===

=== CODE BLOCK ADDRESS 0x13e6 ===
  0x13e6	mov    	ecx, esi
  0x13e8	dec    	eax
  0x13e9	mov    	dword ptr [esp + 0x20], eax
  0x13ed	inc    	ebp
  0x13ee	lea    	eax, [ecx - 2]
  === BLOCK LINK ===
    0x13f1
=== CODE BLOCK END ===

=== CODE BLOCK ADDRESS 0x13f1 ===
  0x13f1	dec    	eax
  0x13f2	call   	dword ptr [0x2f58]
  === BLOCK LINK ===
    0x13f8
=== CODE BLOCK END ===

=== CODE BLOCK ADDRESS 0x13f8 ===
  0x13f8	nop    	dword ptr [eax + eax]
  0x13fd	xor    	al, al
  0x13ff	jmp    	0x146e
  === BLOCK LINK ===
    0x1401
=== CODE BLOCK END ===

=== CODE BLOCK ADDRESS 0x1401 ===
  0x1401	test   	ebx, ebx
  0x1403	je     	0x141b
  === BLOCK LINK ===
    0x1405
=== CODE BLOCK END ===

=== CODE BLOCK ADDRESS 0x1405 ===
  0x1405	dec    	esp
  0x1406	mov    	eax, ebp
  0x1408	mov    	edx, ebx
  0x140a	dec    	eax
  0x140b	mov    	ecx, edi
  === BLOCK LINK ===
    0x140d
=== CODE BLOCK END ===

=== CODE BLOCK ADDRESS 0x140d ===
  0x140d	dec    	eax
  0x140e	call   	dword ptr [0x2dd4]
  === BLOCK LINK ===
    0x1414
=== CODE BLOCK END ===

=== CODE BLOCK ADDRESS 0x1414 ===
  0x1414	nop    	dword ptr [eax + eax]
  0x1419	mov    	ebx, eax
  0x141b	shr    	ebx, 1
  0x141d	dec    	esp
  0x141e	mov    	ecx, esi
  === BLOCK LINK ===
    0x1420
=== CODE BLOCK END ===

=== CODE BLOCK ADDRESS 0x1420 ===
  0x1420	mov    	edx, ebx
  0x1422	inc    	ebp
  0x1423	mov    	al, dh
  0x1425	dec    	eax
  0x1426	mov    	ecx, edi
  === BLOCK LINK ===
    0x1428
=== CODE BLOCK END ===

=== CODE BLOCK ADDRESS 0x1428 ===
  0x1428	call   	0x1074
  === BLOCK LINK ===
    0x142d
=== CODE BLOCK END ===

=== CODE BLOCK ADDRESS 0x142d ===
  0x142d	test   	al, al
  0x142f	jne    	0x144e
  === BLOCK LINK ===
    0x1431
=== CODE BLOCK END ===

=== CODE BLOCK ADDRESS 0x1431 ===
  0x1431	dec    	eax
  0x1432	lea    	ecx, [0x3068]
  0x1438	dec    	eax
  0x1439	call   	dword ptr [0x2f19]
  === BLOCK LINK ===
    0x143f
=== CODE BLOCK END ===

=== CODE BLOCK ADDRESS 0x143f ===
  0x143f	nop    	dword ptr [eax + eax]
  0x1444	mov    	dword ptr [esp + 0x30], 0x10d
  0x144c	jmp    	0x13ce
  === BLOCK LINK ===
    0x144e
=== CODE BLOCK END ===

=== CODE BLOCK ADDRESS 0x144e ===
  0x144e	dec    	eax
  0x1450	mov    	ecx, dword ptr [0x60]
  0x1457	dec    	esp
  0x1458	mov    	eax, edi
  0x145a	xor    	edx, edx
  === BLOCK LINK ===
    0x145c
=== CODE BLOCK END ===

=== CODE BLOCK ADDRESS 0x145c ===
  0x145c	dec    	eax
  0x145d	mov    	ecx, dword ptr [ecx + 0x30]
  0x1460	dec    	eax
  0x1461	call   	dword ptr [0x2e11]
  === BLOCK LINK ===
    0x1467
=== CODE BLOCK END ===

=== CODE BLOCK ADDRESS 0x1467 ===
  0x1467	nop    	dword ptr [eax + eax]
  0x146c	mov    	al, 1
  0x146e	dec    	eax
  0x146f	mov    	ebx, dword ptr [esp + 0x50]
  0x1473	dec    	eax
  === BLOCK LINK ===
    0x1474
=== CODE BLOCK END ===

=== CODE BLOCK ADDRESS 0x1474 ===
  0x1474	mov    	ebp, dword ptr [esp + 0x58]
  0x1478	dec    	eax
  0x1479	mov    	esi, dword ptr [esp + 0x60]
  0x147d	dec    	eax
  0x147e	mov    	edi, dword ptr [esp + 0x68]
  === BLOCK LINK ===
    0x1482
=== CODE BLOCK END ===

=== CODE BLOCK ADDRESS 0x1482 ===
  0x1482	dec    	eax
  0x1483	add    	esp, 0x40
  0x1486	inc    	ecx
  0x1487	pop    	esi
  0x1488	ret    	
  === BLOCK LINK ===
    0x1489
=== CODE BLOCK END ===

=== CODE BLOCK ADDRESS 0x1035 ===
  0x1035	cmp    	cx, 0x22
  0x1039	jne    	0x1065
  === BLOCK LINK ===
    0x103b
=== CODE BLOCK END ===

=== CODE BLOCK ADDRESS 0x1489 ===
  0x1489	int3   	
  0x148a	int3   	
  0x148b	int3   	
  0x148c	int3   	
  0x148d	int3   	
  === BLOCK LINK ===
    0x148e
=== CODE BLOCK END ===

=== CODE BLOCK ADDRESS 0x148e ===
  0x148e	int3   	
  0x148f	int3   	
  0x1490	dec    	eax
  0x1491	mov    	eax, esp
  0x1493	dec    	eax
  === BLOCK LINK ===
    0x1494
=== CODE BLOCK END ===

=== CODE BLOCK ADDRESS 0x1494 ===
  0x1494	mov    	dword ptr [eax + 8], ebx
  0x1497	dec    	eax
  0x1498	mov    	dword ptr [eax + 0x10], esi
  0x149b	dec    	eax
  0x149c	mov    	dword ptr [eax + 0x18], edi
  === BLOCK LINK ===
    0x149f
=== CODE BLOCK END ===

=== CODE BLOCK ADDRESS 0x149f ===
  0x149f	dec    	esp
  0x14a0	mov    	dword ptr [eax + 0x20], ebp
  0x14a3	push   	ebp
  0x14a4	inc    	ecx
  0x14a5	push   	esi
  === BLOCK LINK ===
    0x14a6
=== CODE BLOCK END ===

=== CODE BLOCK ADDRESS 0x14a6 ===
  0x14a6	inc    	ecx
  0x14a7	push   	edi
  0x14a8	dec    	eax
  0x14a9	lea    	ebp, [eax - 0x5f]
  0x14ac	dec    	eax
  === BLOCK LINK ===
    0x14ad
=== CODE BLOCK END ===

=== CODE BLOCK ADDRESS 0x14ad ===
  0x14ad	sub    	esp, 0xa0
  0x14b3	dec    	esp
  0x14b4	mov    	esi, ecx
  0x14b6	dec    	eax
  0x14b7	lea    	ecx, [ebp + 0x17]
  === BLOCK LINK ===
    0x14ba
=== CODE BLOCK END ===

=== CODE BLOCK ADDRESS 0x14ba ===
  0x14ba	dec    	eax
  0x14bb	call   	dword ptr [0x2f47]
  === BLOCK LINK ===
    0x14c1
=== CODE BLOCK END ===

=== CODE BLOCK ADDRESS 0x14c1 ===
  0x14c1	nop    	dword ptr [eax + eax]
  0x14c6	dec    	eax
  0x14c7	lea    	ecx, [ebp - 0x19]
  0x14ca	dec    	eax
  0x14cb	call   	dword ptr [0x2f37]
  === BLOCK LINK ===
    0x14d1
=== CODE BLOCK END ===

=== CODE BLOCK ADDRESS 0x14d1 ===
  0x14d1	nop    	dword ptr [eax + eax]
  0x14d6	dec    	eax
  0x14d7	call   	dword ptr [0x2d13]
  === BLOCK LINK ===
    0x14dd
=== CODE BLOCK END ===

=== CODE BLOCK ADDRESS 0x14dd ===
  0x14dd	nop    	dword ptr [eax + eax]
  0x14e2	dec    	eax
  0x14e4	mov    	ecx, dword ptr [0x60]
  0x14eb	xor    	edx, edx
  0x14ed	mov    	edi, eax
  === BLOCK LINK ===
    0x14ef
=== CODE BLOCK END ===

=== CODE BLOCK ADDRESS 0x14ef ===
  0x14ef	inc    	esp
  0x14f0	lea    	eax, [eax + 1]
  0x14f3	dec    	eax
  0x14f4	mov    	ecx, dword ptr [ecx + 0x30]
  0x14f7	dec    	eax
  === BLOCK LINK ===
    0x14f8
=== CODE BLOCK END ===

=== CODE BLOCK ADDRESS 0x14f8 ===
  0x14f8	call   	dword ptr [0x2d82]
  === BLOCK LINK ===
    0x14fe
=== CODE BLOCK END ===

=== CODE BLOCK ADDRESS 0x14fe ===
  0x14fe	nop    	dword ptr [eax + eax]
  0x1503	xor    	ebx, ebx
  0x1505	dec    	esp
  0x1506	mov    	edi, eax
  0x1508	dec    	eax
  === BLOCK LINK ===
    0x1509
=== CODE BLOCK END ===

=== CODE BLOCK ADDRESS 0x1509 ===
  0x1509	test   	eax, eax
  0x150b	jne    	0x152d
  === BLOCK LINK ===
    0x150d
=== CODE BLOCK END ===

=== CODE BLOCK ADDRESS 0x150d ===
  0x150d	dec    	eax
  0x150e	lea    	ecx, [0x2f8c]
  0x1514	dec    	eax
  0x1515	call   	dword ptr [0x2e3d]
  === BLOCK LINK ===
    0x151b
=== CODE BLOCK END ===

=== CODE BLOCK ADDRESS 0x151b ===
  0x151b	nop    	dword ptr [eax + eax]
  0x1520	mov    	dword ptr [esp + 0x30], 0x135
  0x1528	jmp    	0x16eb
  === BLOCK LINK ===
    0x152d
=== CODE BLOCK END ===

=== CODE BLOCK ADDRESS 0x152d ===
  0x152d	test   	edi, edi
  0x152f	je     	0x1544
  === BLOCK LINK ===
    0x1531
=== CODE BLOCK END ===

=== CODE BLOCK ADDRESS 0x1531 ===
  0x1531	mov    	edx, edi
  0x1533	dec    	ecx
  0x1534	mov    	ecx, edi
  0x1536	dec    	eax
  0x1537	call   	dword ptr [0x2c8b]
  === BLOCK LINK ===
    0x153d
=== CODE BLOCK END ===

=== CODE BLOCK ADDRESS 0x153d ===
  0x153d	nop    	dword ptr [eax + eax]
  0x1542	mov    	edi, eax
  0x1544	shr    	edi, 1
  0x1546	mov    	esi, ebx
  0x1548	je     	0x168a
  === BLOCK LINK ===
    0x154e
=== CODE BLOCK END ===

=== CODE BLOCK ADDRESS 0x154e ===
  0x154e	test   	esi, esi
  0x1550	je     	0x1560
  === BLOCK LINK ===
    0x1552
=== CODE BLOCK END ===

=== CODE BLOCK ADDRESS 0x1552 ===
  0x1552	lea    	eax, [esi - 1]
  0x1555	inc    	cx
  0x1557	cmp    	dword ptr [edi + eax*2], ebx
  0x155a	jne    	0x1680
  === BLOCK LINK ===
    0x1560
=== CODE BLOCK END ===

=== CODE BLOCK ADDRESS 0x1560 ===
  0x1560	mov    	eax, esi
  0x1562	dec    	eax
  0x1563	lea    	ecx, [ebp + 0x17]
  0x1566	inc    	ecx
  0x1567	or     	eax, 0xffffffff
  === BLOCK LINK ===
    0x156a
=== CODE BLOCK END ===

=== CODE BLOCK ADDRESS 0x156a ===
  0x156a	dec    	ebp
  0x156b	lea    	ebp, [edi + eax*2]
  0x156e	dec    	ecx
  0x156f	mov    	edx, ebp
  0x1571	dec    	eax
  === BLOCK LINK ===
    0x1572
=== CODE BLOCK END ===

=== CODE BLOCK ADDRESS 0x1572 ===
  0x1572	call   	dword ptr [0x2d88]
  === BLOCK LINK ===
    0x1578
=== CODE BLOCK END ===

=== CODE BLOCK ADDRESS 0x1578 ===
  0x1578	nop    	dword ptr [eax + eax]
  0x157d	test   	al, al
  0x157f	je     	0x16d0
  === BLOCK LINK ===
    0x1585
=== CODE BLOCK END ===

=== CODE BLOCK ADDRESS 0x1585 ===
  0x1585	inc    	ecx
  0x1586	or     	eax, 0xffffffff
  0x1589	dec    	eax
  0x158a	lea    	edx, [0x2f38]
  0x1590	dec    	eax
  === BLOCK LINK ===
    0x1591
=== CODE BLOCK END ===

=== CODE BLOCK ADDRESS 0x1591 ===
  0x1591	lea    	ecx, [ebp - 0x19]
  0x1594	dec    	eax
  0x1595	call   	dword ptr [0x2d2d]
  === BLOCK LINK ===
    0x159b
=== CODE BLOCK END ===

=== CODE BLOCK ADDRESS 0x159b ===
  0x159b	nop    	dword ptr [eax + eax]
  0x15a0	test   	al, al
  0x15a2	je     	0x16d0
  === BLOCK LINK ===
    0x15a8
=== CODE BLOCK END ===

=== CODE BLOCK ADDRESS 0x15a8 ===
  0x15a8	dec    	eax
  0x15a9	lea    	edx, [ebp + 0x17]
  0x15ac	dec    	eax
  0x15ad	lea    	ecx, [ebp - 0x19]
  0x15b0	dec    	eax
  === BLOCK LINK ===
    0x15b1
=== CODE BLOCK END ===

=== CODE BLOCK ADDRESS 0x15b1 ===
  0x15b1	call   	dword ptr [0x2d81]
  === BLOCK LINK ===
    0x15b7
=== CODE BLOCK END ===

=== CODE BLOCK ADDRESS 0x15b7 ===
  0x15b7	nop    	dword ptr [eax + eax]
  0x15bc	test   	al, al
  0x15be	je     	0x16d0
  === BLOCK LINK ===
    0x15c4
=== CODE BLOCK END ===

=== CODE BLOCK ADDRESS 0x15c4 ===
  0x15c4	inc    	ecx
  0x15c5	or     	eax, 0xffffffff
  0x15c8	dec    	eax
  0x15c9	lea    	edx, [0x2efd]
  0x15cf	dec    	eax
  === BLOCK LINK ===
    0x15d0
=== CODE BLOCK END ===

=== CODE BLOCK ADDRESS 0x15d0 ===
  0x15d0	lea    	ecx, [ebp + 0x17]
  0x15d3	dec    	eax
  0x15d4	call   	dword ptr [0x2cee]
  === BLOCK LINK ===
    0x15da
=== CODE BLOCK END ===

=== CODE BLOCK ADDRESS 0x15da ===
  0x15da	nop    	dword ptr [eax + eax]
  0x15df	test   	al, al
  0x15e1	je     	0x16d0
  === BLOCK LINK ===
    0x15e7
=== CODE BLOCK END ===

=== CODE BLOCK ADDRESS 0x15e7 ===
  0x15e7	dec    	eax
  0x15e8	lea    	edx, [ebp + 0x17]
  0x15eb	dec    	eax
  0x15ec	lea    	ecx, [ebp - 0x19]
  0x15ef	dec    	eax
  === BLOCK LINK ===
    0x15f0
=== CODE BLOCK END ===

=== CODE BLOCK ADDRESS 0x15f0 ===
  0x15f0	call   	dword ptr [0x2d42]
  === BLOCK LINK ===
    0x15f6
=== CODE BLOCK END ===

=== CODE BLOCK ADDRESS 0x15f6 ===
  0x15f6	nop    	dword ptr [eax + eax]
  0x15fb	test   	al, al
  0x15fd	je     	0x16d0
  === BLOCK LINK ===
    0x1603
=== CODE BLOCK END ===

=== CODE BLOCK ADDRESS 0x1603 ===
  0x1603	dec    	ecx
  0x1604	mov    	eax, dword ptr [esi]
  0x1606	inc    	ecx
  0x1607	mov    	ecx, 3
  0x160c	inc    	ebp
  === BLOCK LINK ===
    0x160d
=== CODE BLOCK END ===

=== CODE BLOCK ADDRESS 0x160d ===
  0x160d	xor    	eax, eax
  0x160f	mov    	edx, 0x41e
  0x1614	dec    	ecx
  0x1615	mov    	ecx, esi
  0x1617	dec    	eax
  === BLOCK LINK ===
    0x1618
=== CODE BLOCK END ===

=== CODE BLOCK ADDRESS 0x1618 ===
  0x1618	mov    	eax, dword ptr [eax + 0x20]
  0x161b	call   	dword ptr [0x2dff]
  === BLOCK LINK ===
    0x1621
=== CODE BLOCK END ===

=== CODE BLOCK ADDRESS 0x1621 ===
  0x1621	dec    	esp
  0x1622	lea    	eax, [ebp - 0x19]
  0x1625	dec    	ecx
  0x1626	mov    	ecx, esi
  0x1628	dec    	eax
  === BLOCK LINK ===
    0x1629
=== CODE BLOCK END ===

=== CODE BLOCK ADDRESS 0x1629 ===
  0x1629	lea    	edx, [0x2e6d]
  0x162f	dec    	eax
  0x1630	call   	dword ptr [0x2d12]
  === BLOCK LINK ===
    0x1636
=== CODE BLOCK END ===

=== CODE BLOCK ADDRESS 0x1636 ===
  0x1636	nop    	dword ptr [eax + eax]
  0x163b	dec    	ebp
  0x163c	mov    	eax, esi
  0x163e	mov    	dl, 1
  0x1640	dec    	ecx
  === BLOCK LINK ===
    0x1641
=== CODE BLOCK END ===

=== CODE BLOCK ADDRESS 0x1641 ===
  0x1641	mov    	ecx, ebp
  0x1643	call   	0x135c
  === BLOCK LINK ===
    0x1648
=== CODE BLOCK END ===

=== CODE BLOCK ADDRESS 0x1648 ===
  0x1648	test   	al, al
  0x164a	je     	0x168c
  === BLOCK LINK ===
    0x164c
=== CODE BLOCK END ===

=== CODE BLOCK ADDRESS 0x164c ===
  0x164c	dec    	ecx
  0x164d	mov    	eax, dword ptr [esi]
  0x164f	inc    	ecx
  0x1650	mov    	ecx, 3
  0x1655	inc    	ebp
  === BLOCK LINK ===
    0x1656
=== CODE BLOCK END ===

=== CODE BLOCK ADDRESS 0x1656 ===
  0x1656	xor    	eax, eax
  0x1658	mov    	edx, 0x419
  0x165d	dec    	ecx
  0x165e	mov    	ecx, esi
  0x1660	dec    	eax
  === BLOCK LINK ===
    0x1661
=== CODE BLOCK END ===

=== CODE BLOCK ADDRESS 0x1661 ===
  0x1661	mov    	eax, dword ptr [eax + 0x20]
  0x1664	call   	dword ptr [0x2db6]
  === BLOCK LINK ===
    0x166a
=== CODE BLOCK END ===

=== CODE BLOCK ADDRESS 0x166a ===
  0x166a	dec    	eax
  0x166b	lea    	edx, [0x2e1f]
  0x1671	dec    	ecx
  0x1672	mov    	ecx, esi
  0x1674	dec    	eax
  === BLOCK LINK ===
    0x1675
=== CODE BLOCK END ===

=== CODE BLOCK ADDRESS 0x1675 ===
  0x1675	call   	dword ptr [0x2ccd]
  === BLOCK LINK ===
    0x167b
=== CODE BLOCK END ===

=== CODE BLOCK ADDRESS 0x167b ===
  0x167b	nop    	dword ptr [eax + eax]
  0x1680	inc    	esi
  0x1682	cmp    	esi, edi
  0x1684	jb     	0x154e
  === BLOCK LINK ===
    0x168a
=== CODE BLOCK END ===

=== CODE BLOCK ADDRESS 0x168a ===
  0x168a	mov    	bl, 1
  0x168c	dec    	eax
  0x168d	lea    	ecx, [ebp - 0x19]
  0x1690	dec    	eax
  0x1691	call   	dword ptr [0x2c01]
  === BLOCK LINK ===
    0x1697
=== CODE BLOCK END ===

=== CODE BLOCK ADDRESS 0x1697 ===
  0x1697	nop    	dword ptr [eax + eax]
  0x169c	dec    	eax
  0x169d	lea    	ecx, [ebp + 0x17]
  0x16a0	dec    	eax
  0x16a1	call   	dword ptr [0x2bf1]
  === BLOCK LINK ===
    0x16a7
=== CODE BLOCK END ===

=== CODE BLOCK ADDRESS 0x16a7 ===
  0x16a7	nop    	dword ptr [eax + eax]
  0x16ac	dec    	esp
  0x16ad	lea    	ebx, [esp + 0xa0]
  0x16b4	mov    	al, bl
  0x16b6	dec    	ecx
  === BLOCK LINK ===
    0x16b7
=== CODE BLOCK END ===

=== CODE BLOCK ADDRESS 0x16b7 ===
  0x16b7	mov    	ebx, dword ptr [ebx + 0x20]
  0x16ba	dec    	ecx
  0x16bb	mov    	esi, dword ptr [ebx + 0x28]
  0x16be	dec    	ecx
  0x16bf	mov    	edi, dword ptr [ebx + 0x30]
  === BLOCK LINK ===
    0x16c2
=== CODE BLOCK END ===

=== CODE BLOCK ADDRESS 0x16c2 ===
  0x16c2	dec    	ebp
  0x16c3	mov    	ebp, dword ptr [ebx + 0x38]
  0x16c6	dec    	ecx
  0x16c7	mov    	esp, ebx
  0x16c9	inc    	ecx
  === BLOCK LINK ===
    0x16ca
=== CODE BLOCK END ===

=== CODE BLOCK ADDRESS 0x16ca ===
  0x16ca	pop    	edi
  0x16cb	inc    	ecx
  0x16cc	pop    	esi
  0x16cd	pop    	ebp
  0x16ce	ret    	
  === BLOCK LINK ===
    0x16cf
=== CODE BLOCK END ===

=== CODE BLOCK ADDRESS 0x16cf ===
  0x16cf	int3   	
  0x16d0	dec    	eax
  0x16d1	lea    	ecx, [0x2dc9]
  0x16d7	dec    	eax
  0x16d8	call   	dword ptr [0x2c7a]
  === BLOCK LINK ===
    0x16de
=== CODE BLOCK END ===

=== CODE BLOCK ADDRESS 0x16de ===
  0x16de	nop    	dword ptr [eax + eax]
  0x16e3	mov    	dword ptr [esp + 0x30], 0x14b
  0x16eb	dec    	eax
  0x16ec	mov    	dword ptr [esp + 0x28], eax
  0x16f0	inc    	ecx
  === BLOCK LINK ===
    0x16f1
=== CODE BLOCK END ===

=== CODE BLOCK ADDRESS 0x16f1 ===
  0x16f1	mov    	ecx, 3
  0x16f6	dec    	eax
  0x16f7	lea    	eax, [0x2dc3]
  0x16fd	mov    	edx, 0x43c
  0x1702	dec    	ecx
  === BLOCK LINK ===
    0x1703
=== CODE BLOCK END ===

=== CODE BLOCK ADDRESS 0x1703 ===
  0x1703	mov    	ecx, esi
  0x1705	dec    	eax
  0x1706	mov    	dword ptr [esp + 0x20], eax
  0x170a	inc    	ebp
  0x170b	lea    	eax, [ecx - 2]
  === BLOCK LINK ===
    0x170e
=== CODE BLOCK END ===

=== CODE BLOCK ADDRESS 0x170e ===
  0x170e	dec    	eax
  0x170f	call   	dword ptr [0x2c3b]
  === BLOCK LINK ===
    0x1715
=== CODE BLOCK END ===

=== CODE BLOCK ADDRESS 0x1715 ===
  0x1715	nop    	dword ptr [eax + eax]
  0x171a	jmp    	0x168c
  === BLOCK LINK ===
    0x171f
=== CODE BLOCK END ===

=== CODE BLOCK ADDRESS 0x171f ===
  0x171f	int3   	
  0x1720	int3   	
  0x1721	int3   	
  0x1722	int3   	
  0x1723	int3   	
  === BLOCK LINK ===
    0x1724
=== CODE BLOCK END ===

=== CODE BLOCK ADDRESS 0x1724 ===
  0x1724	int3   	
  0x1725	int3   	
  0x1726	int3   	
  0x1727	int3   	
  0x1728	dec    	eax
  === BLOCK LINK ===
    0x1729
=== CODE BLOCK END ===

=== CODE BLOCK ADDRESS 0x1729 ===
  0x1729	mov    	eax, esp
  0x172b	dec    	eax
  0x172c	mov    	dword ptr [eax + 8], ebx
  0x172f	dec    	eax
  0x1730	mov    	dword ptr [eax + 0x10], esi
  === BLOCK LINK ===
    0x1733
=== CODE BLOCK END ===

=== CODE BLOCK ADDRESS 0x1733 ===
  0x1733	dec    	eax
  0x1734	mov    	dword ptr [eax + 0x18], edi
  0x1737	push   	ebp
  0x1738	inc    	ecx
  0x1739	push   	esp
  === BLOCK LINK ===
    0x173a
=== CODE BLOCK END ===

=== CODE BLOCK ADDRESS 0x173a ===
  0x173a	inc    	ecx
  0x173b	push   	ebp
  0x173c	inc    	ecx
  0x173d	push   	esi
  0x173e	inc    	ecx
  === BLOCK LINK ===
    0x173f
=== CODE BLOCK END ===

=== CODE BLOCK ADDRESS 0x173f ===
  0x173f	push   	edi
  0x1740	dec    	eax
  0x1741	lea    	ebp, [eax - 0x5f]
  0x1744	dec    	eax
  0x1745	sub    	esp, 0xb0
  === BLOCK LINK ===
    0x174b
=== CODE BLOCK END ===

=== CODE BLOCK ADDRESS 0x174b ===
  0x174b	dec    	esp
  0x174c	mov    	edi, ecx
  0x174e	dec    	ecx
  0x174f	mov    	esi, eax
  0x1751	dec    	eax
  === BLOCK LINK ===
    0x1752
=== CODE BLOCK END ===

=== CODE BLOCK ADDRESS 0x1752 ===
  0x1752	lea    	ecx, [ebp - 0x31]
  0x1755	dec    	esp
  0x1756	mov    	esp, edx
  0x1758	dec    	eax
  0x1759	call   	dword ptr [0x2ca9]
  === BLOCK LINK ===
    0x175f
=== CODE BLOCK END ===

=== CODE BLOCK ADDRESS 0x175f ===
  0x175f	nop    	dword ptr [eax + eax]
  0x1764	dec    	eax
  0x1765	lea    	ecx, [ebp - 1]
  0x1768	dec    	eax
  0x1769	call   	dword ptr [0x2c99]
  === BLOCK LINK ===
    0x176f
=== CODE BLOCK END ===

=== CODE BLOCK ADDRESS 0x176f ===
  0x176f	nop    	dword ptr [eax + eax]
  0x1774	inc    	ebp
  0x1775	xor    	eax, eax
  0x1777	xor    	edx, edx
  0x1779	dec    	ecx
  === BLOCK LINK ===
    0x177a
=== CODE BLOCK END ===

=== CODE BLOCK ADDRESS 0x177a ===
  0x177a	mov    	ecx, edi
  0x177c	dec    	eax
  0x177d	call   	dword ptr [0x2b35]
  === BLOCK LINK ===
    0x1783
=== CODE BLOCK END ===

=== CODE BLOCK ADDRESS 0x1783 ===
  0x1783	nop    	dword ptr [eax + eax]
  0x1788	dec    	esp
  0x1789	mov    	esi, eax
  0x178b	dec    	eax
  0x178c	test   	eax, eax
  === BLOCK LINK ===
    0x178e
=== CODE BLOCK END ===

=== CODE BLOCK ADDRESS 0x178e ===
  0x178e	je     	0x1a6c
  === BLOCK LINK ===
    0x1794
=== CODE BLOCK END ===

=== CODE BLOCK ADDRESS 0x1794 ===
  0x1794	inc    	ebp
  0x1795	xor    	eax, eax
  0x1797	xor    	edx, edx
  0x1799	dec    	eax
  0x179a	mov    	ecx, eax
  === BLOCK LINK ===
    0x179c
=== CODE BLOCK END ===

=== CODE BLOCK ADDRESS 0x179c ===
  0x179c	dec    	eax
  0x179d	call   	dword ptr [0x2c45]
  === BLOCK LINK ===
    0x17a3
=== CODE BLOCK END ===

=== CODE BLOCK ADDRESS 0x17a3 ===
  0x17a3	nop    	dword ptr [eax + eax]
  0x17a8	dec    	eax
  0x17a9	mov    	edi, eax
  0x17ab	dec    	eax
  0x17ac	test   	eax, eax
  === BLOCK LINK ===
    0x17ae
=== CODE BLOCK END ===

=== CODE BLOCK ADDRESS 0x17ae ===
  0x17ae	je     	0x1a58
  === BLOCK LINK ===
    0x17b4
=== CODE BLOCK END ===

=== CODE BLOCK ADDRESS 0x17b4 ===
  0x17b4	inc    	ecx
  0x17b5	or     	ebp, 0xffffffff
  0x17b8	dec    	eax
  0x17b9	lea    	edx, [0x2cd1]
  0x17bf	inc    	ebp
  === BLOCK LINK ===
    0x17c0
=== CODE BLOCK END ===

=== CODE BLOCK ADDRESS 0x17c0 ===
  0x17c0	mov    	eax, ebp
  0x17c2	dec    	eax
  0x17c3	lea    	ecx, [ebp - 0x31]
  0x17c6	dec    	eax
  0x17c7	call   	dword ptr [0x2afb]
  === BLOCK LINK ===
    0x17cd
=== CODE BLOCK END ===

=== CODE BLOCK ADDRESS 0x17cd ===
  0x17cd	nop    	dword ptr [eax + eax]
  0x17d2	mov    	ebx, 1
  0x17d7	test   	al, al
  0x17d9	je     	0x1a0d
  === BLOCK LINK ===
    0x17df
=== CODE BLOCK END ===

=== CODE BLOCK ADDRESS 0x17df ===
  0x17df	inc    	ebp
  0x17e0	mov    	eax, ebp
  0x17e2	dec    	eax
  0x17e3	lea    	ecx, [ebp - 1]
  0x17e6	dec    	ecx
  === BLOCK LINK ===
    0x17e7
=== CODE BLOCK END ===

=== CODE BLOCK ADDRESS 0x17e7 ===
  0x17e7	mov    	edx, esp
  0x17e9	dec    	eax
  0x17ea	call   	dword ptr [0x2b10]
  === BLOCK LINK ===
    0x17f0
=== CODE BLOCK END ===

=== CODE BLOCK ADDRESS 0x17f0 ===
  0x17f0	nop    	dword ptr [eax + eax]
  0x17f5	test   	al, al
  0x17f7	je     	0x1a0d
  === BLOCK LINK ===
    0x17fd
=== CODE BLOCK END ===

=== CODE BLOCK ADDRESS 0x17fd ===
  0x17fd	mov    	byte ptr [esp + 0x28], bl
  0x1801	dec    	eax
  0x1802	lea    	ecx, [ebp - 1]
  0x1805	and    	dword ptr [esp + 0x20], 0
  0x180a	inc    	ebp
  === BLOCK LINK ===
    0x180b
=== CODE BLOCK END ===

=== CODE BLOCK ADDRESS 0x180b ===
  0x180b	xor    	ecx, ecx
  0x180d	inc    	ebp
  0x180e	mov    	eax, ebp
  0x1810	xor    	edx, edx
  0x1812	dec    	eax
  === BLOCK LINK ===
    0x1813
=== CODE BLOCK END ===

=== CODE BLOCK ADDRESS 0x1813 ===
  0x1813	call   	dword ptr [0x2b17]
  === BLOCK LINK ===
    0x1819
=== CODE BLOCK END ===

=== CODE BLOCK ADDRESS 0x1819 ===
  0x1819	nop    	dword ptr [eax + eax]
  0x181e	dec    	esp
  0x181f	mov    	edi, eax
  0x1821	dec    	eax
  0x1822	test   	eax, eax
  === BLOCK LINK ===
    0x1824
=== CODE BLOCK END ===

=== CODE BLOCK ADDRESS 0x1824 ===
  0x1824	je     	0x1a0d
  === BLOCK LINK ===
    0x182a
=== CODE BLOCK END ===

=== CODE BLOCK ADDRESS 0x182a ===
  0x182a	dec    	eax
  0x182b	mov    	ecx, dword ptr [edi]
  0x182d	dec    	eax
  0x182e	mov    	eax, dword ptr [ecx + 0x18]
  0x1831	dec    	eax
  === BLOCK LINK ===
    0x1832
=== CODE BLOCK END ===

=== CODE BLOCK ADDRESS 0x1832 ===
  0x1832	mov    	ecx, edi
  0x1834	call   	dword ptr [0x2be6]
  === BLOCK LINK ===
    0x183a
=== CODE BLOCK END ===

=== CODE BLOCK ADDRESS 0x183a ===
  0x183a	test   	al, al
  0x183c	jne    	0x19e6
  === BLOCK LINK ===
    0x1842
=== CODE BLOCK END ===

=== CODE BLOCK ADDRESS 0x1842 ===
  0x1842	inc    	esp
  0x1843	lea    	esp, [ebx + 0x5c]
  0x1846	inc    	ebp
  0x1847	xor    	eax, eax
  0x1849	dec    	eax
  === BLOCK LINK ===
    0x184a
=== CODE BLOCK END ===

=== CODE BLOCK ADDRESS 0x184a ===
  0x184a	lea    	edx, [ebp - 0x31]
  0x184d	dec    	eax
  0x184e	mov    	ecx, edi
  0x1850	dec    	eax
  0x1851	call   	dword ptr [0x2a79]
  === BLOCK LINK ===
    0x1857
=== CODE BLOCK END ===

=== CODE BLOCK ADDRESS 0x1857 ===
  0x1857	nop    	dword ptr [eax + eax]
  0x185c	test   	al, al
  0x185e	je     	0x19e6
  === BLOCK LINK ===
    0x1864
=== CODE BLOCK END ===

=== CODE BLOCK ADDRESS 0x1864 ===
  0x1864	mov    	eax, dword ptr [ebp - 0x19]
  0x1867	test   	eax, eax
  0x1869	je     	0x19ce
  === BLOCK LINK ===
    0x186f
=== CODE BLOCK END ===

=== CODE BLOCK ADDRESS 0x186f ===
  0x186f	dec    	eax
  0x1870	mov    	eax, dword ptr [ebp - 0x21]
  0x1873	movzx  	ecx, word ptr [eax]
  0x1876	cmp    	cx, 0x5b
  0x187a	jne    	0x195e
  === BLOCK LINK ===
    0x1880
=== CODE BLOCK END ===

=== CODE BLOCK ADDRESS 0x1880 ===
  0x1880	inc    	ecx
  0x1881	mov    	edx, esp
  0x1883	dec    	eax
  0x1884	lea    	ecx, [ebp - 0x31]
  0x1887	inc    	ebp
  === BLOCK LINK ===
    0x1888
=== CODE BLOCK END ===

=== CODE BLOCK ADDRESS 0x1888 ===
  0x1888	xor    	eax, eax
  0x188a	dec    	eax
  0x188b	call   	dword ptr [0x2a77]
  === BLOCK LINK ===
    0x1891
=== CODE BLOCK END ===

=== CODE BLOCK ADDRESS 0x1891 ===
  0x1891	nop    	dword ptr [eax + eax]
  0x1896	inc    	ecx
  0x1897	cmp    	eax, ebp
  0x1899	je     	0x195e
  === BLOCK LINK ===
    0x189f
=== CODE BLOCK END ===

=== CODE BLOCK ADDRESS 0x189f ===
  0x189f	inc    	ecx
  0x18a0	mov    	edx, esp
  0x18a2	dec    	eax
  0x18a3	lea    	ecx, [ebp - 0x31]
  0x18a6	inc    	ebp
  === BLOCK LINK ===
    0x18a7
=== CODE BLOCK END ===

=== CODE BLOCK ADDRESS 0x18a7 ===
  0x18a7	xor    	eax, eax
  0x18a9	dec    	eax
  0x18aa	call   	dword ptr [0x2a58]
  === BLOCK LINK ===
    0x18b0
=== CODE BLOCK END ===

=== CODE BLOCK ADDRESS 0x18b0 ===
  0x18b0	nop    	dword ptr [eax + eax]
  0x18b5	cmp    	eax, ebx
  0x18b7	jbe    	0x195e
  === BLOCK LINK ===
    0x18bd
=== CODE BLOCK END ===

=== CODE BLOCK ADDRESS 0x18bd ===
  0x18bd	dec    	eax
  0x18bf	mov    	ecx, dword ptr [0x60]
  0x18c6	dec    	ebp
  0x18c7	mov    	eax, edi
  0x18c9	xor    	edx, edx
  === BLOCK LINK ===
    0x18cb
=== CODE BLOCK END ===

=== CODE BLOCK ADDRESS 0x18cb ===
  0x18cb	dec    	eax
  0x18cc	mov    	ecx, dword ptr [ecx + 0x30]
  0x18cf	dec    	eax
  0x18d0	call   	dword ptr [0x29a2]
  === BLOCK LINK ===
    0x18d6
=== CODE BLOCK END ===

=== CODE BLOCK ADDRESS 0x18d6 ===
  0x18d6	nop    	dword ptr [eax + eax]
  0x18db	inc    	ecx
  0x18dc	mov    	edx, esp
  0x18de	dec    	eax
  0x18df	lea    	ecx, [ebp - 0x31]
  === BLOCK LINK ===
    0x18e2
=== CODE BLOCK END ===

=== CODE BLOCK ADDRESS 0x18e2 ===
  0x18e2	inc    	ebp
  0x18e3	xor    	eax, eax
  0x18e5	dec    	eax
  0x18e6	call   	dword ptr [0x2a1c]
  === BLOCK LINK ===
    0x18ec
=== CODE BLOCK END ===

=== CODE BLOCK ADDRESS 0x18ec ===
  0x18ec	nop    	dword ptr [eax + eax]
  0x18f1	inc    	esp
  0x18f2	mov    	eax, ebx
  0x18f4	dec    	eax
  0x18f5	lea    	edx, [ebp - 0x31]
  === BLOCK LINK ===
    0x18f8
=== CODE BLOCK END ===

=== CODE BLOCK ADDRESS 0x18f8 ===
  0x18f8	sub    	eax, ebx
  0x18fa	dec    	eax
  0x18fb	lea    	ecx, [ebp - 1]
  0x18fe	inc    	esp
  0x18ff	mov    	ecx, eax
  === BLOCK LINK ===
    0x1901
=== CODE BLOCK END ===

=== CODE BLOCK ADDRESS 0x1901 ===
  0x1901	dec    	eax
  0x1902	call   	dword ptr [0x2a18]
  === BLOCK LINK ===
    0x1908
=== CODE BLOCK END ===

=== CODE BLOCK ADDRESS 0x1908 ===
  0x1908	nop    	dword ptr [eax + eax]
  0x190d	test   	al, al
  0x190f	je     	0x193e
  === BLOCK LINK ===
    0x1911
=== CODE BLOCK END ===

=== CODE BLOCK ADDRESS 0x1911 ===
  0x1911	mov    	byte ptr [esp + 0x28], bl
  0x1915	dec    	eax
  0x1916	lea    	ecx, [ebp - 1]
  0x1919	and    	dword ptr [esp + 0x20], 0
  0x191e	inc    	ebp
  === BLOCK LINK ===
    0x191f
=== CODE BLOCK END ===

=== CODE BLOCK ADDRESS 0x191f ===
  0x191f	xor    	ecx, ecx
  0x1921	inc    	ebp
  0x1922	mov    	eax, ebp
  0x1924	xor    	edx, edx
  0x1926	dec    	eax
  === BLOCK LINK ===
    0x1927
=== CODE BLOCK END ===

=== CODE BLOCK ADDRESS 0x1927 ===
  0x1927	call   	dword ptr [0x2a03]
  === BLOCK LINK ===
    0x192d
=== CODE BLOCK END ===

=== CODE BLOCK ADDRESS 0x192d ===
  0x192d	nop    	dword ptr [eax + eax]
  0x1932	dec    	esp
  0x1933	mov    	edi, eax
  0x1935	dec    	eax
  0x1936	test   	eax, eax
  === BLOCK LINK ===
    0x1938
=== CODE BLOCK END ===

=== CODE BLOCK ADDRESS 0x1938 ===
  0x1938	jne    	0x19ce
  === BLOCK LINK ===
    0x193e
=== CODE BLOCK END ===

=== CODE BLOCK ADDRESS 0x193e ===
  0x193e	dec    	eax
  0x193f	lea    	ecx, [0x2b5b]
  0x1945	dec    	eax
  0x1946	call   	dword ptr [0x2a0c]
  === BLOCK LINK ===
    0x194c
=== CODE BLOCK END ===

=== CODE BLOCK ADDRESS 0x194c ===
  0x194c	nop    	dword ptr [eax + eax]
  0x1951	mov    	dword ptr [esp + 0x30], 0x1a4
  0x1959	jmp    	0x1a28
  === BLOCK LINK ===
    0x195e
=== CODE BLOCK END ===

=== CODE BLOCK ADDRESS 0x195e ===
  0x195e	dec    	esp
  0x195f	lea    	eax, [ebp + 0x7f]
  0x1962	dec    	eax
  0x1963	lea    	edx, [ebp - 0x39]
  0x1966	dec    	eax
  === BLOCK LINK ===
    0x1967
=== CODE BLOCK END ===

=== CODE BLOCK ADDRESS 0x1967 ===
  0x1967	lea    	ecx, [ebp - 0x31]
  0x196a	call   	0x11cc
  === BLOCK LINK ===
    0x196f
=== CODE BLOCK END ===

=== CODE BLOCK ADDRESS 0x196f ===
  0x196f	test   	al, al
  0x1971	je     	0x199a
  === BLOCK LINK ===
    0x1973
=== CODE BLOCK END ===

=== CODE BLOCK ADDRESS 0x1973 ===
  0x1973	dec    	eax
  0x1974	mov    	ecx, dword ptr [ebp + 0x7f]
  0x1977	dec    	ebp
  0x1978	mov    	eax, edi
  0x197a	movzx  	eax, word ptr [ecx]
  === BLOCK LINK ===
    0x197d
=== CODE BLOCK END ===

=== CODE BLOCK ADDRESS 0x197d ===
  0x197d	neg    	ax
  0x1980	dec    	eax
  0x1981	sbb    	edx, edx
  0x1983	dec    	eax
  0x1984	and    	edx, ecx
  === BLOCK LINK ===
    0x1986
=== CODE BLOCK END ===

=== CODE BLOCK ADDRESS 0x1986 ===
  0x1986	dec    	eax
  0x1987	mov    	ecx, dword ptr [ebp - 0x39]
  0x198a	dec    	eax
  0x198b	call   	dword ptr [0x2807]
  === BLOCK LINK ===
    0x1991
=== CODE BLOCK END ===

=== CODE BLOCK ADDRESS 0x1991 ===
  0x1991	nop    	dword ptr [eax + eax]
  0x1996	test   	eax, eax
  0x1998	jne    	0x19ce
  === BLOCK LINK ===
    0x199a
=== CODE BLOCK END ===

=== CODE BLOCK ADDRESS 0x199a ===
  0x199a	dec    	eax
  0x199b	mov    	eax, dword ptr [esi]
  0x199d	inc    	ecx
  0x199e	mov    	ecx, 3
  0x19a3	inc    	ebp
  === BLOCK LINK ===
    0x19a4
=== CODE BLOCK END ===

=== CODE BLOCK ADDRESS 0x19a4 ===
  0x19a4	xor    	eax, eax
  0x19a6	mov    	edx, 0x7727
  0x19ab	dec    	eax
  0x19ac	mov    	ecx, esi
  0x19ae	dec    	eax
  === BLOCK LINK ===
    0x19af
=== CODE BLOCK END ===

=== CODE BLOCK ADDRESS 0x19af ===
  0x19af	mov    	eax, dword ptr [eax + 0x20]
  0x19b2	call   	dword ptr [0x2a68]
  === BLOCK LINK ===
    0x19b8
=== CODE BLOCK END ===

=== CODE BLOCK ADDRESS 0x19b8 ===
  0x19b8	dec    	eax
  0x19b9	lea    	edx, [0x2ad1]
  0x19bf	dec    	eax
  0x19c0	mov    	ecx, esi
  0x19c2	dec    	eax
  === BLOCK LINK ===
    0x19c3
=== CODE BLOCK END ===

=== CODE BLOCK ADDRESS 0x19c3 ===
  0x19c3	call   	dword ptr [0x297f]
  === BLOCK LINK ===
    0x19c9
=== CODE BLOCK END ===

=== CODE BLOCK ADDRESS 0x19c9 ===
  0x19c9	nop    	dword ptr [eax + eax]
  0x19ce	dec    	eax
  0x19cf	mov    	eax, dword ptr [edi]
  0x19d1	dec    	eax
  0x19d2	mov    	ecx, edi
  === BLOCK LINK ===
    0x19d4
=== CODE BLOCK END ===

=== CODE BLOCK ADDRESS 0x19d4 ===
  0x19d4	dec    	eax
  0x19d5	mov    	eax, dword ptr [eax + 0x18]
  0x19d8	call   	dword ptr [0x2a42]
  === BLOCK LINK ===
    0x19de
=== CODE BLOCK END ===

=== CODE BLOCK ADDRESS 0x19de ===
  0x19de	test   	al, al
  0x19e0	je     	0x1846
  === BLOCK LINK ===
    0x19e6
=== CODE BLOCK END ===

=== CODE BLOCK ADDRESS 0x19e6 ===
  0x19e6	dec    	eax
  0x19e7	mov    	eax, dword ptr [edi]
  0x19e9	mov    	edx, ebx
  0x19eb	dec    	eax
  0x19ec	mov    	ecx, edi
  === BLOCK LINK ===
    0x19ee
=== CODE BLOCK END ===

=== CODE BLOCK ADDRESS 0x19ee ===
  0x19ee	dec    	eax
  0x19ef	mov    	eax, dword ptr [eax]
  0x19f1	call   	dword ptr [0x2a29]
  === BLOCK LINK ===
    0x19f7
=== CODE BLOCK END ===

=== CODE BLOCK ADDRESS 0x19f7 ===
  0x19f7	dec    	ecx
  0x19f8	mov    	eax, dword ptr [esi]
  0x19fa	mov    	edx, ebx
  0x19fc	dec    	ecx
  0x19fd	mov    	ecx, esi
  === BLOCK LINK ===
    0x19ff
=== CODE BLOCK END ===

=== CODE BLOCK ADDRESS 0x19ff ===
  0x19ff	dec    	eax
  0x1a00	mov    	eax, dword ptr [eax]
  0x1a02	call   	dword ptr [0x2a18]
  === BLOCK LINK ===
    0x1a08
=== CODE BLOCK END ===

=== CODE BLOCK ADDRESS 0x1a08 ===
  0x1a08	jmp    	0x1aa9
  === BLOCK LINK ===
    0x1a0d
=== CODE BLOCK END ===

=== CODE BLOCK ADDRESS 0x1a0d ===
  0x1a0d	dec    	eax
  0x1a0e	lea    	ecx, [0x2a8c]
  0x1a14	dec    	eax
  0x1a15	call   	dword ptr [0x293d]
  === BLOCK LINK ===
    0x1a1b
=== CODE BLOCK END ===

=== CODE BLOCK ADDRESS 0x1a1b ===
  0x1a1b	nop    	dword ptr [eax + eax]
  0x1a20	mov    	dword ptr [esp + 0x30], 0x190
  0x1a28	dec    	eax
  0x1a29	mov    	dword ptr [esp + 0x28], eax
  0x1a2d	inc    	ecx
  === BLOCK LINK ===
    0x1a2e
=== CODE BLOCK END ===

=== CODE BLOCK ADDRESS 0x1a2e ===
  0x1a2e	mov    	ecx, 3
  0x1a33	dec    	eax
  0x1a34	lea    	eax, [0x2a86]
  0x1a3a	inc    	esp
  0x1a3b	mov    	eax, ebx
  === BLOCK LINK ===
    0x1a3d
=== CODE BLOCK END ===

=== CODE BLOCK ADDRESS 0x1a3d ===
  0x1a3d	mov    	edx, 0x43c
  0x1a42	dec    	eax
  0x1a43	mov    	dword ptr [esp + 0x20], eax
  0x1a47	dec    	eax
  0x1a48	mov    	ecx, esi
  === BLOCK LINK ===
    0x1a4a
=== CODE BLOCK END ===

=== CODE BLOCK ADDRESS 0x1a4a ===
  0x1a4a	dec    	eax
  0x1a4b	call   	dword ptr [0x28ff]
  === BLOCK LINK ===
    0x1a51
=== CODE BLOCK END ===

=== CODE BLOCK ADDRESS 0x1a51 ===
  0x1a51	nop    	dword ptr [eax + eax]
  0x1a56	jmp    	0x1aa7
  === BLOCK LINK ===
    0x1a58
=== CODE BLOCK END ===

=== CODE BLOCK ADDRESS 0x1a58 ===
  0x1a58	dec    	ecx
  0x1a59	mov    	eax, dword ptr [esi]
  0x1a5b	mov    	edx, 1
  0x1a60	dec    	ecx
  0x1a61	mov    	ecx, esi
  === BLOCK LINK ===
    0x1a63
=== CODE BLOCK END ===

=== CODE BLOCK ADDRESS 0x1a63 ===
  0x1a63	dec    	eax
  0x1a64	mov    	eax, dword ptr [eax]
  0x1a66	call   	dword ptr [0x29b4]
  === BLOCK LINK ===
    0x1a6c
=== CODE BLOCK END ===

=== CODE BLOCK ADDRESS 0x1a6c ===
  0x1a6c	dec    	eax
  0x1a6d	mov    	eax, dword ptr [esi]
  0x1a6f	inc    	ecx
  0x1a70	mov    	ecx, 3
  0x1a75	inc    	ebp
  === BLOCK LINK ===
    0x1a76
=== CODE BLOCK END ===

=== CODE BLOCK ADDRESS 0x1a76 ===
  0x1a76	xor    	eax, eax
  0x1a78	mov    	edx, 0x1b5c
  0x1a7d	dec    	eax
  0x1a7e	mov    	ecx, esi
  0x1a80	dec    	eax
  === BLOCK LINK ===
    0x1a81
=== CODE BLOCK END ===

=== CODE BLOCK ADDRESS 0x1a81 ===
  0x1a81	mov    	eax, dword ptr [eax + 0x20]
  0x1a84	call   	dword ptr [0x2996]
  === BLOCK LINK ===
    0x1a8a
=== CODE BLOCK END ===

=== CODE BLOCK ADDRESS 0x1a8a ===
  0x1a8a	dec    	ebp
  0x1a8b	lea    	eax, [edi + 0x218]
  0x1a91	dec    	eax
  0x1a92	mov    	ecx, esi
  0x1a94	dec    	eax
  === BLOCK LINK ===
    0x1a95
=== CODE BLOCK END ===

=== CODE BLOCK ADDRESS 0x1a95 ===
  0x1a95	lea    	edx, [0x2a01]
  0x1a9b	dec    	eax
  0x1a9c	call   	dword ptr [0x28a6]
  === BLOCK LINK ===
    0x1aa2
=== CODE BLOCK END ===

=== CODE BLOCK ADDRESS 0x1aa2 ===
  0x1aa2	nop    	dword ptr [eax + eax]
  0x1aa7	xor    	bl, bl
  0x1aa9	dec    	eax
  0x1aaa	lea    	ecx, [ebp - 1]
  0x1aad	dec    	eax
  === BLOCK LINK ===
    0x1aae
=== CODE BLOCK END ===

=== CODE BLOCK ADDRESS 0x1aae ===
  0x1aae	call   	dword ptr [0x27e4]
  === BLOCK LINK ===
    0x1ab4
=== CODE BLOCK END ===

=== CODE BLOCK ADDRESS 0x1ab4 ===
  0x1ab4	nop    	dword ptr [eax + eax]
  0x1ab9	dec    	eax
  0x1aba	lea    	ecx, [ebp - 0x31]
  0x1abd	dec    	eax
  0x1abe	call   	dword ptr [0x27d4]
  === BLOCK LINK ===
    0x1ac4
=== CODE BLOCK END ===

=== CODE BLOCK ADDRESS 0x1ac4 ===
  0x1ac4	nop    	dword ptr [eax + eax]
  0x1ac9	dec    	esp
  0x1aca	lea    	ebx, [esp + 0xb0]
  0x1ad1	mov    	al, bl
  0x1ad3	dec    	ecx
  === BLOCK LINK ===
    0x1ad4
=== CODE BLOCK END ===

=== CODE BLOCK ADDRESS 0x1ad4 ===
  0x1ad4	mov    	ebx, dword ptr [ebx + 0x30]
  0x1ad7	dec    	ecx
  0x1ad8	mov    	esi, dword ptr [ebx + 0x38]
  0x1adb	dec    	ecx
  0x1adc	mov    	edi, dword ptr [ebx + 0x40]
  === BLOCK LINK ===
    0x1adf
=== CODE BLOCK END ===

=== CODE BLOCK ADDRESS 0x1adf ===
  0x1adf	dec    	ecx
  0x1ae0	mov    	esp, ebx
  0x1ae2	inc    	ecx
  0x1ae3	pop    	edi
  0x1ae4	inc    	ecx
  === BLOCK LINK ===
    0x1ae5
=== CODE BLOCK END ===

=== CODE BLOCK ADDRESS 0x1ae5 ===
  0x1ae5	pop    	esi
  0x1ae6	inc    	ecx
  0x1ae7	pop    	ebp
  0x1ae8	inc    	ecx
  0x1ae9	pop    	esp
  === BLOCK LINK ===
    0x1aea
=== CODE BLOCK END ===

=== CODE BLOCK ADDRESS 0x1aea ===
  0x1aea	pop    	ebp
  0x1aeb	ret    	
  0x1aec	int3   	
  0x1aed	int3   	
  0x1aee	int3   	
  === BLOCK LINK ===
    0x1aef
=== CODE BLOCK END ===

=== CODE BLOCK ADDRESS 0x1aef ===
  0x1aef	int3   	
  0x1af0	int3   	
  0x1af1	int3   	
  0x1af2	int3   	
  0x1af3	int3   	
  === BLOCK LINK ===
    0x1af4
=== CODE BLOCK END ===

=== CODE BLOCK ADDRESS 0x1af4 ===
  0x1af4	inc    	eax
  0x1af5	push   	ebp
  0x1af6	push   	ebx
  0x1af7	push   	esi
  0x1af8	push   	edi
  === BLOCK LINK ===
    0x1af9
=== CODE BLOCK END ===

=== CODE BLOCK ADDRESS 0x1af9 ===
  0x1af9	inc    	ecx
  0x1afa	push   	esp
  0x1afb	inc    	ecx
  0x1afc	push   	ebp
  0x1afd	inc    	ecx
  === BLOCK LINK ===
    0x1afe
=== CODE BLOCK END ===

=== CODE BLOCK ADDRESS 0x1afe ===
  0x1afe	push   	esi
  0x1aff	inc    	ecx
  0x1b00	push   	edi
  0x1b01	dec    	eax
  0x1b02	lea    	ebp, [esp - 0x8c8]
  === BLOCK LINK ===
    0x1b09
=== CODE BLOCK END ===

=== CODE BLOCK ADDRESS 0x1b09 ===
  0x1b09	dec    	eax
  0x1b0a	sub    	esp, 0x9c8
  0x1b10	dec    	eax
  0x1b11	lea    	ecx, [esp + 0x70]
  0x1b15	dec    	eax
  === BLOCK LINK ===
    0x1b16
=== CODE BLOCK END ===

=== CODE BLOCK ADDRESS 0x1b16 ===
  0x1b16	call   	dword ptr [0x27bc]
  === BLOCK LINK ===
    0x1b1c
=== CODE BLOCK END ===

=== CODE BLOCK ADDRESS 0x1b1c ===
  0x1b1c	nop    	dword ptr [eax + eax]
  0x1b21	dec    	eax
  0x1b22	lea    	ecx, [ebp + 0x6b0]
  0x1b28	dec    	eax
  0x1b29	call   	dword ptr [0x2849]
  === BLOCK LINK ===
    0x1b2f
=== CODE BLOCK END ===

=== CODE BLOCK ADDRESS 0x1b2f ===
  0x1b2f	nop    	dword ptr [eax + eax]
  0x1b34	dec    	eax
  0x1b35	lea    	ecx, [ebp + 0x120]
  0x1b3b	dec    	eax
  0x1b3c	call   	dword ptr [0x2886]
  === BLOCK LINK ===
    0x1b42
=== CODE BLOCK END ===

=== CODE BLOCK ADDRESS 0x1b42 ===
  0x1b42	nop    	dword ptr [eax + eax]
  0x1b47	dec    	eax
  0x1b48	lea    	ecx, [esp + 0x40]
  0x1b4c	dec    	eax
  0x1b4d	call   	dword ptr [0x2875]
  === BLOCK LINK ===
    0x1b53
=== CODE BLOCK END ===

=== CODE BLOCK ADDRESS 0x1b53 ===
  0x1b53	nop    	dword ptr [eax + eax]
  0x1b58	dec    	eax
  0x1b59	lea    	ecx, [ebp + 0x650]
  0x1b5f	dec    	eax
  0x1b60	call   	dword ptr [0x27fa]
  === BLOCK LINK ===
    0x1b66
=== CODE BLOCK END ===

=== CODE BLOCK ADDRESS 0x1b66 ===
  0x1b66	nop    	dword ptr [eax + eax]
  0x1b6b	dec    	eax
  0x1b6c	lea    	ecx, [ebp + 0x570]
  0x1b72	dec    	eax
  0x1b73	call   	dword ptr [0x277f]
  === BLOCK LINK ===
    0x1b79
=== CODE BLOCK END ===

=== CODE BLOCK ADDRESS 0x1b79 ===
  0x1b79	nop    	dword ptr [eax + eax]
  0x1b7e	dec    	eax
  0x1b7f	lea    	ecx, [ebp + 0x510]
  0x1b85	dec    	eax
  0x1b86	call   	dword ptr [0x276c]
  === BLOCK LINK ===
    0x1b8c
=== CODE BLOCK END ===

=== CODE BLOCK ADDRESS 0x1b8c ===
  0x1b8c	nop    	dword ptr [eax + eax]
  0x1b91	dec    	eax
  0x1b92	lea    	ecx, [ebp + 0x4b0]
  0x1b98	dec    	eax
  0x1b99	call   	dword ptr [0x2851]
  === BLOCK LINK ===
    0x1b9f
=== CODE BLOCK END ===

=== CODE BLOCK ADDRESS 0x1b9f ===
  0x1b9f	nop    	dword ptr [eax + eax]
  0x1ba4	dec    	eax
  0x1ba5	lea    	ecx, [ebp + 0x270]
  0x1bab	dec    	eax
  0x1bac	call   	dword ptr [0x283e]
  === BLOCK LINK ===
    0x1bb2
=== CODE BLOCK END ===

=== CODE BLOCK ADDRESS 0x1bb2 ===
  0x1bb2	nop    	dword ptr [eax + eax]
  0x1bb7	dec    	eax
  0x1bb8	lea    	ecx, [ebp + 0xc0]
  0x1bbe	dec    	eax
  0x1bbf	call   	dword ptr [0x279b]
  === BLOCK LINK ===
    0x1bc5
=== CODE BLOCK END ===

=== CODE BLOCK ADDRESS 0x1bc5 ===
  0x1bc5	nop    	dword ptr [eax + eax]
  0x1bca	dec    	eax
  0x1bcb	lea    	ecx, [ebp + 0x210]
  0x1bd1	dec    	eax
  0x1bd2	call   	dword ptr [0x2720]
  === BLOCK LINK ===
    0x1bd8
=== CODE BLOCK END ===

=== CODE BLOCK ADDRESS 0x1bd8 ===
  0x1bd8	nop    	dword ptr [eax + eax]
  0x1bdd	dec    	eax
  0x1bde	lea    	ecx, [ebp + 0x60]
  0x1be1	dec    	eax
  0x1be2	call   	dword ptr [0x2778]
  === BLOCK LINK ===
    0x1be8
=== CODE BLOCK END ===

=== CODE BLOCK ADDRESS 0x1be8 ===
  0x1be8	nop    	dword ptr [eax + eax]
  0x1bed	dec    	eax
  0x1bee	lea    	ecx, [ebp + 0x1b0]
  0x1bf4	dec    	eax
  0x1bf5	call   	dword ptr [0x26fd]
  === BLOCK LINK ===
    0x1bfb
=== CODE BLOCK END ===

=== CODE BLOCK ADDRESS 0x1bfb ===
  0x1bfb	nop    	dword ptr [eax + eax]
  0x1c00	dec    	eax
  0x1c01	lea    	ecx, [ebp + 0x450]
  0x1c07	dec    	eax
  0x1c08	call   	dword ptr [0x26ea]
  === BLOCK LINK ===
    0x1c0e
=== CODE BLOCK END ===

=== CODE BLOCK ADDRESS 0x1c0e ===
  0x1c0e	nop    	dword ptr [eax + eax]
  0x1c13	dec    	eax
  0x1c14	lea    	ecx, [ebp + 0x3f0]
  0x1c1a	dec    	eax
  0x1c1b	call   	dword ptr [0x26d7]
  === BLOCK LINK ===
    0x1c21
=== CODE BLOCK END ===

=== CODE BLOCK ADDRESS 0x1c21 ===
  0x1c21	nop    	dword ptr [eax + eax]
  0x1c26	dec    	eax
  0x1c27	lea    	ecx, [ebp + 0x390]
  0x1c2d	dec    	eax
  0x1c2e	call   	dword ptr [0x26c4]
  === BLOCK LINK ===
    0x1c34
=== CODE BLOCK END ===

=== CODE BLOCK ADDRESS 0x1c34 ===
  0x1c34	nop    	dword ptr [eax + eax]
  0x1c39	dec    	eax
  0x1c3a	lea    	ecx, [ebp + 0x330]
  0x1c40	dec    	eax
  0x1c41	call   	dword ptr [0x26b1]
  === BLOCK LINK ===
    0x1c47
=== CODE BLOCK END ===

=== CODE BLOCK ADDRESS 0x1c47 ===
  0x1c47	nop    	dword ptr [eax + eax]
  0x1c4c	dec    	eax
  0x1c4d	lea    	ecx, [ebp + 0x150]
  0x1c53	dec    	eax
  0x1c54	call   	dword ptr [0x2706]
  === BLOCK LINK ===
    0x1c5a
=== CODE BLOCK END ===

=== CODE BLOCK ADDRESS 0x1c5a ===
  0x1c5a	nop    	dword ptr [eax + eax]
  0x1c5f	dec    	eax
  0x1c60	lea    	ecx, [ebp + 0x2d0]
  0x1c66	dec    	eax
  0x1c67	call   	dword ptr [0x2653]
  === BLOCK LINK ===
    0x1c6d
=== CODE BLOCK END ===

=== CODE BLOCK ADDRESS 0x1c6d ===
  0x1c6d	nop    	dword ptr [eax + eax]
  0x1c72	dec    	eax
  0x1c73	lea    	ecx, [ebp + 0x5d0]
  0x1c79	dec    	eax
  0x1c7a	call   	dword ptr [0x2738]
  === BLOCK LINK ===
    0x1c80
=== CODE BLOCK END ===

=== CODE BLOCK ADDRESS 0x1c80 ===
  0x1c80	nop    	dword ptr [eax + eax]
  0x1c85	dec    	eax
  0x1c86	lea    	ecx, [ebp + 0x30]
  0x1c89	dec    	eax
  0x1c8a	call   	dword ptr [0x2778]
  === BLOCK LINK ===
    0x1c90
=== CODE BLOCK END ===

=== CODE BLOCK ADDRESS 0x1c90 ===
  0x1c90	nop    	dword ptr [eax + eax]
  0x1c95	inc    	ebp
  0x1c96	xor    	ecx, ecx
  0x1c98	inc    	ebp
  0x1c99	xor    	eax, eax
  === BLOCK LINK ===
    0x1c9b
=== CODE BLOCK END ===

=== CODE BLOCK ADDRESS 0x1c9b ===
  0x1c9b	xor    	ecx, ecx
  0x1c9d	inc    	ecx
  0x1c9e	lea    	esi, [ecx + 1]
  0x1ca1	mov    	edx, esi
  0x1ca3	dec    	eax
  === BLOCK LINK ===
    0x1ca4
=== CODE BLOCK END ===

=== CODE BLOCK ADDRESS 0x1ca4 ===
  0x1ca4	call   	dword ptr [0x24f6]
  === BLOCK LINK ===
    0x1caa
=== CODE BLOCK END ===

=== CODE BLOCK ADDRESS 0x1caa ===
  0x1caa	nop    	dword ptr [eax + eax]
  0x1caf	dec    	eax
  0x1cb0	call   	dword ptr [0x274a]
  === BLOCK LINK ===
    0x1cb6
=== CODE BLOCK END ===

=== CODE BLOCK ADDRESS 0x1cb6 ===
  0x1cb6	nop    	dword ptr [eax + eax]
  0x1cbb	xor    	edi, edi
  0x1cbd	dec    	eax
  0x1cbe	test   	eax, eax
  0x1cc0	je     	0x1ce1
  === BLOCK LINK ===
    0x1cc2
=== CODE BLOCK END ===

=== CODE BLOCK ADDRESS 0x1cc2 ===
  0x1cc2	dec    	eax
  0x1cc3	call   	dword ptr [0x2737]
  === BLOCK LINK ===
    0x1cc9
=== CODE BLOCK END ===

=== CODE BLOCK ADDRESS 0x1cc9 ===
  0x1cc9	nop    	dword ptr [eax + eax]
  0x1cce	dec    	eax
  0x1ccf	mov    	edx, eax
  0x1cd1	dec    	eax
  0x1cd2	mov    	ecx, dword ptr [eax]
  === BLOCK LINK ===
    0x1cd4
=== CODE BLOCK END ===

=== CODE BLOCK ADDRESS 0x1cd4 ===
  0x1cd4	dec    	eax
  0x1cd5	mov    	eax, dword ptr [ecx + 0x68]
  0x1cd8	dec    	eax
  0x1cd9	mov    	ecx, edx
  0x1cdb	call   	dword ptr [0x273f]
  === BLOCK LINK ===
    0x1ce1
=== CODE BLOCK END ===

=== CODE BLOCK ADDRESS 0x1ce1 ===
  0x1ce1	dec    	eax
  0x1ce2	call   	dword ptr [0x2718]
  === BLOCK LINK ===
    0x1ce8
=== CODE BLOCK END ===

=== CODE BLOCK ADDRESS 0x1ce8 ===
  0x1ce8	nop    	dword ptr [eax + eax]
  0x1ced	dec    	eax
  0x1cee	mov    	ebx, eax
  0x1cf0	dec    	eax
  0x1cf1	call   	dword ptr [0x2649]
  === BLOCK LINK ===
    0x1cf7
=== CODE BLOCK END ===

=== CODE BLOCK ADDRESS 0x1cf7 ===
  0x1cf7	nop    	dword ptr [eax + eax]
  0x1cfc	inc    	ebp
  0x1cfd	xor    	ecx, ecx
  0x1cff	dec    	eax
  0x1d00	lea    	ecx, [esp + 0x70]
  === BLOCK LINK ===
    0x1d04
=== CODE BLOCK END ===

=== CODE BLOCK ADDRESS 0x1d04 ===
  0x1d04	dec    	eax
  0x1d05	mov    	edx, eax
  0x1d07	dec    	esp
  0x1d08	mov    	eax, ebx
  0x1d0a	dec    	eax
  === BLOCK LINK ===
    0x1d0b
=== CODE BLOCK END ===

=== CODE BLOCK ADDRESS 0x1d0b ===
  0x1d0b	call   	dword ptr [0x25d7]
  === BLOCK LINK ===
    0x1d11
=== CODE BLOCK END ===

=== CODE BLOCK ADDRESS 0x1d11 ===
  0x1d11	nop    	dword ptr [eax + eax]
  0x1d16	test   	al, al
  0x1d18	je     	0x22ad
  === BLOCK LINK ===
    0x1d1e
=== CODE BLOCK END ===

=== CODE BLOCK ADDRESS 0x1d1e ===
  0x1d1e	mov    	ebx, 0x19
  0x1d23	dec    	eax
  0x1d24	lea    	ecx, [ebp + 0x120]
  0x1d2a	inc    	esp
  0x1d2b	mov    	eax, ebx
  === BLOCK LINK ===
    0x1d2d
=== CODE BLOCK END ===

=== CODE BLOCK ADDRESS 0x1d2d ===
  0x1d2d	inc    	esp
  0x1d2e	lea    	esi, [ebx + 0x19]
  0x1d31	inc    	ecx
  0x1d32	mov    	edx, esi
  0x1d34	dec    	eax
  === BLOCK LINK ===
    0x1d35
=== CODE BLOCK END ===

=== CODE BLOCK ADDRESS 0x1d35 ===
  0x1d35	call   	dword ptr [0x269d]
  === BLOCK LINK ===
    0x1d3b
=== CODE BLOCK END ===

=== CODE BLOCK ADDRESS 0x1d3b ===
  0x1d3b	nop    	dword ptr [eax + eax]
  0x1d40	test   	al, al
  0x1d42	je     	0x22ad
  === BLOCK LINK ===
    0x1d48
=== CODE BLOCK END ===

=== CODE BLOCK ADDRESS 0x1d48 ===
  0x1d48	inc    	esp
  0x1d49	mov    	eax, ebx
  0x1d4b	dec    	eax
  0x1d4c	lea    	ecx, [esp + 0x40]
  0x1d50	inc    	ecx
  === BLOCK LINK ===
    0x1d51
=== CODE BLOCK END ===

=== CODE BLOCK ADDRESS 0x1d51 ===
  0x1d51	mov    	edx, esi
  0x1d53	dec    	eax
  0x1d54	call   	dword ptr [0x267e]
  === BLOCK LINK ===
    0x1d5a
=== CODE BLOCK END ===

=== CODE BLOCK ADDRESS 0x1d5a ===
  0x1d5a	nop    	dword ptr [eax + eax]
  0x1d5f	test   	al, al
  0x1d61	je     	0x22ad
  === BLOCK LINK ===
    0x1d67
=== CODE BLOCK END ===

=== CODE BLOCK ADDRESS 0x1d67 ===
  0x1d67	dec    	eax
  0x1d68	lea    	edx, [ebp + 0x120]
  0x1d6e	dec    	eax
  0x1d6f	lea    	ecx, [ebp + 0x6b0]
  0x1d75	dec    	eax
  === BLOCK LINK ===
    0x1d76
=== CODE BLOCK END ===

=== CODE BLOCK ADDRESS 0x1d76 ===
  0x1d76	call   	dword ptr [0x260c]
  === BLOCK LINK ===
    0x1d7c
=== CODE BLOCK END ===

=== CODE BLOCK ADDRESS 0x1d7c ===
  0x1d7c	nop    	dword ptr [eax + eax]
  0x1d81	test   	al, al
  0x1d83	je     	0x22ad
  === BLOCK LINK ===
    0x1d89
=== CODE BLOCK END ===

=== CODE BLOCK ADDRESS 0x1d89 ===
  0x1d89	xor    	edx, edx
  0x1d8b	dec    	eax
  0x1d8c	lea    	ecx, [ebp + 0x6b0]
  0x1d92	dec    	eax
  0x1d93	call   	dword ptr [0x2507]
  === BLOCK LINK ===
    0x1d99
=== CODE BLOCK END ===

=== CODE BLOCK ADDRESS 0x1d99 ===
  0x1d99	nop    	dword ptr [eax + eax]
  0x1d9e	inc    	ecx
  0x1d9f	or     	ebp, 0xffffffff
  0x1da2	dec    	eax
  0x1da3	lea    	edx, [0x2727]
  === BLOCK LINK ===
    0x1da9
=== CODE BLOCK END ===

=== CODE BLOCK ADDRESS 0x1da9 ===
  0x1da9	inc    	ebp
  0x1daa	mov    	eax, ebp
  0x1dac	dec    	eax
  0x1dad	lea    	ecx, [ebp + 0x770]
  0x1db3	dec    	eax
  === BLOCK LINK ===
    0x1db4
=== CODE BLOCK END ===

=== CODE BLOCK ADDRESS 0x1db4 ===
  0x1db4	call   	dword ptr [0x250e]
  === BLOCK LINK ===
    0x1dba
=== CODE BLOCK END ===

=== CODE BLOCK ADDRESS 0x1dba ===
  0x1dba	nop    	dword ptr [eax + eax]
  0x1dbf	inc    	ebp
  0x1dc0	mov    	eax, ebp
  0x1dc2	dec    	eax
  0x1dc3	lea    	edx, [0x2707]
  === BLOCK LINK ===
    0x1dc9
=== CODE BLOCK END ===

=== CODE BLOCK ADDRESS 0x1dc9 ===
  0x1dc9	dec    	eax
  0x1dca	lea    	ecx, [ebp + 0x7d0]
  0x1dd0	dec    	eax
  0x1dd1	call   	dword ptr [0x24f1]
  === BLOCK LINK ===
    0x1dd7
=== CODE BLOCK END ===

=== CODE BLOCK ADDRESS 0x1dd7 ===
  0x1dd7	nop    	dword ptr [eax + eax]
  0x1ddc	dec    	eax
  0x1ddd	lea    	edx, [0x26f1]
  0x1de3	dec    	eax
  0x1de4	lea    	ecx, [ebp + 0x6b0]
  === BLOCK LINK ===
    0x1dea
=== CODE BLOCK END ===

=== CODE BLOCK ADDRESS 0x1dea ===
  0x1dea	dec    	eax
  0x1deb	call   	dword ptr [0x25a7]
  === BLOCK LINK ===
    0x1df1
=== CODE BLOCK END ===

=== CODE BLOCK ADDRESS 0x1df1 ===
  0x1df1	nop    	dword ptr [eax + eax]
  0x1df6	xor    	edx, edx
  0x1df8	dec    	eax
  0x1df9	lea    	ecx, [ebp + 0x6b0]
  0x1dff	dec    	eax
  === BLOCK LINK ===
    0x1e00
=== CODE BLOCK END ===

=== CODE BLOCK ADDRESS 0x1e00 ===
  0x1e00	call   	dword ptr [0x248a]
  === BLOCK LINK ===
    0x1e06
=== CODE BLOCK END ===

=== CODE BLOCK ADDRESS 0x1e06 ===
  0x1e06	nop    	dword ptr [eax + eax]
  0x1e0b	test   	al, al
  0x1e0d	je     	0x22ad
  === BLOCK LINK ===
    0x1e13
=== CODE BLOCK END ===

=== CODE BLOCK ADDRESS 0x1e13 ===
  0x1e13	dec    	eax
  0x1e14	lea    	edx, [0x26be]
  0x1e1a	dec    	eax
  0x1e1b	lea    	ecx, [ebp + 0x650]
  0x1e21	dec    	eax
  === BLOCK LINK ===
    0x1e22
=== CODE BLOCK END ===

=== CODE BLOCK ADDRESS 0x1e22 ===
  0x1e22	call   	dword ptr [0x2548]
  === BLOCK LINK ===
    0x1e28
=== CODE BLOCK END ===

=== CODE BLOCK ADDRESS 0x1e28 ===
  0x1e28	nop    	dword ptr [eax + eax]
  0x1e2d	test   	al, al
  0x1e2f	je     	0x22ad
  === BLOCK LINK ===
    0x1e35
=== CODE BLOCK END ===

=== CODE BLOCK ADDRESS 0x1e35 ===
  0x1e35	dec    	eax
  0x1e36	lea    	edx, [0x26a0]
  0x1e3c	dec    	eax
  0x1e3d	lea    	ecx, [ebp + 0x570]
  0x1e43	dec    	eax
  === BLOCK LINK ===
    0x1e44
=== CODE BLOCK END ===

=== CODE BLOCK ADDRESS 0x1e44 ===
  0x1e44	call   	dword ptr [0x2566]
  === BLOCK LINK ===
    0x1e4a
=== CODE BLOCK END ===

=== CODE BLOCK ADDRESS 0x1e4a ===
  0x1e4a	nop    	dword ptr [eax + eax]
  0x1e4f	test   	al, al
  0x1e51	je     	0x22ad
  === BLOCK LINK ===
    0x1e57
=== CODE BLOCK END ===

=== CODE BLOCK ADDRESS 0x1e57 ===
  0x1e57	dec    	eax
  0x1e58	lea    	edx, [0x2682]
  0x1e5e	dec    	eax
  0x1e5f	lea    	ecx, [ebp + 0x510]
  0x1e65	dec    	eax
  === BLOCK LINK ===
    0x1e66
=== CODE BLOCK END ===

=== CODE BLOCK ADDRESS 0x1e66 ===
  0x1e66	call   	dword ptr [0x2544]
  === BLOCK LINK ===
    0x1e6c
=== CODE BLOCK END ===

=== CODE BLOCK ADDRESS 0x1e6c ===
  0x1e6c	nop    	dword ptr [eax + eax]
  0x1e71	test   	al, al
  0x1e73	je     	0x22ad
  === BLOCK LINK ===
    0x1e79
=== CODE BLOCK END ===

=== CODE BLOCK ADDRESS 0x1e79 ===
  0x1e79	dec    	eax
  0x1e7a	lea    	edx, [0x2670]
  0x1e80	dec    	eax
  0x1e81	lea    	ecx, [ebp + 0x4b0]
  0x1e87	dec    	eax
  === BLOCK LINK ===
    0x1e88
=== CODE BLOCK END ===

=== CODE BLOCK ADDRESS 0x1e88 ===
  0x1e88	call   	dword ptr [0x256a]
  === BLOCK LINK ===
    0x1e8e
=== CODE BLOCK END ===

=== CODE BLOCK ADDRESS 0x1e8e ===
  0x1e8e	nop    	dword ptr [eax + eax]
  0x1e93	test   	al, al
  0x1e95	je     	0x22ad
  === BLOCK LINK ===
    0x1e9b
=== CODE BLOCK END ===

=== CODE BLOCK ADDRESS 0x1e9b ===
  0x1e9b	dec    	eax
  0x1e9c	lea    	edx, [0x265e]
  0x1ea2	dec    	eax
  0x1ea3	lea    	ecx, [ebp + 0x270]
  0x1ea9	dec    	eax
  === BLOCK LINK ===
    0x1eaa
=== CODE BLOCK END ===

=== CODE BLOCK ADDRESS 0x1eaa ===
  0x1eaa	call   	dword ptr [0x2548]
  === BLOCK LINK ===
    0x1eb0
=== CODE BLOCK END ===

=== CODE BLOCK ADDRESS 0x1eb0 ===
  0x1eb0	nop    	dword ptr [eax + eax]
  0x1eb5	test   	al, al
  0x1eb7	je     	0x22ad
  === BLOCK LINK ===
    0x1ebd
=== CODE BLOCK END ===

=== CODE BLOCK ADDRESS 0x1ebd ===
  0x1ebd	dec    	eax
  0x1ebe	lea    	edx, [0x264c]
  0x1ec4	dec    	eax
  0x1ec5	lea    	ecx, [ebp + 0x60]
  0x1ec8	dec    	eax
  === BLOCK LINK ===
    0x1ec9
=== CODE BLOCK END ===

=== CODE BLOCK ADDRESS 0x1ec9 ===
  0x1ec9	call   	dword ptr [0x24a1]
  === BLOCK LINK ===
    0x1ecf
=== CODE BLOCK END ===

=== CODE BLOCK ADDRESS 0x1ecf ===
  0x1ecf	nop    	dword ptr [eax + eax]
  0x1ed4	test   	al, al
  0x1ed6	je     	0x22ad
  === BLOCK LINK ===
    0x1edc
=== CODE BLOCK END ===

=== CODE BLOCK ADDRESS 0x1edc ===
  0x1edc	dec    	eax
  0x1edd	lea    	edx, [0x2639]
  0x1ee3	dec    	eax
  0x1ee4	lea    	ecx, [ebp + 0xc0]
  0x1eea	dec    	eax
  === BLOCK LINK ===
    0x1eeb
=== CODE BLOCK END ===

=== CODE BLOCK ADDRESS 0x1eeb ===
  0x1eeb	call   	dword ptr [0x247f]
  === BLOCK LINK ===
    0x1ef1
=== CODE BLOCK END ===

=== CODE BLOCK ADDRESS 0x1ef1 ===
  0x1ef1	nop    	dword ptr [eax + eax]
  0x1ef6	test   	al, al
  0x1ef8	je     	0x22ad
  === BLOCK LINK ===
    0x1efe
=== CODE BLOCK END ===

=== CODE BLOCK ADDRESS 0x1efe ===
  0x1efe	dec    	eax
  0x1eff	lea    	edx, [0x2623]
  0x1f05	dec    	eax
  0x1f06	lea    	ecx, [ebp + 0x1b0]
  0x1f0c	dec    	eax
  === BLOCK LINK ===
    0x1f0d
=== CODE BLOCK END ===

=== CODE BLOCK ADDRESS 0x1f0d ===
  0x1f0d	call   	dword ptr [0x249d]
  === BLOCK LINK ===
    0x1f13
=== CODE BLOCK END ===

=== CODE BLOCK ADDRESS 0x1f13 ===
  0x1f13	nop    	dword ptr [eax + eax]
  0x1f18	test   	al, al
  0x1f1a	je     	0x22ad
  === BLOCK LINK ===
    0x1f20
=== CODE BLOCK END ===

=== CODE BLOCK ADDRESS 0x1f20 ===
  0x1f20	dec    	eax
  0x1f21	lea    	edx, [0x2609]
  0x1f27	dec    	eax
  0x1f28	lea    	ecx, [ebp + 0x210]
  0x1f2e	dec    	eax
  === BLOCK LINK ===
    0x1f2f
=== CODE BLOCK END ===

=== CODE BLOCK ADDRESS 0x1f2f ===
  0x1f2f	call   	dword ptr [0x247b]
  === BLOCK LINK ===
    0x1f35
=== CODE BLOCK END ===

=== CODE BLOCK ADDRESS 0x1f35 ===
  0x1f35	nop    	dword ptr [eax + eax]
  0x1f3a	test   	al, al
  0x1f3c	je     	0x22ad
  === BLOCK LINK ===
    0x1f42
=== CODE BLOCK END ===

=== CODE BLOCK ADDRESS 0x1f42 ===
  0x1f42	dec    	eax
  0x1f43	lea    	edx, [0x25ef]
  0x1f49	dec    	eax
  0x1f4a	lea    	ecx, [ebp + 0x450]
  0x1f50	dec    	eax
  === BLOCK LINK ===
    0x1f51
=== CODE BLOCK END ===

=== CODE BLOCK ADDRESS 0x1f51 ===
  0x1f51	call   	dword ptr [0x2459]
  === BLOCK LINK ===
    0x1f57
=== CODE BLOCK END ===

=== CODE BLOCK ADDRESS 0x1f57 ===
  0x1f57	nop    	dword ptr [eax + eax]
  0x1f5c	test   	al, al
  0x1f5e	je     	0x22ad
  === BLOCK LINK ===
    0x1f64
=== CODE BLOCK END ===

=== CODE BLOCK ADDRESS 0x1f64 ===
  0x1f64	dec    	eax
  0x1f65	lea    	edx, [0x25d9]
  0x1f6b	dec    	eax
  0x1f6c	lea    	ecx, [ebp + 0x3f0]
  0x1f72	dec    	eax
  === BLOCK LINK ===
    0x1f73
=== CODE BLOCK END ===

=== CODE BLOCK ADDRESS 0x1f73 ===
  0x1f73	call   	dword ptr [0x2437]
  === BLOCK LINK ===
    0x1f79
=== CODE BLOCK END ===

=== CODE BLOCK ADDRESS 0x1f79 ===
  0x1f79	nop    	dword ptr [eax + eax]
  0x1f7e	test   	al, al
  0x1f80	je     	0x22ad
  === BLOCK LINK ===
    0x1f86
=== CODE BLOCK END ===

=== CODE BLOCK ADDRESS 0x1f86 ===
  0x1f86	dec    	eax
  0x1f87	lea    	edx, [0x25bb]
  0x1f8d	dec    	eax
  0x1f8e	lea    	ecx, [ebp + 0x390]
  0x1f94	dec    	eax
  === BLOCK LINK ===
    0x1f95
=== CODE BLOCK END ===

=== CODE BLOCK ADDRESS 0x1f95 ===
  0x1f95	call   	dword ptr [0x2415]
  === BLOCK LINK ===
    0x1f9b
=== CODE BLOCK END ===

=== CODE BLOCK ADDRESS 0x1f9b ===
  0x1f9b	nop    	dword ptr [eax + eax]
  0x1fa0	test   	al, al
  0x1fa2	je     	0x22ad
  === BLOCK LINK ===
    0x1fa8
=== CODE BLOCK END ===

=== CODE BLOCK ADDRESS 0x1fa8 ===
  0x1fa8	dec    	eax
  0x1fa9	lea    	edx, [0x25a1]
  0x1faf	dec    	eax
  0x1fb0	lea    	ecx, [ebp + 0x330]
  0x1fb6	dec    	eax
  === BLOCK LINK ===
    0x1fb7
=== CODE BLOCK END ===

=== CODE BLOCK ADDRESS 0x1fb7 ===
  0x1fb7	call   	dword ptr [0x23f3]
  === BLOCK LINK ===
    0x1fbd
=== CODE BLOCK END ===

=== CODE BLOCK ADDRESS 0x1fbd ===
  0x1fbd	nop    	dword ptr [eax + eax]
  0x1fc2	test   	al, al
  0x1fc4	je     	0x22ad
  === BLOCK LINK ===
    0x1fca
=== CODE BLOCK END ===

=== CODE BLOCK ADDRESS 0x1fca ===
  0x1fca	dec    	eax
  0x1fcb	lea    	edx, [0x258f]
  0x1fd1	dec    	eax
  0x1fd2	lea    	ecx, [ebp + 0x150]
  0x1fd8	dec    	eax
  === BLOCK LINK ===
    0x1fd9
=== CODE BLOCK END ===

=== CODE BLOCK ADDRESS 0x1fd9 ===
  0x1fd9	call   	dword ptr [0x2391]
  === BLOCK LINK ===
    0x1fdf
=== CODE BLOCK END ===

=== CODE BLOCK ADDRESS 0x1fdf ===
  0x1fdf	nop    	dword ptr [eax + eax]
  0x1fe4	test   	al, al
  0x1fe6	je     	0x22ad
  === BLOCK LINK ===
    0x1fec
=== CODE BLOCK END ===

=== CODE BLOCK ADDRESS 0x1fec ===
  0x1fec	inc    	ebp
  0x1fed	xor    	eax, eax
  0x1fef	dec    	eax
  0x1ff0	lea    	edx, [0x257a]
  0x1ff6	dec    	eax
  === BLOCK LINK ===
    0x1ff7
=== CODE BLOCK END ===

=== CODE BLOCK ADDRESS 0x1ff7 ===
  0x1ff7	lea    	ecx, [ebp + 0x2d0]
  0x1ffd	dec    	eax
  0x1ffe	call   	dword ptr [0x2314]
  === BLOCK LINK ===
    0x2004
=== CODE BLOCK END ===

=== CODE BLOCK ADDRESS 0x2004 ===
  0x2004	nop    	dword ptr [eax + eax]
  0x2009	test   	al, al
  0x200b	je     	0x22ad
  === BLOCK LINK ===
    0x2011
=== CODE BLOCK END ===

=== CODE BLOCK ADDRESS 0x2011 ===
  0x2011	dec    	eax
  0x2012	lea    	ecx, [ebp + 0x5d0]
  0x2018	dec    	eax
  0x2019	call   	dword ptr [0x23a1]
  === BLOCK LINK ===
    0x201f
=== CODE BLOCK END ===

=== CODE BLOCK ADDRESS 0x201f ===
  0x201f	nop    	dword ptr [eax + eax]
  0x2024	test   	al, al
  0x2026	je     	0x22ad
  === BLOCK LINK ===
    0x202c
=== CODE BLOCK END ===

=== CODE BLOCK ADDRESS 0x202c ===
  0x202c	dec    	eax
  0x202d	lea    	edx, [ebp + 0x650]
  0x2033	dec    	eax
  0x2034	lea    	ecx, [esp + 0x40]
  0x2038	dec    	eax
  === BLOCK LINK ===
    0x2039
=== CODE BLOCK END ===

=== CODE BLOCK ADDRESS 0x2039 ===
  0x2039	call   	dword ptr [0x23a1]
  === BLOCK LINK ===
    0x203f
=== CODE BLOCK END ===

=== CODE BLOCK ADDRESS 0x203f ===
  0x203f	nop    	dword ptr [eax + eax]
  0x2044	test   	al, al
  0x2046	je     	0x22ad
  === BLOCK LINK ===
    0x204c
=== CODE BLOCK END ===

=== CODE BLOCK ADDRESS 0x204c ===
  0x204c	dec    	eax
  0x204d	lea    	edx, [ebp + 0x570]
  0x2053	dec    	eax
  0x2054	lea    	ecx, [esp + 0x40]
  0x2058	dec    	eax
  === BLOCK LINK ===
    0x2059
=== CODE BLOCK END ===

=== CODE BLOCK ADDRESS 0x2059 ===
  0x2059	call   	dword ptr [0x2381]
  === BLOCK LINK ===
    0x205f
=== CODE BLOCK END ===

=== CODE BLOCK ADDRESS 0x205f ===
  0x205f	nop    	dword ptr [eax + eax]
  0x2064	test   	al, al
  0x2066	je     	0x22ad
  === BLOCK LINK ===
    0x206c
=== CODE BLOCK END ===

=== CODE BLOCK ADDRESS 0x206c ===
  0x206c	dec    	eax
  0x206d	lea    	edx, [ebp + 0x510]
  0x2073	dec    	eax
  0x2074	lea    	ecx, [esp + 0x40]
  0x2078	dec    	eax
  === BLOCK LINK ===
    0x2079
=== CODE BLOCK END ===

=== CODE BLOCK ADDRESS 0x2079 ===
  0x2079	call   	dword ptr [0x2361]
  === BLOCK LINK ===
    0x207f
=== CODE BLOCK END ===

=== CODE BLOCK ADDRESS 0x207f ===
  0x207f	nop    	dword ptr [eax + eax]
  0x2084	test   	al, al
  0x2086	je     	0x22ad
  === BLOCK LINK ===
    0x208c
=== CODE BLOCK END ===

=== CODE BLOCK ADDRESS 0x208c ===
  0x208c	dec    	eax
  0x208d	lea    	edx, [ebp + 0x4b0]
  0x2093	dec    	eax
  0x2094	lea    	ecx, [esp + 0x40]
  0x2098	dec    	eax
  === BLOCK LINK ===
    0x2099
=== CODE BLOCK END ===

=== CODE BLOCK ADDRESS 0x2099 ===
  0x2099	call   	dword ptr [0x2341]
  === BLOCK LINK ===
    0x209f
=== CODE BLOCK END ===

=== CODE BLOCK ADDRESS 0x209f ===
  0x209f	nop    	dword ptr [eax + eax]
  0x20a4	test   	al, al
  0x20a6	je     	0x22ad
  === BLOCK LINK ===
    0x20ac
=== CODE BLOCK END ===

=== CODE BLOCK ADDRESS 0x20ac ===
  0x20ac	dec    	eax
  0x20ad	lea    	edx, [ebp + 0x270]
  0x20b3	dec    	eax
  0x20b4	lea    	ecx, [esp + 0x40]
  0x20b8	dec    	eax
  === BLOCK LINK ===
    0x20b9
=== CODE BLOCK END ===

=== CODE BLOCK ADDRESS 0x20b9 ===
  0x20b9	call   	dword ptr [0x2321]
  === BLOCK LINK ===
    0x20bf
=== CODE BLOCK END ===

=== CODE BLOCK ADDRESS 0x20bf ===
  0x20bf	nop    	dword ptr [eax + eax]
  0x20c4	test   	al, al
  0x20c6	je     	0x22ad
  === BLOCK LINK ===
    0x20cc
=== CODE BLOCK END ===

=== CODE BLOCK ADDRESS 0x20cc ===
  0x20cc	dec    	eax
  0x20cd	lea    	edx, [ebp + 0x60]
  0x20d0	dec    	eax
  0x20d1	lea    	ecx, [esp + 0x40]
  0x20d5	dec    	eax
  === BLOCK LINK ===
    0x20d6
=== CODE BLOCK END ===

=== CODE BLOCK ADDRESS 0x20d6 ===
  0x20d6	call   	dword ptr [0x2304]
  === BLOCK LINK ===
    0x20dc
=== CODE BLOCK END ===

=== CODE BLOCK ADDRESS 0x20dc ===
  0x20dc	nop    	dword ptr [eax + eax]
  0x20e1	test   	al, al
  0x20e3	je     	0x22ad
  === BLOCK LINK ===
    0x20e9
=== CODE BLOCK END ===

=== CODE BLOCK ADDRESS 0x20e9 ===
  0x20e9	dec    	eax
  0x20ea	lea    	edx, [ebp + 0xc0]
  0x20f0	dec    	eax
  0x20f1	lea    	ecx, [esp + 0x40]
  0x20f5	dec    	eax
  === BLOCK LINK ===
    0x20f6
=== CODE BLOCK END ===

=== CODE BLOCK ADDRESS 0x20f6 ===
  0x20f6	call   	dword ptr [0x22e4]
  === BLOCK LINK ===
    0x20fc
=== CODE BLOCK END ===

=== CODE BLOCK ADDRESS 0x20fc ===
  0x20fc	nop    	dword ptr [eax + eax]
  0x2101	test   	al, al
  0x2103	je     	0x22ad
  === BLOCK LINK ===
    0x2109
=== CODE BLOCK END ===

=== CODE BLOCK ADDRESS 0x2109 ===
  0x2109	dec    	eax
  0x210a	lea    	edx, [ebp + 0x1b0]
  0x2110	dec    	eax
  0x2111	lea    	ecx, [esp + 0x40]
  0x2115	dec    	eax
  === BLOCK LINK ===
    0x2116
=== CODE BLOCK END ===

=== CODE BLOCK ADDRESS 0x2116 ===
  0x2116	call   	dword ptr [0x22c4]
  === BLOCK LINK ===
    0x211c
=== CODE BLOCK END ===

=== CODE BLOCK ADDRESS 0x211c ===
  0x211c	nop    	dword ptr [eax + eax]
  0x2121	test   	al, al
  0x2123	je     	0x22ad
  === BLOCK LINK ===
    0x2129
=== CODE BLOCK END ===

=== CODE BLOCK ADDRESS 0x2129 ===
  0x2129	dec    	eax
  0x212a	lea    	edx, [ebp + 0x210]
  0x2130	dec    	eax
  0x2131	lea    	ecx, [esp + 0x40]
  0x2135	dec    	eax
  === BLOCK LINK ===
    0x2136
=== CODE BLOCK END ===

=== CODE BLOCK ADDRESS 0x2136 ===
  0x2136	call   	dword ptr [0x22a4]
  === BLOCK LINK ===
    0x213c
=== CODE BLOCK END ===

=== CODE BLOCK ADDRESS 0x213c ===
  0x213c	nop    	dword ptr [eax + eax]
  0x2141	test   	al, al
  0x2143	je     	0x22ad
  === BLOCK LINK ===
    0x2149
=== CODE BLOCK END ===

=== CODE BLOCK ADDRESS 0x2149 ===
  0x2149	dec    	eax
  0x214a	lea    	edx, [ebp + 0x450]
  0x2150	dec    	eax
  0x2151	lea    	ecx, [esp + 0x40]
  0x2155	dec    	eax
  === BLOCK LINK ===
    0x2156
=== CODE BLOCK END ===

=== CODE BLOCK ADDRESS 0x2156 ===
  0x2156	call   	dword ptr [0x2284]
  === BLOCK LINK ===
    0x215c
=== CODE BLOCK END ===

=== CODE BLOCK ADDRESS 0x215c ===
  0x215c	nop    	dword ptr [eax + eax]
  0x2161	test   	al, al
  0x2163	je     	0x22ad
  === BLOCK LINK ===
    0x2169
=== CODE BLOCK END ===

=== CODE BLOCK ADDRESS 0x2169 ===
  0x2169	dec    	eax
  0x216a	lea    	edx, [ebp + 0x3f0]
  0x2170	dec    	eax
  0x2171	lea    	ecx, [esp + 0x40]
  0x2175	dec    	eax
  === BLOCK LINK ===
    0x2176
=== CODE BLOCK END ===

=== CODE BLOCK ADDRESS 0x2176 ===
  0x2176	call   	dword ptr [0x2264]
  === BLOCK LINK ===
    0x217c
=== CODE BLOCK END ===

=== CODE BLOCK ADDRESS 0x217c ===
  0x217c	nop    	dword ptr [eax + eax]
  0x2181	test   	al, al
  0x2183	je     	0x22ad
  === BLOCK LINK ===
    0x2189
=== CODE BLOCK END ===

=== CODE BLOCK ADDRESS 0x2189 ===
  0x2189	dec    	eax
  0x218a	lea    	edx, [ebp + 0x390]
  0x2190	dec    	eax
  0x2191	lea    	ecx, [esp + 0x40]
  0x2195	dec    	eax
  === BLOCK LINK ===
    0x2196
=== CODE BLOCK END ===

=== CODE BLOCK ADDRESS 0x2196 ===
  0x2196	call   	dword ptr [0x2244]
  === BLOCK LINK ===
    0x219c
=== CODE BLOCK END ===

=== CODE BLOCK ADDRESS 0x219c ===
  0x219c	nop    	dword ptr [eax + eax]
  0x21a1	test   	al, al
  0x21a3	je     	0x22ad
  === BLOCK LINK ===
    0x21a9
=== CODE BLOCK END ===

=== CODE BLOCK ADDRESS 0x21a9 ===
  0x21a9	dec    	eax
  0x21aa	lea    	edx, [ebp + 0x330]
  0x21b0	dec    	eax
  0x21b1	lea    	ecx, [esp + 0x40]
  0x21b5	dec    	eax
  === BLOCK LINK ===
    0x21b6
=== CODE BLOCK END ===

=== CODE BLOCK ADDRESS 0x21b6 ===
  0x21b6	call   	dword ptr [0x2224]
  === BLOCK LINK ===
    0x21bc
=== CODE BLOCK END ===

=== CODE BLOCK ADDRESS 0x21bc ===
  0x21bc	nop    	dword ptr [eax + eax]
  0x21c1	test   	al, al
  0x21c3	je     	0x22ad
  === BLOCK LINK ===
    0x21c9
=== CODE BLOCK END ===

=== CODE BLOCK ADDRESS 0x21c9 ===
  0x21c9	dec    	eax
  0x21ca	lea    	edx, [ebp + 0x150]
  0x21d0	dec    	eax
  0x21d1	lea    	ecx, [esp + 0x40]
  0x21d5	dec    	eax
  === BLOCK LINK ===
    0x21d6
=== CODE BLOCK END ===

=== CODE BLOCK ADDRESS 0x21d6 ===
  0x21d6	call   	dword ptr [0x2204]
  === BLOCK LINK ===
    0x21dc
=== CODE BLOCK END ===

=== CODE BLOCK ADDRESS 0x21dc ===
  0x21dc	nop    	dword ptr [eax + eax]
  0x21e1	test   	al, al
  0x21e3	je     	0x22ad
  === BLOCK LINK ===
    0x21e9
=== CODE BLOCK END ===

=== CODE BLOCK ADDRESS 0x21e9 ===
  0x21e9	dec    	eax
  0x21ea	lea    	edx, [ebp + 0x2d0]
  0x21f0	dec    	eax
  0x21f1	lea    	ecx, [esp + 0x40]
  0x21f5	dec    	eax
  === BLOCK LINK ===
    0x21f6
=== CODE BLOCK END ===

=== CODE BLOCK ADDRESS 0x21f6 ===
  0x21f6	call   	dword ptr [0x21e4]
  === BLOCK LINK ===
    0x21fc
=== CODE BLOCK END ===

=== CODE BLOCK ADDRESS 0x21fc ===
  0x21fc	nop    	dword ptr [eax + eax]
  0x2201	test   	al, al
  0x2203	je     	0x22ad
  === BLOCK LINK ===
    0x2209
=== CODE BLOCK END ===

=== CODE BLOCK ADDRESS 0x2209 ===
  0x2209	dec    	eax
  0x220a	lea    	edx, [ebp + 0x5d0]
  0x2210	dec    	eax
  0x2211	lea    	ecx, [esp + 0x40]
  0x2215	dec    	eax
  === BLOCK LINK ===
    0x2216
=== CODE BLOCK END ===

=== CODE BLOCK ADDRESS 0x2216 ===
  0x2216	call   	dword ptr [0x21c4]
  === BLOCK LINK ===
    0x221c
=== CODE BLOCK END ===

=== CODE BLOCK ADDRESS 0x221c ===
  0x221c	nop    	dword ptr [eax + eax]
  0x2221	test   	al, al
  0x2223	je     	0x22ad
  === BLOCK LINK ===
    0x2229
=== CODE BLOCK END ===

=== CODE BLOCK ADDRESS 0x2229 ===
  0x2229	dec    	eax
  0x222a	lea    	edx, [esp + 0x40]
  0x222e	dec    	eax
  0x222f	lea    	ecx, [ebp + 0x6b0]
  0x2235	dec    	eax
  === BLOCK LINK ===
    0x2236
=== CODE BLOCK END ===

=== CODE BLOCK ADDRESS 0x2236 ===
  0x2236	call   	dword ptr [0x2154]
  === BLOCK LINK ===
    0x223c
=== CODE BLOCK END ===

=== CODE BLOCK ADDRESS 0x223c ===
  0x223c	nop    	dword ptr [eax + eax]
  0x2241	test   	al, al
  0x2243	jne    	0x2533
  === BLOCK LINK ===
    0x2249
=== CODE BLOCK END ===

=== CODE BLOCK ADDRESS 0x2249 ===
  0x2249	inc    	esp
  0x224a	lea    	ecx, [ebx - 0x16]
  0x224d	inc    	ebp
  0x224e	xor    	eax, eax
  0x2250	mov    	edx, 0xbd2
  === BLOCK LINK ===
    0x2255
=== CODE BLOCK END ===

=== CODE BLOCK ADDRESS 0x2255 ===
  0x2255	dec    	eax
  0x2256	lea    	ecx, [esp + 0x70]
  0x225a	dec    	eax
  0x225b	call   	dword ptr [0x208f]
  === BLOCK LINK ===
    0x2261
=== CODE BLOCK END ===

=== CODE BLOCK ADDRESS 0x2261 ===
  0x2261	nop    	dword ptr [eax + eax]
  0x2266	dec    	eax
  0x2267	lea    	ecx, [ebp + 0x6b0]
  0x226d	dec    	eax
  0x226e	call   	dword ptr [0x2134]
  === BLOCK LINK ===
    0x2274
=== CODE BLOCK END ===

=== CODE BLOCK ADDRESS 0x2274 ===
  0x2274	nop    	dword ptr [eax + eax]
  0x2279	dec    	esp
  0x227a	mov    	eax, eax
  0x227c	dec    	eax
  0x227d	lea    	edx, [0x2219]
  === BLOCK LINK ===
    0x2283
=== CODE BLOCK END ===

=== CODE BLOCK ADDRESS 0x2283 ===
  0x2283	dec    	eax
  0x2284	lea    	ecx, [esp + 0x70]
  0x2288	dec    	eax
  0x2289	mov    	ebx, eax
  0x228b	dec    	eax
  === BLOCK LINK ===
    0x228c
=== CODE BLOCK END ===

=== CODE BLOCK ADDRESS 0x228c ===
  0x228c	call   	dword ptr [0x20b6]
  === BLOCK LINK ===
    0x2292
=== CODE BLOCK END ===

=== CODE BLOCK ADDRESS 0x2292 ===
  0x2292	nop    	dword ptr [eax + eax]
  0x2297	dec    	eax
  0x2298	test   	ebx, ebx
  0x229a	je     	0x22ad
  === BLOCK LINK ===
    0x229c
=== CODE BLOCK END ===

=== CODE BLOCK ADDRESS 0x229c ===
  0x229c	dec    	eax
  0x229d	mov    	ecx, dword ptr [ebx]
  0x229f	mov    	edx, esi
  0x22a1	dec    	eax
  0x22a2	mov    	eax, dword ptr [ecx]
  === BLOCK LINK ===
    0x22a4
=== CODE BLOCK END ===

=== CODE BLOCK ADDRESS 0x22a4 ===
  0x22a4	dec    	eax
  0x22a5	mov    	ecx, ebx
  0x22a7	call   	dword ptr [0x2173]
  === BLOCK LINK ===
    0x22ad
=== CODE BLOCK END ===

=== CODE BLOCK ADDRESS 0x22ad ===
  0x22ad	mov    	edi, esi
  0x22af	mov    	esi, edi
  0x22b1	mov    	edi, esi
  0x22b3	dec    	eax
  0x22b4	lea    	ecx, [ebp + 0x30]
  === BLOCK LINK ===
    0x22b7
=== CODE BLOCK END ===

=== CODE BLOCK ADDRESS 0x22b7 ===
  0x22b7	dec    	eax
  0x22b8	call   	dword ptr [0x1fda]
  === BLOCK LINK ===
    0x22be
=== CODE BLOCK END ===

=== CODE BLOCK ADDRESS 0x22be ===
  0x22be	nop    	dword ptr [eax + eax]
  0x22c3	dec    	eax
  0x22c4	lea    	ecx, [ebp + 0x620]
  0x22ca	dec    	eax
  0x22cb	call   	dword ptr [0x1fc7]
  === BLOCK LINK ===
    0x22d1
=== CODE BLOCK END ===

=== CODE BLOCK ADDRESS 0x22d1 ===
  0x22d1	nop    	dword ptr [eax + eax]
  0x22d6	dec    	eax
  0x22d7	lea    	ecx, [ebp + 0x5f0]
  0x22dd	dec    	eax
  0x22de	call   	dword ptr [0x1fb4]
  === BLOCK LINK ===
    0x22e4
=== CODE BLOCK END ===

=== CODE BLOCK ADDRESS 0x22e4 ===
  0x22e4	nop    	dword ptr [eax + eax]
  0x22e9	dec    	eax
  0x22ea	lea    	ecx, [ebp + 0x5d0]
  0x22f0	dec    	eax
  0x22f1	call   	dword ptr [0x1fb1]
  === BLOCK LINK ===
    0x22f7
=== CODE BLOCK END ===

=== CODE BLOCK ADDRESS 0x22f7 ===
  0x22f7	nop    	dword ptr [eax + eax]
  0x22fc	dec    	eax
  0x22fd	lea    	ecx, [ebp + 0x2d0]
  0x2303	dec    	eax
  0x2304	call   	dword ptr [0x2096]
  === BLOCK LINK ===
    0x230a
=== CODE BLOCK END ===

=== CODE BLOCK ADDRESS 0x230a ===
  0x230a	nop    	dword ptr [eax + eax]
  0x230f	dec    	eax
  0x2310	lea    	ecx, [ebp + 0x150]
  0x2316	dec    	eax
  0x2317	call   	dword ptr [0x204b]
  === BLOCK LINK ===
    0x231d
=== CODE BLOCK END ===

=== CODE BLOCK ADDRESS 0x231d ===
  0x231d	nop    	dword ptr [eax + eax]
  0x2322	dec    	eax
  0x2323	lea    	ecx, [ebp + 0x350]
  0x2329	dec    	eax
  0x232a	call   	dword ptr [0x1f68]
  === BLOCK LINK ===
    0x2330
=== CODE BLOCK END ===

=== CODE BLOCK ADDRESS 0x2330 ===
  0x2330	nop    	dword ptr [eax + eax]
  0x2335	dec    	eax
  0x2336	lea    	ecx, [ebp + 0x330]
  0x233c	dec    	eax
  0x233d	call   	dword ptr [0x1f65]
  === BLOCK LINK ===
    0x2343
=== CODE BLOCK END ===

=== CODE BLOCK ADDRESS 0x2343 ===
  0x2343	nop    	dword ptr [eax + eax]
  0x2348	dec    	eax
  0x2349	lea    	ecx, [ebp + 0x3b0]
  0x234f	dec    	eax
  0x2350	call   	dword ptr [0x1f42]
  === BLOCK LINK ===
    0x2356
=== CODE BLOCK END ===

=== CODE BLOCK ADDRESS 0x2356 ===
  0x2356	nop    	dword ptr [eax + eax]
  0x235b	dec    	eax
  0x235c	lea    	ecx, [ebp + 0x390]
  0x2362	dec    	eax
  0x2363	call   	dword ptr [0x1f3f]
  === BLOCK LINK ===
    0x2369
=== CODE BLOCK END ===

=== CODE BLOCK ADDRESS 0x2369 ===
  0x2369	nop    	dword ptr [eax + eax]
  0x236e	dec    	eax
  0x236f	lea    	ecx, [ebp + 0x410]
  0x2375	dec    	eax
  0x2376	call   	dword ptr [0x1f1c]
  === BLOCK LINK ===
    0x237c
=== CODE BLOCK END ===

=== CODE BLOCK ADDRESS 0x237c ===
  0x237c	nop    	dword ptr [eax + eax]
  0x2381	dec    	eax
  0x2382	lea    	ecx, [ebp + 0x3f0]
  0x2388	dec    	eax
  0x2389	call   	dword ptr [0x1f19]
  === BLOCK LINK ===
    0x238f
=== CODE BLOCK END ===

=== CODE BLOCK ADDRESS 0x238f ===
  0x238f	nop    	dword ptr [eax + eax]
  0x2394	dec    	eax
  0x2395	lea    	ecx, [ebp + 0x470]
  0x239b	dec    	eax
  0x239c	call   	dword ptr [0x1ef6]
  === BLOCK LINK ===
    0x23a2
=== CODE BLOCK END ===

=== CODE BLOCK ADDRESS 0x23a2 ===
  0x23a2	nop    	dword ptr [eax + eax]
  0x23a7	dec    	eax
  0x23a8	lea    	ecx, [ebp + 0x450]
  0x23ae	dec    	eax
  0x23af	call   	dword ptr [0x1ef3]
  === BLOCK LINK ===
    0x23b5
=== CODE BLOCK END ===

=== CODE BLOCK ADDRESS 0x23b5 ===
  0x23b5	nop    	dword ptr [eax + eax]
  0x23ba	dec    	eax
  0x23bb	lea    	ecx, [ebp + 0x1d0]
  0x23c1	dec    	eax
  0x23c2	call   	dword ptr [0x1ed0]
  === BLOCK LINK ===
    0x23c8
=== CODE BLOCK END ===

=== CODE BLOCK ADDRESS 0x23c8 ===
  0x23c8	nop    	dword ptr [eax + eax]
  0x23cd	dec    	eax
  0x23ce	lea    	ecx, [ebp + 0x1b0]
  0x23d4	dec    	eax
  0x23d5	call   	dword ptr [0x1ecd]
  === BLOCK LINK ===
    0x23db
=== CODE BLOCK END ===

=== CODE BLOCK ADDRESS 0x23db ===
  0x23db	nop    	dword ptr [eax + eax]
  0x23e0	dec    	eax
  0x23e1	lea    	ecx, [ebp + 0x60]
  0x23e4	dec    	eax
  0x23e5	call   	dword ptr [0x1f7d]
  === BLOCK LINK ===
    0x23eb
=== CODE BLOCK END ===

=== CODE BLOCK ADDRESS 0x23eb ===
  0x23eb	nop    	dword ptr [eax + eax]
  0x23f0	dec    	eax
  0x23f1	lea    	ecx, [ebp + 0x230]
  0x23f7	dec    	eax
  0x23f8	call   	dword ptr [0x1e9a]
  === BLOCK LINK ===
    0x23fe
=== CODE BLOCK END ===

=== CODE BLOCK ADDRESS 0x23fe ===
  0x23fe	nop    	dword ptr [eax + eax]
  0x2403	dec    	eax
  0x2404	lea    	ecx, [ebp + 0x210]
  0x240a	dec    	eax
  0x240b	call   	dword ptr [0x1e97]
  === BLOCK LINK ===
    0x2411
=== CODE BLOCK END ===

=== CODE BLOCK ADDRESS 0x2411 ===
  0x2411	nop    	dword ptr [eax + eax]
  0x2416	dec    	eax
  0x2417	lea    	ecx, [ebp + 0xc0]
  0x241d	dec    	eax
  0x241e	call   	dword ptr [0x1f44]
  === BLOCK LINK ===
    0x2424
=== CODE BLOCK END ===

=== CODE BLOCK ADDRESS 0x2424 ===
  0x2424	nop    	dword ptr [eax + eax]
  0x2429	dec    	eax
  0x242a	lea    	ecx, [ebp + 0x290]
  0x2430	dec    	eax
  0x2431	call   	dword ptr [0x1e61]
  === BLOCK LINK ===
    0x2437
=== CODE BLOCK END ===

=== CODE BLOCK ADDRESS 0x2437 ===
  0x2437	nop    	dword ptr [eax + eax]
  0x243c	dec    	eax
  0x243d	lea    	ecx, [ebp + 0x270]
  0x2443	dec    	eax
  0x2444	call   	dword ptr [0x1e5e]
  === BLOCK LINK ===
    0x244a
=== CODE BLOCK END ===

=== CODE BLOCK ADDRESS 0x244a ===
  0x244a	nop    	dword ptr [eax + eax]
  0x244f	dec    	eax
  0x2450	lea    	ecx, [ebp + 0x4d0]
  0x2456	dec    	eax
  0x2457	call   	dword ptr [0x1e3b]
  === BLOCK LINK ===
    0x245d
=== CODE BLOCK END ===

=== CODE BLOCK ADDRESS 0x245d ===
  0x245d	nop    	dword ptr [eax + eax]
  0x2462	dec    	eax
  0x2463	lea    	ecx, [ebp + 0x4b0]
  0x2469	dec    	eax
  0x246a	call   	dword ptr [0x1e38]
  === BLOCK LINK ===
    0x2470
=== CODE BLOCK END ===

=== CODE BLOCK ADDRESS 0x2470 ===
  0x2470	nop    	dword ptr [eax + eax]
  0x2475	dec    	eax
  0x2476	lea    	ecx, [ebp + 0x530]
  0x247c	dec    	eax
  0x247d	call   	dword ptr [0x1e15]
  === BLOCK LINK ===
    0x2483
=== CODE BLOCK END ===

=== CODE BLOCK ADDRESS 0x2483 ===
  0x2483	nop    	dword ptr [eax + eax]
  0x2488	dec    	eax
  0x2489	lea    	ecx, [ebp + 0x510]
  0x248f	dec    	eax
  0x2490	call   	dword ptr [0x1e12]
  === BLOCK LINK ===
    0x2496
=== CODE BLOCK END ===

=== CODE BLOCK ADDRESS 0x2496 ===
  0x2496	nop    	dword ptr [eax + eax]
  0x249b	dec    	eax
  0x249c	lea    	ecx, [ebp + 0x590]
  0x24a2	dec    	eax
  0x24a3	call   	dword ptr [0x1def]
  === BLOCK LINK ===
    0x24a9
=== CODE BLOCK END ===

=== CODE BLOCK ADDRESS 0x24a9 ===
  0x24a9	nop    	dword ptr [eax + eax]
  0x24ae	dec    	eax
  0x24af	lea    	ecx, [ebp + 0x570]
  0x24b5	dec    	eax
  0x24b6	call   	dword ptr [0x1dec]
  === BLOCK LINK ===
    0x24bc
=== CODE BLOCK END ===

=== CODE BLOCK ADDRESS 0x24bc ===
  0x24bc	nop    	dword ptr [eax + eax]
  0x24c1	dec    	eax
  0x24c2	lea    	ecx, [ebp + 0x650]
  0x24c8	dec    	eax
  0x24c9	call   	dword ptr [0x1e99]
  === BLOCK LINK ===
    0x24cf
=== CODE BLOCK END ===

=== CODE BLOCK ADDRESS 0x24cf ===
  0x24cf	nop    	dword ptr [eax + eax]
  0x24d4	dec    	eax
  0x24d5	lea    	ecx, [esp + 0x40]
  0x24d9	dec    	eax
  0x24da	call   	dword ptr [0x1ef0]
  === BLOCK LINK ===
    0x24e0
=== CODE BLOCK END ===

=== CODE BLOCK ADDRESS 0x24e0 ===
  0x24e0	nop    	dword ptr [eax + eax]
  0x24e5	dec    	eax
  0x24e6	lea    	ecx, [ebp + 0x120]
  0x24ec	dec    	eax
  0x24ed	call   	dword ptr [0x1edd]
  === BLOCK LINK ===
    0x24f3
=== CODE BLOCK END ===

=== CODE BLOCK ADDRESS 0x24f3 ===
  0x24f3	nop    	dword ptr [eax + eax]
  0x24f8	dec    	eax
  0x24f9	lea    	ecx, [ebp + 0x6b0]
  0x24ff	dec    	eax
  0x2500	call   	dword ptr [0x1e7a]
  === BLOCK LINK ===
    0x2506
=== CODE BLOCK END ===

=== CODE BLOCK ADDRESS 0x2506 ===
  0x2506	nop    	dword ptr [eax + eax]
  0x250b	dec    	eax
  0x250c	lea    	ecx, [esp + 0x70]
  0x2510	dec    	eax
  0x2511	call   	dword ptr [0x1dc9]
  === BLOCK LINK ===
    0x2517
=== CODE BLOCK END ===

=== CODE BLOCK ADDRESS 0x2517 ===
  0x2517	nop    	dword ptr [eax + eax]
  0x251c	mov    	eax, edi
  0x251e	dec    	eax
  0x251f	add    	esp, 0x9c8
  0x2525	inc    	ecx
  === BLOCK LINK ===
    0x2526
=== CODE BLOCK END ===

=== CODE BLOCK ADDRESS 0x2526 ===
  0x2526	pop    	edi
  0x2527	inc    	ecx
  0x2528	pop    	esi
  0x2529	inc    	ecx
  0x252a	pop    	ebp
  === BLOCK LINK ===
    0x252b
=== CODE BLOCK END ===

=== CODE BLOCK ADDRESS 0x252b ===
  0x252b	inc    	ecx
  0x252c	pop    	esp
  0x252d	pop    	edi
  0x252e	pop    	esi
  0x252f	pop    	ebx
  === BLOCK LINK ===
    0x2530
=== CODE BLOCK END ===

=== CODE BLOCK ADDRESS 0x2530 ===
  0x2530	pop    	ebp
  0x2531	ret    	
  0x2532	int3   	
  0x2533	dec    	eax
  0x2534	lea    	ecx, [ebp + 0x4b0]
  === BLOCK LINK ===
    0x253a
=== CODE BLOCK END ===

=== CODE BLOCK ADDRESS 0x253a ===
  0x253a	dec    	eax
  0x253b	call   	dword ptr [0x1d6f]
  === BLOCK LINK ===
    0x2541
=== CODE BLOCK END ===

=== CODE BLOCK ADDRESS 0x2541 ===
  0x2541	nop    	dword ptr [eax + eax]
  0x2546	inc    	ecx
  0x2547	mov    	esi, 3
  0x254c	dec    	esp
  0x254d	lea    	esp, [0x1f3d]
  === BLOCK LINK ===
    0x2553
=== CODE BLOCK END ===

=== CODE BLOCK ADDRESS 0x2553 ===
  0x2553	test   	al, al
  0x2555	je     	0x2587
  === BLOCK LINK ===
    0x2557
=== CODE BLOCK END ===

=== CODE BLOCK ADDRESS 0x2557 ===
  0x2557	inc    	ebp
  0x2558	mov    	ecx, esi
  0x255a	dec    	eax
  0x255b	lea    	ecx, [esp + 0x70]
  0x255f	inc    	ebp
  === BLOCK LINK ===
    0x2560
=== CODE BLOCK END ===

=== CODE BLOCK ADDRESS 0x2560 ===
  0x2560	xor    	eax, eax
  0x2562	mov    	edx, 0x7729
  0x2567	dec    	eax
  0x2568	call   	dword ptr [0x1d82]
  === BLOCK LINK ===
    0x256e
=== CODE BLOCK END ===

=== CODE BLOCK ADDRESS 0x256e ===
  0x256e	nop    	dword ptr [eax + eax]
  0x2573	dec    	ecx
  0x2574	mov    	edx, esp
  0x2576	dec    	eax
  0x2577	lea    	ecx, [esp + 0x70]
  === BLOCK LINK ===
    0x257b
=== CODE BLOCK END ===

=== CODE BLOCK ADDRESS 0x257b ===
  0x257b	dec    	eax
  0x257c	call   	dword ptr [0x1dc6]
  === BLOCK LINK ===
    0x2582
=== CODE BLOCK END ===

=== CODE BLOCK ADDRESS 0x2582 ===
  0x2582	nop    	dword ptr [eax + eax]
  0x2587	inc    	eax
  0x2588	cmp    	byte ptr [ebp + 0x5c4], bh
  0x258e	je     	0x25c5
  === BLOCK LINK ===
    0x2590
=== CODE BLOCK END ===

=== CODE BLOCK ADDRESS 0x2590 ===
  0x2590	inc    	ebp
  0x2591	mov    	ecx, esi
  0x2593	dec    	eax
  0x2594	lea    	ecx, [esp + 0x70]
  0x2598	inc    	ebp
  === BLOCK LINK ===
    0x2599
=== CODE BLOCK END ===

=== CODE BLOCK ADDRESS 0x2599 ===
  0x2599	xor    	eax, eax
  0x259b	mov    	edx, 0x7728
  0x25a0	dec    	eax
  0x25a1	call   	dword ptr [0x1d49]
  === BLOCK LINK ===
    0x25a7
=== CODE BLOCK END ===

=== CODE BLOCK ADDRESS 0x25a7 ===
  0x25a7	nop    	dword ptr [eax + eax]
  0x25ac	dec    	ecx
  0x25ad	mov    	edx, esp
  0x25af	dec    	eax
  0x25b0	lea    	ecx, [esp + 0x70]
  === BLOCK LINK ===
    0x25b4
=== CODE BLOCK END ===

=== CODE BLOCK ADDRESS 0x25b4 ===
  0x25b4	dec    	eax
  0x25b5	call   	dword ptr [0x1d8d]
  === BLOCK LINK ===
    0x25bb
=== CODE BLOCK END ===

=== CODE BLOCK ADDRESS 0x25bb ===
  0x25bb	nop    	dword ptr [eax + eax]
  0x25c0	jmp    	0x22af
  === BLOCK LINK ===
    0x25c5
=== CODE BLOCK END ===

=== CODE BLOCK ADDRESS 0x25c5 ===
  0x25c5	inc    	eax
  0x25c6	cmp    	byte ptr [ebp + 0x264], bh
  0x25cc	jne    	0x25d7
  === BLOCK LINK ===
    0x25ce
=== CODE BLOCK END ===

=== CODE BLOCK ADDRESS 0x25ce ===
  0x25ce	inc    	eax
  0x25cf	cmp    	byte ptr [ebp + 0x204], bh
  0x25d5	je     	0x260a
  === BLOCK LINK ===
    0x25d7
=== CODE BLOCK END ===

=== CODE BLOCK ADDRESS 0x25d7 ===
  0x25d7	dec    	eax
  0x25d8	lea    	ecx, [ebp + 0x60]
  0x25db	dec    	eax
  0x25dc	call   	dword ptr [0x1cce]
  === BLOCK LINK ===
    0x25e2
=== CODE BLOCK END ===

=== CODE BLOCK ADDRESS 0x25e2 ===
  0x25e2	nop    	dword ptr [eax + eax]
  0x25e7	test   	al, al
  0x25e9	jne    	0x2bbe
  === BLOCK LINK ===
    0x25ef
=== CODE BLOCK END ===

=== CODE BLOCK ADDRESS 0x25ef ===
  0x25ef	dec    	eax
  0x25f0	lea    	ecx, [ebp + 0xc0]
  0x25f6	dec    	eax
  0x25f7	call   	dword ptr [0x1cb3]
  === BLOCK LINK ===
    0x25fd
=== CODE BLOCK END ===

=== CODE BLOCK ADDRESS 0x25fd ===
  0x25fd	nop    	dword ptr [eax + eax]
  0x2602	test   	al, al
  0x2604	jne    	0x2bbe
  === BLOCK LINK ===
    0x260a
=== CODE BLOCK END ===

=== CODE BLOCK ADDRESS 0x260a ===
  0x260a	dec    	eax
  0x260b	lea    	ecx, [ebp + 0x60]
  0x260e	dec    	eax
  0x260f	call   	dword ptr [0x1c9b]
  === BLOCK LINK ===
    0x2615
=== CODE BLOCK END ===

=== CODE BLOCK ADDRESS 0x2615 ===
  0x2615	nop    	dword ptr [eax + eax]
  0x261a	test   	al, al
  0x261c	je     	0x2639
  === BLOCK LINK ===
    0x261e
=== CODE BLOCK END ===

=== CODE BLOCK ADDRESS 0x261e ===
  0x261e	dec    	eax
  0x261f	lea    	ecx, [ebp + 0xc0]
  0x2625	dec    	eax
  0x2626	call   	dword ptr [0x1c84]
  === BLOCK LINK ===
    0x262c
=== CODE BLOCK END ===

=== CODE BLOCK ADDRESS 0x262c ===
  0x262c	nop    	dword ptr [eax + eax]
  0x2631	test   	al, al
  0x2633	jne    	0x2bbe
  === BLOCK LINK ===
    0x2639
=== CODE BLOCK END ===

=== CODE BLOCK ADDRESS 0x2639 ===
  0x2639	dec    	eax
  0x263a	lea    	ecx, [ebp + 0x150]
  0x2640	dec    	eax
  0x2641	call   	dword ptr [0x1c69]
  === BLOCK LINK ===
    0x2647
=== CODE BLOCK END ===

=== CODE BLOCK ADDRESS 0x2647 ===
  0x2647	nop    	dword ptr [eax + eax]
  0x264c	test   	al, al
  0x264e	je     	0x268d
  === BLOCK LINK ===
    0x2650
=== CODE BLOCK END ===

=== CODE BLOCK ADDRESS 0x2650 ===
  0x2650	dec    	eax
  0x2651	mov    	ecx, dword ptr [ebp + 0x1a0]
  0x2657	call   	0x1008
  === BLOCK LINK ===
    0x265c
=== CODE BLOCK END ===

=== CODE BLOCK ADDRESS 0x265c ===
  0x265c	dec    	eax
  0x265d	mov    	ecx, dword ptr [ebp + 0x1a0]
  0x2663	inc    	ebp
  0x2664	xor    	ecx, ecx
  0x2666	inc    	ebp
  === BLOCK LINK ===
    0x2667
=== CODE BLOCK END ===

=== CODE BLOCK ADDRESS 0x2667 ===
  0x2667	mov    	eax, ebp
  0x2669	inc    	eax
  0x266a	mov    	byte ptr [esp + 0x28], dh
  0x266e	xor    	edx, edx
  0x2670	mov    	dword ptr [esp + 0x20], edi
  === BLOCK LINK ===
    0x2674
=== CODE BLOCK END ===

=== CODE BLOCK ADDRESS 0x2674 ===
  0x2674	dec    	eax
  0x2675	call   	dword ptr [0x1cb5]
  === BLOCK LINK ===
    0x267b
=== CODE BLOCK END ===

=== CODE BLOCK ADDRESS 0x267b ===
  0x267b	nop    	dword ptr [eax + eax]
  0x2680	dec    	eax
  0x2681	mov    	ebx, eax
  0x2683	dec    	eax
  0x2684	test   	eax, eax
  === BLOCK LINK ===
    0x2686
=== CODE BLOCK END ===

=== CODE BLOCK ADDRESS 0x2686 ===
  0x2686	jne    	0x2694
  === BLOCK LINK ===
    0x2688
=== CODE BLOCK END ===

=== CODE BLOCK ADDRESS 0x2688 ===
  0x2688	jmp    	0x22b1
  === BLOCK LINK ===
    0x268d
=== CODE BLOCK END ===

=== CODE BLOCK ADDRESS 0x268d ===
  0x268d	dec    	eax
  0x268e	lea    	ebx, [0x1eec]
  0x2694	inc    	eax
  0x2695	cmp    	byte ptr [ebp + 0x564], bh
  0x269b	je     	0x26ac
  === BLOCK LINK ===
    0x269d
=== CODE BLOCK END ===

=== CODE BLOCK ADDRESS 0x269d ===
  0x269d	dec    	eax
  0x269e	mov    	ecx, ebx
  0x26a0	dec    	eax
  0x26a1	call   	dword ptr [0x1b11]
  === BLOCK LINK ===
    0x26a7
=== CODE BLOCK END ===

=== CODE BLOCK ADDRESS 0x26a7 ===
  0x26a7	nop    	dword ptr [eax + eax]
  0x26ac	dec    	eax
  0x26ad	lea    	ecx, [ebp + 0x270]
  0x26b3	dec    	eax
  0x26b4	call   	dword ptr [0x1bf6]
  === BLOCK LINK ===
    0x26ba
=== CODE BLOCK END ===

=== CODE BLOCK ADDRESS 0x26ba ===
  0x26ba	nop    	dword ptr [eax + eax]
  0x26bf	test   	al, al
  0x26c1	je     	0x26e6
  === BLOCK LINK ===
    0x26c3
=== CODE BLOCK END ===

=== CODE BLOCK ADDRESS 0x26c3 ===
  0x26c3	mov    	ecx, dword ptr [ebp + 0x2c0]
  0x26c9	dec    	eax
  0x26ca	mov    	edx, ebx
  0x26cc	dec    	eax
  0x26cd	call   	dword ptr [0x1b05]
  === BLOCK LINK ===
    0x26d3
=== CODE BLOCK END ===

=== CODE BLOCK ADDRESS 0x26d3 ===
  0x26d3	nop    	dword ptr [eax + eax]
  0x26d8	test   	eax, eax
  0x26da	jne    	0x26e6
  === BLOCK LINK ===
    0x26dc
=== CODE BLOCK END ===

=== CODE BLOCK ADDRESS 0x26dc ===
  0x26dc	mov    	edx, 0x772a
  0x26e1	jmp    	0x2bc3
  === BLOCK LINK ===
    0x26e6
=== CODE BLOCK END ===

=== CODE BLOCK ADDRESS 0x26e6 ===
  0x26e6	inc    	eax
  0x26e7	cmp    	byte ptr [ebp + 0x3e4], bh
  0x26ed	je     	0x273d
  === BLOCK LINK ===
    0x26ef
=== CODE BLOCK END ===

=== CODE BLOCK ADDRESS 0x26ef ===
  0x26ef	mov    	ecx, 0xfffffff6
  0x26f4	dec    	eax
  0x26f5	call   	dword ptr [0x1ae5]
  === BLOCK LINK ===
    0x26fb
=== CODE BLOCK END ===

=== CODE BLOCK ADDRESS 0x26fb ===
  0x26fb	nop    	dword ptr [eax + eax]
  0x2700	dec    	eax
  0x2701	mov    	ecx, eax
  0x2703	dec    	eax
  0x2704	lea    	edx, [ebp + 0x910]
  === BLOCK LINK ===
    0x270a
=== CODE BLOCK END ===

=== CODE BLOCK ADDRESS 0x270a ===
  0x270a	dec    	esp
  0x270b	mov    	edi, eax
  0x270d	dec    	eax
  0x270e	call   	dword ptr [0x1a9c]
  === BLOCK LINK ===
    0x2714
=== CODE BLOCK END ===

=== CODE BLOCK ADDRESS 0x2714 ===
  0x2714	nop    	dword ptr [eax + eax]
  0x2719	test   	eax, eax
  0x271b	je     	0x273d
  === BLOCK LINK ===
    0x271d
=== CODE BLOCK END ===

=== CODE BLOCK ADDRESS 0x271d ===
  0x271d	mov    	edx, dword ptr [ebp + 0x910]
  0x2723	test   	dl, 0x20
  0x2726	jne    	0x273d
  === BLOCK LINK ===
    0x2728
=== CODE BLOCK END ===

=== CODE BLOCK ADDRESS 0x2728 ===
  0x2728	or     	edx, 0xa0
  0x272e	dec    	ecx
  0x272f	mov    	ecx, edi
  0x2731	dec    	eax
  0x2732	call   	dword ptr [0x1a98]
  === BLOCK LINK ===
    0x2738
=== CODE BLOCK END ===

=== CODE BLOCK ADDRESS 0x2738 ===
  0x2738	nop    	dword ptr [eax + eax]
  0x273d	inc    	eax
  0x273e	cmp    	byte ptr [ebp + 0x384], bh
  0x2744	je     	0x2795
  === BLOCK LINK ===
    0x2746
=== CODE BLOCK END ===

=== CODE BLOCK ADDRESS 0x2746 ===
  0x2746	mov    	ecx, 0xfffffff6
  0x274b	dec    	eax
  0x274c	call   	dword ptr [0x1a8e]
  === BLOCK LINK ===
    0x2752
=== CODE BLOCK END ===

=== CODE BLOCK ADDRESS 0x2752 ===
  0x2752	nop    	dword ptr [eax + eax]
  0x2757	dec    	eax
  0x2758	mov    	ecx, eax
  0x275a	dec    	eax
  0x275b	lea    	edx, [ebp + 0x918]
  === BLOCK LINK ===
    0x2761
=== CODE BLOCK END ===

=== CODE BLOCK ADDRESS 0x2761 ===
  0x2761	dec    	esp
  0x2762	mov    	edi, eax
  0x2764	dec    	eax
  0x2765	call   	dword ptr [0x1a45]
  === BLOCK LINK ===
    0x276b
=== CODE BLOCK END ===

=== CODE BLOCK ADDRESS 0x276b ===
  0x276b	nop    	dword ptr [eax + eax]
  0x2770	test   	eax, eax
  0x2772	je     	0x2795
  === BLOCK LINK ===
    0x2774
=== CODE BLOCK END ===

=== CODE BLOCK ADDRESS 0x2774 ===
  0x2774	mov    	edx, dword ptr [ebp + 0x918]
  0x277a	test   	dl, 0x20
  0x277d	je     	0x2795
  === BLOCK LINK ===
    0x277f
=== CODE BLOCK END ===

=== CODE BLOCK ADDRESS 0x277f ===
  0x277f	and    	edx, 0xffffffdf
  0x2782	dec    	ecx
  0x2783	mov    	ecx, edi
  0x2785	bts    	edx, 7
  0x2789	dec    	eax
  === BLOCK LINK ===
    0x278a
=== CODE BLOCK END ===

=== CODE BLOCK ADDRESS 0x278a ===
  0x278a	call   	dword ptr [0x1a40]
  === BLOCK LINK ===
    0x2790
=== CODE BLOCK END ===

=== CODE BLOCK ADDRESS 0x2790 ===
  0x2790	nop    	dword ptr [eax + eax]
  0x2795	dec    	eax
  0x2796	lea    	ecx, [ebp + 0x5d0]
  0x279c	dec    	eax
  0x279d	call   	dword ptr [0x1b0d]
  === BLOCK LINK ===
    0x27a3
=== CODE BLOCK END ===

=== CODE BLOCK ADDRESS 0x27a3 ===
  0x27a3	nop    	dword ptr [eax + eax]
  0x27a8	test   	al, al
  0x27aa	je     	0x2885
  === BLOCK LINK ===
    0x27b0
=== CODE BLOCK END ===

=== CODE BLOCK ADDRESS 0x27b0 ===
  0x27b0	dec    	esp
  0x27b1	lea    	eax, [ebp + 0x928]
  0x27b7	dec    	eax
  0x27b8	lea    	edx, [ebp + 0x920]
  0x27be	dec    	eax
  === BLOCK LINK ===
    0x27bf
=== CODE BLOCK END ===

=== CODE BLOCK ADDRESS 0x27bf ===
  0x27bf	lea    	ecx, [ebp + 0x620]
  0x27c5	call   	0x11cc
  === BLOCK LINK ===
    0x27ca
=== CODE BLOCK END ===

=== CODE BLOCK ADDRESS 0x27ca ===
  0x27ca	dec    	esp
  0x27cb	mov    	edi, dword ptr [ebp + 0x928]
  0x27d1	test   	al, al
  0x27d3	je     	0x27fc
  === BLOCK LINK ===
    0x27d5
=== CODE BLOCK END ===

=== CODE BLOCK ADDRESS 0x27d5 ===
  0x27d5	inc    	ecx
  0x27d6	movzx  	eax, word ptr [edi]
  0x27d9	dec    	esp
  0x27da	mov    	eax, ebx
  0x27dc	dec    	eax
  === BLOCK LINK ===
    0x27dd
=== CODE BLOCK END ===

=== CODE BLOCK ADDRESS 0x27dd ===
  0x27dd	mov    	ecx, dword ptr [ebp + 0x920]
  0x27e3	neg    	ax
  0x27e6	dec    	eax
  0x27e7	sbb    	edx, edx
  0x27e9	dec    	ecx
  === BLOCK LINK ===
    0x27ea
=== CODE BLOCK END ===

=== CODE BLOCK ADDRESS 0x27ea ===
  0x27ea	and    	edx, edi
  0x27ec	dec    	eax
  0x27ed	call   	dword ptr [0x19a5]
  === BLOCK LINK ===
    0x27f3
=== CODE BLOCK END ===

=== CODE BLOCK ADDRESS 0x27f3 ===
  0x27f3	nop    	dword ptr [eax + eax]
  0x27f8	test   	eax, eax
  0x27fa	jne    	0x282c
  === BLOCK LINK ===
    0x27fc
=== CODE BLOCK END ===

=== CODE BLOCK ADDRESS 0x27fc ===
  0x27fc	inc    	ebp
  0x27fd	mov    	ecx, esi
  0x27ff	dec    	eax
  0x2800	lea    	ecx, [esp + 0x70]
  0x2804	inc    	ebp
  === BLOCK LINK ===
    0x2805
=== CODE BLOCK END ===

=== CODE BLOCK ADDRESS 0x2805 ===
  0x2805	xor    	eax, eax
  0x2807	mov    	edx, 0x7727
  0x280c	dec    	eax
  0x280d	call   	dword ptr [0x1add]
  === BLOCK LINK ===
    0x2813
=== CODE BLOCK END ===

=== CODE BLOCK ADDRESS 0x2813 ===
  0x2813	nop    	dword ptr [eax + eax]
  0x2818	dec    	ecx
  0x2819	mov    	edx, esp
  0x281b	dec    	eax
  0x281c	lea    	ecx, [esp + 0x70]
  === BLOCK LINK ===
    0x2820
=== CODE BLOCK END ===

=== CODE BLOCK ADDRESS 0x2820 ===
  0x2820	dec    	eax
  0x2821	call   	dword ptr [0x1b21]
  === BLOCK LINK ===
    0x2827
=== CODE BLOCK END ===

=== CODE BLOCK ADDRESS 0x2827 ===
  0x2827	nop    	dword ptr [eax + eax]
  0x282c	dec    	eax
  0x282d	cmp    	dword ptr [ebp + 0x920], edi
  0x2833	je     	0x285e
  === BLOCK LINK ===
    0x2835
=== CODE BLOCK END ===

=== CODE BLOCK ADDRESS 0x2835 ===
  0x2835	dec    	eax
  0x2837	mov    	ecx, dword ptr [0x60]
  0x283e	xor    	edx, edx
  0x2840	dec    	esp
  0x2841	mov    	eax, dword ptr [ebp + 0x920]
  === BLOCK LINK ===
    0x2847
=== CODE BLOCK END ===

=== CODE BLOCK ADDRESS 0x2847 ===
  0x2847	dec    	eax
  0x2848	mov    	ecx, dword ptr [ecx + 0x30]
  0x284b	dec    	eax
  0x284c	call   	dword ptr [0x1a26]
  === BLOCK LINK ===
    0x2852
=== CODE BLOCK END ===

=== CODE BLOCK ADDRESS 0x2852 ===
  0x2852	nop    	dword ptr [eax + eax]
  0x2857	dec    	esp
  0x2858	mov    	edi, dword ptr [ebp + 0x928]
  0x285e	dec    	ebp
  0x285f	test   	edi, edi
  === BLOCK LINK ===
    0x2861
=== CODE BLOCK END ===

=== CODE BLOCK ADDRESS 0x2861 ===
  0x2861	je     	0x2885
  === BLOCK LINK ===
    0x2863
=== CODE BLOCK END ===

=== CODE BLOCK ADDRESS 0x2863 ===
  0x2863	dec    	eax
  0x2865	mov    	ecx, dword ptr [0x60]
  0x286c	xor    	edx, edx
  0x286e	dec    	esp
  0x286f	mov    	eax, dword ptr [ebp + 0x928]
  === BLOCK LINK ===
    0x2875
=== CODE BLOCK END ===

=== CODE BLOCK ADDRESS 0x2875 ===
  0x2875	dec    	eax
  0x2876	mov    	ecx, dword ptr [ecx + 0x30]
  0x2879	dec    	eax
  0x287a	call   	dword ptr [0x19f8]
  === BLOCK LINK ===
    0x2880
=== CODE BLOCK END ===

=== CODE BLOCK ADDRESS 0x2880 ===
  0x2880	nop    	dword ptr [eax + eax]
  0x2885	dec    	eax
  0x2886	lea    	ecx, [ebp + 0x2d0]
  0x288c	dec    	eax
  0x288d	call   	dword ptr [0x1a1d]
  === BLOCK LINK ===
    0x2893
=== CODE BLOCK END ===

=== CODE BLOCK ADDRESS 0x2893 ===
  0x2893	nop    	dword ptr [eax + eax]
  0x2898	test   	al, al
  0x289a	je     	0x28cb
  === BLOCK LINK ===
    0x289c
=== CODE BLOCK END ===

=== CODE BLOCK ADDRESS 0x289c ===
  0x289c	dec    	eax
  0x289d	mov    	ecx, dword ptr [ebp + 0x320]
  0x28a3	dec    	eax
  0x28a4	add    	ecx, 0x218
  0x28aa	call   	0x1008
  === BLOCK LINK ===
    0x28af
=== CODE BLOCK END ===

=== CODE BLOCK ADDRESS 0x28af ===
  0x28af	dec    	eax
  0x28b0	mov    	ecx, dword ptr [ebp + 0x320]
  0x28b6	dec    	esp
  0x28b7	lea    	eax, [esp + 0x70]
  0x28bb	dec    	eax
  === BLOCK LINK ===
    0x28bc
=== CODE BLOCK END ===

=== CODE BLOCK ADDRESS 0x28bc ===
  0x28bc	mov    	edx, ebx
  0x28be	call   	0x1728
  === BLOCK LINK ===
    0x28c3
=== CODE BLOCK END ===

=== CODE BLOCK ADDRESS 0x28c3 ===
  0x28c3	test   	al, al
  0x28c5	je     	0x22b1
  === BLOCK LINK ===
    0x28cb
=== CODE BLOCK END ===

=== CODE BLOCK ADDRESS 0x28cb ===
  0x28cb	inc    	eax
  0x28cc	cmp    	byte ptr [ebp + 0x4a4], bh
  0x28d2	jne    	0x28e1
  === BLOCK LINK ===
    0x28d4
=== CODE BLOCK END ===

=== CODE BLOCK ADDRESS 0x28d4 ===
  0x28d4	inc    	eax
  0x28d5	cmp    	byte ptr [ebp + 0x444], bh
  0x28db	je     	0x29db
  === BLOCK LINK ===
    0x28e1
=== CODE BLOCK END ===

=== CODE BLOCK ADDRESS 0x28e1 ===
  0x28e1	dec    	eax
  0x28e2	mov    	ecx, ebx
  0x28e4	dec    	eax
  0x28e5	call   	dword ptr [0x18a5]
  === BLOCK LINK ===
    0x28eb
=== CODE BLOCK END ===

=== CODE BLOCK ADDRESS 0x28eb ===
  0x28eb	nop    	dword ptr [eax + eax]
  0x28f0	dec    	eax
  0x28f2	mov    	ecx, dword ptr [0x60]
  0x28f9	xor    	edx, edx
  0x28fb	inc    	esp
  === BLOCK LINK ===
    0x28fc
=== CODE BLOCK END ===

=== CODE BLOCK ADDRESS 0x28fc ===
  0x28fc	mov    	eax, eax
  0x28fe	inc    	esp
  0x28ff	mov    	edi, eax
  0x2901	dec    	eax
  0x2902	mov    	ecx, dword ptr [ecx + 0x30]
  === BLOCK LINK ===
    0x2905
=== CODE BLOCK END ===

=== CODE BLOCK ADDRESS 0x2905 ===
  0x2905	dec    	eax
  0x2906	call   	dword ptr [0x1974]
  === BLOCK LINK ===
    0x290c
=== CODE BLOCK END ===

=== CODE BLOCK ADDRESS 0x290c ===
  0x290c	nop    	dword ptr [eax + eax]
  0x2911	dec    	esp
  0x2912	mov    	esp, eax
  0x2914	dec    	eax
  0x2915	test   	eax, eax
  === BLOCK LINK ===
    0x2917
=== CODE BLOCK END ===

=== CODE BLOCK ADDRESS 0x2917 ===
  0x2917	jne    	0x2966
  === BLOCK LINK ===
    0x2919
=== CODE BLOCK END ===

=== CODE BLOCK ADDRESS 0x2919 ===
  0x2919	dec    	eax
  0x291a	lea    	ecx, [0x1b80]
  0x2920	dec    	eax
  0x2921	call   	dword ptr [0x1a31]
  === BLOCK LINK ===
    0x2927
=== CODE BLOCK END ===

=== CODE BLOCK ADDRESS 0x2927 ===
  0x2927	nop    	dword ptr [eax + eax]
  0x292c	mov    	dword ptr [esp + 0x30], 0x2c9
  0x2934	dec    	eax
  0x2935	mov    	dword ptr [esp + 0x28], eax
  0x2939	dec    	eax
  === BLOCK LINK ===
    0x293a
=== CODE BLOCK END ===

=== CODE BLOCK ADDRESS 0x293a ===
  0x293a	lea    	ecx, [esp + 0x70]
  0x293e	dec    	eax
  0x293f	lea    	eax, [0x1b7b]
  0x2945	inc    	ebp
  0x2946	mov    	ecx, esi
  === BLOCK LINK ===
    0x2948
=== CODE BLOCK END ===

=== CODE BLOCK ADDRESS 0x2948 ===
  0x2948	inc    	esp
  0x2949	mov    	eax, esi
  0x294b	dec    	eax
  0x294c	mov    	dword ptr [esp + 0x20], eax
  0x2950	mov    	edx, 0x43c
  === BLOCK LINK ===
    0x2955
=== CODE BLOCK END ===

=== CODE BLOCK ADDRESS 0x2955 ===
  0x2955	dec    	eax
  0x2956	call   	dword ptr [0x19f4]
  === BLOCK LINK ===
    0x295c
=== CODE BLOCK END ===

=== CODE BLOCK ADDRESS 0x295c ===
  0x295c	nop    	dword ptr [eax + eax]
  0x2961	jmp    	0x22b1
  === BLOCK LINK ===
    0x2966
=== CODE BLOCK END ===

=== CODE BLOCK ADDRESS 0x2966 ===
  0x2966	inc    	ebp
  0x2967	test   	edi, edi
  0x2969	je     	0x2983
  === BLOCK LINK ===
    0x296b
=== CODE BLOCK END ===

=== CODE BLOCK ADDRESS 0x296b ===
  0x296b	dec    	esp
  0x296c	mov    	eax, ebx
  0x296e	inc    	ecx
  0x296f	mov    	edx, edi
  0x2971	dec    	ecx
  === BLOCK LINK ===
    0x2972
=== CODE BLOCK END ===

=== CODE BLOCK ADDRESS 0x2972 ===
  0x2972	mov    	ecx, esp
  0x2974	dec    	eax
  0x2975	call   	dword ptr [0x1845]
  === BLOCK LINK ===
    0x297b
=== CODE BLOCK END ===

=== CODE BLOCK ADDRESS 0x297b ===
  0x297b	nop    	dword ptr [eax + eax]
  0x2980	inc    	esp
  0x2981	mov    	edi, eax
  0x2983	inc    	ecx
  0x2984	shr    	edi, 1
  === BLOCK LINK ===
    0x2986
=== CODE BLOCK END ===

=== CODE BLOCK ADDRESS 0x2986 ===
  0x2986	dec    	esp
  0x2987	lea    	ecx, [esp + 0x70]
  0x298b	inc    	ecx
  0x298c	mov    	edx, edi
  0x298e	inc    	ebp
  === BLOCK LINK ===
    0x298f
=== CODE BLOCK END ===

=== CODE BLOCK ADDRESS 0x298f ===
  0x298f	xor    	eax, eax
  0x2991	dec    	ecx
  0x2992	mov    	ecx, esp
  0x2994	call   	0x1074
  === BLOCK LINK ===
    0x2999
=== CODE BLOCK END ===

=== CODE BLOCK ADDRESS 0x2999 ===
  0x2999	test   	al, al
  0x299b	jne    	0x29bd
  === BLOCK LINK ===
    0x299d
=== CODE BLOCK END ===

=== CODE BLOCK ADDRESS 0x299d ===
  0x299d	dec    	eax
  0x299e	lea    	ecx, [0x1afc]
  0x29a4	dec    	eax
  0x29a5	call   	dword ptr [0x19ad]
  === BLOCK LINK ===
    0x29ab
=== CODE BLOCK END ===

=== CODE BLOCK ADDRESS 0x29ab ===
  0x29ab	nop    	dword ptr [eax + eax]
  0x29b0	mov    	dword ptr [esp + 0x30], 0x2d6
  0x29b8	jmp    	0x2934
  === BLOCK LINK ===
    0x29bd
=== CODE BLOCK END ===

=== CODE BLOCK ADDRESS 0x29bd ===
  0x29bd	dec    	eax
  0x29bf	mov    	ecx, dword ptr [0x60]
  0x29c6	dec    	ebp
  0x29c7	mov    	eax, esp
  0x29c9	xor    	edx, edx
  === BLOCK LINK ===
    0x29cb
=== CODE BLOCK END ===

=== CODE BLOCK ADDRESS 0x29cb ===
  0x29cb	dec    	eax
  0x29cc	mov    	ecx, dword ptr [ecx + 0x30]
  0x29cf	dec    	eax
  0x29d0	call   	dword ptr [0x18a2]
  === BLOCK LINK ===
    0x29d6
=== CODE BLOCK END ===

=== CODE BLOCK ADDRESS 0x29d6 ===
  0x29d6	nop    	dword ptr [eax + eax]
  0x29db	inc    	eax
  0x29dc	cmp    	byte ptr [ebp + 0x204], bh
  0x29e2	jne    	0x29ed
  === BLOCK LINK ===
    0x29e4
=== CODE BLOCK END ===

=== CODE BLOCK ADDRESS 0x29e4 ===
  0x29e4	inc    	eax
  0x29e5	cmp    	byte ptr [ebp + 0x264], bh
  0x29eb	je     	0x2a04
  === BLOCK LINK ===
    0x29ed
=== CODE BLOCK END ===

=== CODE BLOCK ADDRESS 0x29ed ===
  0x29ed	dec    	esp
  0x29ee	lea    	eax, [esp + 0x70]
  0x29f2	xor    	edx, edx
  0x29f4	dec    	eax
  0x29f5	mov    	ecx, ebx
  === BLOCK LINK ===
    0x29f7
=== CODE BLOCK END ===

=== CODE BLOCK ADDRESS 0x29f7 ===
  0x29f7	call   	0x135c
  === BLOCK LINK ===
    0x29fc
=== CODE BLOCK END ===

=== CODE BLOCK ADDRESS 0x29fc ===
  0x29fc	test   	al, al
  0x29fe	je     	0x22b1
  === BLOCK LINK ===
    0x2a04
=== CODE BLOCK END ===

=== CODE BLOCK ADDRESS 0x2a04 ===
  0x2a04	dec    	eax
  0x2a05	lea    	ecx, [ebp + 0x60]
  0x2a08	dec    	eax
  0x2a09	call   	dword ptr [0x18a1]
  === BLOCK LINK ===
    0x2a0f
=== CODE BLOCK END ===

=== CODE BLOCK ADDRESS 0x2a0f ===
  0x2a0f	nop    	dword ptr [eax + eax]
  0x2a14	test   	al, al
  0x2a16	je     	0x2ad9
  === BLOCK LINK ===
    0x2a1c
=== CODE BLOCK END ===

=== CODE BLOCK ADDRESS 0x2a1c ===
  0x2a1c	dec    	eax
  0x2a1d	mov    	ecx, dword ptr [ebp + 0xb0]
  0x2a23	call   	0x1008
  === BLOCK LINK ===
    0x2a28
=== CODE BLOCK END ===

=== CODE BLOCK ADDRESS 0x2a28 ===
  0x2a28	inc    	ebp
  0x2a29	mov    	eax, ebp
  0x2a2b	dec    	eax
  0x2a2c	lea    	edx, [0x1b5e]
  0x2a32	dec    	eax
  === BLOCK LINK ===
    0x2a33
=== CODE BLOCK END ===

=== CODE BLOCK ADDRESS 0x2a33 ===
  0x2a33	lea    	ecx, [ebp + 0x30]
  0x2a36	dec    	eax
  0x2a37	call   	dword ptr [0x188b]
  === BLOCK LINK ===
    0x2a3d
=== CODE BLOCK END ===

=== CODE BLOCK ADDRESS 0x2a3d ===
  0x2a3d	nop    	dword ptr [eax + eax]
  0x2a42	test   	al, al
  0x2a44	je     	0x22b1
  === BLOCK LINK ===
    0x2a4a
=== CODE BLOCK END ===

=== CODE BLOCK ADDRESS 0x2a4a ===
  0x2a4a	dec    	eax
  0x2a4b	mov    	ecx, dword ptr [ebp + 0xb0]
  0x2a51	dec    	eax
  0x2a52	lea    	edx, [ebp + 0x30]
  0x2a55	dec    	eax
  === BLOCK LINK ===
    0x2a56
=== CODE BLOCK END ===

=== CODE BLOCK ADDRESS 0x2a56 ===
  0x2a56	call   	dword ptr [0x18b4]
  === BLOCK LINK ===
    0x2a5c
=== CODE BLOCK END ===

=== CODE BLOCK ADDRESS 0x2a5c ===
  0x2a5c	nop    	dword ptr [eax + eax]
  0x2a61	test   	eax, eax
  0x2a63	jne    	0x2a78
  === BLOCK LINK ===
    0x2a65
=== CODE BLOCK END ===

=== CODE BLOCK ADDRESS 0x2a65 ===
  0x2a65	dec    	eax
  0x2a66	lea    	ecx, [esp + 0x70]
  0x2a6a	call   	0x1490
  === BLOCK LINK ===
    0x2a6f
=== CODE BLOCK END ===

=== CODE BLOCK ADDRESS 0x2a6f ===
  0x2a6f	test   	al, al
  0x2a71	jne    	0x2ad9
  === BLOCK LINK ===
    0x2a73
=== CODE BLOCK END ===

=== CODE BLOCK ADDRESS 0x2a73 ===
  0x2a73	jmp    	0x22b1
  === BLOCK LINK ===
    0x2a78
=== CODE BLOCK END ===

=== CODE BLOCK ADDRESS 0x2a78 ===
  0x2a78	dec    	eax
  0x2a79	mov    	ecx, dword ptr [ebp + 0xb0]
  0x2a7f	inc    	ebp
  0x2a80	xor    	ecx, ecx
  0x2a82	inc    	eax
  === BLOCK LINK ===
    0x2a83
=== CODE BLOCK END ===

=== CODE BLOCK ADDRESS 0x2a83 ===
  0x2a83	mov    	byte ptr [esp + 0x28], dh
  0x2a87	inc    	ebp
  0x2a88	mov    	eax, ebp
  0x2a8a	xor    	edx, edx
  0x2a8c	mov    	dword ptr [esp + 0x20], edi
  === BLOCK LINK ===
    0x2a90
=== CODE BLOCK END ===

=== CODE BLOCK ADDRESS 0x2a90 ===
  0x2a90	dec    	eax
  0x2a91	call   	dword ptr [0x1899]
  === BLOCK LINK ===
    0x2a97
=== CODE BLOCK END ===

=== CODE BLOCK ADDRESS 0x2a97 ===
  0x2a97	nop    	dword ptr [eax + eax]
  0x2a9c	dec    	esp
  0x2a9d	lea    	eax, [esp + 0x70]
  0x2aa1	xor    	edx, edx
  0x2aa3	dec    	eax
  === BLOCK LINK ===
    0x2aa4
=== CODE BLOCK END ===

=== CODE BLOCK ADDRESS 0x2aa4 ===
  0x2aa4	mov    	ecx, eax
  0x2aa6	dec    	eax
  0x2aa7	mov    	ebx, eax
  0x2aa9	call   	0x135c
  === BLOCK LINK ===
    0x2aae
=== CODE BLOCK END ===

=== CODE BLOCK ADDRESS 0x2aae ===
  0x2aae	test   	al, al
  0x2ab0	je     	0x22b1
  === BLOCK LINK ===
    0x2ab6
=== CODE BLOCK END ===

=== CODE BLOCK ADDRESS 0x2ab6 ===
  0x2ab6	dec    	eax
  0x2ab7	test   	ebx, ebx
  0x2ab9	je     	0x2ad9
  === BLOCK LINK ===
    0x2abb
=== CODE BLOCK END ===

=== CODE BLOCK ADDRESS 0x2abb ===
  0x2abb	dec    	eax
  0x2abd	mov    	ecx, dword ptr [0x60]
  0x2ac4	dec    	esp
  0x2ac5	mov    	eax, ebx
  0x2ac7	xor    	edx, edx
  === BLOCK LINK ===
    0x2ac9
=== CODE BLOCK END ===

=== CODE BLOCK ADDRESS 0x2ac9 ===
  0x2ac9	dec    	eax
  0x2aca	mov    	ecx, dword ptr [ecx + 0x30]
  0x2acd	dec    	eax
  0x2ace	call   	dword ptr [0x17a4]
  === BLOCK LINK ===
    0x2ad4
=== CODE BLOCK END ===

=== CODE BLOCK ADDRESS 0x2ad4 ===
  0x2ad4	nop    	dword ptr [eax + eax]
  0x2ad9	dec    	eax
  0x2ada	lea    	ecx, [ebp + 0xc0]
  0x2ae0	dec    	eax
  0x2ae1	call   	dword ptr [0x17c9]
  === BLOCK LINK ===
    0x2ae7
=== CODE BLOCK END ===

=== CODE BLOCK ADDRESS 0x2ae7 ===
  0x2ae7	nop    	dword ptr [eax + eax]
  0x2aec	test   	al, al
  0x2aee	je     	0x22b3
  === BLOCK LINK ===
    0x2af4
=== CODE BLOCK END ===

=== CODE BLOCK ADDRESS 0x2af4 ===
  0x2af4	dec    	eax
  0x2af5	mov    	ecx, dword ptr [ebp + 0x110]
  0x2afb	call   	0x1008
  === BLOCK LINK ===
    0x2b00
=== CODE BLOCK END ===

=== CODE BLOCK ADDRESS 0x2b00 ===
  0x2b00	inc    	ebp
  0x2b01	mov    	eax, ebp
  0x2b03	dec    	eax
  0x2b04	lea    	edx, [0x1a86]
  0x2b0a	dec    	eax
  === BLOCK LINK ===
    0x2b0b
=== CODE BLOCK END ===

=== CODE BLOCK ADDRESS 0x2b0b ===
  0x2b0b	lea    	ecx, [ebp + 0x30]
  0x2b0e	dec    	eax
  0x2b0f	call   	dword ptr [0x17b3]
  === BLOCK LINK ===
    0x2b15
=== CODE BLOCK END ===

=== CODE BLOCK ADDRESS 0x2b15 ===
  0x2b15	nop    	dword ptr [eax + eax]
  0x2b1a	test   	al, al
  0x2b1c	je     	0x22b1
  === BLOCK LINK ===
    0x2b22
=== CODE BLOCK END ===

=== CODE BLOCK ADDRESS 0x2b22 ===
  0x2b22	dec    	eax
  0x2b23	mov    	ecx, dword ptr [ebp + 0x110]
  0x2b29	dec    	eax
  0x2b2a	lea    	edx, [ebp + 0x30]
  0x2b2d	dec    	eax
  === BLOCK LINK ===
    0x2b2e
=== CODE BLOCK END ===

=== CODE BLOCK ADDRESS 0x2b2e ===
  0x2b2e	call   	dword ptr [0x17dc]
  === BLOCK LINK ===
    0x2b34
=== CODE BLOCK END ===

=== CODE BLOCK ADDRESS 0x2b34 ===
  0x2b34	nop    	dword ptr [eax + eax]
  0x2b39	test   	eax, eax
  0x2b3b	jne    	0x2b54
  === BLOCK LINK ===
    0x2b3d
=== CODE BLOCK END ===

=== CODE BLOCK ADDRESS 0x2b3d ===
  0x2b3d	dec    	eax
  0x2b3e	lea    	ecx, [esp + 0x70]
  0x2b42	call   	0x1490
  === BLOCK LINK ===
    0x2b47
=== CODE BLOCK END ===

=== CODE BLOCK ADDRESS 0x2b47 ===
  0x2b47	test   	al, al
  0x2b49	jne    	0x22b3
  === BLOCK LINK ===
    0x2b4f
=== CODE BLOCK END ===

=== CODE BLOCK ADDRESS 0x2b4f ===
  0x2b4f	jmp    	0x22b1
  === BLOCK LINK ===
    0x2b54
=== CODE BLOCK END ===

=== CODE BLOCK ADDRESS 0x2b54 ===
  0x2b54	dec    	eax
  0x2b55	mov    	ecx, dword ptr [ebp + 0x110]
  0x2b5b	inc    	ebp
  0x2b5c	xor    	ecx, ecx
  0x2b5e	inc    	eax
  === BLOCK LINK ===
    0x2b5f
=== CODE BLOCK END ===

=== CODE BLOCK ADDRESS 0x2b5f ===
  0x2b5f	mov    	byte ptr [esp + 0x28], dh
  0x2b63	inc    	ebp
  0x2b64	mov    	eax, ebp
  0x2b66	xor    	edx, edx
  0x2b68	mov    	dword ptr [esp + 0x20], edi
  === BLOCK LINK ===
    0x2b6c
=== CODE BLOCK END ===

=== CODE BLOCK ADDRESS 0x2b6c ===
  0x2b6c	dec    	eax
  0x2b6d	call   	dword ptr [0x17bd]
  === BLOCK LINK ===
    0x2b73
=== CODE BLOCK END ===

=== CODE BLOCK ADDRESS 0x2b73 ===
  0x2b73	nop    	dword ptr [eax + eax]
  0x2b78	dec    	esp
  0x2b79	lea    	eax, [esp + 0x70]
  0x2b7d	xor    	edx, edx
  0x2b7f	dec    	eax
  === BLOCK LINK ===
    0x2b80
=== CODE BLOCK END ===

=== CODE BLOCK ADDRESS 0x2b80 ===
  0x2b80	mov    	ecx, eax
  0x2b82	dec    	eax
  0x2b83	mov    	ebx, eax
  0x2b85	call   	0x135c
  === BLOCK LINK ===
    0x2b8a
=== CODE BLOCK END ===

=== CODE BLOCK ADDRESS 0x2b8a ===
  0x2b8a	test   	al, al
  0x2b8c	je     	0x22b1
  === BLOCK LINK ===
    0x2b92
=== CODE BLOCK END ===

=== CODE BLOCK ADDRESS 0x2b92 ===
  0x2b92	dec    	eax
  0x2b93	test   	ebx, ebx
  0x2b95	je     	0x22b3
  === BLOCK LINK ===
    0x2b9b
=== CODE BLOCK END ===

=== CODE BLOCK ADDRESS 0x2b9b ===
  0x2b9b	dec    	eax
  0x2b9d	mov    	ecx, dword ptr [0x60]
  0x2ba4	dec    	esp
  0x2ba5	mov    	eax, ebx
  0x2ba7	xor    	edx, edx
  === BLOCK LINK ===
    0x2ba9
=== CODE BLOCK END ===

=== CODE BLOCK ADDRESS 0x2ba9 ===
  0x2ba9	dec    	eax
  0x2baa	mov    	ecx, dword ptr [ecx + 0x30]
  0x2bad	dec    	eax
  0x2bae	call   	dword ptr [0x16c4]
  === BLOCK LINK ===
    0x2bb4
=== CODE BLOCK END ===

=== CODE BLOCK ADDRESS 0x2bb4 ===
  0x2bb4	nop    	dword ptr [eax + eax]
  0x2bb9	jmp    	0x22b3
  === BLOCK LINK ===
    0x2bbe
=== CODE BLOCK END ===

=== CODE BLOCK ADDRESS 0x2bbe ===
  0x2bbe	mov    	edx, 0x7f4
  0x2bc3	inc    	ebp
  0x2bc4	xor    	eax, eax
  0x2bc6	dec    	eax
  0x2bc7	lea    	ecx, [esp + 0x70]
  === BLOCK LINK ===
    0x2bcb
=== CODE BLOCK END ===

=== CODE BLOCK ADDRESS 0x2bcb ===
  0x2bcb	inc    	ebp
  0x2bcc	mov    	ecx, esi
  0x2bce	dec    	eax
  0x2bcf	call   	dword ptr [0x171b]
  === BLOCK LINK ===
    0x2bd5
=== CODE BLOCK END ===

=== CODE BLOCK ADDRESS 0x2bd5 ===
  0x2bd5	nop    	dword ptr [eax + eax]
  0x2bda	dec    	ecx
  0x2bdb	mov    	edx, esp
  0x2bdd	dec    	eax
  0x2bde	lea    	ecx, [esp + 0x70]
  === BLOCK LINK ===
    0x2be2
=== CODE BLOCK END ===

=== CODE BLOCK ADDRESS 0x2be2 ===
  0x2be2	dec    	eax
  0x2be3	call   	dword ptr [0x175f]
  === BLOCK LINK ===
    0x2be9
=== CODE BLOCK END ===

=== CODE BLOCK ADDRESS 0x2be9 ===
  0x2be9	nop    	dword ptr [eax + eax]
  0x2bee	jmp    	0x22b1
  === BLOCK LINK ===
    0x2bf3
=== CODE BLOCK END ===

=== CODE BLOCK ADDRESS 0x2bf3 ===
  0x2bf3	int3   	
  0x2bf4	int3   	
  0x2bf5	int3   	
  0x2bf6	int3   	
  0x2bf7	int3   	
  === BLOCK LINK ===
    0x2bf8
=== CODE BLOCK END ===

=== CODE BLOCK ADDRESS 0x2bf8 ===
  0x2bf8	int3   	
  0x2bf9	int3   	
  0x2bfa	int3   	
  0x2bfb	int3   	
  0x2bfc	int3   	
  === BLOCK LINK ===
    0x2bfd
=== CODE BLOCK END ===

=== CODE BLOCK ADDRESS 0x2bfd ===
  0x2bfd	int3   	
  0x2bfe	int3   	
  0x2bff	int3   	
  0x2c00	dec    	eax
  0x2c01	sub    	esp, 0x28
  === BLOCK LINK ===
    0x2c04
=== CODE BLOCK END ===

=== CODE BLOCK ADDRESS 0x2c04 ===
  0x2c04	mov    	eax, 0x5a4d
  0x2c09	cmp    	word ptr [0xffffd3f0], ax
  0x2c10	je     	0x2c16
  === BLOCK LINK ===
    0x2c12
=== CODE BLOCK END ===

=== CODE BLOCK ADDRESS 0x2c12 ===
  0x2c12	xor    	eax, eax
  0x2c14	jmp    	0x2c69
  === BLOCK LINK ===
    0x2c16
=== CODE BLOCK END ===

=== CODE BLOCK ADDRESS 0x2c16 ===
  0x2c16	dec    	eax
  0x2c17	arpl   	word ptr [0xffffd41f], cx
  0x2c1d	dec    	eax
  0x2c1e	lea    	eax, [0xffffd3dc]
  0x2c24	dec    	eax
  === BLOCK LINK ===
    0x2c25
=== CODE BLOCK END ===

=== CODE BLOCK ADDRESS 0x2c25 ===
  0x2c25	add    	ecx, eax
  0x2c27	cmp    	dword ptr [ecx], 0x4550
  0x2c2d	jne    	0x2c12
  === BLOCK LINK ===
    0x2c2f
=== CODE BLOCK END ===

=== CODE BLOCK ADDRESS 0x2c2f ===
  0x2c2f	mov    	eax, 0x10b
  0x2c34	cmp    	word ptr [ecx + 0x18], ax
  0x2c38	je     	0x2c58
  === BLOCK LINK ===
    0x2c3a
=== CODE BLOCK END ===

=== CODE BLOCK ADDRESS 0x2c3a ===
  0x2c3a	mov    	eax, 0x20b
  0x2c3f	cmp    	word ptr [ecx + 0x18], ax
  0x2c43	jne    	0x2c12
  === BLOCK LINK ===
    0x2c45
=== CODE BLOCK END ===

=== CODE BLOCK ADDRESS 0x2c45 ===
  0x2c45	xor    	eax, eax
  0x2c47	cmp    	dword ptr [ecx + 0x84], 0xe
  0x2c4e	jbe    	0x2c69
  === BLOCK LINK ===
    0x2c50
=== CODE BLOCK END ===

=== CODE BLOCK ADDRESS 0x2c50 ===
  0x2c50	cmp    	dword ptr [ecx + 0xf8], eax
  0x2c56	jmp    	0x2c66
  === BLOCK LINK ===
    0x2c58
=== CODE BLOCK END ===

=== CODE BLOCK ADDRESS 0x2c58 ===
  0x2c58	xor    	eax, eax
  0x2c5a	cmp    	dword ptr [ecx + 0x74], 0xe
  0x2c5e	jbe    	0x2c69
  === BLOCK LINK ===
    0x2c60
=== CODE BLOCK END ===

=== CODE BLOCK ADDRESS 0x2c60 ===
  0x2c60	cmp    	dword ptr [ecx + 0xe8], eax
  0x2c66	setne  	al
  0x2c69	mov    	ecx, 1
  0x2c6e	mov    	dword ptr [0x33cc], eax
  0x2c74	call   	0x3028
  === BLOCK LINK ===
    0x2c79
=== CODE BLOCK END ===

=== CODE BLOCK ADDRESS 0x2c79 ===
  0x2c79	mov    	ecx, eax
  0x2c7b	call   	dword ptr [0x15cf]
  === BLOCK LINK ===
    0x2c81
=== CODE BLOCK END ===

=== CODE BLOCK ADDRESS 0x2c81 ===
  0x2c81	dec    	eax
  0x2c82	mov    	ecx, dword ptr [0x1590]
  0x2c88	dec    	eax
  0x2c89	or     	eax, 0xffffffff
  0x2c8c	dec    	eax
  === BLOCK LINK ===
    0x2c8d
=== CODE BLOCK END ===

=== CODE BLOCK ADDRESS 0x2c8d ===
  0x2c8d	mov    	dword ptr [0x393d], eax
  0x2c93	dec    	eax
  0x2c94	mov    	dword ptr [0x393e], eax
  0x2c9a	mov    	eax, dword ptr [0x33b4]
  0x2ca0	mov    	dword ptr [ecx], eax
  === BLOCK LINK ===
    0x2ca2
=== CODE BLOCK END ===

=== CODE BLOCK ADDRESS 0x2ca2 ===
  0x2ca2	dec    	eax
  0x2ca3	mov    	ecx, dword ptr [0x1567]
  0x2ca9	mov    	eax, dword ptr [0x3399]
  0x2caf	mov    	dword ptr [ecx], eax
  0x2cb1	call   	0x3080
  === BLOCK LINK ===
    0x2cb6
=== CODE BLOCK END ===

=== CODE BLOCK ADDRESS 0x2cb6 ===
  0x2cb6	cmp    	dword ptr [0x3343], 0
  0x2cbd	jne    	0x2ccc
  === BLOCK LINK ===
    0x2cbf
=== CODE BLOCK END ===

=== CODE BLOCK ADDRESS 0x2cbf ===
  0x2cbf	dec    	eax
  0x2cc0	lea    	ecx, [0x3ba]
  0x2cc6	call   	dword ptr [0x1564]
  === BLOCK LINK ===
    0x2ccc
=== CODE BLOCK END ===

=== CODE BLOCK ADDRESS 0x2ccc ===
  0x2ccc	xor    	eax, eax
  0x2cce	dec    	eax
  0x2ccf	add    	esp, 0x28
  0x2cd2	ret    	
  0x2cd3	int3   	
  === BLOCK LINK ===
    0x2cd4
=== CODE BLOCK END ===

=== CODE BLOCK ADDRESS 0x1177 ===
  0x1177	inc    	edi
  0x1179	cmp    	edi, esi
  0x117b	jb     	0x10c7
  === BLOCK LINK ===
    0x1181
=== CODE BLOCK END ===

=== CODE BLOCK ADDRESS 0x2cd4 ===
  0x2cd4	int3   	
  0x2cd5	int3   	
  0x2cd6	int3   	
  0x2cd7	int3   	
  0x2cd8	int3   	
  === BLOCK LINK ===
    0x2cd9
=== CODE BLOCK END ===

=== CODE BLOCK ADDRESS 0x2cd9 ===
  0x2cd9	int3   	
  0x2cda	int3   	
  0x2cdb	int3   	
  0x2cdc	int3   	
  0x2cdd	int3   	
  === BLOCK LINK ===
    0x2cde
=== CODE BLOCK END ===

=== CODE BLOCK ADDRESS 0x2cde ===
  0x2cde	int3   	
  0x2cdf	int3   	
  0x2ce0	dec    	eax
  0x2ce1	sub    	esp, 0x38
  0x2ce4	mov    	eax, dword ptr [0x3366]
  === BLOCK LINK ===
    0x2cea
=== CODE BLOCK END ===

=== CODE BLOCK ADDRESS 0x2cea ===
  0x2cea	dec    	esp
  0x2ceb	lea    	eax, [0x3347]
  0x2cf1	inc    	esp
  0x2cf2	mov    	ecx, dword ptr [0x3354]
  0x2cf8	dec    	eax
  === BLOCK LINK ===
    0x2cf9
=== CODE BLOCK END ===

=== CODE BLOCK ADDRESS 0x2cf9 ===
  0x2cf9	lea    	edx, [0x3331]
  0x2cff	mov    	dword ptr [0x333f], eax
  0x2d05	dec    	eax
  0x2d06	lea    	ecx, [0x331c]
  0x2d0c	dec    	eax
  === BLOCK LINK ===
    0x2d0d
=== CODE BLOCK END ===

=== CODE BLOCK ADDRESS 0x2d0d ===
  0x2d0d	lea    	eax, [0x3331]
  0x2d13	dec    	eax
  0x2d14	mov    	dword ptr [esp + 0x20], eax
  0x2d18	call   	dword ptr [0x153a]
  === BLOCK LINK ===
    0x2d1e
=== CODE BLOCK END ===

=== CODE BLOCK ADDRESS 0x2d1e ===
  0x2d1e	mov    	dword ptr [0x3308], eax
  0x2d24	dec    	eax
  0x2d25	add    	esp, 0x38
  0x2d28	ret    	
  0x2d29	int3   	
  === BLOCK LINK ===
    0x2d2a
=== CODE BLOCK END ===

=== CODE BLOCK ADDRESS 0x10f5 ===
  0x10f5	dec    	eax
  0x10f6	call   	dword ptr [0x31cc]
  === BLOCK LINK ===
    0x10fc
=== CODE BLOCK END ===

=== CODE BLOCK ADDRESS 0x2d2a ===
  0x2d2a	int3   	
  0x2d2b	int3   	
  0x2d2c	int3   	
  0x2d2d	int3   	
  0x2d2e	int3   	
  === BLOCK LINK ===
    0x2d2f
=== CODE BLOCK END ===

=== CODE BLOCK ADDRESS 0x2d2f ===
  0x2d2f	int3   	
  0x2d30	dec    	eax
  0x2d31	mov    	dword ptr [esp + 8], ebx
  0x2d35	dec    	eax
  0x2d36	mov    	dword ptr [esp + 0x10], esi
  === BLOCK LINK ===
    0x2d3a
=== CODE BLOCK END ===

=== CODE BLOCK ADDRESS 0x2d3a ===
  0x2d3a	dec    	eax
  0x2d3b	mov    	dword ptr [esp + 0x18], edi
  0x2d3f	inc    	ecx
  0x2d40	push   	edi
  0x2d41	dec    	eax
  === BLOCK LINK ===
    0x2d42
=== CODE BLOCK END ===

=== CODE BLOCK ADDRESS 0x2d42 ===
  0x2d42	sub    	esp, 0x30
  0x2d45	dec    	eax
  0x2d47	mov    	eax, dword ptr [0x30]
  0x2d4e	dec    	eax
  0x2d4f	mov    	ebx, dword ptr [eax + 8]
  === BLOCK LINK ===
    0x2d52
=== CODE BLOCK END ===

=== CODE BLOCK ADDRESS 0x2d52 ===
  0x2d52	xor    	esi, esi
  0x2d54	xor    	eax, eax
  0x2d56	.byte  	0xf0
  0x2d57	dec    	eax
  0x2d58	cmpxchg  	dword ptr [0x3881], ebx
  === BLOCK LINK ===
    0x2d5f
=== CODE BLOCK END ===

=== CODE BLOCK ADDRESS 0x2d5f ===
  0x2d5f	je     	0x2d7c
  === BLOCK LINK ===
    0x2d61
=== CODE BLOCK END ===

=== CODE BLOCK ADDRESS 0x2d61 ===
  0x2d61	dec    	eax
  0x2d62	cmp    	eax, ebx
  0x2d64	jne    	0x2d6f
  === BLOCK LINK ===
    0x2d66
=== CODE BLOCK END ===

=== CODE BLOCK ADDRESS 0x2d66 ===
  0x2d66	mov    	ebx, 1
  0x2d6b	mov    	esi, ebx
  0x2d6d	jmp    	0x2d81
  === BLOCK LINK ===
    0x2d6f
=== CODE BLOCK END ===

=== CODE BLOCK ADDRESS 0x2d6f ===
  0x2d6f	mov    	ecx, 0x3e8
  0x2d74	call   	dword ptr [0x140e]
  === BLOCK LINK ===
    0x2d7a
=== CODE BLOCK END ===

=== CODE BLOCK ADDRESS 0x2d7a ===
  0x2d7a	jmp    	0x2d54
  === BLOCK LINK ===
    0x2d7c
=== CODE BLOCK END ===

=== CODE BLOCK ADDRESS 0x2d7c ===
  0x2d7c	mov    	ebx, 1
  0x2d81	mov    	eax, dword ptr [0x3861]
  0x2d87	cmp    	eax, ebx
  0x2d89	jne    	0x2d97
  === BLOCK LINK ===
    0x2d8b
=== CODE BLOCK END ===

=== CODE BLOCK ADDRESS 0x2d8b ===
  0x2d8b	mov    	ecx, 0x1f
  0x2d90	call   	0x3073
  === BLOCK LINK ===
    0x2d95
=== CODE BLOCK END ===

=== CODE BLOCK ADDRESS 0x2d95 ===
  0x2d95	jmp    	0x2dfc
  === BLOCK LINK ===
    0x2d97
=== CODE BLOCK END ===

=== CODE BLOCK ADDRESS 0x2d97 ===
  0x2d97	mov    	eax, dword ptr [0x384b]
  0x2d9d	test   	eax, eax
  0x2d9f	jne    	0x2df6
  === BLOCK LINK ===
    0x2da1
=== CODE BLOCK END ===

=== CODE BLOCK ADDRESS 0x2da1 ===
  0x2da1	mov    	dword ptr [0x3841], ebx
  0x2da7	dec    	esp
  0x2da8	lea    	edi, [0x16aa]
  0x2dae	dec    	eax
  0x2daf	lea    	edi, [0x168b]
  === BLOCK LINK ===
    0x2db5
=== CODE BLOCK END ===

=== CODE BLOCK ADDRESS 0x2db5 ===
  0x2db5	dec    	eax
  0x2db6	mov    	dword ptr [esp + 0x28], edi
  0x2dba	mov    	dword ptr [esp + 0x20], eax
  0x2dbe	dec    	ecx
  0x2dbf	cmp    	edi, edi
  === BLOCK LINK ===
    0x2dc1
=== CODE BLOCK END ===

=== CODE BLOCK ADDRESS 0x2dc1 ===
  0x2dc1	jae    	0x2de8
  === BLOCK LINK ===
    0x2dc3
=== CODE BLOCK END ===

=== CODE BLOCK ADDRESS 0x2dc3 ===
  0x2dc3	test   	eax, eax
  0x2dc5	jne    	0x2dec
  === BLOCK LINK ===
    0x2dc7
=== CODE BLOCK END ===

=== CODE BLOCK ADDRESS 0x2dc7 ===
  0x2dc7	dec    	eax
  0x2dc8	cmp    	dword ptr [edi], 0
  0x2dcb	je     	0x2ddd
  === BLOCK LINK ===
    0x2dcd
=== CODE BLOCK END ===

=== CODE BLOCK ADDRESS 0x2dcd ===
  0x2dcd	dec    	eax
  0x2dce	mov    	eax, dword ptr [edi]
  0x2dd0	dec    	eax
  0x2dd1	mov    	ecx, dword ptr [0x1649]
  0x2dd7	call   	ecx
  === BLOCK LINK ===
    0x2dd9
=== CODE BLOCK END ===

=== CODE BLOCK ADDRESS 0x2dd9 ===
  0x2dd9	mov    	dword ptr [esp + 0x20], eax
  0x2ddd	dec    	eax
  0x2dde	add    	edi, 8
  0x2de1	dec    	eax
  0x2de2	mov    	dword ptr [esp + 0x28], edi
  === BLOCK LINK ===
    0x2de6
=== CODE BLOCK END ===

=== CODE BLOCK ADDRESS 0x2de6 ===
  0x2de6	jmp    	0x2dbe
  === BLOCK LINK ===
    0x2de8
=== CODE BLOCK END ===

=== CODE BLOCK ADDRESS 0x2de8 ===
  0x2de8	test   	eax, eax
  0x2dea	je     	0x2dfc
  === BLOCK LINK ===
    0x2dec
=== CODE BLOCK END ===

=== CODE BLOCK ADDRESS 0x2dec ===
  0x2dec	mov    	eax, 0xff
  0x2df1	jmp    	0x2ed8
  === BLOCK LINK ===
    0x2df6
=== CODE BLOCK END ===

=== CODE BLOCK ADDRESS 0x2df6 ===
  0x2df6	mov    	dword ptr [0x3228], ebx
  0x2dfc	mov    	eax, dword ptr [0x37e6]
  0x2e02	cmp    	eax, ebx
  0x2e04	jne    	0x2e23
  === BLOCK LINK ===
    0x2e06
=== CODE BLOCK END ===

=== CODE BLOCK ADDRESS 0x2e06 ===
  0x2e06	dec    	eax
  0x2e07	lea    	edx, [0x162b]
  0x2e0d	dec    	eax
  0x2e0e	lea    	ecx, [0x1614]
  0x2e14	call   	0x324e
  === BLOCK LINK ===
    0x2e19
=== CODE BLOCK END ===

=== CODE BLOCK ADDRESS 0x2e19 ===
  0x2e19	mov    	dword ptr [0x37c5], 2
  0x2e23	test   	esi, esi
  0x2e25	jne    	0x2e30
  === BLOCK LINK ===
    0x2e27
=== CODE BLOCK END ===

=== CODE BLOCK ADDRESS 0x2e27 ===
  0x2e27	xor    	eax, eax
  0x2e29	dec    	eax
  0x2e2a	xchg   	dword ptr [0x37b0], eax
  0x2e30	dec    	eax
  0x2e31	cmp    	dword ptr [0x37b8], 0
  === BLOCK LINK ===
    0x2e38
=== CODE BLOCK END ===

=== CODE BLOCK ADDRESS 0x2e38 ===
  0x2e38	je     	0x2e64
  === BLOCK LINK ===
    0x2e3a
=== CODE BLOCK END ===

=== CODE BLOCK ADDRESS 0x2e3a ===
  0x2e3a	dec    	eax
  0x2e3b	lea    	ecx, [0x37af]
  0x2e41	call   	0x30e0
  === BLOCK LINK ===
    0x2e46
=== CODE BLOCK END ===

=== CODE BLOCK ADDRESS 0x2e46 ===
  0x2e46	test   	eax, eax
  0x2e48	je     	0x2e64
  === BLOCK LINK ===
    0x2e4a
=== CODE BLOCK END ===

=== CODE BLOCK ADDRESS 0x2e4a ===
  0x2e4a	inc    	ebp
  0x2e4b	xor    	eax, eax
  0x2e4d	inc    	ecx
  0x2e4e	lea    	edx, [eax + 2]
  0x2e51	xor    	ecx, ecx
  === BLOCK LINK ===
    0x2e53
=== CODE BLOCK END ===

=== CODE BLOCK ADDRESS 0x2e53 ===
  0x2e53	dec    	eax
  0x2e54	mov    	eax, dword ptr [0x3796]
  0x2e5a	dec    	esp
  0x2e5b	mov    	ecx, dword ptr [0x15bf]
  0x2e61	inc    	ecx
  === BLOCK LINK ===
    0x2e62
=== CODE BLOCK END ===

=== CODE BLOCK ADDRESS 0x2e62 ===
  0x2e62	call   	ecx
  === BLOCK LINK ===
    0x2e64
=== CODE BLOCK END ===

=== CODE BLOCK ADDRESS 0x2e64 ===
  0x2e64	dec    	esp
  0x2e65	mov    	eax, dword ptr [0x31cd]
  0x2e6b	dec    	eax
  0x2e6c	mov    	edx, dword ptr [0x31be]
  0x2e72	mov    	ecx, dword ptr [0x31b0]
  === BLOCK LINK ===
    0x2e78
=== CODE BLOCK END ===

=== CODE BLOCK ADDRESS 0x2e78 ===
  0x2e78	call   	0x1af4
  === BLOCK LINK ===
    0x2e7d
=== CODE BLOCK END ===

=== CODE BLOCK ADDRESS 0x2e7d ===
  0x2e7d	mov    	dword ptr [0x319d], eax
  0x2e83	cmp    	dword ptr [0x31b6], 0
  0x2e8a	jne    	0x2e94
  === BLOCK LINK ===
    0x2e8c
=== CODE BLOCK END ===

=== CODE BLOCK ADDRESS 0x2e8c ===
  0x2e8c	mov    	ecx, eax
  0x2e8e	call   	dword ptr [0x13b4]
  === BLOCK LINK ===
    0x2e94
=== CODE BLOCK END ===

=== CODE BLOCK ADDRESS 0x2e94 ===
  0x2e94	cmp    	dword ptr [0x3189], 0
  0x2e9b	jne    	0x2ea9
  === BLOCK LINK ===
    0x2e9d
=== CODE BLOCK END ===

=== CODE BLOCK ADDRESS 0x2e9d ===
  0x2e9d	call   	dword ptr [0x1395]
  === BLOCK LINK ===
    0x2ea3
=== CODE BLOCK END ===

=== CODE BLOCK ADDRESS 0x2ea3 ===
  0x2ea3	mov    	eax, dword ptr [0x3177]
  0x2ea9	jmp    	0x2ed8
  === BLOCK LINK ===
    0x2eab
=== CODE BLOCK END ===

=== CODE BLOCK ADDRESS 0x2eab ===
  0x2eab	mov    	dword ptr [0x316f], eax
  0x2eb1	cmp    	dword ptr [0x3188], 0
  0x2eb8	jne    	0x2ec3
  === BLOCK LINK ===
    0x2eba
=== CODE BLOCK END ===

=== CODE BLOCK ADDRESS 0x2eba ===
  0x2eba	mov    	ecx, eax
  0x2ebc	call   	dword ptr [0x137e]
  === BLOCK LINK ===
    0x2ec2
=== CODE BLOCK END ===

=== CODE BLOCK ADDRESS 0x2ec2 ===
  0x2ec2	int3   	
  0x2ec3	cmp    	dword ptr [0x315a], 0
  0x2eca	jne    	0x2ed8
  === BLOCK LINK ===
    0x2ecc
=== CODE BLOCK END ===

=== CODE BLOCK ADDRESS 0x2ecc ===
  0x2ecc	call   	dword ptr [0x1366]
  === BLOCK LINK ===
    0x2ed2
=== CODE BLOCK END ===

=== CODE BLOCK ADDRESS 0x2ed2 ===
  0x2ed2	mov    	eax, dword ptr [0x3148]
  0x2ed8	dec    	eax
  0x2ed9	mov    	ebx, dword ptr [esp + 0x40]
  0x2edd	dec    	eax
  0x2ede	mov    	esi, dword ptr [esp + 0x48]
  === BLOCK LINK ===
    0x2ee2
=== CODE BLOCK END ===

=== CODE BLOCK ADDRESS 0x2ee2 ===
  0x2ee2	dec    	eax
  0x2ee3	mov    	edi, dword ptr [esp + 0x50]
  0x2ee7	dec    	eax
  0x2ee8	add    	esp, 0x30
  0x2eeb	inc    	ecx
  === BLOCK LINK ===
    0x2eec
=== CODE BLOCK END ===

=== CODE BLOCK ADDRESS 0x2eec ===
  0x2eec	pop    	edi
  0x2eed	ret    	
  0x2eee	int3   	
  0x2eef	int3   	
  0x2ef0	int3   	
  === BLOCK LINK ===
    0x2ef1
=== CODE BLOCK END ===

=== CODE BLOCK ADDRESS 0x1183 ===
  0x1183	dec    	eax
  0x1184	lea    	ecx, [esp + 0x60]
  0x1188	dec    	eax
  0x1189	call   	dword ptr [0x3109]
  === BLOCK LINK ===
    0x118f
=== CODE BLOCK END ===

=== CODE BLOCK ADDRESS 0x2ef1 ===
  0x2ef1	int3   	
  0x2ef2	int3   	
  0x2ef3	int3   	
  0x2ef4	int3   	
  0x2ef5	int3   	
  === BLOCK LINK ===
    0x2ef6
=== CODE BLOCK END ===

=== CODE BLOCK ADDRESS 0x2ef6 ===
  0x2ef6	int3   	
  0x2ef7	int3   	
  0x2ef8	int3   	
  0x2ef9	int3   	
  0x2efa	int3   	
  === BLOCK LINK ===
    0x2efb
=== CODE BLOCK END ===

=== CODE BLOCK ADDRESS 0x2efb ===
  0x2efb	int3   	
  0x2efc	int3   	
  0x2efd	int3   	
  0x2efe	int3   	
  0x2eff	int3   	
  === BLOCK LINK ===
    0x2f00
=== CODE BLOCK END ===

=== CODE BLOCK ADDRESS 0x2f00 ===
  0x2f00	dec    	eax
  0x2f01	sub    	esp, 0x28
  0x2f04	call   	0x3174
  === BLOCK LINK ===
    0x2f09
=== CODE BLOCK END ===

=== CODE BLOCK ADDRESS 0x2f09 ===
  0x2f09	dec    	eax
  0x2f0a	add    	esp, 0x28
  0x2f0d	jmp    	0x2d30
  === BLOCK LINK ===
    0x2f12
=== CODE BLOCK END ===

=== CODE BLOCK ADDRESS 0x2f12 ===
  0x2f12	int3   	
  0x2f13	int3   	
  0x2f14	int3   	
  0x2f15	int3   	
  0x2f16	int3   	
  === BLOCK LINK ===
    0x2f17
=== CODE BLOCK END ===

=== CODE BLOCK ADDRESS 0x2f17 ===
  0x2f17	int3   	
  0x2f18	int3   	
  0x2f19	int3   	
  0x2f1a	int3   	
  0x2f1b	int3   	
  === BLOCK LINK ===
    0x2f1c
=== CODE BLOCK END ===

=== CODE BLOCK ADDRESS 0x2f1c ===
  0x2f1c	int3   	
  0x2f1d	int3   	
  0x2f1e	int3   	
  0x2f1f	int3   	
  0x2f20	int3   	
  === BLOCK LINK ===
    0x2f21
=== CODE BLOCK END ===

=== CODE BLOCK ADDRESS 0x2f21 ===
  0x2f21	int3   	
  0x2f22	int3   	
  0x2f23	int3   	
  0x2f24	int3   	
  0x2f25	int3   	
  === BLOCK LINK ===
    0x2f26
=== CODE BLOCK END ===

=== CODE BLOCK ADDRESS 0x2f26 ===
  0x2f26	nop    	word ptr [eax + eax]
  0x2f30	dec    	eax
  0x2f31	cmp    	ecx, dword ptr [0x30d1]
  0x2f37	jne    	0x2f49
  === BLOCK LINK ===
    0x2f39
=== CODE BLOCK END ===

=== CODE BLOCK ADDRESS 0x2f39 ===
  0x2f39	dec    	eax
  0x2f3a	rol    	ecx, 0x10
  0x2f3d	test   	cx, 0xffff
  0x2f42	jne    	0x2f45
  === BLOCK LINK ===
    0x2f44
=== CODE BLOCK END ===

=== CODE BLOCK ADDRESS 0x2f44 ===
  0x2f44	ret    	
  0x2f45	dec    	eax
  0x2f46	ror    	ecx, 0x10
  0x2f49	jmp    	0x32c0
  === BLOCK LINK ===
    0x2f4e
=== CODE BLOCK END ===

=== CODE BLOCK ADDRESS 0x2f4e ===
  0x2f4e	int3   	
  0x2f4f	int3   	
  0x2f50	int3   	
  0x2f51	int3   	
  0x2f52	int3   	
  === BLOCK LINK ===
    0x2f53
=== CODE BLOCK END ===

=== CODE BLOCK ADDRESS 0x2f53 ===
  0x2f53	int3   	
  0x2f54	int3   	
  0x2f55	int3   	
  0x2f56	int3   	
  0x2f57	int3   	
  === BLOCK LINK ===
    0x2f58
=== CODE BLOCK END ===

=== CODE BLOCK ADDRESS 0x2f58 ===
  0x2f58	int3   	
  0x2f59	int3   	
  0x2f5a	int3   	
  0x2f5b	int3   	
  0x2f5c	int3   	
  === BLOCK LINK ===
    0x2f5d
=== CODE BLOCK END ===

=== CODE BLOCK ADDRESS 0x2f5d ===
  0x2f5d	int3   	
  0x2f5e	int3   	
  0x2f5f	int3   	
  0x2f60	dec    	eax
  0x2f61	sub    	esp, 0x28
  === BLOCK LINK ===
    0x2f64
=== CODE BLOCK END ===

=== CODE BLOCK ADDRESS 0x2f64 ===
  0x2f64	dec    	eax
  0x2f65	mov    	eax, dword ptr [ecx]
  0x2f67	cmp    	dword ptr [eax], 0xe06d7363
  0x2f6d	jne    	0x2f92
  === BLOCK LINK ===
    0x2f6f
=== CODE BLOCK END ===

=== CODE BLOCK ADDRESS 0x2f6f ===
  0x2f6f	cmp    	dword ptr [eax + 0x18], 4
  0x2f73	jne    	0x2f92
  === BLOCK LINK ===
    0x2f75
=== CODE BLOCK END ===

=== CODE BLOCK ADDRESS 0x2f75 ===
  0x2f75	mov    	ecx, dword ptr [eax + 0x20]
  0x2f78	lea    	eax, [ecx - 0x19930520]
  0x2f7e	cmp    	eax, 2
  0x2f81	jbe    	0x2f8b
  === BLOCK LINK ===
    0x2f83
=== CODE BLOCK END ===

=== CODE BLOCK ADDRESS 0x2f83 ===
  0x2f83	cmp    	ecx, 0x1994000
  0x2f89	jne    	0x2f92
  === BLOCK LINK ===
    0x2f8b
=== CODE BLOCK END ===

=== CODE BLOCK ADDRESS 0x2f8b ===
  0x2f8b	call   	dword ptr [0x1277]
  === BLOCK LINK ===
    0x2f91
=== CODE BLOCK END ===

=== CODE BLOCK ADDRESS 0x2f91 ===
  0x2f91	int3   	
  0x2f92	xor    	eax, eax
  0x2f94	dec    	eax
  0x2f95	add    	esp, 0x28
  0x2f98	ret    	
  === BLOCK LINK ===
    0x2f99
=== CODE BLOCK END ===

=== CODE BLOCK ADDRESS 0x2f99 ===
  0x2f99	int3   	
  0x2f9a	int3   	
  0x2f9b	int3   	
  0x2f9c	int3   	
  0x2f9d	int3   	
  === BLOCK LINK ===
    0x2f9e
=== CODE BLOCK END ===

=== CODE BLOCK ADDRESS 0x2f9e ===
  0x2f9e	int3   	
  0x2f9f	int3   	
  0x2fa0	dec    	eax
  0x2fa1	sub    	esp, 0x28
  0x2fa4	dec    	eax
  === BLOCK LINK ===
    0x2fa5
=== CODE BLOCK END ===

=== CODE BLOCK ADDRESS 0x2fa5 ===
  0x2fa5	lea    	ecx, [0xffffffb5]
  0x2fab	call   	dword ptr [0x11cf]
  === BLOCK LINK ===
    0x2fb1
=== CODE BLOCK END ===

=== CODE BLOCK ADDRESS 0x2fb1 ===
  0x2fb1	xor    	eax, eax
  0x2fb3	dec    	eax
  0x2fb4	add    	esp, 0x28
  0x2fb7	ret    	
  0x2fb8	int3   	
  === BLOCK LINK ===
    0x2fb9
=== CODE BLOCK END ===

=== CODE BLOCK ADDRESS 0x2fb9 ===
  0x2fb9	int3   	
  0x2fba	int3   	
  0x2fbb	int3   	
  0x2fbc	int3   	
  0x2fbd	int3   	
  === BLOCK LINK ===
    0x2fbe
=== CODE BLOCK END ===

=== CODE BLOCK ADDRESS 0x2fbe ===
  0x2fbe	jmp    	dword ptr [0x12a4]
  === BLOCK LINK ===
    0x2fc4
=== CODE BLOCK END ===

=== CODE BLOCK ADDRESS 0x2fc4 ===
  0x2fc4	int3   	
  0x2fc5	int3   	
  0x2fc6	int3   	
  0x2fc7	int3   	
  0x2fc8	int3   	
  === BLOCK LINK ===
    0x2fc9
=== CODE BLOCK END ===

=== CODE BLOCK ADDRESS 0x2fc9 ===
  0x2fc9	int3   	
  0x2fca	int3   	
  0x2fcb	int3   	
  0x2fcc	dec    	eax
  0x2fcd	sub    	esp, 0x18
  === BLOCK LINK ===
    0x2fd0
=== CODE BLOCK END ===

=== CODE BLOCK ADDRESS 0x2fd0 ===
  0x2fd0	xor    	edx, edx
  0x2fd2	dec    	eax
  0x2fd3	lea    	eax, [ecx - 1]
  0x2fd6	dec    	eax
  0x2fd7	cmp    	eax, -3
  === BLOCK LINK ===
    0x2fda
=== CODE BLOCK END ===

=== CODE BLOCK ADDRESS 0x2fda ===
  0x2fda	ja     	0x3018
  === BLOCK LINK ===
    0x2fdc
=== CODE BLOCK END ===

=== CODE BLOCK ADDRESS 0x2fdc ===
  0x2fdc	mov    	eax, 0x5a4d
  0x2fe1	cmp    	word ptr [ecx], ax
  0x2fe4	jne    	0x3010
  === BLOCK LINK ===
    0x2fe6
=== CODE BLOCK END ===

=== CODE BLOCK ADDRESS 0x2fe6 ===
  0x2fe6	cmp    	dword ptr [ecx + 0x3c], edx
  0x2fe9	jl     	0x3010
  === BLOCK LINK ===
    0x2feb
=== CODE BLOCK END ===

=== CODE BLOCK ADDRESS 0x2feb ===
  0x2feb	cmp    	dword ptr [ecx + 0x3c], 0x10000000
  0x2ff2	jae    	0x3010
  === BLOCK LINK ===
    0x2ff4
=== CODE BLOCK END ===

=== CODE BLOCK ADDRESS 0x2ff4 ===
  0x2ff4	dec    	eax
  0x2ff5	arpl   	word ptr [ecx + 0x3c], ax
  0x2ff8	dec    	eax
  0x2ff9	add    	eax, ecx
  0x2ffb	dec    	eax
  === BLOCK LINK ===
    0x2ffc
=== CODE BLOCK END ===

=== CODE BLOCK ADDRESS 0x2ffc ===
  0x2ffc	mov    	dword ptr [esp], eax
  0x2fff	cmp    	dword ptr [eax], 0x4550
  0x3005	dec    	eax
  0x3006	cmovne  	eax, edx
  0x3009	dec    	eax
  === BLOCK LINK ===
    0x300a
=== CODE BLOCK END ===

=== CODE BLOCK ADDRESS 0x300a ===
  0x300a	mov    	edx, eax
  0x300c	dec    	eax
  0x300d	mov    	dword ptr [esp], eax
  0x3010	jmp    	0x3018
  === BLOCK LINK ===
    0x3012
=== CODE BLOCK END ===

=== CODE BLOCK ADDRESS 0x3012 ===
  0x3012	xor    	edx, edx
  0x3014	dec    	eax
  0x3015	mov    	dword ptr [esp], edx
  0x3018	dec    	eax
  0x3019	mov    	eax, edx
  === BLOCK LINK ===
    0x301b
=== CODE BLOCK END ===

=== CODE BLOCK ADDRESS 0x301b ===
  0x301b	dec    	eax
  0x301c	add    	esp, 0x18
  0x301f	ret    	
  0x3020	int3   	
  0x3021	int3   	
  === BLOCK LINK ===
    0x3022
=== CODE BLOCK END ===

=== CODE BLOCK ADDRESS 0x3022 ===
  0x3022	int3   	
  0x3023	int3   	
  0x3024	int3   	
  0x3025	int3   	
  0x3026	int3   	
  === BLOCK LINK ===
    0x3027
=== CODE BLOCK END ===

=== CODE BLOCK ADDRESS 0x3027 ===
  0x3027	int3   	
  0x3028	inc    	eax
  0x3029	push   	ebx
  0x302a	dec    	eax
  0x302b	sub    	esp, 0x20
  === BLOCK LINK ===
    0x302e
=== CODE BLOCK END ===

=== CODE BLOCK ADDRESS 0x302e ===
  0x302e	mov    	ebx, ecx
  0x3030	xor    	ecx, ecx
  0x3032	call   	dword ptr [0x1140]
  === BLOCK LINK ===
    0x3038
=== CODE BLOCK END ===

=== CODE BLOCK ADDRESS 0x3038 ===
  0x3038	dec    	eax
  0x3039	test   	eax, eax
  0x303b	je     	0x3065
  === BLOCK LINK ===
    0x303d
=== CODE BLOCK END ===

=== CODE BLOCK ADDRESS 0x303d ===
  0x303d	dec    	eax
  0x303e	mov    	ecx, eax
  0x3040	call   	0x2fcc
  === BLOCK LINK ===
    0x3045
=== CODE BLOCK END ===

=== CODE BLOCK ADDRESS 0x3045 ===
  0x3045	dec    	eax
  0x3046	test   	eax, eax
  0x3048	je     	0x3065
  === BLOCK LINK ===
    0x304a
=== CODE BLOCK END ===

=== CODE BLOCK ADDRESS 0x304a ===
  0x304a	mov    	ecx, 2
  0x304f	cmp    	word ptr [eax + 0x5c], cx
  0x3053	jne    	0x3059
  === BLOCK LINK ===
    0x3055
=== CODE BLOCK END ===

=== CODE BLOCK ADDRESS 0x3055 ===
  0x3055	mov    	eax, ecx
  0x3057	jmp    	0x3067
  === BLOCK LINK ===
    0x3059
=== CODE BLOCK END ===

=== CODE BLOCK ADDRESS 0x3059 ===
  0x3059	cmp    	word ptr [eax + 0x5c], 3
  0x305e	mov    	eax, 1
  0x3063	je     	0x3067
  === BLOCK LINK ===
    0x3065
=== CODE BLOCK END ===

=== CODE BLOCK ADDRESS 0x3065 ===
  0x3065	mov    	eax, ebx
  0x3067	dec    	eax
  0x3068	add    	esp, 0x20
  0x306b	pop    	ebx
  0x306c	ret    	
  === BLOCK LINK ===
    0x306d
=== CODE BLOCK END ===

=== CODE BLOCK ADDRESS 0x306d ===
  0x306d	int3   	
  0x306e	int3   	
  0x306f	int3   	
  0x3070	int3   	
  0x3071	int3   	
  === BLOCK LINK ===
    0x3072
=== CODE BLOCK END ===

=== CODE BLOCK ADDRESS 0x3072 ===
  0x3072	int3   	
  0x3073	jmp    	dword ptr [0x11e7]
  === BLOCK LINK ===
    0x3079
=== CODE BLOCK END ===

=== CODE BLOCK ADDRESS 0x3079 ===
  0x3079	int3   	
  0x307a	int3   	
  0x307b	int3   	
  0x307c	int3   	
  0x307d	int3   	
  === BLOCK LINK ===
    0x307e
=== CODE BLOCK END ===

=== CODE BLOCK ADDRESS 0x307e ===
  0x307e	int3   	
  0x307f	int3   	
  0x3080	xor    	eax, eax
  0x3082	ret    	
  0x3083	int3   	
  === BLOCK LINK ===
    0x3084
=== CODE BLOCK END ===

=== CODE BLOCK ADDRESS 0x1222 ===
  0x1222	inc    	cx
  0x1224	cmp    	eax, ebx
  0x1226	jne    	0x122f
  === BLOCK LINK ===
    0x1228
=== CODE BLOCK END ===

=== CODE BLOCK ADDRESS 0x3084 ===
  0x3084	int3   	
  0x3085	int3   	
  0x3086	int3   	
  0x3087	int3   	
  0x3088	int3   	
  === BLOCK LINK ===
    0x3089
=== CODE BLOCK END ===

=== CODE BLOCK ADDRESS 0x3089 ===
  0x3089	int3   	
  0x308a	int3   	
  0x308b	int3   	
  0x308c	int3   	
  0x308d	int3   	
  === BLOCK LINK ===
    0x308e
=== CODE BLOCK END ===

=== CODE BLOCK ADDRESS 0x308e ===
  0x308e	int3   	
  0x308f	int3   	
  0x3090	dec    	esp
  0x3091	arpl   	word ptr [ecx + 0x3c], ax
  0x3094	inc    	ebp
  === BLOCK LINK ===
    0x3095
=== CODE BLOCK END ===

=== CODE BLOCK ADDRESS 0x3095 ===
  0x3095	xor    	ecx, ecx
  0x3097	dec    	esp
  0x3098	add    	eax, ecx
  0x309a	dec    	esp
  0x309b	mov    	edx, edx
  === BLOCK LINK ===
    0x309d
=== CODE BLOCK END ===

=== CODE BLOCK ADDRESS 0x309d ===
  0x309d	inc    	ecx
  0x309e	movzx  	eax, word ptr [eax + 0x14]
  0x30a2	inc    	ebp
  0x30a3	movzx  	ebx, word ptr [eax + 6]
  0x30a7	dec    	eax
  === BLOCK LINK ===
    0x30a8
=== CODE BLOCK END ===

=== CODE BLOCK ADDRESS 0x30a8 ===
  0x30a8	add    	eax, 0x18
  0x30ab	dec    	ecx
  0x30ac	add    	eax, eax
  0x30ae	inc    	ebp
  0x30af	test   	ebx, ebx
  === BLOCK LINK ===
    0x30b1
=== CODE BLOCK END ===

=== CODE BLOCK ADDRESS 0x30b1 ===
  0x30b1	je     	0x30d1
  === BLOCK LINK ===
    0x30b3
=== CODE BLOCK END ===

=== CODE BLOCK ADDRESS 0x30b3 ===
  0x30b3	mov    	edx, dword ptr [eax + 0xc]
  0x30b6	dec    	esp
  0x30b7	cmp    	edx, edx
  0x30b9	jb     	0x30c5
  === BLOCK LINK ===
    0x30bb
=== CODE BLOCK END ===

=== CODE BLOCK ADDRESS 0x30bb ===
  0x30bb	mov    	ecx, dword ptr [eax + 8]
  0x30be	add    	ecx, edx
  0x30c0	dec    	esp
  0x30c1	cmp    	edx, ecx
  0x30c3	jb     	0x30d3
  === BLOCK LINK ===
    0x30c5
=== CODE BLOCK END ===

=== CODE BLOCK ADDRESS 0x30c5 ===
  0x30c5	inc    	ecx
  0x30c6	inc    	ecx
  0x30c8	dec    	eax
  0x30c9	add    	eax, 0x28
  0x30cc	inc    	ebp
  === BLOCK LINK ===
    0x30cd
=== CODE BLOCK END ===

=== CODE BLOCK ADDRESS 0x30cd ===
  0x30cd	cmp    	ecx, ebx
  0x30cf	jb     	0x30b3
  === BLOCK LINK ===
    0x30d1
=== CODE BLOCK END ===

=== CODE BLOCK ADDRESS 0x30d1 ===
  0x30d1	xor    	eax, eax
  0x30d3	ret    	
  0x30d4	int3   	
  0x30d5	int3   	
  0x30d6	int3   	
  === BLOCK LINK ===
    0x30d7
=== CODE BLOCK END ===

=== CODE BLOCK ADDRESS 0x30d7 ===
  0x30d7	int3   	
  0x30d8	int3   	
  0x30d9	int3   	
  0x30da	int3   	
  0x30db	int3   	
  === BLOCK LINK ===
    0x30dc
=== CODE BLOCK END ===

=== CODE BLOCK ADDRESS 0x30dc ===
  0x30dc	int3   	
  0x30dd	int3   	
  0x30de	int3   	
  0x30df	int3   	
  0x30e0	dec    	eax
  === BLOCK LINK ===
    0x30e1
=== CODE BLOCK END ===

=== CODE BLOCK ADDRESS 0x30e1 ===
  0x30e1	mov    	dword ptr [esp + 8], ebx
  0x30e5	push   	edi
  0x30e6	dec    	eax
  0x30e7	sub    	esp, 0x20
  0x30ea	dec    	eax
  === BLOCK LINK ===
    0x30eb
=== CODE BLOCK END ===

=== CODE BLOCK ADDRESS 0x30eb ===
  0x30eb	mov    	ebx, ecx
  0x30ed	dec    	eax
  0x30ee	lea    	edi, [0xffffcf0c]
  0x30f4	dec    	eax
  0x30f5	mov    	ecx, edi
  === BLOCK LINK ===
    0x30f7
=== CODE BLOCK END ===

=== CODE BLOCK ADDRESS 0x30f7 ===
  0x30f7	call   	0x3140
  === BLOCK LINK ===
    0x30fc
=== CODE BLOCK END ===

=== CODE BLOCK ADDRESS 0x30fc ===
  0x30fc	test   	eax, eax
  0x30fe	je     	0x3122
  === BLOCK LINK ===
    0x3100
=== CODE BLOCK END ===

=== CODE BLOCK ADDRESS 0x3100 ===
  0x3100	dec    	eax
  0x3101	sub    	ebx, edi
  0x3103	dec    	eax
  0x3104	mov    	edx, ebx
  0x3106	dec    	eax
  === BLOCK LINK ===
    0x3107
=== CODE BLOCK END ===

=== CODE BLOCK ADDRESS 0x3107 ===
  0x3107	mov    	ecx, edi
  0x3109	call   	0x3090
  === BLOCK LINK ===
    0x310e
=== CODE BLOCK END ===

=== CODE BLOCK ADDRESS 0x310e ===
  0x310e	dec    	eax
  0x310f	test   	eax, eax
  0x3111	je     	0x3122
  === BLOCK LINK ===
    0x3113
=== CODE BLOCK END ===

=== CODE BLOCK ADDRESS 0x3113 ===
  0x3113	mov    	eax, dword ptr [eax + 0x24]
  0x3116	shr    	eax, 0x1f
  0x3119	not    	eax
  0x311b	and    	eax, 1
  0x311e	jmp    	0x3122
  === BLOCK LINK ===
    0x3120
=== CODE BLOCK END ===

=== CODE BLOCK ADDRESS 0x3120 ===
  0x3120	xor    	eax, eax
  0x3122	dec    	eax
  0x3123	mov    	ebx, dword ptr [esp + 0x30]
  0x3127	dec    	eax
  0x3128	add    	esp, 0x20
  === BLOCK LINK ===
    0x312b
=== CODE BLOCK END ===

=== CODE BLOCK ADDRESS 0x312b ===
  0x312b	pop    	edi
  0x312c	ret    	
  0x312d	int3   	
  0x312e	int3   	
  0x312f	int3   	
  === BLOCK LINK ===
    0x3130
=== CODE BLOCK END ===

=== CODE BLOCK ADDRESS 0x3130 ===
  0x3130	int3   	
  0x3131	int3   	
  0x3132	int3   	
  0x3133	int3   	
  0x3134	int3   	
  === BLOCK LINK ===
    0x3135
=== CODE BLOCK END ===

=== CODE BLOCK ADDRESS 0x3135 ===
  0x3135	int3   	
  0x3136	int3   	
  0x3137	int3   	
  0x3138	int3   	
  0x3139	int3   	
  === BLOCK LINK ===
    0x313a
=== CODE BLOCK END ===

=== CODE BLOCK ADDRESS 0x313a ===
  0x313a	int3   	
  0x313b	int3   	
  0x313c	int3   	
  0x313d	int3   	
  0x313e	int3   	
  === BLOCK LINK ===
    0x313f
=== CODE BLOCK END ===

=== CODE BLOCK ADDRESS 0x313f ===
  0x313f	int3   	
  0x3140	mov    	eax, 0x5a4d
  0x3145	cmp    	word ptr [ecx], ax
  0x3148	jne    	0x316a
  === BLOCK LINK ===
    0x314a
=== CODE BLOCK END ===

=== CODE BLOCK ADDRESS 0x314a ===
  0x314a	dec    	eax
  0x314b	arpl   	word ptr [ecx + 0x3c], ax
  0x314e	dec    	eax
  0x314f	add    	eax, ecx
  0x3151	cmp    	dword ptr [eax], 0x4550
  === BLOCK LINK ===
    0x3157
=== CODE BLOCK END ===

=== CODE BLOCK ADDRESS 0x3157 ===
  0x3157	jne    	0x316a
  === BLOCK LINK ===
    0x3159
=== CODE BLOCK END ===

=== CODE BLOCK ADDRESS 0x3159 ===
  0x3159	mov    	ecx, 0x20b
  0x315e	cmp    	word ptr [eax + 0x18], cx
  0x3162	jne    	0x316a
  === BLOCK LINK ===
    0x3164
=== CODE BLOCK END ===

=== CODE BLOCK ADDRESS 0x3164 ===
  0x3164	mov    	eax, 1
  0x3169	ret    	
  0x316a	xor    	eax, eax
  0x316c	ret    	
  0x316d	int3   	
  === BLOCK LINK ===
    0x316e
=== CODE BLOCK END ===

=== CODE BLOCK ADDRESS 0x124c ===
  0x124c	inc    	ecx
  0x124d	cmp    	ebx, ecx
  0x124f	jb     	0x1234
  === BLOCK LINK ===
    0x1251
=== CODE BLOCK END ===

=== CODE BLOCK ADDRESS 0x316e ===
  0x316e	int3   	
  0x316f	int3   	
  0x3170	int3   	
  0x3171	int3   	
  0x3172	int3   	
  === BLOCK LINK ===
    0x3173
=== CODE BLOCK END ===

=== CODE BLOCK ADDRESS 0x3173 ===
  0x3173	int3   	
  0x3174	dec    	eax
  0x3175	mov    	dword ptr [esp + 0x20], ebx
  0x3179	push   	ebp
  0x317a	dec    	eax
  === BLOCK LINK ===
    0x317b
=== CODE BLOCK END ===

=== CODE BLOCK ADDRESS 0x317b ===
  0x317b	mov    	ebp, esp
  0x317d	dec    	eax
  0x317e	sub    	esp, 0x20
  0x3181	dec    	eax
  0x3182	and    	dword ptr [ebp + 0x18], 0
  === BLOCK LINK ===
    0x3186
=== CODE BLOCK END ===

=== CODE BLOCK ADDRESS 0x3186 ===
  0x3186	dec    	eax
  0x3187	mov    	ebx, 0x2ddfa232
  0x318c	cdq    	
  0x318d	sub    	eax, dword ptr [eax]
  0x318f	add    	byte ptr [eax - 0x75], cl
  === BLOCK LINK ===
    0x3192
=== CODE BLOCK END ===

=== CODE BLOCK ADDRESS 0x3192 ===
  0x3192	add    	eax, 0x2e71
  0x3197	dec    	eax
  0x3198	cmp    	eax, ebx
  0x319a	jne    	0x3233
  === BLOCK LINK ===
    0x31a0
=== CODE BLOCK END ===

=== CODE BLOCK ADDRESS 0x31a0 ===
  0x31a0	dec    	eax
  0x31a1	lea    	ecx, [ebp + 0x18]
  0x31a4	call   	dword ptr [0xfae]
  === BLOCK LINK ===
    0x31aa
=== CODE BLOCK END ===

=== CODE BLOCK ADDRESS 0x31aa ===
  0x31aa	dec    	eax
  0x31ab	mov    	eax, dword ptr [ebp + 0x18]
  0x31ae	dec    	eax
  0x31af	mov    	dword ptr [ebp + 0x10], eax
  0x31b2	call   	dword ptr [0xfb0]
  === BLOCK LINK ===
    0x31b8
=== CODE BLOCK END ===

=== CODE BLOCK ADDRESS 0x31b8 ===
  0x31b8	mov    	eax, eax
  0x31ba	dec    	eax
  0x31bb	xor    	dword ptr [ebp + 0x10], eax
  0x31be	call   	dword ptr [0xf9c]
  === BLOCK LINK ===
    0x31c4
=== CODE BLOCK END ===

=== CODE BLOCK ADDRESS 0x31c4 ===
  0x31c4	mov    	eax, eax
  0x31c6	dec    	eax
  0x31c7	xor    	dword ptr [ebp + 0x10], eax
  0x31ca	call   	dword ptr [0xf80]
  === BLOCK LINK ===
    0x31d0
=== CODE BLOCK END ===

=== CODE BLOCK ADDRESS 0x31d0 ===
  0x31d0	mov    	eax, eax
  0x31d2	dec    	eax
  0x31d3	shl    	eax, 0x18
  0x31d6	dec    	eax
  0x31d7	xor    	dword ptr [ebp + 0x10], eax
  === BLOCK LINK ===
    0x31da
=== CODE BLOCK END ===

=== CODE BLOCK ADDRESS 0x31da ===
  0x31da	call   	dword ptr [0xf70]
  === BLOCK LINK ===
    0x31e0
=== CODE BLOCK END ===

=== CODE BLOCK ADDRESS 0x31e0 ===
  0x31e0	mov    	eax, eax
  0x31e2	dec    	eax
  0x31e3	lea    	ecx, [ebp + 0x10]
  0x31e6	dec    	eax
  0x31e7	xor    	eax, dword ptr [ebp + 0x10]
  === BLOCK LINK ===
    0x31ea
=== CODE BLOCK END ===

=== CODE BLOCK ADDRESS 0x31ea ===
  0x31ea	dec    	eax
  0x31eb	xor    	eax, ecx
  0x31ed	dec    	eax
  0x31ee	lea    	ecx, [ebp + 0x20]
  0x31f1	dec    	eax
  === BLOCK LINK ===
    0x31f2
=== CODE BLOCK END ===

=== CODE BLOCK ADDRESS 0x31f2 ===
  0x31f2	mov    	dword ptr [ebp + 0x10], eax
  0x31f5	call   	dword ptr [0xf75]
  === BLOCK LINK ===
    0x31fb
=== CODE BLOCK END ===

=== CODE BLOCK ADDRESS 0x31fb ===
  0x31fb	mov    	eax, dword ptr [ebp + 0x20]
  0x31fe	dec    	eax
  0x31ff	mov    	ecx, 0xffffffff
  0x3204	.byte  	0xff
  0x3205	inc    	dword ptr [eax]
  === BLOCK LINK ===
    0x3207
=== CODE BLOCK END ===

=== CODE BLOCK ADDRESS 0x3207 ===
  0x3207	add    	byte ptr [eax - 0x3f], cl
  0x320a	loopne  	0x322c
  === BLOCK LINK ===
    0x320c
=== CODE BLOCK END ===

=== CODE BLOCK ADDRESS 0x320c ===
  0x320c	dec    	eax
  0x320d	xor    	eax, dword ptr [ebp + 0x20]
  0x3210	dec    	eax
  0x3211	xor    	eax, dword ptr [ebp + 0x10]
  0x3214	dec    	eax
  === BLOCK LINK ===
    0x3215
=== CODE BLOCK END ===

=== CODE BLOCK ADDRESS 0x3215 ===
  0x3215	and    	eax, ecx
  0x3217	dec    	eax
  0x3218	mov    	ecx, eax
  0x321a	dec    	eax
  0x321b	cmp    	eax, ebx
  === BLOCK LINK ===
    0x321d
=== CODE BLOCK END ===

=== CODE BLOCK ADDRESS 0x321d ===
  0x321d	jne    	0x322c
  === BLOCK LINK ===
    0x321f
=== CODE BLOCK END ===

=== CODE BLOCK ADDRESS 0x321f ===
  0x321f	dec    	eax
  0x3220	mov    	eax, 0x2ddfa233
  0x3225	cdq    	
  0x3226	sub    	eax, dword ptr [eax]
  0x3228	add    	byte ptr [eax - 0x75], cl
  === BLOCK LINK ===
    0x322b
=== CODE BLOCK END ===

=== CODE BLOCK ADDRESS 0x322b ===
  0x322b	enter  	-0x76b8, 0xd
  0x322f	aad    	0x2d
  0x3231	add    	byte ptr [eax], al
  0x3233	dec    	eax
  0x3234	mov    	ebx, dword ptr [esp + 0x48]
  === BLOCK LINK ===
    0x3238
=== CODE BLOCK END ===

=== CODE BLOCK ADDRESS 0x3238 ===
  0x3238	dec    	eax
  0x3239	not    	eax
  0x323b	dec    	eax
  0x323c	mov    	dword ptr [0x2dce], eax
  0x3242	dec    	eax
  === BLOCK LINK ===
    0x3243
=== CODE BLOCK END ===

=== CODE BLOCK ADDRESS 0x3243 ===
  0x3243	add    	esp, 0x20
  0x3246	pop    	ebp
  0x3247	ret    	
  0x3248	int3   	
  0x3249	int3   	
  === BLOCK LINK ===
    0x324a
=== CODE BLOCK END ===

=== CODE BLOCK ADDRESS 0x324a ===
  0x324a	int3   	
  0x324b	int3   	
  0x324c	int3   	
  0x324d	int3   	
  0x324e	jmp    	dword ptr [0xfd4]
  === BLOCK LINK ===
    0x3254
=== CODE BLOCK END ===

=== CODE BLOCK ADDRESS 0x3254 ===
  0x3254	int3   	
  0x3255	int3   	
  0x3256	int3   	
  0x3257	int3   	
  0x3258	int3   	
  === BLOCK LINK ===
    0x3259
=== CODE BLOCK END ===

=== CODE BLOCK ADDRESS 0x3259 ===
  0x3259	int3   	
  0x325a	jmp    	dword ptr [0xfc0]
  === BLOCK LINK ===
    0x3260
=== CODE BLOCK END ===

=== CODE BLOCK ADDRESS 0x3260 ===
  0x3260	int3   	
  0x3261	int3   	
  0x3262	int3   	
  0x3263	int3   	
  0x3264	int3   	
  === BLOCK LINK ===
    0x3265
=== CODE BLOCK END ===

=== CODE BLOCK ADDRESS 0x3265 ===
  0x3265	int3   	
  0x3266	int3   	
  0x3267	int3   	
  0x3268	int3   	
  0x3269	int3   	
  === BLOCK LINK ===
    0x326a
=== CODE BLOCK END ===

=== CODE BLOCK ADDRESS 0x326a ===
  0x326a	int3   	
  0x326b	int3   	
  0x326c	int3   	
  0x326d	int3   	
  0x326e	int3   	
  === BLOCK LINK ===
    0x326f
=== CODE BLOCK END ===

=== CODE BLOCK ADDRESS 0x326f ===
  0x326f	int3   	
  0x3270	ret    	0
  0x3273	int3   	
  0x3274	int3   	
  0x3275	int3   	
  === BLOCK LINK ===
    0x3276
=== CODE BLOCK END ===

=== CODE BLOCK ADDRESS 0x3276 ===
  0x3276	int3   	
  0x3277	int3   	
  0x3278	int3   	
  0x3279	int3   	
  0x327a	int3   	
  === BLOCK LINK ===
    0x327b
=== CODE BLOCK END ===

=== CODE BLOCK ADDRESS 0x327b ===
  0x327b	int3   	
  0x327c	inc    	eax
  0x327d	push   	ebx
  0x327e	dec    	eax
  0x327f	sub    	esp, 0x20
  === BLOCK LINK ===
    0x3282
=== CODE BLOCK END ===

=== CODE BLOCK ADDRESS 0x3282 ===
  0x3282	dec    	eax
  0x3283	mov    	ebx, ecx
  0x3285	xor    	ecx, ecx
  0x3287	call   	dword ptr [0xef3]
  === BLOCK LINK ===
    0x328d
=== CODE BLOCK END ===

=== CODE BLOCK ADDRESS 0x328d ===
  0x328d	dec    	eax
  0x328e	mov    	ecx, ebx
  0x3290	call   	dword ptr [0xe9a]
  === BLOCK LINK ===
    0x3296
=== CODE BLOCK END ===

=== CODE BLOCK ADDRESS 0x3296 ===
  0x3296	call   	dword ptr [0xf5c]
  === BLOCK LINK ===
    0x329c
=== CODE BLOCK END ===

=== CODE BLOCK ADDRESS 0x329c ===
  0x329c	dec    	eax
  0x329d	mov    	ecx, eax
  0x329f	mov    	edx, 0xc0000409
  0x32a4	dec    	eax
  0x32a5	add    	esp, 0x20
  === BLOCK LINK ===
    0x32a8
=== CODE BLOCK END ===

=== CODE BLOCK ADDRESS 0x32a8 ===
  0x32a8	pop    	ebx
  0x32a9	dec    	eax
  0x32aa	jmp    	dword ptr [0xe78]
  === BLOCK LINK ===
    0x32b0
=== CODE BLOCK END ===

=== CODE BLOCK ADDRESS 0x32b0 ===
  0x32b0	int3   	
  0x32b1	int3   	
  0x32b2	int3   	
  0x32b3	int3   	
  0x32b4	int3   	
  === BLOCK LINK ===
    0x32b5
=== CODE BLOCK END ===

=== CODE BLOCK ADDRESS 0x32b5 ===
  0x32b5	int3   	
  0x32b6	int3   	
  0x32b7	int3   	
  0x32b8	int3   	
  0x32b9	int3   	
  === BLOCK LINK ===
    0x32ba
=== CODE BLOCK END ===

=== CODE BLOCK ADDRESS 0x32ba ===
  0x32ba	int3   	
  0x32bb	int3   	
  0x32bc	int3   	
  0x32bd	int3   	
  0x32be	int3   	
  === BLOCK LINK ===
    0x32bf
=== CODE BLOCK END ===

=== CODE BLOCK ADDRESS 0x32bf ===
  0x32bf	int3   	
  0x32c0	dec    	eax
  0x32c1	mov    	dword ptr [esp + 8], ecx
  0x32c5	dec    	eax
  0x32c6	sub    	esp, 0x88
  === BLOCK LINK ===
    0x32cc
=== CODE BLOCK END ===

=== CODE BLOCK ADDRESS 0x32cc ===
  0x32cc	dec    	eax
  0x32cd	lea    	ecx, [0x2e2d]
  0x32d3	call   	dword ptr [0xe6f]
  === BLOCK LINK ===
    0x32d9
=== CODE BLOCK END ===

=== CODE BLOCK ADDRESS 0x32d9 ===
  0x32d9	dec    	eax
  0x32da	mov    	eax, dword ptr [0x2f18]
  0x32e0	dec    	eax
  0x32e1	mov    	dword ptr [esp + 0x48], eax
  0x32e5	inc    	ebp
  === BLOCK LINK ===
    0x32e6
=== CODE BLOCK END ===

=== CODE BLOCK ADDRESS 0x32e6 ===
  0x32e6	xor    	eax, eax
  0x32e8	dec    	eax
  0x32e9	lea    	edx, [esp + 0x50]
  0x32ed	dec    	eax
  0x32ee	mov    	ecx, dword ptr [esp + 0x48]
  === BLOCK LINK ===
    0x32f2
=== CODE BLOCK END ===

=== CODE BLOCK ADDRESS 0x32f2 ===
  0x32f2	call   	dword ptr [0xe48]
  === BLOCK LINK ===
    0x32f8
=== CODE BLOCK END ===

=== CODE BLOCK ADDRESS 0x32f8 ===
  0x32f8	dec    	eax
  0x32f9	mov    	dword ptr [esp + 0x40], eax
  0x32fd	dec    	eax
  0x32fe	cmp    	dword ptr [esp + 0x40], 0
  0x3303	je     	0x3347
  === BLOCK LINK ===
    0x3305
=== CODE BLOCK END ===

=== CODE BLOCK ADDRESS 0x3305 ===
  0x3305	dec    	eax
  0x3306	mov    	dword ptr [esp + 0x38], 0
  0x330e	dec    	eax
  0x330f	lea    	eax, [esp + 0x58]
  0x3313	dec    	eax
  === BLOCK LINK ===
    0x3314
=== CODE BLOCK END ===

=== CODE BLOCK ADDRESS 0x3314 ===
  0x3314	mov    	dword ptr [esp + 0x30], eax
  0x3318	dec    	eax
  0x3319	lea    	eax, [esp + 0x60]
  0x331d	dec    	eax
  0x331e	mov    	dword ptr [esp + 0x28], eax
  === BLOCK LINK ===
    0x3322
=== CODE BLOCK END ===

=== CODE BLOCK ADDRESS 0x3322 ===
  0x3322	dec    	eax
  0x3323	lea    	eax, [0x2dd7]
  0x3329	dec    	eax
  0x332a	mov    	dword ptr [esp + 0x20], eax
  0x332e	dec    	esp
  === BLOCK LINK ===
    0x332f
=== CODE BLOCK END ===

=== CODE BLOCK ADDRESS 0x332f ===
  0x332f	mov    	ecx, dword ptr [esp + 0x40]
  0x3333	dec    	esp
  0x3334	mov    	eax, dword ptr [esp + 0x48]
  0x3338	dec    	eax
  0x3339	mov    	edx, dword ptr [esp + 0x50]
  === BLOCK LINK ===
    0x333d
=== CODE BLOCK END ===

=== CODE BLOCK ADDRESS 0x333d ===
  0x333d	xor    	ecx, ecx
  0x333f	call   	dword ptr [0xdf3]
  === BLOCK LINK ===
    0x3345
=== CODE BLOCK END ===

=== CODE BLOCK ADDRESS 0x3345 ===
  0x3345	jmp    	0x336a
  === BLOCK LINK ===
    0x3347
=== CODE BLOCK END ===

=== CODE BLOCK ADDRESS 0x3347 ===
  0x3347	dec    	eax
  0x3348	mov    	eax, dword ptr [0x2e4a]
  0x334e	dec    	eax
  0x334f	mov    	eax, dword ptr [eax]
  0x3351	dec    	eax
  === BLOCK LINK ===
    0x3352
=== CODE BLOCK END ===

=== CODE BLOCK ADDRESS 0x3352 ===
  0x3352	mov    	dword ptr [0x2ea0], eax
  0x3358	dec    	eax
  0x3359	mov    	eax, dword ptr [0x2e39]
  0x335f	dec    	eax
  0x3360	add    	eax, 8
  === BLOCK LINK ===
    0x3363
=== CODE BLOCK END ===

=== CODE BLOCK ADDRESS 0x3363 ===
  0x3363	dec    	eax
  0x3364	mov    	dword ptr [0x2e2e], eax
  0x336a	dec    	eax
  0x336b	mov    	eax, dword ptr [0x2e87]
  0x3371	dec    	eax
  === BLOCK LINK ===
    0x3372
=== CODE BLOCK END ===

=== CODE BLOCK ADDRESS 0x3372 ===
  0x3372	mov    	dword ptr [0x2cf8], eax
  0x3378	dec    	eax
  0x3379	mov    	eax, dword ptr [esp + 0x90]
  0x3380	dec    	eax
  0x3381	mov    	dword ptr [0x2df9], eax
  === BLOCK LINK ===
    0x3387
=== CODE BLOCK END ===

=== CODE BLOCK ADDRESS 0x3387 ===
  0x3387	mov    	dword ptr [0x2ccf], 0xc0000409
  0x3391	mov    	dword ptr [0x2cc9], 1
  0x339b	mov    	dword ptr [0x2cd3], 3
  0x33a5	mov    	eax, 8
  0x33aa	dec    	eax
  === BLOCK LINK ===
    0x33ab
=== CODE BLOCK END ===

=== CODE BLOCK ADDRESS 0x33ab ===
  0x33ab	imul   	eax, eax, 0
  0x33ae	dec    	eax
  0x33af	lea    	ecx, [0x2ccb]
  0x33b5	dec    	eax
  0x33b6	mov    	dword ptr [ecx + eax], 2
  === BLOCK LINK ===
    0x33bd
=== CODE BLOCK END ===

=== CODE BLOCK ADDRESS 0x33bd ===
  0x33bd	mov    	eax, 8
  0x33c2	dec    	eax
  0x33c3	imul   	eax, eax, 1
  0x33c6	dec    	eax
  0x33c7	lea    	ecx, [0x2cb3]
  === BLOCK LINK ===
    0x33cd
=== CODE BLOCK END ===

=== CODE BLOCK ADDRESS 0x33cd ===
  0x33cd	dec    	eax
  0x33ce	mov    	edx, dword ptr [0x2c34]
  0x33d4	dec    	eax
  0x33d5	mov    	dword ptr [ecx + eax], edx
  0x33d8	mov    	eax, 8
  === BLOCK LINK ===
    0x33dd
=== CODE BLOCK END ===

=== CODE BLOCK ADDRESS 0x33dd ===
  0x33dd	dec    	eax
  0x33de	imul   	eax, eax, 2
  0x33e1	dec    	eax
  0x33e2	lea    	ecx, [0x2c98]
  0x33e8	dec    	eax
  === BLOCK LINK ===
    0x33e9
=== CODE BLOCK END ===

=== CODE BLOCK ADDRESS 0x33e9 ===
  0x33e9	mov    	edx, dword ptr [0x2c21]
  0x33ef	dec    	eax
  0x33f0	mov    	dword ptr [ecx + eax], edx
  0x33f3	mov    	eax, 8
  0x33f8	dec    	eax
  === BLOCK LINK ===
    0x33f9
=== CODE BLOCK END ===

=== CODE BLOCK ADDRESS 0x33f9 ===
  0x33f9	imul   	eax, eax, 0
  0x33fc	dec    	eax
  0x33fd	mov    	ecx, dword ptr [0x2c05]
  0x3403	dec    	eax
  0x3404	mov    	dword ptr [esp + eax + 0x68], ecx
  === BLOCK LINK ===
    0x3408
=== CODE BLOCK END ===

=== CODE BLOCK ADDRESS 0x3408 ===
  0x3408	mov    	eax, 8
  0x340d	dec    	eax
  0x340e	imul   	eax, eax, 1
  0x3411	dec    	eax
  0x3412	mov    	ecx, dword ptr [0x2bf8]
  === BLOCK LINK ===
    0x3418
=== CODE BLOCK END ===

=== CODE BLOCK ADDRESS 0x3418 ===
  0x3418	dec    	eax
  0x3419	mov    	dword ptr [esp + eax + 0x68], ecx
  0x341d	dec    	eax
  0x341e	lea    	ecx, [0xbdc]
  0x3424	call   	0x327c
  === BLOCK LINK ===
    0x3429
=== CODE BLOCK END ===

=== CODE BLOCK ADDRESS 0x3429 ===
  0x3429	dec    	eax
  0x342a	add    	esp, 0x88
  0x3430	ret    	
  0x3431	int3   	
  0x3432	int3   	
  === BLOCK LINK ===
    0x3433
=== CODE BLOCK END ===

=== CODE BLOCK ADDRESS 0x1339 ===
  0x1339	xor    	al, al
  0x133b	dec    	eax
  === BLOCK LINK ===
    0x133c
=== CODE BLOCK END ===

=== CODE BLOCK ADDRESS 0x3433 ===
  0x3433	int3   	
  0x3434	int3   	
  0x3435	int3   	
  0x3436	int3   	
  0x3437	int3   	
  === BLOCK LINK ===
    0x3438
=== CODE BLOCK END ===

=== CODE BLOCK ADDRESS 0x3438 ===
  0x3438	int3   	
  0x3439	int3   	
  0x343a	int3   	
  0x343b	int3   	
  0x343c	int3   	
  === BLOCK LINK ===
    0x343d
=== CODE BLOCK END ===

=== CODE BLOCK ADDRESS 0x343d ===
  0x343d	int3   	
  0x343e	int3   	
  0x343f	int3   	
  0x3440	int3   	
  0x3441	int3   	
  === BLOCK LINK ===
    0x3442
=== CODE BLOCK END ===

=== CODE BLOCK ADDRESS 0x3442 ===
  0x3442	int3   	
  0x3443	int3   	
  0x3444	int3   	
  0x3445	int3   	
  0x3446	nop    	word ptr [eax + eax]
  === BLOCK LINK ===
    0x3450
=== CODE BLOCK END ===

=== CODE BLOCK ADDRESS 0x3450 ===
  0x3450	jmp    	eax
  === BLOCK LINK ===
    0x3452
=== CODE BLOCK END ===

=== CODE BLOCK ADDRESS 0x3452 ===
  0x3452	int3   	
  0x3453	int3   	
  0x3454	int3   	
  0x3455	int3   	
  0x3456	int3   	
  === BLOCK LINK ===
    0x3457
=== CODE BLOCK END ===

=== CODE BLOCK ADDRESS 0x3457 ===
  0x3457	int3   	
  0x3458	int3   	
  0x3459	int3   	
  0x345a	int3   	
  0x345b	int3   	
  === BLOCK LINK ===
    0x345c
=== CODE BLOCK END ===

=== CODE BLOCK ADDRESS 0x345c ===
  0x345c	int3   	
  0x345d	int3   	
  0x345e	int3   	
  0x345f	int3   	
  0x3460	inc    	eax
  === BLOCK LINK ===
    0x3461
=== CODE BLOCK END ===

=== CODE BLOCK ADDRESS 0x3461 ===
  0x3461	push   	ebp
  0x3462	dec    	eax
  0x3463	sub    	esp, 0x20
  0x3466	dec    	eax
  0x3467	mov    	ebp, edx
  === BLOCK LINK ===
    0x3469
=== CODE BLOCK END ===

=== CODE BLOCK ADDRESS 0x3469 ===
  0x3469	dec    	eax
  0x346a	mov    	eax, dword ptr [ecx]
  0x346c	dec    	eax
  0x346d	mov    	edx, ecx
  0x346f	mov    	ecx, dword ptr [eax]
  === BLOCK LINK ===
    0x3471
=== CODE BLOCK END ===

=== CODE BLOCK ADDRESS 0x3471 ===
  0x3471	call   	0x2fbe
  === BLOCK LINK ===
    0x3476
=== CODE BLOCK END ===

=== CODE BLOCK ADDRESS 0x3476 ===
  0x3476	nop    	
  0x3477	dec    	eax
  0x3478	add    	esp, 0x20
  0x347b	pop    	ebp
  0x347c	ret    	
  === BLOCK LINK ===
    0x347d
=== CODE BLOCK END ===

=== CODE BLOCK ADDRESS 0x1271 ===
  0x1271	inc    	ecx
  0x1272	cmp    	ebx, ecx
  0x1274	jb     	0x125f
  === BLOCK LINK ===
    0x1276
=== CODE BLOCK END ===

=== CODE BLOCK ADDRESS 0x347d ===
  0x347d	int3   	
  0x347e	int3   	
  0x347f	int3   	
  0x3480	int3   	
  0x3481	int3   	
  === BLOCK LINK ===
    0x3482
=== CODE BLOCK END ===

=== CODE BLOCK ADDRESS 0x3482 ===
  0x3482	int3   	
  0x3483	int3   	
  0x3484	int3   	
  0x3485	int3   	
  0x3486	int3   	
  === BLOCK LINK ===
    0x3487
=== CODE BLOCK END ===

=== CODE BLOCK ADDRESS 0x3487 ===
  0x3487	int3   	
  0x3488	int3   	
  0x3489	int3   	
  0x348a	int3   	
  0x348b	int3   	
  === BLOCK LINK ===
    0x348c
=== CODE BLOCK END ===

=== CODE BLOCK ADDRESS 0x348c ===
  0x348c	int3   	
  0x348d	int3   	
  0x348e	int3   	
  0x348f	int3   	
  0x3490	inc    	eax
  === BLOCK LINK ===
    0x3491
=== CODE BLOCK END ===

=== CODE BLOCK ADDRESS 0x3491 ===
  0x3491	push   	ebp
  0x3492	dec    	eax
  0x3493	sub    	esp, 0x20
  0x3496	dec    	eax
  0x3497	mov    	ebp, edx
  === BLOCK LINK ===
    0x3499
=== CODE BLOCK END ===

=== CODE BLOCK ADDRESS 0x3499 ===
  0x3499	dec    	eax
  0x349a	mov    	eax, dword ptr [ecx]
  0x349c	xor    	ecx, ecx
  0x349e	cmp    	dword ptr [eax], 0xc0000005
  0x34a4	sete   	cl
  === BLOCK LINK ===
    0x34a7
=== CODE BLOCK END ===

=== CODE BLOCK ADDRESS 0x34a7 ===
  0x34a7	mov    	eax, ecx
  0x34a9	dec    	eax
  0x34aa	add    	esp, 0x20
  0x34ad	pop    	ebp
  0x34ae	ret    	
  === BLOCK LINK ===
    0x34af
=== CODE BLOCK END ===

=== CODE BLOCK ADDRESS 0x34af ===
  0x34af	int3   	
  0x34b0	add    	byte ptr [eax], al
  0x34b2	add    	byte ptr [eax], al
  0x34b4	add    	byte ptr [eax], al
  0x34b6	add    	byte ptr [eax], al
  === BLOCK LINK ===
    0x34b8
=== CODE BLOCK END ===

=== CODE BLOCK ADDRESS 0x34b8 ===
  0x34b8	add    	byte ptr [eax], al
  0x34ba	add    	byte ptr [eax], al
  0x34bc	add    	byte ptr [eax], al
  0x34be	add    	byte ptr [eax], al
  0x34c0	add    	byte ptr [eax], al
  === BLOCK LINK ===
    0x34c2
=== CODE BLOCK END ===

=== CODE BLOCK ADDRESS 0x34c2 ===
  0x34c2	add    	byte ptr [eax], al
  0x34c4	add    	byte ptr [eax], al
  0x34c6	add    	byte ptr [eax], al
  0x34c8	add    	byte ptr [eax], al
  0x34ca	add    	byte ptr [eax], al
  === BLOCK LINK ===
    0x34cc
=== CODE BLOCK END ===

=== CODE BLOCK ADDRESS 0x34cc ===
  0x34cc	add    	byte ptr [eax], al
  0x34ce	add    	byte ptr [eax], al
  0x34d0	add    	byte ptr [eax], al
  0x34d2	add    	byte ptr [eax], al
  0x34d4	add    	byte ptr [eax], al
  === BLOCK LINK ===
    0x34d6
=== CODE BLOCK END ===

=== CODE BLOCK ADDRESS 0x34d6 ===
  0x34d6	add    	byte ptr [eax], al
  0x34d8	add    	byte ptr [eax], al
  0x34da	add    	byte ptr [eax], al
  0x34dc	add    	byte ptr [eax], al
  0x34de	add    	byte ptr [eax], al
  === BLOCK LINK ===
    0x34e0
=== CODE BLOCK END ===

=== CODE BLOCK ADDRESS 0x34e0 ===
  0x34e0	add    	byte ptr [eax], al
  0x34e2	add    	byte ptr [eax], al
  0x34e4	add    	byte ptr [eax], al
  0x34e6	add    	byte ptr [eax], al
  0x34e8	add    	byte ptr [eax], al
  === BLOCK LINK ===
    0x34ea
=== CODE BLOCK END ===

=== CODE BLOCK ADDRESS 0x34ea ===
  0x34ea	add    	byte ptr [eax], al
  0x34ec	add    	byte ptr [eax], al
  0x34ee	add    	byte ptr [eax], al
  0x34f0	add    	byte ptr [eax], al
  0x34f2	add    	byte ptr [eax], al
  === BLOCK LINK ===
    0x34f4
=== CODE BLOCK END ===

=== CODE BLOCK ADDRESS 0x34f4 ===
  0x34f4	add    	byte ptr [eax], al
  0x34f6	add    	byte ptr [eax], al
  0x34f8	add    	byte ptr [eax], al
  0x34fa	add    	byte ptr [eax], al
  0x34fc	add    	byte ptr [eax], al
  === BLOCK LINK ===
    0x34fe
=== CODE BLOCK END ===

=== CODE BLOCK ADDRESS 0x34fe ===
  0x34fe	add    	byte ptr [eax], al
  0x3500	add    	byte ptr [eax], al
  0x3502	add    	byte ptr [eax], al
  0x3504	add    	byte ptr [eax], al
  0x3506	add    	byte ptr [eax], al
  === BLOCK LINK ===
    0x3508
=== CODE BLOCK END ===

=== CODE BLOCK ADDRESS 0x3508 ===
  0x3508	add    	byte ptr [eax], al
  0x350a	add    	byte ptr [eax], al
  0x350c	add    	byte ptr [eax], al
  0x350e	add    	byte ptr [eax], al
  0x3510	add    	byte ptr [eax], al
  === BLOCK LINK ===
    0x3512
=== CODE BLOCK END ===

=== CODE BLOCK ADDRESS 0x3512 ===
  0x3512	add    	byte ptr [eax], al
  0x3514	add    	byte ptr [eax], al
  0x3516	add    	byte ptr [eax], al
  0x3518	add    	byte ptr [eax], al
  0x351a	add    	byte ptr [eax], al
  === BLOCK LINK ===
    0x351c
=== CODE BLOCK END ===

=== CODE BLOCK ADDRESS 0x351c ===
  0x351c	add    	byte ptr [eax], al
  0x351e	add    	byte ptr [eax], al
  0x3520	add    	byte ptr [eax], al
  0x3522	add    	byte ptr [eax], al
  0x3524	add    	byte ptr [eax], al
  === BLOCK LINK ===
    0x3526
=== CODE BLOCK END ===

=== CODE BLOCK ADDRESS 0x3526 ===
  0x3526	add    	byte ptr [eax], al
  0x3528	add    	byte ptr [eax], al
  0x352a	add    	byte ptr [eax], al
  0x352c	add    	byte ptr [eax], al
  0x352e	add    	byte ptr [eax], al
  === BLOCK LINK ===
    0x3530
=== CODE BLOCK END ===

=== CODE BLOCK ADDRESS 0x3530 ===
  0x3530	add    	byte ptr [eax], al
  0x3532	add    	byte ptr [eax], al
  0x3534	add    	byte ptr [eax], al
  0x3536	add    	byte ptr [eax], al
  0x3538	add    	byte ptr [eax], al
  === BLOCK LINK ===
    0x353a
=== CODE BLOCK END ===

=== CODE BLOCK ADDRESS 0x353a ===
  0x353a	add    	byte ptr [eax], al
  0x353c	add    	byte ptr [eax], al
  0x353e	add    	byte ptr [eax], al
  0x3540	add    	byte ptr [eax], al
  0x3542	add    	byte ptr [eax], al
  === BLOCK LINK ===
    0x3544
=== CODE BLOCK END ===

=== CODE BLOCK ADDRESS 0x3544 ===
  0x3544	add    	byte ptr [eax], al
  0x3546	add    	byte ptr [eax], al
  0x3548	add    	byte ptr [eax], al
  0x354a	add    	byte ptr [eax], al
  0x354c	add    	byte ptr [eax], al
  === BLOCK LINK ===
    0x354e
=== CODE BLOCK END ===

=== CODE BLOCK ADDRESS 0x354e ===
  0x354e	add    	byte ptr [eax], al
  0x3550	add    	byte ptr [eax], al
  0x3552	add    	byte ptr [eax], al
  0x3554	add    	byte ptr [eax], al
  0x3556	add    	byte ptr [eax], al
  === BLOCK LINK ===
    0x3558
=== CODE BLOCK END ===

=== CODE BLOCK ADDRESS 0x3558 ===
  0x3558	add    	byte ptr [eax], al
  0x355a	add    	byte ptr [eax], al
  0x355c	add    	byte ptr [eax], al
  0x355e	add    	byte ptr [eax], al
  0x3560	add    	byte ptr [eax], al
  === BLOCK LINK ===
    0x3562
=== CODE BLOCK END ===

=== CODE BLOCK ADDRESS 0x3562 ===
  0x3562	add    	byte ptr [eax], al
  0x3564	add    	byte ptr [eax], al
  0x3566	add    	byte ptr [eax], al
  0x3568	add    	byte ptr [eax], al
  0x356a	add    	byte ptr [eax], al
  === BLOCK LINK ===
    0x356c
=== CODE BLOCK END ===

=== CODE BLOCK ADDRESS 0x356c ===
  0x356c	add    	byte ptr [eax], al
  0x356e	add    	byte ptr [eax], al
  0x3570	add    	byte ptr [eax], al
  0x3572	add    	byte ptr [eax], al
  0x3574	add    	byte ptr [eax], al
  === BLOCK LINK ===
    0x3576
=== CODE BLOCK END ===

=== CODE BLOCK ADDRESS 0x3576 ===
  0x3576	add    	byte ptr [eax], al
  0x3578	add    	byte ptr [eax], al
  0x357a	add    	byte ptr [eax], al
  0x357c	add    	byte ptr [eax], al
  0x357e	add    	byte ptr [eax], al
  === BLOCK LINK ===
    0x3580
=== CODE BLOCK END ===

=== CODE BLOCK ADDRESS 0x3580 ===
  0x3580	add    	byte ptr [eax], al
  0x3582	add    	byte ptr [eax], al
  0x3584	add    	byte ptr [eax], al
  0x3586	add    	byte ptr [eax], al
  0x3588	add    	byte ptr [eax], al
  === BLOCK LINK ===
    0x358a
=== CODE BLOCK END ===

=== CODE BLOCK ADDRESS 0x358a ===
  0x358a	add    	byte ptr [eax], al
  0x358c	add    	byte ptr [eax], al
  0x358e	add    	byte ptr [eax], al
  0x3590	add    	byte ptr [eax], al
  0x3592	add    	byte ptr [eax], al
  === BLOCK LINK ===
    0x3594
=== CODE BLOCK END ===

=== CODE BLOCK ADDRESS 0x3594 ===
  0x3594	add    	byte ptr [eax], al
  0x3596	add    	byte ptr [eax], al
  0x3598	add    	byte ptr [eax], al
  0x359a	add    	byte ptr [eax], al
  0x359c	add    	byte ptr [eax], al
  === BLOCK LINK ===
    0x359e
=== CODE BLOCK END ===

=== CODE BLOCK ADDRESS 0x359e ===
  0x359e	add    	byte ptr [eax], al
  0x35a0	add    	byte ptr [eax], al
  0x35a2	add    	byte ptr [eax], al
  0x35a4	add    	byte ptr [eax], al
  0x35a6	add    	byte ptr [eax], al
  === BLOCK LINK ===
    0x35a8
=== CODE BLOCK END ===

=== CODE BLOCK ADDRESS 0x35a8 ===
  0x35a8	add    	byte ptr [eax], al
  0x35aa	add    	byte ptr [eax], al
  0x35ac	add    	byte ptr [eax], al
  0x35ae	add    	byte ptr [eax], al
  0x35b0	add    	byte ptr [eax], al
  === BLOCK LINK ===
    0x35b2
=== CODE BLOCK END ===

=== CODE BLOCK ADDRESS 0x35b2 ===
  0x35b2	add    	byte ptr [eax], al
  0x35b4	add    	byte ptr [eax], al
  0x35b6	add    	byte ptr [eax], al
  0x35b8	add    	byte ptr [eax], al
  0x35ba	add    	byte ptr [eax], al
  === BLOCK LINK ===
    0x35bc
=== CODE BLOCK END ===

=== CODE BLOCK ADDRESS 0x35bc ===
  0x35bc	add    	byte ptr [eax], al
  0x35be	add    	byte ptr [eax], al
  0x35c0	add    	byte ptr [eax], al
  0x35c2	add    	byte ptr [eax], al
  0x35c4	add    	byte ptr [eax], al
  === BLOCK LINK ===
    0x35c6
=== CODE BLOCK END ===

=== CODE BLOCK ADDRESS 0x35c6 ===
  0x35c6	add    	byte ptr [eax], al
  0x35c8	add    	byte ptr [eax], al
  0x35ca	add    	byte ptr [eax], al
  0x35cc	add    	byte ptr [eax], al
  0x35ce	add    	byte ptr [eax], al
  === BLOCK LINK ===
    0x35d0
=== CODE BLOCK END ===

=== CODE BLOCK ADDRESS 0x35d0 ===
  0x35d0	add    	byte ptr [eax], al
  0x35d2	add    	byte ptr [eax], al
  0x35d4	add    	byte ptr [eax], al
  0x35d6	add    	byte ptr [eax], al
  0x35d8	add    	byte ptr [eax], al
  === BLOCK LINK ===
    0x35da
=== CODE BLOCK END ===

=== CODE BLOCK ADDRESS 0x35da ===
  0x35da	add    	byte ptr [eax], al
  0x35dc	add    	byte ptr [eax], al
  0x35de	add    	byte ptr [eax], al
  0x35e0	add    	byte ptr [eax], al
  0x35e2	add    	byte ptr [eax], al
  === BLOCK LINK ===
    0x35e4
=== CODE BLOCK END ===

=== CODE BLOCK ADDRESS 0x35e4 ===
  0x35e4	add    	byte ptr [eax], al
  0x35e6	add    	byte ptr [eax], al
  0x35e8	add    	byte ptr [eax], al
  0x35ea	add    	byte ptr [eax], al
  0x35ec	add    	byte ptr [eax], al
  === BLOCK LINK ===
    0x35ee
=== CODE BLOCK END ===

=== CODE BLOCK ADDRESS 0x35ee ===
  0x35ee	add    	byte ptr [eax], al
  0x35f0	add    	byte ptr [eax], al
  0x35f2	add    	byte ptr [eax], al
  0x35f4	add    	byte ptr [eax], al
  0x35f6	add    	byte ptr [eax], al
  === BLOCK LINK ===
    0x35f8
=== CODE BLOCK END ===

=== CODE BLOCK ADDRESS 0x35f8 ===
  0x35f8	add    	byte ptr [eax], al
  0x35fa	add    	byte ptr [eax], al
  0x35fc	add    	byte ptr [eax], al
=== CODE BLOCK END ===

=== DATA BLOCK ADDRESS 0x4000 ===
  0x4000	60 60 00 40 01 00 00 00 00 61 00 40 01 00 00 00 	``0@00000a0@0000
  0x4010	18 01 00 00 00 00 00 00 00 00 00 00 00 00 00 00 	0000000000000000
  0x4020	00 00 00 00 00 00 00 00 00 00 00 00 00 00 00 00 	0000000000000000
  0x4030	00 00 00 00 00 00 00 00 00 00 00 00 00 00 00 00 	0000000000000000
  0x4040	00 00 00 00 00 00 00 00 00 00 00 00 00 00 00 00 	0000000000000000
  0x4050	00 00 00 00 00 00 00 00 00 00 00 00 00 00 00 00 	0000000000000000
  0x4060	00 00 00 00 00 00 00 00 08 60 00 40 01 00 00 00 	000000000`0@0000
  0x4070	00 00 00 00 00 00 00 00 00 00 00 00 00 00 00 00 	0000000000000000
  0x4080	18 44 00 40 01 00 00 00 20 44 00 40 01 00 00 00 	0D0@0000 D0@0000
  0x4090	6c 44 00 40 01 00 00 00 08 00 00 00 00 00 00 00 	lD0@000000000000
  0x40a0	00 75 41 00 00 00 00 00 00 00 00 00 00 00 00 00 	0uA0000000000000
  0x40b0	00 00 00 00 00 00 00 00 00 00 00 00 00 00 00 00 	0000000000000000
  0x40c0	00 00 00 00 00 00 00 00 00 00 00 00 00 00 00 00 	0000000000000000
  0x40d0	00 00 00 00 00 00 00 00 00 00 00 00 00 00 00 00 	0000000000000000
  0x40e0	00 00 00 00 00 00 00 00 00 00 00 00 00 00 00 00 	0000000000000000
  0x40f0	00 00 00 00 00 00 00 00 00 00 00 00 00 00 00 00 	0000000000000000
  0x4100	00 00 00 00 00 00 00 00 00 00 00 00 00 00 00 00 	0000000000000000
  0x4110	00 00 00 00 00 00 00 00 60 44 00 40 01 00 00 00 	00000000`D0@0000
  0x4120	03 00 00 00 00 00 00 00 6a 57 00 00 00 00 00 00 	00000000jW000000
  0x4130	3a 57 00 00 00 00 00 00 26 57 00 00 00 00 00 00 	:W000000&W000000
  0x4140	0c 57 00 00 00 00 00 00 f8 56 00 00 00 00 00 00 	0W0000000V000000
  0x4150	e8 56 00 00 00 00 00 00 ce 56 00 00 00 00 00 00 	0V0000000V000000
  0x4160	b8 56 00 00 00 00 00 00 a2 56 00 00 00 00 00 00 	0V0000000V000000
  0x4170	88 56 00 00 00 00 00 00 74 56 00 00 00 00 00 00 	0V000000tV000000
  0x4180	56 56 00 00 00 00 00 00 4e 56 00 00 00 00 00 00 	VV000000NV000000
  0x4190	2e 55 00 00 00 00 00 00 1a 55 00 00 00 00 00 00 	.U0000000U000000
  0x41a0	04 55 00 00 00 00 00 00 e8 54 00 00 00 00 00 00 	0U0000000T000000
  0x41b0	d6 54 00 00 00 00 00 00 b6 54 00 00 00 00 00 00 	0T0000000T000000
  0x41c0	9a 54 00 00 00 00 00 00 82 54 00 00 00 00 00 00 	0T0000000T000000
  0x41d0	70 54 00 00 00 00 00 00 52 54 00 00 00 00 00 00 	pT000000RT000000
  0x41e0	42 54 00 00 00 00 00 00 2c 54 00 00 00 00 00 00 	BT000000,T000000
  0x41f0	0e 54 00 00 00 00 00 00 56 57 00 00 00 00 00 00 	0T000000VW000000
  0x4200	00 00 00 00 00 00 00 00 2e 56 00 00 00 00 00 00 	00000000.V000000
  0x4210	22 56 00 00 00 00 00 00 18 56 00 00 00 00 00 00 	"V0000000V000000
  0x4220	00 56 00 00 00 00 00 00 f4 55 00 00 00 00 00 00 	0V0000000U000000
  0x4230	e0 55 00 00 00 00 00 00 d6 55 00 00 00 00 00 00 	0U0000000U000000
  0x4240	ce 55 00 00 00 00 00 00 c6 55 00 00 00 00 00 00 	0U0000000U000000
  0x4250	b4 55 00 00 00 00 00 00 a4 55 00 00 00 00 00 00 	0U0000000U000000
  0x4260	96 55 00 00 00 00 00 00 88 55 00 00 00 00 00 00 	0U0000000U000000
  0x4270	00 00 00 00 00 00 00 00 70 55 00 00 00 00 00 00 	00000000pU000000
  0x4280	5e 55 00 00 00 00 00 00 00 00 00 00 00 00 00 00 	^U00000000000000
  0x4290	88 50 00 00 00 00 00 00 e8 4c 00 00 00 00 00 00 	0P0000000L000000
  0x42a0	56 50 00 00 00 00 00 00 40 50 00 00 00 00 00 00 	VP000000@P000000
  0x42b0	20 50 00 00 00 00 00 00 e8 4f 00 00 00 00 00 00 	 P0000000O000000
  0x42c0	cc 4f 00 00 00 00 00 00 a0 53 00 00 00 00 00 00 	0O0000000S000000
  0x42d0	5c 4f 00 00 00 00 00 00 3e 4f 00 00 00 00 00 00 	0O000000>O000000
  0x42e0	20 4f 00 00 00 00 00 00 ec 4e 00 00 00 00 00 00 	 O0000000N000000
  0x42f0	ba 4e 00 00 00 00 00 00 9e 4e 00 00 00 00 00 00 	0N0000000N000000
  0x4300	7c 53 00 00 00 00 00 00 c4 53 00 00 00 00 00 00 	|S0000000S000000
  0x4310	e2 53 00 00 00 00 00 00 86 4f 00 00 00 00 00 00 	0S0000000O000000
  0x4320	54 53 00 00 00 00 00 00 32 53 00 00 00 00 00 00 	TS0000002S000000
  0x4330	08 53 00 00 00 00 00 00 e6 52 00 00 00 00 00 00 	0S0000000R000000
  0x4340	c8 52 00 00 00 00 00 00 a8 52 00 00 00 00 00 00 	0R0000000R000000
  0x4350	72 52 00 00 00 00 00 00 4c 52 00 00 00 00 00 00 	rR000000LR000000
  0x4360	2e 52 00 00 00 00 00 00 10 52 00 00 00 00 00 00 	.R0000000R000000
  0x4370	e4 51 00 00 00 00 00 00 c2 51 00 00 00 00 00 00 	0Q0000000Q000000
  0x4380	a0 51 00 00 00 00 00 00 6a 51 00 00 00 00 00 00 	0Q000000jQ000000
  0x4390	36 51 00 00 00 00 00 00 04 51 00 00 00 00 00 00 	6Q0000000Q000000
  0x43a0	b0 4f 00 00 00 00 00 00 c4 50 00 00 00 00 00 00 	0O0000000P000000
  0x43b0	74 4e 00 00 00 00 00 00 50 4e 00 00 00 00 00 00 	tN000000PN000000
  0x43c0	22 4e 00 00 00 00 00 00 0e 4e 00 00 00 00 00 00 	"N0000000N000000
  0x43d0	fa 4d 00 00 00 00 00 00 da 4d 00 00 00 00 00 00 	0M0000000M000000
  0x43e0	b8 4d 00 00 00 00 00 00 76 4d 00 00 00 00 00 00 	0M000000vM000000
  0x43f0	5a 4d 00 00 00 00 00 00 30 4d 00 00 00 00 00 00 	ZM0000000M000000
  0x4400	14 4d 00 00 00 00 00 00 fe 4c 00 00 00 00 00 00 	0M0000000L000000
  0x4410	00 00 00 00 00 00 00 00 70 32 00 40 01 00 00 00 	00000000p20@0000
  0x4420	50 34 00 40 01 00 00 00 00 00 00 00 00 00 00 00 	P40@000000000000
  0x4430	e0 2c 00 40 01 00 00 00 00 00 00 00 00 00 00 00 	0,0@000000000000
  0x4440	00 00 00 00 00 00 00 00 00 2c 00 40 01 00 00 00 	000000000,0@0000
  0x4450	a0 2f 00 40 01 00 00 00 00 00 00 00 00 00 00 00 	0/0@000000000000
  0x4460	ab 2e 00 00 12 30 00 00 20 31 00 00 00 2c 00 00 	0.000000 1000,00
  0x4470	e0 2c 00 00 00 2f 00 00 60 2f 00 00 a0 2f 00 00 	0,000/00`/000/00
  0x4480	80 30 00 00 70 32 00 00 c0 32 00 00 00 00 00 00 	0000p20002000000
  0x4490	00 00 00 00 20 20 20 20 00 00 00 00 25 57 00 00 	0000    0000%W00
  0x44a0	62 61 73 65 5c 66 73 5c 75 74 69 6c 73 5c 64 6f 	base0fs0utils0do
  0x44b0	73 6b 65 79 5c 64 6f 73 6b 65 79 2e 63 78 78 00 	skey0doskey.cxx0
  0x44c0	25 49 36 34 78 25 78 00 5b 00 00 00 5d 00 00 00 	%I64x%x0[000]000
  0x44d0	22 00 00 00 20 09 00 00 2a 00 00 00 2f 3f 00 00 	"000 000*000/?00
  0x44e0	2f 72 65 69 6e 73 74 61 6c 6c 00 00 00 00 00 00 	/reinstall000000
  0x44f0	2f 62 75 66 73 69 7a 65 3d 2a 00 00 00 00 00 00 	/bufsize=*000000
  0x4500	2f 6c 69 73 74 73 69 7a 65 3d 2a 00 00 00 00 00 	/listsize=*00000
  0x4510	2f 6d 61 63 72 6f 73 3a 2a 00 00 00 2f 6d 3a 2a 	/macros:*000/m:*
  0x4520	00 00 00 00 00 00 00 00 2f 6d 61 63 72 6f 73 00 	00000000/macros0
  0x4530	2f 6d 00 00 00 00 00 00 2f 68 69 73 74 6f 72 79 	/m000000/history
  0x4540	00 00 00 00 2f 68 00 00 2f 69 6e 73 65 72 74 00 	0000/h00/insert0
  0x4550	2f 6f 76 65 72 73 74 72 69 6b 65 00 00 00 00 00 	/overstrike00000
  0x4560	2f 65 78 65 6e 61 6d 65 3d 2a 00 00 00 00 00 00 	/exename=*000000
  0x4570	2f 6d 61 63 72 6f 66 69 6c 65 3d 2a 00 00 00 00 	/macrofile=*0000
  0x4580	63 00 6d 00 64 00 2e 00 65 00 78 00 65 00 00 00 	c0m0d0.0e0x0e000
  0x4590	61 6c 6c 00 00 00 00 00 00 00 00 00 00 00 00 00 	all0000000000000
  0x45a0	00 00 00 00 b4 07 13 64 00 00 00 00 02 00 00 00 	0000000d00000000
  0x45b0	23 00 00 00 f4 45 00 00 f4 2f 00 00 00 00 00 00 	#0000E000/000000
  0x45c0	b4 07 13 64 00 00 00 00 0d 00 00 00 04 02 00 00 	000d000000000000
  0x45d0	18 46 00 00 18 30 00 00 00 00 00 00 b4 07 13 64 	0F0000000000000d
  0x45e0	00 00 00 00 10 00 00 00 24 00 00 00 1c 48 00 00 	00000000$0000H00
  0x45f0	1c 32 00 00 52 53 44 53 b3 ee aa 0f 93 f5 1f 79 	0200RSDS0000000y
  0x4600	03 9d 84 ec ba ee 3e 63 01 00 00 00 64 6f 73 6b 	000000>c0000dosk
  0x4610	65 79 2e 70 64 62 00 00 47 43 54 4c 00 10 00 00 	ey.pdb00GCTL0000
  0x4620	40 24 00 00 2e 74 65 78 74 24 6d 6e 00 00 00 00 	@$00.text$mn0000
  0x4630	40 34 00 00 20 00 00 00 2e 74 65 78 74 24 6d 6e 	@400 000.text$mn
  0x4640	24 30 30 00 60 34 00 00 50 00 00 00 2e 74 65 78 	$000`400P000.tex
  0x4650	74 24 78 00 00 40 00 00 28 01 00 00 2e 72 64 61 	t$x00@00(000.rda
  0x4660	74 61 24 62 72 63 00 00 28 41 00 00 f0 02 00 00 	ta$brc00(A000000
  0x4670	2e 69 64 61 74 61 24 35 00 00 00 00 18 44 00 00 	.idata$500000D00
  0x4680	10 00 00 00 2e 30 30 63 66 67 00 00 28 44 00 00 	0000.00cfg00(D00
  0x4690	08 00 00 00 2e 43 52 54 24 58 43 41 00 00 00 00 	0000.CRT$XCA0000
  0x46a0	30 44 00 00 08 00 00 00 2e 43 52 54 24 58 43 41 	0D000000.CRT$XCA
  0x46b0	41 00 00 00 38 44 00 00 08 00 00 00 2e 43 52 54 	A0008D000000.CRT
  0x46c0	24 58 43 5a 00 00 00 00 40 44 00 00 08 00 00 00 	$XCZ0000@D000000
  0x46d0	2e 43 52 54 24 58 49 41 00 00 00 00 48 44 00 00 	.CRT$XIA0000HD00
  0x46e0	08 00 00 00 2e 43 52 54 24 58 49 41 41 00 00 00 	0000.CRT$XIAA000
  0x46f0	50 44 00 00 08 00 00 00 2e 43 52 54 24 58 49 59 	PD000000.CRT$XIY
  0x4700	00 00 00 00 58 44 00 00 08 00 00 00 2e 43 52 54 	0000XD000000.CRT
  0x4710	24 58 49 5a 00 00 00 00 60 44 00 00 0c 00 00 00 	$XIZ0000`D000000
  0x4720	2e 67 65 68 63 6f 6e 74 00 00 00 00 6c 44 00 00 	.gehcont0000lD00
  0x4730	24 00 00 00 2e 67 66 69 64 73 00 00 90 44 00 00 	$000.gfids000D00
  0x4740	64 01 00 00 2e 72 64 61 74 61 00 00 f4 45 00 00 	d000.rdata000E00
  0x4750	4c 02 00 00 2e 72 64 61 74 61 24 7a 7a 7a 64 62 	L000.rdata$zzzdb
  0x4760	67 00 00 00 40 48 00 00 54 01 00 00 2e 78 64 61 	g000@H00T000.xda
  0x4770	74 61 00 00 94 49 00 00 50 00 00 00 2e 69 64 61 	ta000I00P000.ida
  0x4780	74 61 24 32 00 00 00 00 e4 49 00 00 14 00 00 00 	ta$200000I000000
  0x4790	2e 69 64 61 74 61 24 33 00 00 00 00 f8 49 00 00 	.idata$300000I00
  0x47a0	f0 02 00 00 2e 69 64 61 74 61 24 34 00 00 00 00 	0000.idata$40000
  0x47b0	e8 4c 00 00 96 0a 00 00 2e 69 64 61 74 61 24 36 	0L000000.idata$6
  0x47c0	00 00 00 00 00 60 00 00 20 00 00 00 2e 64 61 74 	00000`00 000.dat
  0x47d0	61 00 00 00 20 60 00 00 58 06 00 00 2e 62 73 73 	a000 `00X000.bss
  0x47e0	00 00 00 00 00 70 00 00 14 01 00 00 2e 70 64 61 	00000p000000.pda
  0x47f0	74 61 00 00 00 80 00 00 f0 00 00 00 2e 72 73 72 	ta0000000000.rsr
  0x4800	63 24 30 31 00 00 00 00 f0 80 00 00 10 07 00 00 	c$01000000000000
  0x4810	2e 72 73 72 63 24 30 32 00 00 00 00 20 00 00 00 	.rsrc$020000 000
  0x4820	b3 ee aa 0f 93 f5 1f 79 03 9d 84 ec ba ee 3e 63 	0000000y000000>c
  0x4830	49 b1 1e f1 04 5a 46 b2 ce 8f e6 03 b4 07 13 64 	I0000ZF00000000d
  0x4840	01 06 02 00 06 32 02 30 01 1b 0b 00 1b 64 18 00 	0000020000000d00
  0x4850	1b 54 17 00 1b 34 16 00 1b 01 12 00 14 f0 12 e0 	0T00040000000000
  0x4860	10 70 00 00 01 18 0a 00 18 64 0c 00 18 54 0b 00 	0p0000000d000T00
  0x4870	18 34 0a 00 18 52 14 f0 12 e0 10 70 01 19 0a 00 	04000R00000p0000
  0x4880	19 74 0d 00 19 64 0c 00 19 54 0b 00 19 34 0a 00 	0t000d000T000400
  0x4890	19 72 15 e0 01 23 0d 00 23 d4 1b 00 23 74 1a 00 	0r000#00#000#t00
  0x48a0	23 64 19 00 23 34 18 00 23 01 14 00 18 f0 16 e0 	#d00#400#0000000
  0x48b0	14 50 00 00 01 23 0d 00 23 74 1e 00 23 64 1d 00 	0P000#00#t00#d00
  0x48c0	23 34 1c 00 23 01 16 00 18 f0 16 e0 14 d0 12 c0 	#400#00000000000
  0x48d0	10 50 00 00 01 1c 0a 00 1c 01 39 01 0d f0 0b e0 	0P00000000900000
  0x48e0	09 d0 07 c0 05 70 04 60 03 30 02 50 01 04 01 00 	00000p0`000P0000
  0x48f0	04 42 00 00 01 04 01 00 04 62 00 00 09 15 08 00 	0B0000000b000000
  0x4900	15 74 0a 00 15 64 09 00 15 34 08 00 15 52 11 f0 	0t000d0004000R00
  0x4910	5a 32 00 00 01 00 00 00 45 2d 00 00 ab 2e 00 00 	Z2000000E-000.00
  0x4920	60 34 00 00 ab 2e 00 00 01 06 02 00 06 32 02 50 	`4000.000000020P
  0x4930	01 00 00 00 09 04 01 00 04 22 00 00 5a 32 00 00 	000000000"00Z200
  0x4940	01 00 00 00 dc 2f 00 00 12 30 00 00 01 00 00 00 	00000/0000000000
  0x4950	12 30 00 00 09 0a 04 00 0a 34 06 00 0a 32 06 70 	000000000400020p
  0x4960	5a 32 00 00 01 00 00 00 ed 30 00 00 20 31 00 00 	Z20000000000 100
  0x4970	90 34 00 00 20 31 00 00 01 0d 04 00 0d 34 09 00 	0400 10000000400
  0x4980	0d 32 06 50 01 0c 02 00 0c 01 11 00 00 00 00 00 	020P000000000000
  0x4990	01 00 00 00 60 4b 00 00 00 00 00 00 00 00 00 00 	0000`K0000000000
  0x49a0	04 54 00 00 90 42 00 00 f8 49 00 00 00 00 00 00 	0T000B000I000000
  0x49b0	00 00 00 00 50 55 00 00 28 41 00 00 48 4b 00 00 	0000PU00(A00HK00
  0x49c0	00 00 00 00 00 00 00 00 7e 55 00 00 78 42 00 00 	00000000~U00xB00
  0x49d0	d8 4a 00 00 00 00 00 00 00 00 00 00 42 56 00 00 	0J0000000000BV00
  0x49e0	08 42 00 00 00 00 00 00 00 00 00 00 00 00 00 00 	0B00000000000000
  0x49f0	00 00 00 00 00 00 00 00 6a 57 00 00 00 00 00 00 	00000000jW000000
  0x4a00	3a 57 00 00 00 00 00 00 26 57 00 00 00 00 00 00 	:W000000&W000000
  0x4a10	0c 57 00 00 00 00 00 00 f8 56 00 00 00 00 00 00 	0W0000000V000000
  0x4a20	e8 56 00 00 00 00 00 00 ce 56 00 00 00 00 00 00 	0V0000000V000000
  0x4a30	b8 56 00 00 00 00 00 00 a2 56 00 00 00 00 00 00 	0V0000000V000000
  0x4a40	88 56 00 00 00 00 00 00 74 56 00 00 00 00 00 00 	0V000000tV000000
  0x4a50	56 56 00 00 00 00 00 00 4e 56 00 00 00 00 00 00 	VV000000NV000000
  0x4a60	2e 55 00 00 00 00 00 00 1a 55 00 00 00 00 00 00 	.U0000000U000000
  0x4a70	04 55 00 00 00 00 00 00 e8 54 00 00 00 00 00 00 	0U0000000T000000
  0x4a80	d6 54 00 00 00 00 00 00 b6 54 00 00 00 00 00 00 	0T0000000T000000
  0x4a90	9a 54 00 00 00 00 00 00 82 54 00 00 00 00 00 00 	0T0000000T000000
  0x4aa0	70 54 00 00 00 00 00 00 52 54 00 00 00 00 00 00 	pT000000RT000000
  0x4ab0	42 54 00 00 00 00 00 00 2c 54 00 00 00 00 00 00 	BT000000,T000000
  0x4ac0	0e 54 00 00 00 00 00 00 56 57 00 00 00 00 00 00 	0T000000VW000000
  0x4ad0	00 00 00 00 00 00 00 00 2e 56 00 00 00 00 00 00 	00000000.V000000
  0x4ae0	22 56 00 00 00 00 00 00 18 56 00 00 00 00 00 00 	"V0000000V000000
  0x4af0	00 56 00 00 00 00 00 00 f4 55 00 00 00 00 00 00 	0V0000000U000000
  0x4b00	e0 55 00 00 00 00 00 00 d6 55 00 00 00 00 00 00 	0U0000000U000000
  0x4b10	ce 55 00 00 00 00 00 00 c6 55 00 00 00 00 00 00 	0U0000000U000000
  0x4b20	b4 55 00 00 00 00 00 00 a4 55 00 00 00 00 00 00 	0U0000000U000000
  0x4b30	96 55 00 00 00 00 00 00 88 55 00 00 00 00 00 00 	0U0000000U000000
  0x4b40	00 00 00 00 00 00 00 00 70 55 00 00 00 00 00 00 	00000000pU000000
  0x4b50	5e 55 00 00 00 00 00 00 00 00 00 00 00 00 00 00 	^U00000000000000
  0x4b60	88 50 00 00 00 00 00 00 e8 4c 00 00 00 00 00 00 	0P0000000L000000
  0x4b70	56 50 00 00 00 00 00 00 40 50 00 00 00 00 00 00 	VP000000@P000000
  0x4b80	20 50 00 00 00 00 00 00 e8 4f 00 00 00 00 00 00 	 P0000000O000000
  0x4b90	cc 4f 00 00 00 00 00 00 a0 53 00 00 00 00 00 00 	0O0000000S000000
  0x4ba0	5c 4f 00 00 00 00 00 00 3e 4f 00 00 00 00 00 00 	0O000000>O000000
  0x4bb0	20 4f 00 00 00 00 00 00 ec 4e 00 00 00 00 00 00 	 O0000000N000000
  0x4bc0	ba 4e 00 00 00 00 00 00 9e 4e 00 00 00 00 00 00 	0N0000000N000000
  0x4bd0	7c 53 00 00 00 00 00 00 c4 53 00 00 00 00 00 00 	|S0000000S000000
  0x4be0	e2 53 00 00 00 00 00 00 86 4f 00 00 00 00 00 00 	0S0000000O000000
  0x4bf0	54 53 00 00 00 00 00 00 32 53 00 00 00 00 00 00 	TS0000002S000000
  0x4c00	08 53 00 00 00 00 00 00 e6 52 00 00 00 00 00 00 	0S0000000R000000
  0x4c10	c8 52 00 00 00 00 00 00 a8 52 00 00 00 00 00 00 	0R0000000R000000
  0x4c20	72 52 00 00 00 00 00 00 4c 52 00 00 00 00 00 00 	rR000000LR000000
  0x4c30	2e 52 00 00 00 00 00 00 10 52 00 00 00 00 00 00 	.R0000000R000000
  0x4c40	e4 51 00 00 00 00 00 00 c2 51 00 00 00 00 00 00 	0Q0000000Q000000
  0x4c50	a0 51 00 00 00 00 00 00 6a 51 00 00 00 00 00 00 	0Q000000jQ000000
  0x4c60	36 51 00 00 00 00 00 00 04 51 00 00 00 00 00 00 	6Q0000000Q000000
  0x4c70	b0 4f 00 00 00 00 00 00 c4 50 00 00 00 00 00 00 	0O0000000P000000
  0x4c80	74 4e 00 00 00 00 00 00 50 4e 00 00 00 00 00 00 	tN000000PN000000
  0x4c90	22 4e 00 00 00 00 00 00 0e 4e 00 00 00 00 00 00 	"N0000000N000000
  0x4ca0	fa 4d 00 00 00 00 00 00 da 4d 00 00 00 00 00 00 	0M0000000M000000
  0x4cb0	b8 4d 00 00 00 00 00 00 76 4d 00 00 00 00 00 00 	0M000000vM000000
  0x4cc0	5a 4d 00 00 00 00 00 00 30 4d 00 00 00 00 00 00 	ZM0000000M000000
  0x4cd0	14 4d 00 00 00 00 00 00 fe 4c 00 00 00 00 00 00 	0M0000000L000000
  0x4ce0	00 00 00 00 00 00 00 00 3b 00 3f 3f 31 44 53 54 	00000000;0??1DST
  0x4cf0	52 49 4e 47 40 40 55 45 41 41 40 58 5a 00 0f 00 	RING@@UEAA@XZ000
  0x4d00	3f 3f 30 44 53 54 52 49 4e 47 40 40 51 45 41 41 	??0DSTRING@@QEAA
  0x4d10	40 58 5a 00 cb 01 47 65 74 5f 53 74 61 6e 64 61 	@XZ000Get_Standa
  0x4d20	72 64 5f 49 6e 70 75 74 5f 53 74 72 65 61 6d 00 	rd_Input_Stream0
  0x4d30	d1 00 3f 49 6e 69 74 69 61 6c 69 7a 65 40 4c 4f 	00?Initialize@LO
  0x4d40	4e 47 5f 41 52 47 55 4d 45 4e 54 40 40 51 45 41 	NG_ARGUMENT@@QEA
  0x4d50	41 45 50 45 41 44 40 5a 00 00 1a 00 3f 3f 30 4c 	AEPEAD@Z0000??0L
  0x4d60	4f 4e 47 5f 41 52 47 55 4d 45 4e 54 40 40 51 45 	ONG_ARGUMENT@@QE
  0x4d70	41 41 40 58 5a 00 4c 01 3f 51 75 65 72 79 53 74 	AA@XZ0L0?QuerySt
  0x4d80	72 65 61 6d 40 46 53 4e 5f 46 49 4c 45 40 40 51 	ream@FSN_FILE@@Q
  0x4d90	45 41 41 50 45 41 56 46 49 4c 45 5f 53 54 52 45 	EAAPEAVFILE_STRE
  0x4da0	41 4d 40 40 57 34 53 54 52 45 41 4d 41 43 43 45 	AM@@W4STREAMACCE
  0x4db0	53 53 40 40 4b 40 5a 00 15 01 3f 50 75 74 40 41 	SS@@K@Z000?Put@A
  0x4dc0	52 52 41 59 40 40 55 45 41 41 45 50 45 41 56 4f 	RRAY@@UEAAEPEAVO
  0x4dd0	42 4a 45 43 54 40 40 40 5a 00 c0 00 3f 49 6e 69 	BJECT@@@Z000?Ini
  0x4de0	74 69 61 6c 69 7a 65 40 41 52 52 41 59 40 40 51 	tialize@ARRAY@@Q
  0x4df0	45 41 41 45 4b 4b 40 5a 00 00 34 00 3f 3f 31 41 	EAAEKK@Z0040??1A
  0x4e00	52 52 41 59 40 40 55 45 41 41 40 58 5a 00 02 00 	RRAY@@UEAA@XZ000
  0x4e10	3f 3f 30 41 52 52 41 59 40 40 51 45 41 41 40 58 	??0ARRAY@@QEAA@X
  0x4e20	5a 00 dc 00 3f 49 6e 69 74 69 61 6c 69 7a 65 40 	Z000?Initialize@
  0x4e30	52 45 53 54 5f 4f 46 5f 4c 49 4e 45 5f 41 52 47 	REST_OF_LINE_ARG
  0x4e40	55 4d 45 4e 54 40 40 51 45 41 41 45 58 5a 00 00 	UMENT@@QEAAEXZ00
  0x4e50	26 00 3f 3f 30 52 45 53 54 5f 4f 46 5f 4c 49 4e 	&0??0REST_OF_LIN
  0x4e60	45 5f 41 52 47 55 4d 45 4e 54 40 40 51 45 41 41 	E_ARGUMENT@@QEAA
  0x4e70	40 58 5a 00 ca 00 3f 49 6e 69 74 69 61 6c 69 7a 	@XZ000?Initializ
  0x4e80	65 40 46 4c 41 47 5f 41 52 47 55 4d 45 4e 54 40 	e@FLAG_ARGUMENT@
  0x4e90	40 51 45 41 41 45 50 45 41 44 40 5a 00 00 10 00 	@QEAAEPEAD@Z0000
  0x4ea0	3f 3f 30 46 4c 41 47 5f 41 52 47 55 4d 45 4e 54 	??0FLAG_ARGUMENT
  0x4eb0	40 40 51 45 41 41 40 58 5a 00 70 01 3f 53 65 74 	@@QEAA@XZ0p0?Set
  0x4ec0	40 53 54 52 45 41 4d 5f 4d 45 53 53 41 47 45 40 	@STREAM_MESSAGE@
  0x4ed0	40 55 45 41 41 45 4b 57 34 4d 45 53 53 41 47 45 	@UEAAEKW4MESSAGE
  0x4ee0	5f 54 59 50 45 40 40 4b 40 5a 00 00 df 00 3f 49 	_TYPE@@K@Z0000?I
  0x4ef0	6e 69 74 69 61 6c 69 7a 65 40 53 54 52 45 41 4d 	nitialize@STREAM
  0x4f00	5f 4d 45 53 53 41 47 45 40 40 51 45 41 41 45 50 	_MESSAGE@@QEAAEP
  0x4f10	45 41 56 53 54 52 45 41 4d 40 40 30 30 40 5a 00 	EAVSTREAM@@00@Z0
  0x4f20	4e 00 3f 3f 31 53 54 52 45 41 4d 5f 4d 45 53 53 	N0??1STREAM_MESS
  0x4f30	41 47 45 40 40 55 45 41 41 40 58 5a 00 00 2a 00 	AGE@@UEAA@XZ00*0
  0x4f40	3f 3f 30 53 54 52 45 41 4d 5f 4d 45 53 53 41 47 	??0STREAM_MESSAG
  0x4f50	45 40 40 51 45 41 41 40 58 5a 00 00 57 01 3f 52 	E@@QEAA@XZ00W0?R
  0x4f60	65 61 64 4c 69 6e 65 40 53 54 52 45 41 4d 40 40 	eadLine@STREAM@@
  0x4f70	51 45 41 41 45 50 45 41 56 57 53 54 52 49 4e 47 	QEAAEPEAVWSTRING
  0x4f80	40 40 45 40 5a 00 d9 00 3f 49 6e 69 74 69 61 6c 	@@E@Z000?Initial
  0x4f90	69 7a 65 40 50 41 54 48 5f 41 52 47 55 4d 45 4e 	ize@PATH_ARGUMEN
  0x4fa0	54 40 40 51 45 41 41 45 50 45 41 44 45 40 5a 00 	T@@QEAAEPEADE@Z0
  0x4fb0	48 00 3f 3f 31 50 41 54 48 5f 41 52 47 55 4d 45 	H0??1PATH_ARGUME
  0x4fc0	4e 54 40 40 55 45 41 41 40 58 5a 00 23 00 3f 3f 	NT@@UEAA@XZ0#0??
  0x4fd0	30 50 41 54 48 5f 41 52 47 55 4d 45 4e 54 40 40 	0PATH_ARGUMENT@@
  0x4fe0	51 45 41 41 40 58 5a 00 2e 01 3f 51 75 65 72 79 	QEAA@XZ0.0?Query
  0x4ff0	46 69 6c 65 40 53 59 53 54 45 4d 40 40 53 41 50 	File@SYSTEM@@SAP
  0x5000	45 41 56 46 53 4e 5f 46 49 4c 45 40 40 50 45 42 	EAVFSN_FILE@@PEB
  0x5010	56 50 41 54 48 40 40 45 50 45 41 45 40 5a 00 00 	VPATH@@EPEAE@Z00
  0x5020	fc 00 3f 49 73 56 61 6c 75 65 53 65 74 40 41 52 	00?IsValueSet@AR
  0x5030	47 55 4d 45 4e 54 40 40 51 45 41 41 45 58 5a 00 	GUMENT@@QEAAEXZ0
  0x5040	46 00 3f 3f 31 4f 42 4a 45 43 54 40 40 55 45 41 	F0??1OBJECT@@UEA
  0x5050	41 40 58 5a 00 00 77 01 3f 53 65 74 43 61 73 65 	A@XZ00w0?SetCase
  0x5060	53 65 6e 73 69 74 69 76 65 40 41 52 47 55 4d 45 	Sensitive@ARGUME
  0x5070	4e 54 5f 4c 45 58 45 4d 49 5a 45 52 40 40 51 45 	NT_LEXEMIZER@@QE
  0x5080	41 41 58 45 40 5a 00 00 14 01 3f 50 72 65 70 61 	AAXE@Z0000?Prepa
  0x5090	72 65 54 6f 50 61 72 73 65 40 41 52 47 55 4d 45 	reToParse@ARGUME
  0x50a0	4e 54 5f 4c 45 58 45 4d 49 5a 45 52 40 40 51 45 	NT_LEXEMIZER@@QE
  0x50b0	41 41 45 50 45 41 56 57 53 54 52 49 4e 47 40 40 	AAEPEAVWSTRING@@
  0x50c0	40 5a 00 00 34 01 3f 51 75 65 72 79 49 6e 76 61 	@Z0040?QueryInva
  0x50d0	6c 69 64 41 72 67 75 6d 65 6e 74 40 41 52 47 55 	lidArgument@ARGU
  0x50e0	4d 45 4e 54 5f 4c 45 58 45 4d 49 5a 45 52 40 40 	MENT_LEXEMIZER@@
  0x50f0	51 45 41 41 50 45 41 56 57 53 54 52 49 4e 47 40 	QEAAPEAVWSTRING@
  0x5100	40 58 5a 00 1c 01 3f 50 75 74 53 65 70 61 72 61 	@XZ000?PutSepara
  0x5110	74 6f 72 73 40 41 52 47 55 4d 45 4e 54 5f 4c 45 	tors@ARGUMENT_LE
  0x5120	58 45 4d 49 5a 45 52 40 40 51 45 41 41 58 50 45 	XEMIZER@@QEAAXPE
  0x5130	42 44 40 5a 00 00 9b 00 3f 44 6f 50 61 72 73 69 	BD@Z0000?DoParsi
  0x5140	6e 67 40 41 52 47 55 4d 45 4e 54 5f 4c 45 58 45 	ng@ARGUMENT_LEXE
  0x5150	4d 49 5a 45 52 40 40 51 45 41 41 45 50 45 41 56 	MIZER@@QEAAEPEAV
  0x5160	41 52 52 41 59 40 40 40 5a 00 bf 00 3f 49 6e 69 	ARRAY@@@Z000?Ini
  0x5170	74 69 61 6c 69 7a 65 40 41 52 47 55 4d 45 4e 54 	tialize@ARGUMENT
  0x5180	5f 4c 45 58 45 4d 49 5a 45 52 40 40 51 45 41 41 	_LEXEMIZER@@QEAA
  0x5190	45 50 45 41 56 41 52 52 41 59 40 40 40 5a 00 00 	EPEAVARRAY@@@Z00
  0x51a0	33 00 3f 3f 31 41 52 47 55 4d 45 4e 54 5f 4c 45 	30??1ARGUMENT_LE
  0x51b0	58 45 4d 49 5a 45 52 40 40 55 45 41 41 40 58 5a 	XEMIZER@@UEAA@XZ
  0x51c0	00 00 01 00 3f 3f 30 41 52 47 55 4d 45 4e 54 5f 	0000??0ARGUMENT_
  0x51d0	4c 45 58 45 4d 49 5a 45 52 40 40 51 45 41 41 40 	LEXEMIZER@@QEAA@
  0x51e0	58 5a 00 00 e0 00 3f 49 6e 69 74 69 61 6c 69 7a 	XZ0000?Initializ
  0x51f0	65 40 53 54 52 49 4e 47 5f 41 52 47 55 4d 45 4e 	e@STRING_ARGUMEN
  0x5200	54 40 40 51 45 41 41 45 50 45 41 44 40 5a 00 00 	T@@QEAAEPEAD@Z00
  0x5210	4f 00 3f 3f 31 53 54 52 49 4e 47 5f 41 52 47 55 	O0??1STRING_ARGU
  0x5220	4d 45 4e 54 40 40 55 45 41 41 40 58 5a 00 2b 00 	MENT@@UEAA@XZ0+0
  0x5230	3f 3f 30 53 54 52 49 4e 47 5f 41 52 47 55 4d 45 	??0STRING_ARGUME
  0x5240	4e 54 40 40 51 45 41 41 40 58 5a 00 08 01 3f 4d 	NT@@QEAA@XZ000?M
  0x5250	61 6b 65 46 69 6c 65 54 6f 6b 65 6e 40 4d 45 53 	akeFileToken@MES
  0x5260	53 41 47 45 40 40 53 41 5f 4b 50 45 42 44 40 5a 	SAGE@@SA_KPEBD@Z
  0x5270	00 00 98 00 3f 44 69 73 70 6c 61 79 4d 73 67 40 	0000?DisplayMsg@
  0x5280	4d 45 53 53 41 47 45 40 40 51 45 41 41 45 4b 57 	MESSAGE@@QEAAEKW
  0x5290	34 4d 45 53 53 41 47 45 5f 54 59 50 45 40 40 4b 	4MESSAGE_TYPE@@K
  0x52a0	50 45 42 44 5a 5a 00 00 92 00 3f 44 69 73 70 6c 	PEBDZZ0000?Displ
  0x52b0	61 79 40 4d 45 53 53 41 47 45 40 40 51 45 41 41 	ay@MESSAGE@@QEAA
  0x52c0	45 50 45 42 44 5a 5a 00 cc 01 47 65 74 5f 53 74 	EPEBDZZ000Get_St
  0x52d0	61 6e 64 61 72 64 5f 4f 75 74 70 75 74 5f 53 74 	andard_Output_St
  0x52e0	72 65 61 6d 00 00 9c 01 3f 53 74 72 63 61 74 40 	ream0000?Strcat@
  0x52f0	57 53 54 52 49 4e 47 40 40 51 45 41 41 45 50 45 	WSTRING@@QEAAEPE
  0x5300	42 56 31 40 40 5a 00 00 54 01 3f 51 75 65 72 79 	BV1@@Z00T0?Query
  0x5310	57 53 54 52 40 57 53 54 52 49 4e 47 40 40 51 45 	WSTR@WSTRING@@QE
  0x5320	42 41 50 45 41 47 4b 4b 50 45 41 47 4b 45 40 5a 	BAPEAGKKPEAGKE@Z
  0x5330	00 00 8d 00 3f 44 65 6c 65 74 65 43 68 41 74 40 	0000?DeleteChAt@
  0x5340	57 53 54 52 49 4e 47 40 40 51 45 41 41 58 4b 4b 	WSTRING@@QEAAXKK
  0x5350	40 5a 00 00 ea 00 3f 49 6e 69 74 69 61 6c 69 7a 	@Z0000?Initializ
  0x5360	65 40 57 53 54 52 49 4e 47 40 40 51 45 41 41 45 	e@WSTRING@@QEAAE
  0x5370	50 45 42 56 31 40 4b 4b 40 5a 00 00 e9 00 3f 49 	PEBV1@KK@Z0000?I
  0x5380	6e 69 74 69 61 6c 69 7a 65 40 57 53 54 52 49 4e 	nitialize@WSTRIN
  0x5390	47 40 40 51 45 41 41 45 50 45 42 47 4b 40 5a 00 	G@@QEAAEPEBGK@Z0
  0x53a0	e8 00 3f 49 6e 69 74 69 61 6c 69 7a 65 40 57 53 	00?Initialize@WS
  0x53b0	54 52 49 4e 47 40 40 51 45 41 41 45 50 45 42 44 	TRING@@QEAAEPEBD
  0x53c0	4b 40 5a 00 9e 01 3f 53 74 72 63 68 72 40 57 53 	K@Z000?Strchr@WS
  0x53d0	54 52 49 4e 47 40 40 51 45 42 41 4b 47 4b 40 5a 	TRING@@QEBAKGK@Z
  0x53e0	00 00 a9 01 3f 53 74 72 69 63 6d 70 40 57 53 54 	0000?Stricmp@WST
  0x53f0	52 49 4e 47 40 40 51 45 42 41 4a 50 45 42 56 31 	RING@@QEBAJPEBV1
  0x5400	40 40 5a 00 75 6c 69 62 2e 64 6c 6c 00 00 ea 01 	@@Z0ulib.dll0000
  0x5410	47 65 74 43 6f 6e 73 6f 6c 65 41 6c 69 61 73 45 	GetConsoleAliasE
  0x5420	78 65 73 4c 65 6e 67 74 68 57 00 00 f0 01 47 65 	xesLengthW0000Ge
  0x5430	74 43 6f 6e 73 6f 6c 65 41 6c 69 61 73 65 73 57 	tConsoleAliasesW
  0x5440	00 00 da 02 47 65 74 53 74 64 48 61 6e 64 6c 65 	0000GetStdHandle
  0x5450	00 00 08 05 53 65 74 43 6f 6e 73 6f 6c 65 4e 75 	0000SetConsoleNu
  0x5460	6d 62 65 72 4f 66 43 6f 6d 6d 61 6e 64 73 57 00 	mberOfCommandsW0
  0x5470	05 05 53 65 74 43 6f 6e 73 6f 6c 65 4d 6f 64 65 	00SetConsoleMode
  0x5480	00 00 eb 01 47 65 74 43 6f 6e 73 6f 6c 65 41 6c 	0000GetConsoleAl
  0x5490	69 61 73 45 78 65 73 57 00 00 f6 01 47 65 74 43 	iasExesW0000GetC
  0x54a0	6f 6e 73 6f 6c 65 43 6f 6d 6d 61 6e 64 48 69 73 	onsoleCommandHis
  0x54b0	74 6f 72 79 57 00 6b 01 45 78 70 75 6e 67 65 43 	toryW0k0ExpungeC
  0x54c0	6f 6e 73 6f 6c 65 43 6f 6d 6d 61 6e 64 48 69 73 	onsoleCommandHis
  0x54d0	74 6f 72 79 57 00 03 02 47 65 74 43 6f 6e 73 6f 	toryW000GetConso
  0x54e0	6c 65 4d 6f 64 65 00 00 ef 01 47 65 74 43 6f 6e 	leMode0000GetCon
  0x54f0	73 6f 6c 65 41 6c 69 61 73 65 73 4c 65 6e 67 74 	soleAliasesLengt
  0x5500	68 57 00 00 57 03 48 65 61 70 53 65 74 49 6e 66 	hW00W0HeapSetInf
  0x5510	6f 72 6d 61 74 69 6f 6e 00 00 07 00 41 64 64 43 	ormation0000AddC
  0x5520	6f 6e 73 6f 6c 65 41 6c 69 61 73 57 00 00 f5 01 	onsoleAliasW0000
  0x5530	47 65 74 43 6f 6e 73 6f 6c 65 43 6f 6d 6d 61 6e 	GetConsoleComman
  0x5540	64 48 69 73 74 6f 72 79 4c 65 6e 67 74 68 57 00 	dHistoryLengthW0
  0x5550	4b 45 52 4e 45 4c 33 32 2e 64 6c 6c 00 00 d3 02 	KERNEL32.dll0000
  0x5560	52 74 6c 41 6c 6c 6f 63 61 74 65 48 65 61 70 00 	RtlAllocateHeap0
  0x5570	f6 03 52 74 6c 46 72 65 65 48 65 61 70 00 6e 74 	00RtlFreeHeap0nt
  0x5580	64 6c 6c 2e 64 6c 6c 00 55 00 5f 58 63 70 74 46 	dll.dll0U0_XcptF
  0x5590	69 6c 74 65 72 00 ae 00 5f 61 6d 73 67 5f 65 78 	ilter000_amsg_ex
  0x55a0	69 74 00 00 7f 00 5f 5f 67 65 74 6d 61 69 6e 61 	it0000__getmaina
  0x55b0	72 67 73 00 8e 00 5f 5f 73 65 74 5f 61 70 70 5f 	rgs000__set_app_
  0x55c0	74 79 70 65 00 00 32 04 65 78 69 74 00 00 0e 01 	type0020exit0000
  0x55d0	5f 65 78 69 74 00 c1 00 5f 63 65 78 69 74 00 00 	_exit000_cexit00
  0x55e0	90 00 5f 5f 73 65 74 75 73 65 72 6d 61 74 68 65 	00__setusermathe
  0x55f0	72 72 00 00 7d 01 5f 69 6e 69 74 74 65 72 6d 00 	rr00}0_initterm0
  0x5600	57 00 5f 5f 43 5f 73 70 65 63 69 66 69 63 5f 68 	W0__C_specific_h
  0x5610	61 6e 64 6c 65 72 00 00 27 01 5f 66 6d 6f 64 65 	andler00'0_fmode
  0x5620	00 00 d2 00 5f 63 6f 6d 6d 6f 64 65 00 00 2f 00 	0000_commode00/0
  0x5630	3f 74 65 72 6d 69 6e 61 74 65 40 40 59 41 58 58 	?terminate@@YAXX
  0x5640	5a 00 6d 73 76 63 72 74 2e 64 6c 6c 00 00 8a 05 	Z0msvcrt.dll0000
  0x5650	53 6c 65 65 70 00 7a 05 53 65 74 55 6e 68 61 6e 	Sleep0z0SetUnhan
  0x5660	64 6c 65 64 45 78 63 65 70 74 69 6f 6e 46 69 6c 	dledExceptionFil
  0x5670	74 65 72 00 7f 02 47 65 74 4d 6f 64 75 6c 65 48 	ter000GetModuleH
  0x5680	61 6e 64 6c 65 57 00 00 4e 04 51 75 65 72 79 50 	andleW00N0QueryP
  0x5690	65 72 66 6f 72 6d 61 6e 63 65 43 6f 75 6e 74 65 	erformanceCounte
  0x56a0	72 00 1f 02 47 65 74 43 75 72 72 65 6e 74 50 72 	r000GetCurrentPr
  0x56b0	6f 63 65 73 73 49 64 00 23 02 47 65 74 43 75 72 	ocessId0#0GetCur
  0x56c0	72 65 6e 74 54 68 72 65 61 64 49 64 00 00 f1 02 	rentThreadId0000
  0x56d0	47 65 74 53 79 73 74 65 6d 54 69 6d 65 41 73 46 	GetSystemTimeAsF
  0x56e0	69 6c 65 54 69 6d 65 00 0f 03 47 65 74 54 69 63 	ileTime000GetTic
  0x56f0	6b 43 6f 75 6e 74 00 00 d1 04 52 74 6c 43 61 70 	kCount0000RtlCap
  0x5700	74 75 72 65 43 6f 6e 74 65 78 74 00 d8 04 52 74 	tureContext000Rt
  0x5710	6c 4c 6f 6f 6b 75 70 46 75 6e 63 74 69 6f 6e 45 	lLookupFunctionE
  0x5720	6e 74 72 79 00 00 df 04 52 74 6c 56 69 72 74 75 	ntry0000RtlVirtu
  0x5730	61 6c 55 6e 77 69 6e 64 00 00 bb 05 55 6e 68 61 	alUnwind0000Unha
  0x5740	6e 64 6c 65 64 45 78 63 65 70 74 69 6f 6e 46 69 	ndledExceptionFi
  0x5750	6c 74 65 72 00 00 1e 02 47 65 74 43 75 72 72 65 	lter0000GetCurre
  0x5760	6e 74 50 72 6f 63 65 73 73 00 99 05 54 65 72 6d 	ntProcess000Term
  0x5770	69 6e 61 74 65 50 72 6f 63 65 73 73 00 00 00 00 	inateProcess0000
  0x5780	00 00 00 00 00 00 00 00 00 00 00 00 00 00 00 00 	0000000000000000
  0x5790	00 00 00 00 00 00 00 00 00 00 00 00 00 00 00 00 	0000000000000000
  0x57a0	00 00 00 00 00 00 00 00 00 00 00 00 00 00 00 00 	0000000000000000
  0x57b0	00 00 00 00 00 00 00 00 00 00 00 00 00 00 00 00 	0000000000000000
  0x57c0	00 00 00 00 00 00 00 00 00 00 00 00 00 00 00 00 	0000000000000000
  0x57d0	00 00 00 00 00 00 00 00 00 00 00 00 00 00 00 00 	0000000000000000
  0x57e0	00 00 00 00 00 00 00 00 00 00 00 00 00 00 00 00 	0000000000000000
  0x57f0	00 00 00 00 00 00 00 00 00 00 00 00 00 00 00 00 	0000000000000000
=== DATA BLOCK END ===

=== DATA BLOCK ADDRESS 0x6000 ===
  0x6000	01 00 00 00 00 00 00 00 32 a2 df 2d 99 2b 00 00 	00000000200-0+00
  0x6010	cd 5d 20 d2 66 d4 ff ff 00 00 00 00 00 00 00 00 	0] 0f00000000000
  0x6020	00 00 00 00 00 00 00 00 00 00 00 00 00 00 00 00 	0000000000000000
  0x6030	00 00 00 00 00 00 00 00 00 00 00 00 00 00 00 00 	0000000000000000
  0x6040	00 00 00 00 00 00 00 00 00 00 00 00 00 00 00 00 	0000000000000000
  0x6050	00 00 00 00 00 00 00 00 00 00 00 00 00 00 00 00 	0000000000000000
  0x6060	00 00 00 00 00 00 00 00 00 00 00 00 00 00 00 00 	0000000000000000
  0x6070	00 00 00 00 00 00 00 00 00 00 00 00 00 00 00 00 	0000000000000000
  0x6080	00 00 00 00 00 00 00 00 00 00 00 00 00 00 00 00 	0000000000000000
  0x6090	00 00 00 00 00 00 00 00 00 00 00 00 00 00 00 00 	0000000000000000
  0x60a0	00 00 00 00 00 00 00 00 00 00 00 00 00 00 00 00 	0000000000000000
  0x60b0	00 00 00 00 00 00 00 00 00 00 00 00 00 00 00 00 	0000000000000000
  0x60c0	00 00 00 00 00 00 00 00 00 00 00 00 00 00 00 00 	0000000000000000
  0x60d0	00 00 00 00 00 00 00 00 00 00 00 00 00 00 00 00 	0000000000000000
  0x60e0	00 00 00 00 00 00 00 00 00 00 00 00 00 00 00 00 	0000000000000000
  0x60f0	00 00 00 00 00 00 00 00 00 00 00 00 00 00 00 00 	0000000000000000
  0x6100	00 00 00 00 00 00 00 00 00 00 00 00 00 00 00 00 	0000000000000000
  0x6110	00 00 00 00 00 00 00 00 00 00 00 00 00 00 00 00 	0000000000000000
  0x6120	00 00 00 00 00 00 00 00 00 00 00 00 00 00 00 00 	0000000000000000
  0x6130	00 00 00 00 00 00 00 00 00 00 00 00 00 00 00 00 	0000000000000000
  0x6140	00 00 00 00 00 00 00 00 00 00 00 00 00 00 00 00 	0000000000000000
  0x6150	00 00 00 00 00 00 00 00 00 00 00 00 00 00 00 00 	0000000000000000
  0x6160	00 00 00 00 00 00 00 00 00 00 00 00 00 00 00 00 	0000000000000000
  0x6170	00 00 00 00 00 00 00 00 00 00 00 00 00 00 00 00 	0000000000000000
  0x6180	00 00 00 00 00 00 00 00 00 00 00 00 00 00 00 00 	0000000000000000
  0x6190	00 00 00 00 00 00 00 00 00 00 00 00 00 00 00 00 	0000000000000000
  0x61a0	00 00 00 00 00 00 00 00 00 00 00 00 00 00 00 00 	0000000000000000
  0x61b0	00 00 00 00 00 00 00 00 00 00 00 00 00 00 00 00 	0000000000000000
  0x61c0	00 00 00 00 00 00 00 00 00 00 00 00 00 00 00 00 	0000000000000000
  0x61d0	00 00 00 00 00 00 00 00 00 00 00 00 00 00 00 00 	0000000000000000
  0x61e0	00 00 00 00 00 00 00 00 00 00 00 00 00 00 00 00 	0000000000000000
  0x61f0	00 00 00 00 00 00 00 00 00 00 00 00 00 00 00 00 	0000000000000000
=== DATA BLOCK END ===

=== DATA BLOCK ADDRESS 0x7000 ===
  0x7000	08 10 00 00 6c 10 00 00 40 48 00 00 74 10 00 00 	0000l000@H00t000
  0x7010	c5 11 00 00 48 48 00 00 cc 11 00 00 55 13 00 00 	0000HH000000U000
  0x7020	64 48 00 00 5c 13 00 00 8a 14 00 00 7c 48 00 00 	dH0000000000|H00
  0x7030	90 14 00 00 1f 17 00 00 94 48 00 00 28 17 00 00 	000000000H00(000
  0x7040	ed 1a 00 00 b4 48 00 00 f4 1a 00 00 f3 2b 00 00 	00000H0000000+00
  0x7050	d4 48 00 00 00 2c 00 00 d3 2c 00 00 ec 48 00 00 	0H000,000,000H00
  0x7060	e0 2c 00 00 29 2d 00 00 f4 48 00 00 30 2d 00 00 	0,00)-000H000-00
  0x7070	ee 2e 00 00 fc 48 00 00 00 2f 00 00 12 2f 00 00 	0.000H000/000/00
  0x7080	ec 48 00 00 30 2f 00 00 4e 2f 00 00 30 49 00 00 	0H000/00N/000I00
  0x7090	60 2f 00 00 99 2f 00 00 ec 48 00 00 a0 2f 00 00 	`/000/000H000/00
  0x70a0	b8 2f 00 00 ec 48 00 00 cc 2f 00 00 20 30 00 00 	0/000H000/00 000
  0x70b0	34 49 00 00 28 30 00 00 6d 30 00 00 40 48 00 00 	4I00(000m000@H00
  0x70c0	e0 30 00 00 2d 31 00 00 54 49 00 00 74 31 00 00 	0000-100TI00t100
  0x70d0	48 32 00 00 78 49 00 00 7c 32 00 00 b0 32 00 00 	H200xI00|2000200
  0x70e0	40 48 00 00 c0 32 00 00 31 34 00 00 84 49 00 00 	@H00020014000I00
  0x70f0	50 34 00 00 52 34 00 00 90 49 00 00 60 34 00 00 	P400R4000I00`400
  0x7100	7e 34 00 00 28 49 00 00 90 34 00 00 b0 34 00 00 	~400(I0004000400
  0x7110	28 49 00 00 00 00 00 00 00 00 00 00 00 00 00 00 	(I00000000000000
  0x7120	00 00 00 00 00 00 00 00 00 00 00 00 00 00 00 00 	0000000000000000
  0x7130	00 00 00 00 00 00 00 00 00 00 00 00 00 00 00 00 	0000000000000000
  0x7140	00 00 00 00 00 00 00 00 00 00 00 00 00 00 00 00 	0000000000000000
  0x7150	00 00 00 00 00 00 00 00 00 00 00 00 00 00 00 00 	0000000000000000
  0x7160	00 00 00 00 00 00 00 00 00 00 00 00 00 00 00 00 	0000000000000000
  0x7170	00 00 00 00 00 00 00 00 00 00 00 00 00 00 00 00 	0000000000000000
  0x7180	00 00 00 00 00 00 00 00 00 00 00 00 00 00 00 00 	0000000000000000
  0x7190	00 00 00 00 00 00 00 00 00 00 00 00 00 00 00 00 	0000000000000000
  0x71a0	00 00 00 00 00 00 00 00 00 00 00 00 00 00 00 00 	0000000000000000
  0x71b0	00 00 00 00 00 00 00 00 00 00 00 00 00 00 00 00 	0000000000000000
  0x71c0	00 00 00 00 00 00 00 00 00 00 00 00 00 00 00 00 	0000000000000000
  0x71d0	00 00 00 00 00 00 00 00 00 00 00 00 00 00 00 00 	0000000000000000
  0x71e0	00 00 00 00 00 00 00 00 00 00 00 00 00 00 00 00 	0000000000000000
  0x71f0	00 00 00 00 00 00 00 00 00 00 00 00 00 00 00 00 	0000000000000000
=== DATA BLOCK END ===
