===== Assembly blocks =====

=== CODE BLOCK ADDRESS 0x1000 ===
  0x1000	int3   	
  0x1001	int3   	
  0x1002	int3   	
  0x1003	int3   	
  0x1004	int3   	
  === BLOCK LINK ===
    0x1005
=== CODE BLOCK END ===

=== CODE BLOCK ADDRESS 0x1005 ===
  0x1005	int3   	
  0x1006	int3   	
  0x1007	int3   	
  0x1008	inc    	eax
  0x1009	push   	ebp
  === BLOCK LINK ===
    0x100a
=== CODE BLOCK END ===

=== CODE BLOCK ADDRESS 0x100a ===
  0x100a	dec    	eax
  0x100b	lea    	ebp, [esp - 0x57]
  0x100f	dec    	eax
  0x1010	sub    	esp, 0x100
  0x1016	xor    	edx, edx
  === BLOCK LINK ===
    0x1018
=== CODE BLOCK END ===

=== CODE BLOCK ADDRESS 0x1018 ===
  0x1018	dec    	eax
  0x1019	lea    	ecx, [esp + 0x20]
  0x101d	inc    	esp
  0x101e	lea    	eax, [edx + 0x70]
  0x1021	call   	0x19c6
  === BLOCK LINK ===
    0x1026
    0x19c6
=== CODE BLOCK END ===

=== CODE BLOCK ADDRESS 0x1026 ===
  0x1026	inc    	ebp
  0x1027	xor    	ecx, ecx
  0x1029	inc    	ebp
  0x102a	xor    	eax, eax
  0x102c	xor    	ecx, ecx
  === BLOCK LINK ===
    0x102e
=== CODE BLOCK END ===

=== CODE BLOCK ADDRESS 0x102e ===
  0x102e	inc    	ecx
  0x102f	lea    	edx, [ecx + 1]
  0x1032	dec    	eax
  0x1033	call   	dword ptr [0x10f7]
  === BLOCK LINK ===
    0x1039
=== CODE BLOCK END ===

=== CODE BLOCK ADDRESS 0x1039 ===
  0x1039	nop    	dword ptr [eax + eax]
  0x103e	and    	dword ptr [ebp + 0x23], 0
  0x1042	dec    	eax
  0x1043	lea    	ecx, [ebp - 0x19]
  0x1046	dec    	eax
  === BLOCK LINK ===
    0x1047
=== CODE BLOCK END ===

=== CODE BLOCK ADDRESS 0x1047 ===
  0x1047	call   	dword ptr [0x10db]
  === BLOCK LINK ===
    0x104d
=== CODE BLOCK END ===

=== CODE BLOCK ADDRESS 0x104d ===
  0x104d	nop    	dword ptr [eax + eax]
  0x1052	mov    	edx, 6
  0x1057	xor    	ecx, ecx
  0x1059	dec    	eax
  0x105a	call   	dword ptr [0x1168]
  === BLOCK LINK ===
    0x1060
=== CODE BLOCK END ===

=== CODE BLOCK ADDRESS 0x1060 ===
  0x1060	nop    	dword ptr [eax + eax]
  0x1065	dec    	eax
  0x1066	and    	dword ptr [ebp - 0x79], 0
  0x106a	dec    	eax
  0x106b	lea    	eax, [0x124f]
  === BLOCK LINK ===
    0x1071
=== CODE BLOCK END ===

=== CODE BLOCK ADDRESS 0x1071 ===
  0x1071	test   	byte ptr [ebp + 0x23], 1
  0x1075	mov    	ecx, 0xa
  0x107a	dec    	eax
  0x107b	mov    	dword ptr [ebp - 0x71], eax
  0x107e	movzx  	eax, word ptr [ebp + 0x27]
  === BLOCK LINK ===
    0x1082
=== CODE BLOCK END ===

=== CODE BLOCK ADDRESS 0x1082 ===
  0x1082	cmovne  	ecx, eax
  0x1085	mov    	dword ptr [esp + 0x20], 0x70
  0x108d	dec    	eax
  0x108e	and    	dword ptr [esp + 0x28], 0
  0x1093	dec    	eax
  === BLOCK LINK ===
    0x1094
=== CODE BLOCK END ===

=== CODE BLOCK ADDRESS 0x1094 ===
  0x1094	lea    	eax, [0x126e]
  0x109a	mov    	dword ptr [ebp - 0x59], ecx
  0x109d	dec    	eax
  0x109e	lea    	ecx, [esp + 0x20]
  0x10a2	mov    	dword ptr [esp + 0x24], 0x600
  === BLOCK LINK ===
    0x10aa
=== CODE BLOCK END ===

=== CODE BLOCK ADDRESS 0x10aa ===
  0x10aa	dec    	eax
  0x10ab	mov    	dword ptr [ebp - 0x69], eax
  0x10ae	dec    	eax
  0x10af	call   	dword ptr [0x10fb]
  === BLOCK LINK ===
    0x10b5
=== CODE BLOCK END ===

=== CODE BLOCK ADDRESS 0x10b5 ===
  0x10b5	nop    	dword ptr [eax + eax]
  0x10ba	dec    	eax
  0x10bb	call   	dword ptr [0x10ff]
  === BLOCK LINK ===
    0x10c1
=== CODE BLOCK END ===

=== CODE BLOCK ADDRESS 0x10c1 ===
  0x10c1	nop    	dword ptr [eax + eax]
  0x10c6	xor    	eax, eax
  0x10c8	dec    	eax
  0x10c9	add    	esp, 0x100
  0x10cf	pop    	ebp
  === BLOCK LINK ===
    0x10d0
=== CODE BLOCK END ===

=== CODE BLOCK ADDRESS 0x10d0 ===
  0x10d0	ret    	
  0x10d1	int3   	
  0x10d2	int3   	
  0x10d3	int3   	
  0x10d4	int3   	
  === BLOCK LINK ===
    0x10d5
=== CODE BLOCK END ===

=== CODE BLOCK ADDRESS 0x19c6 ===
=== CODE BLOCK END ===

=== CODE BLOCK ADDRESS 0x10d5 ===
  0x10d5	int3   	
  0x10d6	int3   	
  0x10d7	int3   	
  0x10d8	int3   	
  0x10d9	int3   	
  === BLOCK LINK ===
    0x10da
=== CODE BLOCK END ===

=== CODE BLOCK ADDRESS 0x10da ===
  0x10da	int3   	
  0x10db	int3   	
  0x10dc	int3   	
  0x10dd	int3   	
  0x10de	int3   	
  === BLOCK LINK ===
    0x10df
=== CODE BLOCK END ===

=== CODE BLOCK ADDRESS 0x10df ===
  0x10df	int3   	
  0x10e0	dec    	eax
  0x10e1	sub    	esp, 0x28
  0x10e4	mov    	eax, 0x5a4d
  0x10e9	cmp    	word ptr [0xffffef10], ax
  === BLOCK LINK ===
    0x10f0
=== CODE BLOCK END ===

=== CODE BLOCK ADDRESS 0x10f0 ===
  0x10f0	je     	0x10f6
  === BLOCK LINK ===
    0x10f2
    0x10f6
=== CODE BLOCK END ===

=== CODE BLOCK ADDRESS 0x10f2 ===
  0x10f2	xor    	eax, eax
  0x10f4	jmp    	0x1149
  === BLOCK LINK ===
    0x10f6
    0x1149
=== CODE BLOCK END ===

=== CODE BLOCK ADDRESS 0x10f6 ===
  0x10f6	dec    	eax
  0x10f7	arpl   	word ptr [0xffffef3f], cx
  0x10fd	dec    	eax
  0x10fe	lea    	eax, [0xffffeefc]
  0x1104	dec    	eax
  === BLOCK LINK ===
    0x1105
=== CODE BLOCK END ===

=== CODE BLOCK ADDRESS 0x1105 ===
  0x1105	add    	ecx, eax
  0x1107	cmp    	dword ptr [ecx], 0x4550
  0x110d	jne    	0x10f2
  === BLOCK LINK ===
    0x110f
    0x10f2
=== CODE BLOCK END ===

=== CODE BLOCK ADDRESS 0x110f ===
  0x110f	mov    	eax, 0x10b
  0x1114	cmp    	word ptr [ecx + 0x18], ax
  0x1118	je     	0x1138
  === BLOCK LINK ===
    0x111a
    0x1138
=== CODE BLOCK END ===

=== CODE BLOCK ADDRESS 0x111a ===
  0x111a	mov    	eax, 0x20b
  0x111f	cmp    	word ptr [ecx + 0x18], ax
  0x1123	jne    	0x10f2
  === BLOCK LINK ===
    0x1125
    0x10f2
=== CODE BLOCK END ===

=== CODE BLOCK ADDRESS 0x1125 ===
  0x1125	xor    	eax, eax
  0x1127	cmp    	dword ptr [ecx + 0x84], 0xe
  0x112e	jbe    	0x1149
  === BLOCK LINK ===
    0x1130
    0x1149
=== CODE BLOCK END ===

=== CODE BLOCK ADDRESS 0x1130 ===
  0x1130	cmp    	dword ptr [ecx + 0xf8], eax
  0x1136	jmp    	0x1146
  === BLOCK LINK ===
    0x1138
    0x1146
=== CODE BLOCK END ===

=== CODE BLOCK ADDRESS 0x1138 ===
  0x1138	xor    	eax, eax
  0x113a	cmp    	dword ptr [ecx + 0x74], 0xe
  0x113e	jbe    	0x1149
  === BLOCK LINK ===
    0x1140
    0x1149
=== CODE BLOCK END ===

=== CODE BLOCK ADDRESS 0x1140 ===
  0x1140	cmp    	dword ptr [ecx + 0xe8], eax
  === BLOCK LINK ===
    0x1146
    0x15a8
=== CODE BLOCK END ===

=== CODE BLOCK ADDRESS 0x1159 ===
  0x1159	mov    	ecx, eax
  0x115b	call   	dword ptr [0x10c7]
  === BLOCK LINK ===
    0x1161
=== CODE BLOCK END ===

=== CODE BLOCK ADDRESS 0x1161 ===
  0x1161	dec    	eax
  0x1162	mov    	ecx, dword ptr [0x1080]
  0x1168	dec    	eax
  0x1169	or     	eax, 0xffffffff
  0x116c	dec    	eax
  === BLOCK LINK ===
    0x116d
=== CODE BLOCK END ===

=== CODE BLOCK ADDRESS 0x116d ===
  0x116d	mov    	dword ptr [0x245d], eax
  0x1173	dec    	eax
  0x1174	mov    	dword ptr [0x245e], eax
  0x117a	mov    	eax, dword ptr [0x1ed4]
  0x1180	mov    	dword ptr [ecx], eax
  === BLOCK LINK ===
    0x1182
=== CODE BLOCK END ===

=== CODE BLOCK ADDRESS 0x1182 ===
  0x1182	dec    	eax
  0x1183	mov    	ecx, dword ptr [0x1057]
  0x1189	mov    	eax, dword ptr [0x1eb9]
  0x118f	mov    	dword ptr [ecx], eax
  0x1191	call   	0x1600
  === BLOCK LINK ===
    0x1196
    0x1600
=== CODE BLOCK END ===

=== CODE BLOCK ADDRESS 0x1196 ===
  0x1196	cmp    	dword ptr [0x1e63], 0
  0x119d	jne    	0x11ac
  === BLOCK LINK ===
    0x119f
    0x11ac
=== CODE BLOCK END ===

=== CODE BLOCK ADDRESS 0x119f ===
  0x119f	dec    	eax
  0x11a0	lea    	ecx, [0x45a]
  0x11a6	call   	dword ptr [0x105c]
  === BLOCK LINK ===
    0x11ac
=== CODE BLOCK END ===

=== CODE BLOCK ADDRESS 0x11ac ===
  0x11ac	xor    	eax, eax
  0x11ae	dec    	eax
  0x11af	add    	esp, 0x28
  0x11b2	ret    	
  0x11b3	int3   	
  === BLOCK LINK ===
    0x11b4
=== CODE BLOCK END ===

=== CODE BLOCK ADDRESS 0x11b4 ===
  0x11b4	int3   	
  0x11b5	int3   	
  0x11b6	int3   	
  0x11b7	int3   	
  0x11b8	int3   	
  === BLOCK LINK ===
    0x11b9
=== CODE BLOCK END ===

=== CODE BLOCK ADDRESS 0x11b9 ===
  0x11b9	int3   	
  0x11ba	int3   	
  0x11bb	int3   	
  0x11bc	int3   	
  0x11bd	int3   	
  === BLOCK LINK ===
    0x11be
=== CODE BLOCK END ===

=== CODE BLOCK ADDRESS 0x11be ===
  0x11be	int3   	
  0x11bf	int3   	
  0x11c0	dec    	eax
  0x11c1	sub    	esp, 0x38
  0x11c4	mov    	eax, dword ptr [0x1e86]
  === BLOCK LINK ===
    0x11ca
=== CODE BLOCK END ===

=== CODE BLOCK ADDRESS 0x11ca ===
  0x11ca	dec    	esp
  0x11cb	lea    	eax, [0x1e67]
  0x11d1	inc    	esp
  0x11d2	mov    	ecx, dword ptr [0x1e74]
  0x11d8	dec    	eax
  === BLOCK LINK ===
    0x11d9
=== CODE BLOCK END ===

=== CODE BLOCK ADDRESS 0x11d9 ===
  0x11d9	lea    	edx, [0x1e51]
  0x11df	mov    	dword ptr [0x1e5f], eax
  0x11e5	dec    	eax
  0x11e6	lea    	ecx, [0x1e3c]
  0x11ec	dec    	eax
  === BLOCK LINK ===
    0x11ed
=== CODE BLOCK END ===

=== CODE BLOCK ADDRESS 0x11ed ===
  0x11ed	lea    	eax, [0x1e51]
  0x11f3	dec    	eax
  0x11f4	mov    	dword ptr [esp + 0x20], eax
  0x11f8	call   	dword ptr [0x1032]
  === BLOCK LINK ===
    0x11fe
=== CODE BLOCK END ===

=== CODE BLOCK ADDRESS 0x11fe ===
  0x11fe	mov    	dword ptr [0x1e28], eax
  0x1204	dec    	eax
  0x1205	add    	esp, 0x38
  0x1208	ret    	
  0x1209	int3   	
  === BLOCK LINK ===
    0x120a
=== CODE BLOCK END ===

=== CODE BLOCK ADDRESS 0x1149 ===
  0x1149	mov    	ecx, 2
  0x114e	mov    	dword ptr [0x1eec], eax
  0x1154	call   	0x15a8
  === BLOCK LINK ===
    0x1159
=== CODE BLOCK END ===

=== CODE BLOCK ADDRESS 0x120a ===
  0x120a	int3   	
  0x120b	int3   	
  0x120c	int3   	
  0x120d	int3   	
  0x120e	int3   	
  === BLOCK LINK ===
    0x120f
=== CODE BLOCK END ===

=== CODE BLOCK ADDRESS 0x120f ===
  0x120f	int3   	
  0x1210	dec    	eax
  0x1211	mov    	eax, esp
  0x1213	dec    	eax
  0x1214	mov    	dword ptr [eax + 8], ebx
  === BLOCK LINK ===
    0x1217
=== CODE BLOCK END ===

=== CODE BLOCK ADDRESS 0x1217 ===
  0x1217	dec    	eax
  0x1218	mov    	dword ptr [eax + 0x10], esi
  0x121b	dec    	eax
  0x121c	mov    	dword ptr [eax + 0x18], edi
  0x121f	dec    	esp
  === BLOCK LINK ===
    0x1220
=== CODE BLOCK END ===

=== CODE BLOCK ADDRESS 0x1220 ===
  0x1220	mov    	dword ptr [eax + 0x20], esi
  0x1223	inc    	ecx
  0x1224	push   	edi
  0x1225	dec    	eax
  0x1226	sub    	esp, 0xb0
  === BLOCK LINK ===
    0x122c
=== CODE BLOCK END ===

=== CODE BLOCK ADDRESS 0x122c ===
  0x122c	inc    	ebp
  0x122d	xor    	esi, esi
  0x122f	inc    	esp
  0x1230	mov    	dword ptr [esp + 0x20], esi
  0x1234	dec    	eax
  === BLOCK LINK ===
    0x1235
=== CODE BLOCK END ===

=== CODE BLOCK ADDRESS 0x1235 ===
  0x1235	lea    	ecx, [eax - 0x78]
  0x1238	call   	dword ptr [0xeea]
  === BLOCK LINK ===
    0x123e
=== CODE BLOCK END ===

=== CODE BLOCK ADDRESS 0x123e ===
  0x123e	nop    	
  0x123f	dec    	eax
  0x1241	mov    	eax, dword ptr [0x30]
  0x1248	dec    	eax
  0x1249	mov    	ebx, dword ptr [eax + 8]
  === BLOCK LINK ===
    0x124c
=== CODE BLOCK END ===

=== CODE BLOCK ADDRESS 0x124c ===
  0x124c	inc    	ecx
  0x124d	mov    	esi, esi
  === BLOCK LINK ===
    0x124f
=== CODE BLOCK END ===

=== CODE BLOCK ADDRESS 0x1253 ===
  0x1253	cmpxchg  	dword ptr [0x2386], ebx
  0x125a	je     	0x1277
  === BLOCK LINK ===
    0x125c
    0x1277
=== CODE BLOCK END ===

=== CODE BLOCK ADDRESS 0x125c ===
  0x125c	dec    	eax
  0x125d	cmp    	eax, ebx
  0x125f	jne    	0x126a
  === BLOCK LINK ===
    0x1261
    0x126a
=== CODE BLOCK END ===

=== CODE BLOCK ADDRESS 0x1261 ===
  0x1261	mov    	ebx, 1
  0x1266	mov    	esi, ebx
  0x1268	jmp    	0x127c
  === BLOCK LINK ===
    0x126a
    0x127c
=== CODE BLOCK END ===

=== CODE BLOCK ADDRESS 0x126a ===
  0x126a	mov    	ecx, 0x3e8
  0x126f	call   	dword ptr [0xf23]
  === BLOCK LINK ===
    0x1275
=== CODE BLOCK END ===

=== CODE BLOCK ADDRESS 0x1275 ===
  0x1275	jmp    	0x124f
  === BLOCK LINK ===
    0x1277
    0x124f
=== CODE BLOCK END ===

=== CODE BLOCK ADDRESS 0x1277 ===
  0x1277	mov    	ebx, 1
  === BLOCK LINK ===
    0x127c
    0x1294
=== CODE BLOCK END ===

=== CODE BLOCK ADDRESS 0x1286 ===
  0x1286	mov    	edi, 0x1f
  0x128b	mov    	ecx, edi
  0x128d	call   	0x15f3
  === BLOCK LINK ===
    0x1292
    0x15f3
=== CODE BLOCK END ===

=== CODE BLOCK ADDRESS 0x1292 ===
  0x1292	jmp    	0x1300
  === BLOCK LINK ===
    0x1294
    0x1300
=== CODE BLOCK END ===

=== CODE BLOCK ADDRESS 0x1294 ===
  0x1294	mov    	eax, dword ptr [0x234e]
  0x129a	test   	eax, eax
  0x129c	jne    	0x12f5
  === BLOCK LINK ===
    0x129e
=== CODE BLOCK END ===

=== CODE BLOCK ADDRESS 0x129e ===
  0x129e	mov    	dword ptr [0x2344], ebx
  0x12a4	dec    	esp
  0x12a5	lea    	edi, [0xfed]
  0x12ab	dec    	eax
  0x12ac	lea    	edi, [0xfce]
  === BLOCK LINK ===
    0x12b2
=== CODE BLOCK END ===

=== CODE BLOCK ADDRESS 0x12b2 ===
  0x12b2	dec    	eax
  0x12b3	mov    	dword ptr [esp + 0x30], edi
  0x12b7	inc    	ecx
  0x12b8	mov    	eax, esi
  0x12ba	mov    	dword ptr [esp + 0x24], eax
  === BLOCK LINK ===
    0x12be
=== CODE BLOCK END ===

=== CODE BLOCK ADDRESS 0x12be ===
  0x12be	dec    	ecx
  0x12bf	cmp    	edi, edi
  0x12c1	jae    	0x12e7
  === BLOCK LINK ===
    0x12c3
=== CODE BLOCK END ===

=== CODE BLOCK ADDRESS 0x12c3 ===
  0x12c3	test   	eax, eax
  0x12c5	jne    	0x12eb
  === BLOCK LINK ===
    0x12c7
=== CODE BLOCK END ===

=== CODE BLOCK ADDRESS 0x12c7 ===
  0x12c7	dec    	esp
  0x12c8	cmp    	dword ptr [edi], esi
  0x12ca	je     	0x12dc
  === BLOCK LINK ===
    0x12cc
=== CODE BLOCK END ===

=== CODE BLOCK ADDRESS 0x12cc ===
  0x12cc	dec    	eax
  0x12cd	mov    	eax, dword ptr [edi]
  0x12cf	dec    	eax
  0x12d0	mov    	ecx, dword ptr [0xf8a]
  0x12d6	call   	ecx
  === BLOCK LINK ===
    0x12d8
=== CODE BLOCK END ===

=== CODE BLOCK ADDRESS 0x12d8 ===
  0x12d8	mov    	dword ptr [esp + 0x24], eax
  0x12dc	dec    	eax
  0x12dd	add    	edi, 8
  0x12e0	dec    	eax
  0x12e1	mov    	dword ptr [esp + 0x30], edi
  === BLOCK LINK ===
    0x12e5
=== CODE BLOCK END ===

=== CODE BLOCK ADDRESS 0x12e5 ===
  0x12e5	jmp    	0x12be
  === BLOCK LINK ===
    0x12e7
=== CODE BLOCK END ===

=== CODE BLOCK ADDRESS 0x12e7 ===
  0x12e7	test   	eax, eax
  0x12e9	je     	0x12fb
  === BLOCK LINK ===
    0x12eb
=== CODE BLOCK END ===

=== CODE BLOCK ADDRESS 0x12eb ===
  0x12eb	mov    	eax, 0xff
  0x12f0	jmp    	0x1456
  === BLOCK LINK ===
    0x12f5
=== CODE BLOCK END ===

=== CODE BLOCK ADDRESS 0x12f5 ===
  0x12f5	mov    	dword ptr [0x1d29], ebx
  0x12fb	mov    	edi, 0x1f
  === BLOCK LINK ===
    0x1300
=== CODE BLOCK END ===

=== CODE BLOCK ADDRESS 0x130a ===
  0x130a	dec    	eax
  0x130b	lea    	edx, [0xf67]
  0x1311	dec    	eax
  0x1312	lea    	ecx, [0xf50]
  0x1318	call   	0x17ce
  === BLOCK LINK ===
    0x131d
=== CODE BLOCK END ===

=== CODE BLOCK ADDRESS 0x131d ===
  0x131d	mov    	dword ptr [0x22c1], 2
  0x1327	test   	esi, esi
  0x1329	jne    	0x1335
  === BLOCK LINK ===
    0x132b
=== CODE BLOCK END ===

=== CODE BLOCK ADDRESS 0x132b ===
  0x132b	dec    	ecx
  0x132c	mov    	eax, esi
  0x132e	dec    	eax
  0x132f	xchg   	dword ptr [0x22ab], eax
  0x1335	dec    	esp
  === BLOCK LINK ===
    0x1336
=== CODE BLOCK END ===

=== CODE BLOCK ADDRESS 0x1336 ===
  0x1336	cmp    	dword ptr [0x22b4], esi
  0x133c	je     	0x1368
  === BLOCK LINK ===
    0x133e
=== CODE BLOCK END ===

=== CODE BLOCK ADDRESS 0x133e ===
  0x133e	dec    	eax
  0x133f	lea    	ecx, [0x22ab]
  0x1345	call   	0x1660
  === BLOCK LINK ===
    0x134a
=== CODE BLOCK END ===

=== CODE BLOCK ADDRESS 0x134a ===
  0x134a	test   	eax, eax
  0x134c	je     	0x1368
  === BLOCK LINK ===
    0x134e
=== CODE BLOCK END ===

=== CODE BLOCK ADDRESS 0x134e ===
  0x134e	inc    	ebp
  0x134f	xor    	eax, eax
  0x1351	inc    	ecx
  0x1352	lea    	edx, [eax + 2]
  0x1355	xor    	ecx, ecx
  === BLOCK LINK ===
    0x1357
=== CODE BLOCK END ===

=== CODE BLOCK ADDRESS 0x1357 ===
  0x1357	dec    	eax
  0x1358	mov    	eax, dword ptr [0x2292]
  0x135e	dec    	esp
  0x135f	mov    	ecx, dword ptr [0xefb]
  0x1365	inc    	ecx
  === BLOCK LINK ===
    0x1366
=== CODE BLOCK END ===

=== CODE BLOCK ADDRESS 0x1366 ===
  0x1366	call   	ecx
  === BLOCK LINK ===
    0x1368
=== CODE BLOCK END ===

=== CODE BLOCK ADDRESS 0x1368 ===
  0x1368	dec    	eax
  0x1369	mov    	eax, dword ptr [0xe81]
  0x136f	dec    	eax
  0x1370	mov    	ecx, dword ptr [eax]
  0x1372	dec    	eax
  === BLOCK LINK ===
    0x1373
=== CODE BLOCK END ===

=== CODE BLOCK ADDRESS 0x1373 ===
  0x1373	test   	ecx, ecx
  0x1375	jne    	0x1381
  === BLOCK LINK ===
    0x1377
=== CODE BLOCK END ===

=== CODE BLOCK ADDRESS 0x1377 ===
  0x1377	mov    	eax, 0xff
  0x137c	jmp    	0x1456
  === BLOCK LINK ===
    0x1381
=== CODE BLOCK END ===

=== CODE BLOCK ADDRESS 0x1381 ===
  0x1381	dec    	eax
  0x1382	mov    	dword ptr [esp + 0x28], ecx
  0x1386	mov    	edx, dword ptr [esp + 0x20]
  0x138a	movzx  	eax, word ptr [ecx]
  0x138d	cmp    	ax, 0x20
  === BLOCK LINK ===
    0x1391
=== CODE BLOCK END ===

=== CODE BLOCK ADDRESS 0x1391 ===
  0x1391	ja     	0x1407
  === BLOCK LINK ===
    0x1393
=== CODE BLOCK END ===

=== CODE BLOCK ADDRESS 0x1393 ===
  0x1393	test   	ax, ax
  0x1396	je     	0x139c
  === BLOCK LINK ===
    0x1398
=== CODE BLOCK END ===

=== CODE BLOCK ADDRESS 0x1398 ===
  0x1398	test   	edx, edx
  0x139a	jne    	0x1407
  === BLOCK LINK ===
    0x139c
=== CODE BLOCK END ===

=== CODE BLOCK ADDRESS 0x139c ===
  0x139c	sub    	ax, bx
  0x139f	cmp    	ax, di
  0x13a2	ja     	0x13b2
  === BLOCK LINK ===
    0x13a4
=== CODE BLOCK END ===

=== CODE BLOCK ADDRESS 0x13a4 ===
  0x13a4	dec    	eax
  0x13a5	add    	ecx, 2
  0x13a8	dec    	eax
  0x13a9	mov    	dword ptr [esp + 0x28], ecx
  0x13ad	movzx  	eax, word ptr [ecx]
  === BLOCK LINK ===
    0x13b0
=== CODE BLOCK END ===

=== CODE BLOCK ADDRESS 0x13b0 ===
  0x13b0	jmp    	0x139c
  === BLOCK LINK ===
    0x13b2
=== CODE BLOCK END ===

=== CODE BLOCK ADDRESS 0x13b2 ===
  0x13b2	test   	byte ptr [esp + 0x7c], bl
  0x13b6	movzx  	eax, word ptr [esp + 0x80]
  0x13be	inc    	ecx
  0x13bf	mov    	ecx, 0xa
  0x13c4	inc    	esp
  === BLOCK LINK ===
    0x13c5
=== CODE BLOCK END ===

=== CODE BLOCK ADDRESS 0x13c5 ===
  0x13c5	cmovne  	ecx, eax
  0x13c8	dec    	esp
  0x13c9	mov    	eax, ecx
  0x13cb	xor    	edx, edx
  0x13cd	dec    	eax
  === BLOCK LINK ===
    0x13ce
=== CODE BLOCK END ===

=== CODE BLOCK ADDRESS 0x13ce ===
  0x13ce	lea    	ecx, [0xffffec2c]
  0x13d4	call   	0x1008
  === BLOCK LINK ===
    0x13d9
=== CODE BLOCK END ===

=== CODE BLOCK ADDRESS 0x13d9 ===
  0x13d9	mov    	dword ptr [0x1c41], eax
  0x13df	inc    	esp
  0x13e0	cmp    	dword ptr [0x1c5a], esi
  0x13e6	jne    	0x13f0
  === BLOCK LINK ===
    0x13e8
=== CODE BLOCK END ===

=== CODE BLOCK ADDRESS 0x13e8 ===
  0x13e8	mov    	ecx, eax
  0x13ea	call   	dword ptr [0xe30]
  === BLOCK LINK ===
    0x13f0
=== CODE BLOCK END ===

=== CODE BLOCK ADDRESS 0x13f0 ===
  0x13f0	inc    	esp
  0x13f1	cmp    	dword ptr [0x1c2d], esi
  0x13f7	jne    	0x1405
  === BLOCK LINK ===
    0x13f9
=== CODE BLOCK END ===

=== CODE BLOCK ADDRESS 0x13f9 ===
  0x13f9	call   	dword ptr [0xe11]
  === BLOCK LINK ===
    0x13ff
=== CODE BLOCK END ===

=== CODE BLOCK ADDRESS 0x13ff ===
  0x13ff	mov    	eax, dword ptr [0x1c1b]
  0x1405	jmp    	0x1456
  === BLOCK LINK ===
    0x1407
=== CODE BLOCK END ===

=== CODE BLOCK ADDRESS 0x1407 ===
  0x1407	cmp    	ax, 0x22
  0x140b	jne    	0x141b
  === BLOCK LINK ===
    0x140d
=== CODE BLOCK END ===

=== CODE BLOCK ADDRESS 0x140d ===
  0x140d	inc    	ecx
  0x140e	mov    	eax, esi
  0x1410	test   	edx, edx
  0x1412	sete   	al
  0x1415	mov    	edx, eax
  === BLOCK LINK ===
    0x1417
=== CODE BLOCK END ===

=== CODE BLOCK ADDRESS 0x1417 ===
  0x1417	mov    	dword ptr [esp + 0x20], eax
  0x141b	dec    	eax
  0x141c	add    	ecx, 2
  0x141f	dec    	eax
  0x1420	mov    	dword ptr [esp + 0x28], ecx
  === BLOCK LINK ===
    0x1424
=== CODE BLOCK END ===

=== CODE BLOCK ADDRESS 0x1424 ===
  0x1424	jmp    	0x138a
  === BLOCK LINK ===
    0x1429
=== CODE BLOCK END ===

=== CODE BLOCK ADDRESS 0x1429 ===
  0x1429	mov    	dword ptr [0x1bf1], eax
  0x142f	cmp    	dword ptr [0x1c0a], 0
  0x1436	jne    	0x1441
  === BLOCK LINK ===
    0x1438
=== CODE BLOCK END ===

=== CODE BLOCK ADDRESS 0x1438 ===
  0x1438	mov    	ecx, eax
  0x143a	call   	dword ptr [0xdd8]
  === BLOCK LINK ===
    0x1440
=== CODE BLOCK END ===

=== CODE BLOCK ADDRESS 0x1440 ===
  0x1440	int3   	
  0x1441	cmp    	dword ptr [0x1bdc], 0
  0x1448	jne    	0x1456
  === BLOCK LINK ===
    0x144a
=== CODE BLOCK END ===

=== CODE BLOCK ADDRESS 0x144a ===
  0x144a	call   	dword ptr [0xdc0]
  === BLOCK LINK ===
    0x1450
=== CODE BLOCK END ===

=== CODE BLOCK ADDRESS 0x1450 ===
  0x1450	mov    	eax, dword ptr [0x1bca]
  0x1456	dec    	esp
  0x1457	lea    	ebx, [esp + 0xb0]
  0x145e	dec    	ecx
  0x145f	mov    	ebx, dword ptr [ebx + 0x10]
  === BLOCK LINK ===
    0x1462
=== CODE BLOCK END ===

=== CODE BLOCK ADDRESS 0x1462 ===
  0x1462	dec    	ecx
  0x1463	mov    	esi, dword ptr [ebx + 0x18]
  0x1466	dec    	ecx
  0x1467	mov    	edi, dword ptr [ebx + 0x20]
  0x146a	dec    	ebp
  === BLOCK LINK ===
    0x146b
=== CODE BLOCK END ===

=== CODE BLOCK ADDRESS 0x146b ===
  0x146b	mov    	esi, dword ptr [ebx + 0x28]
  0x146e	dec    	ecx
  0x146f	mov    	esp, ebx
  0x1471	inc    	ecx
  0x1472	pop    	edi
  === BLOCK LINK ===
    0x1473
=== CODE BLOCK END ===

=== CODE BLOCK ADDRESS 0x1473 ===
  0x1473	ret    	
  0x1474	int3   	
  0x1475	int3   	
  0x1476	int3   	
  0x1477	int3   	
  === BLOCK LINK ===
    0x1478
=== CODE BLOCK END ===

=== CODE BLOCK ADDRESS 0x1478 ===
  0x1478	int3   	
  0x1479	int3   	
  0x147a	int3   	
  0x147b	int3   	
  0x147c	int3   	
  === BLOCK LINK ===
    0x147d
=== CODE BLOCK END ===

=== CODE BLOCK ADDRESS 0x147d ===
  0x147d	int3   	
  0x147e	int3   	
  0x147f	int3   	
  0x1480	dec    	eax
  0x1481	sub    	esp, 0x28
  === BLOCK LINK ===
    0x1484
=== CODE BLOCK END ===

=== CODE BLOCK ADDRESS 0x1484 ===
  0x1484	call   	0x16f4
  === BLOCK LINK ===
    0x1489
=== CODE BLOCK END ===

=== CODE BLOCK ADDRESS 0x1489 ===
  0x1489	dec    	eax
  0x148a	add    	esp, 0x28
  0x148d	jmp    	0x1210
  === BLOCK LINK ===
    0x1492
=== CODE BLOCK END ===

=== CODE BLOCK ADDRESS 0x1492 ===
  0x1492	int3   	
  0x1493	int3   	
  0x1494	int3   	
  0x1495	int3   	
  0x1496	int3   	
  === BLOCK LINK ===
    0x1497
=== CODE BLOCK END ===

=== CODE BLOCK ADDRESS 0x1497 ===
  0x1497	int3   	
  0x1498	int3   	
  0x1499	int3   	
  0x149a	int3   	
  0x149b	int3   	
  === BLOCK LINK ===
    0x149c
=== CODE BLOCK END ===

=== CODE BLOCK ADDRESS 0x149c ===
  0x149c	int3   	
  0x149d	int3   	
  0x149e	int3   	
  0x149f	int3   	
  0x14a0	int3   	
  === BLOCK LINK ===
    0x14a1
=== CODE BLOCK END ===

=== CODE BLOCK ADDRESS 0x14a1 ===
  0x14a1	int3   	
  0x14a2	int3   	
  0x14a3	int3   	
  0x14a4	int3   	
  0x14a5	int3   	
  === BLOCK LINK ===
    0x14a6
=== CODE BLOCK END ===

=== CODE BLOCK ADDRESS 0x14a6 ===
  0x14a6	nop    	word ptr [eax + eax]
  0x14b0	dec    	eax
  0x14b1	cmp    	ecx, dword ptr [0x1b51]
  0x14b7	jne    	0x14c9
  === BLOCK LINK ===
    0x14b9
=== CODE BLOCK END ===

=== CODE BLOCK ADDRESS 0x14b9 ===
  0x14b9	dec    	eax
  0x14ba	rol    	ecx, 0x10
  0x14bd	test   	cx, 0xffff
  0x14c2	jne    	0x14c5
  === BLOCK LINK ===
    0x14c4
=== CODE BLOCK END ===

=== CODE BLOCK ADDRESS 0x14c4 ===
  0x14c4	ret    	
  0x14c5	dec    	eax
  0x14c6	ror    	ecx, 0x10
  0x14c9	jmp    	0x1840
  === BLOCK LINK ===
    0x14ce
=== CODE BLOCK END ===

=== CODE BLOCK ADDRESS 0x14ce ===
  0x14ce	int3   	
  0x14cf	int3   	
  0x14d0	int3   	
  0x14d1	int3   	
  0x14d2	int3   	
  === BLOCK LINK ===
    0x14d3
=== CODE BLOCK END ===

=== CODE BLOCK ADDRESS 0x14d3 ===
  0x14d3	int3   	
  0x14d4	int3   	
  0x14d5	int3   	
  0x14d6	int3   	
  0x14d7	int3   	
  === BLOCK LINK ===
    0x14d8
=== CODE BLOCK END ===

=== CODE BLOCK ADDRESS 0x14d8 ===
  0x14d8	int3   	
  0x14d9	int3   	
  0x14da	int3   	
  0x14db	int3   	
  0x14dc	int3   	
  === BLOCK LINK ===
    0x14dd
=== CODE BLOCK END ===

=== CODE BLOCK ADDRESS 0x14dd ===
  0x14dd	int3   	
  0x14de	int3   	
  0x14df	int3   	
  0x14e0	dec    	eax
  0x14e1	sub    	esp, 0x28
  === BLOCK LINK ===
    0x14e4
=== CODE BLOCK END ===

=== CODE BLOCK ADDRESS 0x14e4 ===
  0x14e4	dec    	eax
  0x14e5	mov    	eax, dword ptr [ecx]
  0x14e7	cmp    	dword ptr [eax], 0xe06d7363
  0x14ed	jne    	0x1512
  === BLOCK LINK ===
    0x14ef
=== CODE BLOCK END ===

=== CODE BLOCK ADDRESS 0x14ef ===
  0x14ef	cmp    	dword ptr [eax + 0x18], 4
  0x14f3	jne    	0x1512
  === BLOCK LINK ===
    0x14f5
=== CODE BLOCK END ===

=== CODE BLOCK ADDRESS 0x14f5 ===
  0x14f5	mov    	ecx, dword ptr [eax + 0x20]
  0x14f8	lea    	eax, [ecx - 0x19930520]
  0x14fe	cmp    	eax, 2
  0x1501	jbe    	0x150b
  === BLOCK LINK ===
    0x1503
=== CODE BLOCK END ===

=== CODE BLOCK ADDRESS 0x1503 ===
  0x1503	cmp    	ecx, 0x1994000
  0x1509	jne    	0x1512
  === BLOCK LINK ===
    0x150b
=== CODE BLOCK END ===

=== CODE BLOCK ADDRESS 0x150b ===
  0x150b	call   	dword ptr [0xd37]
  === BLOCK LINK ===
    0x1511
=== CODE BLOCK END ===

=== CODE BLOCK ADDRESS 0x1511 ===
  0x1511	int3   	
  0x1512	xor    	eax, eax
  0x1514	dec    	eax
  0x1515	add    	esp, 0x28
  0x1518	ret    	
  === BLOCK LINK ===
    0x1519
=== CODE BLOCK END ===

=== CODE BLOCK ADDRESS 0x1519 ===
  0x1519	int3   	
  0x151a	int3   	
  0x151b	int3   	
  0x151c	int3   	
  0x151d	int3   	
  === BLOCK LINK ===
    0x151e
=== CODE BLOCK END ===

=== CODE BLOCK ADDRESS 0x151e ===
  0x151e	int3   	
  0x151f	int3   	
  0x1520	dec    	eax
  0x1521	sub    	esp, 0x28
  0x1524	dec    	eax
  === BLOCK LINK ===
    0x1525
=== CODE BLOCK END ===

=== CODE BLOCK ADDRESS 0x1525 ===
  0x1525	lea    	ecx, [0xffffffb5]
  0x152b	call   	dword ptr [0xc5f]
  === BLOCK LINK ===
    0x1531
=== CODE BLOCK END ===

=== CODE BLOCK ADDRESS 0x1531 ===
  0x1531	xor    	eax, eax
  0x1533	dec    	eax
  0x1534	add    	esp, 0x28
  0x1537	ret    	
  0x1538	int3   	
  === BLOCK LINK ===
    0x1539
=== CODE BLOCK END ===

=== CODE BLOCK ADDRESS 0x1539 ===
  0x1539	int3   	
  0x153a	int3   	
  0x153b	int3   	
  0x153c	int3   	
  0x153d	int3   	
  === BLOCK LINK ===
    0x153e
=== CODE BLOCK END ===

=== CODE BLOCK ADDRESS 0x153e ===
  0x153e	jmp    	dword ptr [0xcfc]
  === BLOCK LINK ===
    0x1544
=== CODE BLOCK END ===

=== CODE BLOCK ADDRESS 0x1544 ===
  0x1544	int3   	
  0x1545	int3   	
  0x1546	int3   	
  0x1547	int3   	
  0x1548	int3   	
  === BLOCK LINK ===
    0x1549
=== CODE BLOCK END ===

=== CODE BLOCK ADDRESS 0x1549 ===
  0x1549	int3   	
  0x154a	int3   	
  0x154b	int3   	
  0x154c	dec    	eax
  0x154d	sub    	esp, 0x18
  === BLOCK LINK ===
    0x1550
=== CODE BLOCK END ===

=== CODE BLOCK ADDRESS 0x1550 ===
  0x1550	xor    	edx, edx
  0x1552	dec    	eax
  0x1553	lea    	eax, [ecx - 1]
  0x1556	dec    	eax
  0x1557	cmp    	eax, -3
  === BLOCK LINK ===
    0x155a
=== CODE BLOCK END ===

=== CODE BLOCK ADDRESS 0x155a ===
  0x155a	ja     	0x1598
  === BLOCK LINK ===
    0x155c
=== CODE BLOCK END ===

=== CODE BLOCK ADDRESS 0x155c ===
  0x155c	mov    	eax, 0x5a4d
  0x1561	cmp    	word ptr [ecx], ax
  0x1564	jne    	0x1590
  === BLOCK LINK ===
    0x1566
=== CODE BLOCK END ===

=== CODE BLOCK ADDRESS 0x1566 ===
  0x1566	cmp    	dword ptr [ecx + 0x3c], edx
  0x1569	jl     	0x1590
  === BLOCK LINK ===
    0x156b
=== CODE BLOCK END ===

=== CODE BLOCK ADDRESS 0x156b ===
  0x156b	cmp    	dword ptr [ecx + 0x3c], 0x10000000
  0x1572	jae    	0x1590
  === BLOCK LINK ===
    0x1574
=== CODE BLOCK END ===

=== CODE BLOCK ADDRESS 0x1574 ===
  0x1574	dec    	eax
  0x1575	arpl   	word ptr [ecx + 0x3c], ax
  0x1578	dec    	eax
  0x1579	add    	eax, ecx
  0x157b	dec    	eax
  === BLOCK LINK ===
    0x157c
=== CODE BLOCK END ===

=== CODE BLOCK ADDRESS 0x157c ===
  0x157c	mov    	dword ptr [esp], eax
  0x157f	cmp    	dword ptr [eax], 0x4550
  0x1585	dec    	eax
  0x1586	cmovne  	eax, edx
  0x1589	dec    	eax
  === BLOCK LINK ===
    0x158a
=== CODE BLOCK END ===

=== CODE BLOCK ADDRESS 0x158a ===
  0x158a	mov    	edx, eax
  0x158c	dec    	eax
  0x158d	mov    	dword ptr [esp], eax
  0x1590	jmp    	0x1598
  === BLOCK LINK ===
    0x1592
=== CODE BLOCK END ===

=== CODE BLOCK ADDRESS 0x1592 ===
  0x1592	xor    	edx, edx
  0x1594	dec    	eax
  0x1595	mov    	dword ptr [esp], edx
  0x1598	dec    	eax
  0x1599	mov    	eax, edx
  === BLOCK LINK ===
    0x159b
=== CODE BLOCK END ===

=== CODE BLOCK ADDRESS 0x159b ===
  0x159b	dec    	eax
  0x159c	add    	esp, 0x18
  0x159f	ret    	
  0x15a0	int3   	
  0x15a1	int3   	
  === BLOCK LINK ===
    0x15a2
=== CODE BLOCK END ===

=== CODE BLOCK ADDRESS 0x1146 ===
  0x1146	setne  	al
  === BLOCK LINK ===
    0x1149
=== CODE BLOCK END ===

=== CODE BLOCK ADDRESS 0x15a2 ===
  0x15a2	int3   	
  0x15a3	int3   	
  0x15a4	int3   	
  0x15a5	int3   	
  0x15a6	int3   	
  === BLOCK LINK ===
    0x15a7
=== CODE BLOCK END ===

=== CODE BLOCK ADDRESS 0x15a7 ===
  0x15a7	int3   	
  === BLOCK LINK ===
    0x15a8
=== CODE BLOCK END ===

=== CODE BLOCK ADDRESS 0x15ae ===
  0x15ae	mov    	ebx, ecx
  0x15b0	xor    	ecx, ecx
  0x15b2	call   	dword ptr [0xbd0]
  === BLOCK LINK ===
    0x15b8
=== CODE BLOCK END ===

=== CODE BLOCK ADDRESS 0x15b8 ===
  0x15b8	dec    	eax
  0x15b9	test   	eax, eax
  0x15bb	je     	0x15e5
  === BLOCK LINK ===
    0x15bd
=== CODE BLOCK END ===

=== CODE BLOCK ADDRESS 0x15bd ===
  0x15bd	dec    	eax
  0x15be	mov    	ecx, eax
  0x15c0	call   	0x154c
  === BLOCK LINK ===
    0x15c5
=== CODE BLOCK END ===

=== CODE BLOCK ADDRESS 0x15c5 ===
  0x15c5	dec    	eax
  0x15c6	test   	eax, eax
  0x15c8	je     	0x15e5
  === BLOCK LINK ===
    0x15ca
=== CODE BLOCK END ===

=== CODE BLOCK ADDRESS 0x15ca ===
  0x15ca	mov    	ecx, 2
  0x15cf	cmp    	word ptr [eax + 0x5c], cx
  0x15d3	jne    	0x15d9
  === BLOCK LINK ===
    0x15d5
=== CODE BLOCK END ===

=== CODE BLOCK ADDRESS 0x15d5 ===
  0x15d5	mov    	eax, ecx
  0x15d7	jmp    	0x15e7
  === BLOCK LINK ===
    0x15d9
=== CODE BLOCK END ===

=== CODE BLOCK ADDRESS 0x15d9 ===
  0x15d9	cmp    	word ptr [eax + 0x5c], 3
  0x15de	mov    	eax, 1
  0x15e3	je     	0x15e7
  === BLOCK LINK ===
    0x15e5
=== CODE BLOCK END ===

=== CODE BLOCK ADDRESS 0x15e5 ===
  0x15e5	mov    	eax, ebx
  0x15e7	dec    	eax
  0x15e8	add    	esp, 0x20
  0x15eb	pop    	ebx
  0x15ec	ret    	
  === BLOCK LINK ===
    0x15ed
=== CODE BLOCK END ===

=== CODE BLOCK ADDRESS 0x15ed ===
  0x15ed	int3   	
  0x15ee	int3   	
  0x15ef	int3   	
  0x15f0	int3   	
  0x15f1	int3   	
  === BLOCK LINK ===
    0x15f2
=== CODE BLOCK END ===

=== CODE BLOCK ADDRESS 0x15f2 ===
  0x15f2	int3   	
  0x15f3	jmp    	dword ptr [0xc3f]
  === BLOCK LINK ===
    0x15f9
=== CODE BLOCK END ===

=== CODE BLOCK ADDRESS 0x15f9 ===
  0x15f9	int3   	
  0x15fa	int3   	
  0x15fb	int3   	
  0x15fc	int3   	
  0x15fd	int3   	
  === BLOCK LINK ===
    0x15fe
=== CODE BLOCK END ===

=== CODE BLOCK ADDRESS 0x15fe ===
  0x15fe	int3   	
  0x15ff	int3   	
  === BLOCK LINK ===
    0x1600
=== CODE BLOCK END ===

=== CODE BLOCK ADDRESS 0x15a8 ===
  0x15a8	inc    	eax
  0x15a9	push   	ebx
  0x15aa	dec    	eax
  0x15ab	sub    	esp, 0x20
  === BLOCK LINK ===
    0x15ae
=== CODE BLOCK END ===

=== CODE BLOCK ADDRESS 0x1604 ===
  0x1604	int3   	
  0x1605	int3   	
  0x1606	int3   	
  0x1607	int3   	
  0x1608	int3   	
  === BLOCK LINK ===
    0x1609
=== CODE BLOCK END ===

=== CODE BLOCK ADDRESS 0x1609 ===
  0x1609	int3   	
  0x160a	int3   	
  0x160b	int3   	
  0x160c	int3   	
  0x160d	int3   	
  === BLOCK LINK ===
    0x160e
=== CODE BLOCK END ===

=== CODE BLOCK ADDRESS 0x160e ===
  0x160e	int3   	
  0x160f	int3   	
  0x1610	dec    	esp
  0x1611	arpl   	word ptr [ecx + 0x3c], ax
  0x1614	inc    	ebp
  === BLOCK LINK ===
    0x1615
=== CODE BLOCK END ===

=== CODE BLOCK ADDRESS 0x1615 ===
  0x1615	xor    	ecx, ecx
  0x1617	dec    	esp
  0x1618	add    	eax, ecx
  0x161a	dec    	esp
  0x161b	mov    	edx, edx
  === BLOCK LINK ===
    0x161d
=== CODE BLOCK END ===

=== CODE BLOCK ADDRESS 0x161d ===
  0x161d	inc    	ecx
  0x161e	movzx  	eax, word ptr [eax + 0x14]
  0x1622	inc    	ebp
  0x1623	movzx  	ebx, word ptr [eax + 6]
  0x1627	dec    	eax
  === BLOCK LINK ===
    0x1628
=== CODE BLOCK END ===

=== CODE BLOCK ADDRESS 0x1628 ===
  0x1628	add    	eax, 0x18
  0x162b	dec    	ecx
  0x162c	add    	eax, eax
  0x162e	inc    	ebp
  0x162f	test   	ebx, ebx
  === BLOCK LINK ===
    0x1631
=== CODE BLOCK END ===

=== CODE BLOCK ADDRESS 0x1631 ===
  0x1631	je     	0x1651
  === BLOCK LINK ===
    0x1633
=== CODE BLOCK END ===

=== CODE BLOCK ADDRESS 0x1633 ===
  0x1633	mov    	edx, dword ptr [eax + 0xc]
  0x1636	dec    	esp
  0x1637	cmp    	edx, edx
  0x1639	jb     	0x1645
  === BLOCK LINK ===
    0x163b
=== CODE BLOCK END ===

=== CODE BLOCK ADDRESS 0x163b ===
  0x163b	mov    	ecx, dword ptr [eax + 8]
  0x163e	add    	ecx, edx
  0x1640	dec    	esp
  0x1641	cmp    	edx, ecx
  0x1643	jb     	0x1653
  === BLOCK LINK ===
    0x1645
=== CODE BLOCK END ===

=== CODE BLOCK ADDRESS 0x1645 ===
  0x1645	inc    	ecx
  0x1646	inc    	ecx
  0x1648	dec    	eax
  0x1649	add    	eax, 0x28
  0x164c	inc    	ebp
  === BLOCK LINK ===
    0x164d
=== CODE BLOCK END ===

=== CODE BLOCK ADDRESS 0x164d ===
  0x164d	cmp    	ecx, ebx
  0x164f	jb     	0x1633
  === BLOCK LINK ===
    0x1651
=== CODE BLOCK END ===

=== CODE BLOCK ADDRESS 0x1651 ===
  0x1651	xor    	eax, eax
  0x1653	ret    	
  0x1654	int3   	
  0x1655	int3   	
  0x1656	int3   	
  === BLOCK LINK ===
    0x1657
=== CODE BLOCK END ===

=== CODE BLOCK ADDRESS 0x1600 ===
  0x1600	xor    	eax, eax
  0x1602	ret    	
  0x1603	int3   	
  === BLOCK LINK ===
    0x1604
=== CODE BLOCK END ===

=== CODE BLOCK ADDRESS 0x1657 ===
  0x1657	int3   	
  0x1658	int3   	
  0x1659	int3   	
  0x165a	int3   	
  0x165b	int3   	
  === BLOCK LINK ===
    0x165c
=== CODE BLOCK END ===

=== CODE BLOCK ADDRESS 0x165c ===
  0x165c	int3   	
  0x165d	int3   	
  0x165e	int3   	
  0x165f	int3   	
  0x1660	dec    	eax
  === BLOCK LINK ===
    0x1661
=== CODE BLOCK END ===

=== CODE BLOCK ADDRESS 0x1661 ===
  0x1661	mov    	dword ptr [esp + 8], ebx
  0x1665	push   	edi
  0x1666	dec    	eax
  0x1667	sub    	esp, 0x20
  0x166a	dec    	eax
  === BLOCK LINK ===
    0x166b
=== CODE BLOCK END ===

=== CODE BLOCK ADDRESS 0x166b ===
  0x166b	mov    	ebx, ecx
  0x166d	dec    	eax
  0x166e	lea    	edi, [0xffffe98c]
  0x1674	dec    	eax
  0x1675	mov    	ecx, edi
  === BLOCK LINK ===
    0x1677
=== CODE BLOCK END ===

=== CODE BLOCK ADDRESS 0x1677 ===
  0x1677	call   	0x16c0
  === BLOCK LINK ===
    0x167c
=== CODE BLOCK END ===

=== CODE BLOCK ADDRESS 0x167c ===
  0x167c	test   	eax, eax
  0x167e	je     	0x16a2
  === BLOCK LINK ===
    0x1680
=== CODE BLOCK END ===

=== CODE BLOCK ADDRESS 0x1680 ===
  0x1680	dec    	eax
  0x1681	sub    	ebx, edi
  0x1683	dec    	eax
  0x1684	mov    	edx, ebx
  0x1686	dec    	eax
  === BLOCK LINK ===
    0x1687
=== CODE BLOCK END ===

=== CODE BLOCK ADDRESS 0x1687 ===
  0x1687	mov    	ecx, edi
  0x1689	call   	0x1610
  === BLOCK LINK ===
    0x168e
=== CODE BLOCK END ===

=== CODE BLOCK ADDRESS 0x168e ===
  0x168e	dec    	eax
  0x168f	test   	eax, eax
  0x1691	je     	0x16a2
  === BLOCK LINK ===
    0x1693
=== CODE BLOCK END ===

=== CODE BLOCK ADDRESS 0x1693 ===
  0x1693	mov    	eax, dword ptr [eax + 0x24]
  0x1696	shr    	eax, 0x1f
  0x1699	not    	eax
  0x169b	and    	eax, 1
  0x169e	jmp    	0x16a2
  === BLOCK LINK ===
    0x16a0
=== CODE BLOCK END ===

=== CODE BLOCK ADDRESS 0x16a0 ===
  0x16a0	xor    	eax, eax
  0x16a2	dec    	eax
  0x16a3	mov    	ebx, dword ptr [esp + 0x30]
  0x16a7	dec    	eax
  0x16a8	add    	esp, 0x20
  === BLOCK LINK ===
    0x16ab
=== CODE BLOCK END ===

=== CODE BLOCK ADDRESS 0x16ab ===
  0x16ab	pop    	edi
  0x16ac	ret    	
  0x16ad	int3   	
  0x16ae	int3   	
  0x16af	int3   	
  === BLOCK LINK ===
    0x16b0
=== CODE BLOCK END ===

=== CODE BLOCK ADDRESS 0x16b0 ===
  0x16b0	int3   	
  0x16b1	int3   	
  0x16b2	int3   	
  0x16b3	int3   	
  0x16b4	int3   	
  === BLOCK LINK ===
    0x16b5
=== CODE BLOCK END ===

=== CODE BLOCK ADDRESS 0x16b5 ===
  0x16b5	int3   	
  0x16b6	int3   	
  0x16b7	int3   	
  0x16b8	int3   	
  0x16b9	int3   	
  === BLOCK LINK ===
    0x16ba
=== CODE BLOCK END ===

=== CODE BLOCK ADDRESS 0x16ba ===
  0x16ba	int3   	
  0x16bb	int3   	
  0x16bc	int3   	
  0x16bd	int3   	
  0x16be	int3   	
  === BLOCK LINK ===
    0x16bf
=== CODE BLOCK END ===

=== CODE BLOCK ADDRESS 0x16bf ===
  0x16bf	int3   	
  0x16c0	mov    	eax, 0x5a4d
  0x16c5	cmp    	word ptr [ecx], ax
  0x16c8	jne    	0x16ea
  === BLOCK LINK ===
    0x16ca
=== CODE BLOCK END ===

=== CODE BLOCK ADDRESS 0x16ca ===
  0x16ca	dec    	eax
  0x16cb	arpl   	word ptr [ecx + 0x3c], ax
  0x16ce	dec    	eax
  0x16cf	add    	eax, ecx
  0x16d1	cmp    	dword ptr [eax], 0x4550
  === BLOCK LINK ===
    0x16d7
=== CODE BLOCK END ===

=== CODE BLOCK ADDRESS 0x16d7 ===
  0x16d7	jne    	0x16ea
  === BLOCK LINK ===
    0x16d9
=== CODE BLOCK END ===

=== CODE BLOCK ADDRESS 0x16d9 ===
  0x16d9	mov    	ecx, 0x20b
  0x16de	cmp    	word ptr [eax + 0x18], cx
  0x16e2	jne    	0x16ea
  === BLOCK LINK ===
    0x16e4
=== CODE BLOCK END ===

=== CODE BLOCK ADDRESS 0x16e4 ===
  0x16e4	mov    	eax, 1
  0x16e9	ret    	
  0x16ea	xor    	eax, eax
  0x16ec	ret    	
  0x16ed	int3   	
  === BLOCK LINK ===
    0x16ee
=== CODE BLOCK END ===

=== CODE BLOCK ADDRESS 0x16ee ===
  0x16ee	int3   	
  0x16ef	int3   	
  0x16f0	int3   	
  0x16f1	int3   	
  0x16f2	int3   	
  === BLOCK LINK ===
    0x16f3
=== CODE BLOCK END ===

=== CODE BLOCK ADDRESS 0x16f3 ===
  0x16f3	int3   	
  0x16f4	dec    	eax
  0x16f5	mov    	dword ptr [esp + 0x20], ebx
  0x16f9	push   	ebp
  0x16fa	dec    	eax
  === BLOCK LINK ===
    0x16fb
=== CODE BLOCK END ===

=== CODE BLOCK ADDRESS 0x16fb ===
  0x16fb	mov    	ebp, esp
  0x16fd	dec    	eax
  0x16fe	sub    	esp, 0x20
  0x1701	dec    	eax
  0x1702	and    	dword ptr [ebp + 0x18], 0
  === BLOCK LINK ===
    0x1706
=== CODE BLOCK END ===

=== CODE BLOCK ADDRESS 0x1706 ===
  0x1706	dec    	eax
  0x1707	mov    	ebx, 0x2ddfa232
  0x170c	cdq    	
  0x170d	sub    	eax, dword ptr [eax]
  0x170f	add    	byte ptr [eax - 0x75], cl
  === BLOCK LINK ===
    0x1712
=== CODE BLOCK END ===

=== CODE BLOCK ADDRESS 0x1712 ===
  0x1712	add    	eax, 0x18f1
  0x1717	dec    	eax
  0x1718	cmp    	eax, ebx
  0x171a	jne    	0x17b3
  === BLOCK LINK ===
    0x1720
=== CODE BLOCK END ===

=== CODE BLOCK ADDRESS 0x1720 ===
  0x1720	dec    	eax
  0x1721	lea    	ecx, [ebp + 0x18]
  0x1724	call   	dword ptr [0xa3e]
  === BLOCK LINK ===
    0x172a
=== CODE BLOCK END ===

=== CODE BLOCK ADDRESS 0x172a ===
  0x172a	dec    	eax
  0x172b	mov    	eax, dword ptr [ebp + 0x18]
  0x172e	dec    	eax
  0x172f	mov    	dword ptr [ebp + 0x10], eax
  0x1732	call   	dword ptr [0xa40]
  === BLOCK LINK ===
    0x1738
=== CODE BLOCK END ===

=== CODE BLOCK ADDRESS 0x1738 ===
  0x1738	mov    	eax, eax
  0x173a	dec    	eax
  0x173b	xor    	dword ptr [ebp + 0x10], eax
  0x173e	call   	dword ptr [0xa2c]
  === BLOCK LINK ===
    0x1744
=== CODE BLOCK END ===

=== CODE BLOCK ADDRESS 0x1744 ===
  0x1744	mov    	eax, eax
  0x1746	dec    	eax
  0x1747	xor    	dword ptr [ebp + 0x10], eax
  0x174a	call   	dword ptr [0xa10]
  === BLOCK LINK ===
    0x1750
=== CODE BLOCK END ===

=== CODE BLOCK ADDRESS 0x1750 ===
  0x1750	mov    	eax, eax
  0x1752	dec    	eax
  0x1753	shl    	eax, 0x18
  0x1756	dec    	eax
  0x1757	xor    	dword ptr [ebp + 0x10], eax
  === BLOCK LINK ===
    0x175a
=== CODE BLOCK END ===

=== CODE BLOCK ADDRESS 0x175a ===
  0x175a	call   	dword ptr [0xa00]
  === BLOCK LINK ===
    0x1760
=== CODE BLOCK END ===

=== CODE BLOCK ADDRESS 0x1760 ===
  0x1760	mov    	eax, eax
  0x1762	dec    	eax
  0x1763	lea    	ecx, [ebp + 0x10]
  0x1766	dec    	eax
  0x1767	xor    	eax, dword ptr [ebp + 0x10]
  === BLOCK LINK ===
    0x176a
=== CODE BLOCK END ===

=== CODE BLOCK ADDRESS 0x176a ===
  0x176a	dec    	eax
  0x176b	xor    	eax, ecx
  0x176d	dec    	eax
  0x176e	lea    	ecx, [ebp + 0x20]
  0x1771	dec    	eax
  === BLOCK LINK ===
    0x1772
=== CODE BLOCK END ===

=== CODE BLOCK ADDRESS 0x1772 ===
  0x1772	mov    	dword ptr [ebp + 0x10], eax
  0x1775	call   	dword ptr [0xa05]
  === BLOCK LINK ===
    0x177b
=== CODE BLOCK END ===

=== CODE BLOCK ADDRESS 0x177b ===
  0x177b	mov    	eax, dword ptr [ebp + 0x20]
  0x177e	dec    	eax
  0x177f	mov    	ecx, 0xffffffff
  0x1784	.byte  	0xff
  0x1785	inc    	dword ptr [eax]
  === BLOCK LINK ===
    0x1787
=== CODE BLOCK END ===

=== CODE BLOCK ADDRESS 0x1787 ===
  0x1787	add    	byte ptr [eax - 0x3f], cl
  0x178a	loopne  	0x17ac
  === BLOCK LINK ===
    0x178c
=== CODE BLOCK END ===

=== CODE BLOCK ADDRESS 0x178c ===
  0x178c	dec    	eax
  0x178d	xor    	eax, dword ptr [ebp + 0x20]
  0x1790	dec    	eax
  0x1791	xor    	eax, dword ptr [ebp + 0x10]
  0x1794	dec    	eax
  === BLOCK LINK ===
    0x1795
=== CODE BLOCK END ===

=== CODE BLOCK ADDRESS 0x1795 ===
  0x1795	and    	eax, ecx
  0x1797	dec    	eax
  0x1798	mov    	ecx, eax
  0x179a	dec    	eax
  0x179b	cmp    	eax, ebx
  === BLOCK LINK ===
    0x179d
=== CODE BLOCK END ===

=== CODE BLOCK ADDRESS 0x179d ===
  0x179d	jne    	0x17ac
  === BLOCK LINK ===
    0x179f
=== CODE BLOCK END ===

=== CODE BLOCK ADDRESS 0x179f ===
  0x179f	dec    	eax
  0x17a0	mov    	eax, 0x2ddfa233
  0x17a5	cdq    	
  0x17a6	sub    	eax, dword ptr [eax]
  0x17a8	add    	byte ptr [eax - 0x75], cl
  === BLOCK LINK ===
    0x17ab
=== CODE BLOCK END ===

=== CODE BLOCK ADDRESS 0x17ab ===
  0x17ab	enter  	-0x76b8, 0xd
  0x17af	push   	ebp
  0x17b0	sbb    	byte ptr [eax], al
  0x17b2	add    	byte ptr [eax - 0x75], cl
  0x17b5	pop    	esp
  === BLOCK LINK ===
    0x17b6
=== CODE BLOCK END ===

=== CODE BLOCK ADDRESS 0x17b6 ===
  0x17b6	and    	al, 0x48
  0x17b8	dec    	eax
  0x17b9	not    	eax
  0x17bb	dec    	eax
  0x17bc	mov    	dword ptr [0x184e], eax
  === BLOCK LINK ===
    0x17c2
=== CODE BLOCK END ===

=== CODE BLOCK ADDRESS 0x17c2 ===
  0x17c2	dec    	eax
  0x17c3	add    	esp, 0x20
  0x17c6	pop    	ebp
  0x17c7	ret    	
  0x17c8	int3   	
  === BLOCK LINK ===
    0x17c9
=== CODE BLOCK END ===

=== CODE BLOCK ADDRESS 0x127c ===
  0x127c	mov    	eax, dword ptr [0x2366]
  0x1282	cmp    	eax, ebx
  0x1284	jne    	0x1294
  === BLOCK LINK ===
    0x1286
=== CODE BLOCK END ===

=== CODE BLOCK ADDRESS 0x17c9 ===
  0x17c9	int3   	
  0x17ca	int3   	
  0x17cb	int3   	
  0x17cc	int3   	
  0x17cd	int3   	
  === BLOCK LINK ===
    0x17ce
=== CODE BLOCK END ===

=== CODE BLOCK ADDRESS 0x17ce ===
  0x17ce	jmp    	dword ptr [0xa2c]
  === BLOCK LINK ===
    0x17d4
=== CODE BLOCK END ===

=== CODE BLOCK ADDRESS 0x17d4 ===
  0x17d4	int3   	
  0x17d5	int3   	
  0x17d6	int3   	
  0x17d7	int3   	
  0x17d8	int3   	
  === BLOCK LINK ===
    0x17d9
=== CODE BLOCK END ===

=== CODE BLOCK ADDRESS 0x17d9 ===
  0x17d9	int3   	
  0x17da	jmp    	dword ptr [0xa18]
  === BLOCK LINK ===
    0x17e0
=== CODE BLOCK END ===

=== CODE BLOCK ADDRESS 0x17e0 ===
  0x17e0	int3   	
  0x17e1	int3   	
  0x17e2	int3   	
  0x17e3	int3   	
  0x17e4	int3   	
  === BLOCK LINK ===
    0x17e5
=== CODE BLOCK END ===

=== CODE BLOCK ADDRESS 0x17e5 ===
  0x17e5	int3   	
  0x17e6	int3   	
  0x17e7	int3   	
  0x17e8	int3   	
  0x17e9	int3   	
  === BLOCK LINK ===
    0x17ea
=== CODE BLOCK END ===

=== CODE BLOCK ADDRESS 0x17ea ===
  0x17ea	int3   	
  0x17eb	int3   	
  0x17ec	int3   	
  0x17ed	int3   	
  0x17ee	int3   	
  === BLOCK LINK ===
    0x17ef
=== CODE BLOCK END ===

=== CODE BLOCK ADDRESS 0x17ef ===
  0x17ef	int3   	
  0x17f0	ret    	0
  0x17f3	int3   	
  0x17f4	int3   	
  0x17f5	int3   	
  === BLOCK LINK ===
    0x17f6
=== CODE BLOCK END ===

=== CODE BLOCK ADDRESS 0x124f ===
  0x124f	xor    	eax, eax
  0x1251	.byte  	0xf0
  0x1252	dec    	eax
  === BLOCK LINK ===
    0x1253
=== CODE BLOCK END ===

=== CODE BLOCK ADDRESS 0x17f6 ===
  0x17f6	int3   	
  0x17f7	int3   	
  0x17f8	int3   	
  0x17f9	int3   	
  0x17fa	int3   	
  === BLOCK LINK ===
    0x17fb
=== CODE BLOCK END ===

=== CODE BLOCK ADDRESS 0x17fb ===
  0x17fb	int3   	
  0x17fc	inc    	eax
  0x17fd	push   	ebx
  0x17fe	dec    	eax
  0x17ff	sub    	esp, 0x20
  === BLOCK LINK ===
    0x1802
=== CODE BLOCK END ===

=== CODE BLOCK ADDRESS 0x1802 ===
  0x1802	dec    	eax
  0x1803	mov    	ebx, ecx
  0x1805	xor    	ecx, ecx
  0x1807	call   	dword ptr [0x983]
  === BLOCK LINK ===
    0x180d
=== CODE BLOCK END ===

=== CODE BLOCK ADDRESS 0x180d ===
  0x180d	dec    	eax
  0x180e	mov    	ecx, ebx
  0x1810	call   	dword ptr [0x92a]
  === BLOCK LINK ===
    0x1816
=== CODE BLOCK END ===

=== CODE BLOCK ADDRESS 0x1816 ===
  0x1816	call   	dword ptr [0x91c]
  === BLOCK LINK ===
    0x181c
=== CODE BLOCK END ===

=== CODE BLOCK ADDRESS 0x181c ===
  0x181c	dec    	eax
  0x181d	mov    	ecx, eax
  0x181f	mov    	edx, 0xc0000409
  0x1824	dec    	eax
  0x1825	add    	esp, 0x20
  === BLOCK LINK ===
    0x1828
=== CODE BLOCK END ===

=== CODE BLOCK ADDRESS 0x1828 ===
  0x1828	pop    	ebx
  0x1829	dec    	eax
  0x182a	jmp    	dword ptr [0x970]
  === BLOCK LINK ===
    0x1830
=== CODE BLOCK END ===

=== CODE BLOCK ADDRESS 0x1830 ===
  0x1830	int3   	
  0x1831	int3   	
  0x1832	int3   	
  0x1833	int3   	
  0x1834	int3   	
  === BLOCK LINK ===
    0x1835
=== CODE BLOCK END ===

=== CODE BLOCK ADDRESS 0x1835 ===
  0x1835	int3   	
  0x1836	int3   	
  0x1837	int3   	
  0x1838	int3   	
  0x1839	int3   	
  === BLOCK LINK ===
    0x183a
=== CODE BLOCK END ===

=== CODE BLOCK ADDRESS 0x183a ===
  0x183a	int3   	
  0x183b	int3   	
  0x183c	int3   	
  0x183d	int3   	
  0x183e	int3   	
  === BLOCK LINK ===
    0x183f
=== CODE BLOCK END ===

=== CODE BLOCK ADDRESS 0x183f ===
  0x183f	int3   	
  0x1840	dec    	eax
  0x1841	mov    	dword ptr [esp + 8], ecx
  0x1845	dec    	eax
  0x1846	sub    	esp, 0x88
  === BLOCK LINK ===
    0x184c
=== CODE BLOCK END ===

=== CODE BLOCK ADDRESS 0x184c ===
  0x184c	dec    	eax
  0x184d	lea    	ecx, [0x18ad]
  0x1853	call   	dword ptr [0x8ff]
  === BLOCK LINK ===
    0x1859
=== CODE BLOCK END ===

=== CODE BLOCK ADDRESS 0x1859 ===
  0x1859	dec    	eax
  0x185a	mov    	eax, dword ptr [0x1998]
  0x1860	dec    	eax
  0x1861	mov    	dword ptr [esp + 0x48], eax
  0x1865	inc    	ebp
  === BLOCK LINK ===
    0x1866
=== CODE BLOCK END ===

=== CODE BLOCK ADDRESS 0x1866 ===
  0x1866	xor    	eax, eax
  0x1868	dec    	eax
  0x1869	lea    	edx, [esp + 0x50]
  0x186d	dec    	eax
  0x186e	mov    	ecx, dword ptr [esp + 0x48]
  === BLOCK LINK ===
    0x1872
=== CODE BLOCK END ===

=== CODE BLOCK ADDRESS 0x1872 ===
  0x1872	call   	dword ptr [0x8d8]
  === BLOCK LINK ===
    0x1878
=== CODE BLOCK END ===

=== CODE BLOCK ADDRESS 0x1878 ===
  0x1878	dec    	eax
  0x1879	mov    	dword ptr [esp + 0x40], eax
  0x187d	dec    	eax
  0x187e	cmp    	dword ptr [esp + 0x40], 0
  0x1883	je     	0x18c7
  === BLOCK LINK ===
    0x1885
=== CODE BLOCK END ===

=== CODE BLOCK ADDRESS 0x1885 ===
  0x1885	dec    	eax
  0x1886	mov    	dword ptr [esp + 0x38], 0
  0x188e	dec    	eax
  0x188f	lea    	eax, [esp + 0x58]
  0x1893	dec    	eax
  === BLOCK LINK ===
    0x1894
=== CODE BLOCK END ===

=== CODE BLOCK ADDRESS 0x1894 ===
  0x1894	mov    	dword ptr [esp + 0x30], eax
  0x1898	dec    	eax
  0x1899	lea    	eax, [esp + 0x60]
  0x189d	dec    	eax
  0x189e	mov    	dword ptr [esp + 0x28], eax
  === BLOCK LINK ===
    0x18a2
=== CODE BLOCK END ===

=== CODE BLOCK ADDRESS 0x18a2 ===
  0x18a2	dec    	eax
  0x18a3	lea    	eax, [0x1857]
  0x18a9	dec    	eax
  0x18aa	mov    	dword ptr [esp + 0x20], eax
  0x18ae	dec    	esp
  === BLOCK LINK ===
    0x18af
=== CODE BLOCK END ===

=== CODE BLOCK ADDRESS 0x18af ===
  0x18af	mov    	ecx, dword ptr [esp + 0x40]
  0x18b3	dec    	esp
  0x18b4	mov    	eax, dword ptr [esp + 0x48]
  0x18b8	dec    	eax
  0x18b9	mov    	edx, dword ptr [esp + 0x50]
  === BLOCK LINK ===
    0x18bd
=== CODE BLOCK END ===

=== CODE BLOCK ADDRESS 0x18bd ===
  0x18bd	xor    	ecx, ecx
  0x18bf	call   	dword ptr [0x883]
  === BLOCK LINK ===
    0x18c5
=== CODE BLOCK END ===

=== CODE BLOCK ADDRESS 0x18c5 ===
  0x18c5	jmp    	0x18ea
  === BLOCK LINK ===
    0x18c7
=== CODE BLOCK END ===

=== CODE BLOCK ADDRESS 0x18c7 ===
  0x18c7	dec    	eax
  0x18c8	mov    	eax, dword ptr [0x18ca]
  0x18ce	dec    	eax
  0x18cf	mov    	eax, dword ptr [eax]
  0x18d1	dec    	eax
  === BLOCK LINK ===
    0x18d2
=== CODE BLOCK END ===

=== CODE BLOCK ADDRESS 0x18d2 ===
  0x18d2	mov    	dword ptr [0x1920], eax
  0x18d8	dec    	eax
  0x18d9	mov    	eax, dword ptr [0x18b9]
  0x18df	dec    	eax
  0x18e0	add    	eax, 8
  === BLOCK LINK ===
    0x18e3
=== CODE BLOCK END ===

=== CODE BLOCK ADDRESS 0x18e3 ===
  0x18e3	dec    	eax
  0x18e4	mov    	dword ptr [0x18ae], eax
  0x18ea	dec    	eax
  0x18eb	mov    	eax, dword ptr [0x1907]
  0x18f1	dec    	eax
  === BLOCK LINK ===
    0x18f2
=== CODE BLOCK END ===

=== CODE BLOCK ADDRESS 0x18f2 ===
  0x18f2	mov    	dword ptr [0x1778], eax
  0x18f8	dec    	eax
  0x18f9	mov    	eax, dword ptr [esp + 0x90]
  0x1900	dec    	eax
  0x1901	mov    	dword ptr [0x1879], eax
  === BLOCK LINK ===
    0x1907
=== CODE BLOCK END ===

=== CODE BLOCK ADDRESS 0x1907 ===
  0x1907	mov    	dword ptr [0x174f], 0xc0000409
  0x1911	mov    	dword ptr [0x1749], 1
  0x191b	mov    	dword ptr [0x1753], 3
  0x1925	mov    	eax, 8
  0x192a	dec    	eax
  === BLOCK LINK ===
    0x192b
=== CODE BLOCK END ===

=== CODE BLOCK ADDRESS 0x192b ===
  0x192b	imul   	eax, eax, 0
  0x192e	dec    	eax
  0x192f	lea    	ecx, [0x174b]
  0x1935	dec    	eax
  0x1936	mov    	dword ptr [ecx + eax], 2
  === BLOCK LINK ===
    0x193d
=== CODE BLOCK END ===

=== CODE BLOCK ADDRESS 0x193d ===
  0x193d	mov    	eax, 8
  0x1942	dec    	eax
  0x1943	imul   	eax, eax, 1
  0x1946	dec    	eax
  0x1947	lea    	ecx, [0x1733]
  === BLOCK LINK ===
    0x194d
=== CODE BLOCK END ===

=== CODE BLOCK ADDRESS 0x194d ===
  0x194d	dec    	eax
  0x194e	mov    	edx, dword ptr [0x16b4]
  0x1954	dec    	eax
  0x1955	mov    	dword ptr [ecx + eax], edx
  0x1958	mov    	eax, 8
  === BLOCK LINK ===
    0x195d
=== CODE BLOCK END ===

=== CODE BLOCK ADDRESS 0x195d ===
  0x195d	dec    	eax
  0x195e	imul   	eax, eax, 2
  0x1961	dec    	eax
  0x1962	lea    	ecx, [0x1718]
  0x1968	dec    	eax
  === BLOCK LINK ===
    0x1969
=== CODE BLOCK END ===

=== CODE BLOCK ADDRESS 0x1969 ===
  0x1969	mov    	edx, dword ptr [0x16a1]
  0x196f	dec    	eax
  0x1970	mov    	dword ptr [ecx + eax], edx
  0x1973	mov    	eax, 8
  0x1978	dec    	eax
  === BLOCK LINK ===
    0x1979
=== CODE BLOCK END ===

=== CODE BLOCK ADDRESS 0x1979 ===
  0x1979	imul   	eax, eax, 0
  0x197c	dec    	eax
  0x197d	mov    	ecx, dword ptr [0x1685]
  0x1983	dec    	eax
  0x1984	mov    	dword ptr [esp + eax + 0x68], ecx
  === BLOCK LINK ===
    0x1988
=== CODE BLOCK END ===

=== CODE BLOCK ADDRESS 0x1988 ===
  0x1988	mov    	eax, 8
  0x198d	dec    	eax
  0x198e	imul   	eax, eax, 1
  0x1991	dec    	eax
  0x1992	mov    	ecx, dword ptr [0x1678]
  === BLOCK LINK ===
    0x1998
=== CODE BLOCK END ===

=== CODE BLOCK ADDRESS 0x1998 ===
  0x1998	dec    	eax
  0x1999	mov    	dword ptr [esp + eax + 0x68], ecx
  0x199d	dec    	eax
  0x199e	lea    	ecx, [0x65c]
  0x19a4	call   	0x17fc
  === BLOCK LINK ===
    0x19a9
=== CODE BLOCK END ===

=== CODE BLOCK ADDRESS 0x19a9 ===
  0x19a9	dec    	eax
  0x19aa	add    	esp, 0x88
  0x19b0	ret    	
  0x19b1	int3   	
  0x19b2	int3   	
  === BLOCK LINK ===
    0x19b3
=== CODE BLOCK END ===

=== CODE BLOCK ADDRESS 0x19b3 ===
  0x19b3	int3   	
  0x19b4	int3   	
  0x19b5	int3   	
  0x19b6	int3   	
  0x19b7	int3   	
  === BLOCK LINK ===
    0x19b8
=== CODE BLOCK END ===

=== CODE BLOCK ADDRESS 0x19b8 ===
  0x19b8	int3   	
  0x19b9	int3   	
  0x19ba	int3   	
  0x19bb	int3   	
  0x19bc	int3   	
  === BLOCK LINK ===
    0x19bd
=== CODE BLOCK END ===

=== CODE BLOCK ADDRESS 0x19bd ===
  0x19bd	int3   	
  0x19be	int3   	
  0x19bf	int3   	
  0x19c0	int3   	
  0x19c1	int3   	
  === BLOCK LINK ===
    0x19c2
=== CODE BLOCK END ===

=== CODE BLOCK ADDRESS 0x19c2 ===
  0x19c2	int3   	
  0x19c3	int3   	
  0x19c4	int3   	
  0x19c5	int3   	
  0x19c6	jmp    	dword ptr [0x80c]
  === BLOCK LINK ===
    0x19cc
=== CODE BLOCK END ===

=== CODE BLOCK ADDRESS 0x19cc ===
  0x19cc	int3   	
  0x19cd	int3   	
  0x19ce	int3   	
  0x19cf	int3   	
  0x19d0	int3   	
  === BLOCK LINK ===
    0x19d1
=== CODE BLOCK END ===

=== CODE BLOCK ADDRESS 0x19d1 ===
  0x19d1	int3   	
  0x19d2	int3   	
  0x19d3	int3   	
  0x19d4	int3   	
  0x19d5	int3   	
  === BLOCK LINK ===
    0x19d6
=== CODE BLOCK END ===

=== CODE BLOCK ADDRESS 0x19d6 ===
  0x19d6	nop    	word ptr [eax + eax]
  0x19e0	jmp    	eax
  === BLOCK LINK ===
    0x19e2
=== CODE BLOCK END ===

=== CODE BLOCK ADDRESS 0x19e2 ===
  0x19e2	int3   	
  0x19e3	int3   	
  0x19e4	int3   	
  0x19e5	int3   	
  0x19e6	int3   	
  === BLOCK LINK ===
    0x19e7
=== CODE BLOCK END ===

=== CODE BLOCK ADDRESS 0x19e7 ===
  0x19e7	int3   	
  0x19e8	int3   	
  0x19e9	int3   	
  0x19ea	int3   	
  0x19eb	int3   	
  === BLOCK LINK ===
    0x19ec
=== CODE BLOCK END ===

=== CODE BLOCK ADDRESS 0x19ec ===
  0x19ec	int3   	
  0x19ed	int3   	
  0x19ee	int3   	
  0x19ef	int3   	
  0x19f0	inc    	eax
  === BLOCK LINK ===
    0x19f1
=== CODE BLOCK END ===

=== CODE BLOCK ADDRESS 0x19f1 ===
  0x19f1	push   	ebp
  0x19f2	dec    	eax
  0x19f3	sub    	esp, 0x20
  0x19f6	dec    	eax
  0x19f7	mov    	ebp, edx
  === BLOCK LINK ===
    0x19f9
=== CODE BLOCK END ===

=== CODE BLOCK ADDRESS 0x19f9 ===
  0x19f9	dec    	eax
  0x19fa	mov    	eax, dword ptr [ecx]
  0x19fc	dec    	eax
  0x19fd	mov    	edx, ecx
  0x19ff	mov    	ecx, dword ptr [eax]
  === BLOCK LINK ===
    0x1a01
=== CODE BLOCK END ===

=== CODE BLOCK ADDRESS 0x1a01 ===
  0x1a01	call   	0x153e
  === BLOCK LINK ===
    0x1a06
=== CODE BLOCK END ===

=== CODE BLOCK ADDRESS 0x1a06 ===
  0x1a06	nop    	
  0x1a07	dec    	eax
  0x1a08	add    	esp, 0x20
  0x1a0b	pop    	ebp
  0x1a0c	ret    	
  === BLOCK LINK ===
    0x1a0d
=== CODE BLOCK END ===

=== CODE BLOCK ADDRESS 0x15f3 ===
=== CODE BLOCK END ===

=== CODE BLOCK ADDRESS 0x1a0d ===
  0x1a0d	int3   	
  0x1a0e	int3   	
  0x1a0f	int3   	
  0x1a10	int3   	
  0x1a11	int3   	
  === BLOCK LINK ===
    0x1a12
=== CODE BLOCK END ===

=== CODE BLOCK ADDRESS 0x1a12 ===
  0x1a12	int3   	
  0x1a13	int3   	
  0x1a14	int3   	
  0x1a15	int3   	
  0x1a16	int3   	
  === BLOCK LINK ===
    0x1a17
=== CODE BLOCK END ===

=== CODE BLOCK ADDRESS 0x1a17 ===
  0x1a17	int3   	
  0x1a18	int3   	
  0x1a19	int3   	
  0x1a1a	int3   	
  0x1a1b	int3   	
  === BLOCK LINK ===
    0x1a1c
=== CODE BLOCK END ===

=== CODE BLOCK ADDRESS 0x1a1c ===
  0x1a1c	int3   	
  0x1a1d	int3   	
  0x1a1e	int3   	
  0x1a1f	int3   	
  0x1a20	inc    	eax
  === BLOCK LINK ===
    0x1a21
=== CODE BLOCK END ===

=== CODE BLOCK ADDRESS 0x1a21 ===
  0x1a21	push   	ebp
  0x1a22	dec    	eax
  0x1a23	sub    	esp, 0x20
  0x1a26	dec    	eax
  0x1a27	mov    	ebp, edx
  === BLOCK LINK ===
    0x1a29
=== CODE BLOCK END ===

=== CODE BLOCK ADDRESS 0x1a29 ===
  0x1a29	dec    	eax
  0x1a2a	mov    	eax, dword ptr [ecx]
  0x1a2c	xor    	ecx, ecx
  0x1a2e	cmp    	dword ptr [eax], 0xc0000005
  0x1a34	sete   	cl
  === BLOCK LINK ===
    0x1a37
=== CODE BLOCK END ===

=== CODE BLOCK ADDRESS 0x1a37 ===
  0x1a37	mov    	eax, ecx
  0x1a39	dec    	eax
  0x1a3a	add    	esp, 0x20
  0x1a3d	pop    	ebp
  0x1a3e	ret    	
  === BLOCK LINK ===
    0x1a3f
=== CODE BLOCK END ===

=== CODE BLOCK ADDRESS 0x1300 ===
  0x1300	mov    	eax, dword ptr [0x22e2]
  0x1306	cmp    	eax, ebx
  0x1308	jne    	0x1327
  === BLOCK LINK ===
    0x130a
=== CODE BLOCK END ===

=== CODE BLOCK ADDRESS 0x1a3f ===
  0x1a3f	int3   	
  0x1a40	add    	byte ptr [eax], al
  0x1a42	add    	byte ptr [eax], al
  0x1a44	add    	byte ptr [eax], al
  0x1a46	add    	byte ptr [eax], al
  === BLOCK LINK ===
    0x1a48
=== CODE BLOCK END ===

=== CODE BLOCK ADDRESS 0x1a48 ===
  0x1a48	add    	byte ptr [eax], al
  0x1a4a	add    	byte ptr [eax], al
  0x1a4c	add    	byte ptr [eax], al
  0x1a4e	add    	byte ptr [eax], al
  0x1a50	add    	byte ptr [eax], al
  === BLOCK LINK ===
    0x1a52
=== CODE BLOCK END ===

=== CODE BLOCK ADDRESS 0x1a52 ===
  0x1a52	add    	byte ptr [eax], al
  0x1a54	add    	byte ptr [eax], al
  0x1a56	add    	byte ptr [eax], al
  0x1a58	add    	byte ptr [eax], al
  0x1a5a	add    	byte ptr [eax], al
  === BLOCK LINK ===
    0x1a5c
=== CODE BLOCK END ===

=== CODE BLOCK ADDRESS 0x1a5c ===
  0x1a5c	add    	byte ptr [eax], al
  0x1a5e	add    	byte ptr [eax], al
  0x1a60	add    	byte ptr [eax], al
  0x1a62	add    	byte ptr [eax], al
  0x1a64	add    	byte ptr [eax], al
  === BLOCK LINK ===
    0x1a66
=== CODE BLOCK END ===

=== CODE BLOCK ADDRESS 0x1a66 ===
  0x1a66	add    	byte ptr [eax], al
  0x1a68	add    	byte ptr [eax], al
  0x1a6a	add    	byte ptr [eax], al
  0x1a6c	add    	byte ptr [eax], al
  0x1a6e	add    	byte ptr [eax], al
  === BLOCK LINK ===
    0x1a70
=== CODE BLOCK END ===

=== CODE BLOCK ADDRESS 0x1a70 ===
  0x1a70	add    	byte ptr [eax], al
  0x1a72	add    	byte ptr [eax], al
  0x1a74	add    	byte ptr [eax], al
  0x1a76	add    	byte ptr [eax], al
  0x1a78	add    	byte ptr [eax], al
  === BLOCK LINK ===
    0x1a7a
=== CODE BLOCK END ===

=== CODE BLOCK ADDRESS 0x1a7a ===
  0x1a7a	add    	byte ptr [eax], al
  0x1a7c	add    	byte ptr [eax], al
  0x1a7e	add    	byte ptr [eax], al
  0x1a80	add    	byte ptr [eax], al
  0x1a82	add    	byte ptr [eax], al
  === BLOCK LINK ===
    0x1a84
=== CODE BLOCK END ===

=== CODE BLOCK ADDRESS 0x1a84 ===
  0x1a84	add    	byte ptr [eax], al
  0x1a86	add    	byte ptr [eax], al
  0x1a88	add    	byte ptr [eax], al
  0x1a8a	add    	byte ptr [eax], al
  0x1a8c	add    	byte ptr [eax], al
  === BLOCK LINK ===
    0x1a8e
=== CODE BLOCK END ===

=== CODE BLOCK ADDRESS 0x1a8e ===
  0x1a8e	add    	byte ptr [eax], al
  0x1a90	add    	byte ptr [eax], al
  0x1a92	add    	byte ptr [eax], al
  0x1a94	add    	byte ptr [eax], al
  0x1a96	add    	byte ptr [eax], al
  === BLOCK LINK ===
    0x1a98
=== CODE BLOCK END ===

=== CODE BLOCK ADDRESS 0x1a98 ===
  0x1a98	add    	byte ptr [eax], al
  0x1a9a	add    	byte ptr [eax], al
  0x1a9c	add    	byte ptr [eax], al
  0x1a9e	add    	byte ptr [eax], al
  0x1aa0	add    	byte ptr [eax], al
  === BLOCK LINK ===
    0x1aa2
=== CODE BLOCK END ===

=== CODE BLOCK ADDRESS 0x1aa2 ===
  0x1aa2	add    	byte ptr [eax], al
  0x1aa4	add    	byte ptr [eax], al
  0x1aa6	add    	byte ptr [eax], al
  0x1aa8	add    	byte ptr [eax], al
  0x1aaa	add    	byte ptr [eax], al
  === BLOCK LINK ===
    0x1aac
=== CODE BLOCK END ===

=== CODE BLOCK ADDRESS 0x1aac ===
  0x1aac	add    	byte ptr [eax], al
  0x1aae	add    	byte ptr [eax], al
  0x1ab0	add    	byte ptr [eax], al
  0x1ab2	add    	byte ptr [eax], al
  0x1ab4	add    	byte ptr [eax], al
  === BLOCK LINK ===
    0x1ab6
=== CODE BLOCK END ===

=== CODE BLOCK ADDRESS 0x1ab6 ===
  0x1ab6	add    	byte ptr [eax], al
  0x1ab8	add    	byte ptr [eax], al
  0x1aba	add    	byte ptr [eax], al
  0x1abc	add    	byte ptr [eax], al
  0x1abe	add    	byte ptr [eax], al
  === BLOCK LINK ===
    0x1ac0
=== CODE BLOCK END ===

=== CODE BLOCK ADDRESS 0x1ac0 ===
  0x1ac0	add    	byte ptr [eax], al
  0x1ac2	add    	byte ptr [eax], al
  0x1ac4	add    	byte ptr [eax], al
  0x1ac6	add    	byte ptr [eax], al
  0x1ac8	add    	byte ptr [eax], al
  === BLOCK LINK ===
    0x1aca
=== CODE BLOCK END ===

=== CODE BLOCK ADDRESS 0x1aca ===
  0x1aca	add    	byte ptr [eax], al
  0x1acc	add    	byte ptr [eax], al
  0x1ace	add    	byte ptr [eax], al
  0x1ad0	add    	byte ptr [eax], al
  0x1ad2	add    	byte ptr [eax], al
  === BLOCK LINK ===
    0x1ad4
=== CODE BLOCK END ===

=== CODE BLOCK ADDRESS 0x1ad4 ===
  0x1ad4	add    	byte ptr [eax], al
  0x1ad6	add    	byte ptr [eax], al
  0x1ad8	add    	byte ptr [eax], al
  0x1ada	add    	byte ptr [eax], al
  0x1adc	add    	byte ptr [eax], al
  === BLOCK LINK ===
    0x1ade
=== CODE BLOCK END ===

=== CODE BLOCK ADDRESS 0x1ade ===
  0x1ade	add    	byte ptr [eax], al
  0x1ae0	add    	byte ptr [eax], al
  0x1ae2	add    	byte ptr [eax], al
  0x1ae4	add    	byte ptr [eax], al
  0x1ae6	add    	byte ptr [eax], al
  === BLOCK LINK ===
    0x1ae8
=== CODE BLOCK END ===

=== CODE BLOCK ADDRESS 0x1ae8 ===
  0x1ae8	add    	byte ptr [eax], al
  0x1aea	add    	byte ptr [eax], al
  0x1aec	add    	byte ptr [eax], al
  0x1aee	add    	byte ptr [eax], al
  0x1af0	add    	byte ptr [eax], al
  === BLOCK LINK ===
    0x1af2
=== CODE BLOCK END ===

=== CODE BLOCK ADDRESS 0x1af2 ===
  0x1af2	add    	byte ptr [eax], al
  0x1af4	add    	byte ptr [eax], al
  0x1af6	add    	byte ptr [eax], al
  0x1af8	add    	byte ptr [eax], al
  0x1afa	add    	byte ptr [eax], al
  === BLOCK LINK ===
    0x1afc
=== CODE BLOCK END ===

=== CODE BLOCK ADDRESS 0x1afc ===
  0x1afc	add    	byte ptr [eax], al
  0x1afe	add    	byte ptr [eax], al
  0x1b00	add    	byte ptr [eax], al
  0x1b02	add    	byte ptr [eax], al
  0x1b04	add    	byte ptr [eax], al
  === BLOCK LINK ===
    0x1b06
=== CODE BLOCK END ===

=== CODE BLOCK ADDRESS 0x1b06 ===
  0x1b06	add    	byte ptr [eax], al
  0x1b08	add    	byte ptr [eax], al
  0x1b0a	add    	byte ptr [eax], al
  0x1b0c	add    	byte ptr [eax], al
  0x1b0e	add    	byte ptr [eax], al
  === BLOCK LINK ===
    0x1b10
=== CODE BLOCK END ===

=== CODE BLOCK ADDRESS 0x1b10 ===
  0x1b10	add    	byte ptr [eax], al
  0x1b12	add    	byte ptr [eax], al
  0x1b14	add    	byte ptr [eax], al
  0x1b16	add    	byte ptr [eax], al
  0x1b18	add    	byte ptr [eax], al
  === BLOCK LINK ===
    0x1b1a
=== CODE BLOCK END ===

=== CODE BLOCK ADDRESS 0x1b1a ===
  0x1b1a	add    	byte ptr [eax], al
  0x1b1c	add    	byte ptr [eax], al
  0x1b1e	add    	byte ptr [eax], al
  0x1b20	add    	byte ptr [eax], al
  0x1b22	add    	byte ptr [eax], al
  === BLOCK LINK ===
    0x1b24
=== CODE BLOCK END ===

=== CODE BLOCK ADDRESS 0x1b24 ===
  0x1b24	add    	byte ptr [eax], al
  0x1b26	add    	byte ptr [eax], al
  0x1b28	add    	byte ptr [eax], al
  0x1b2a	add    	byte ptr [eax], al
  0x1b2c	add    	byte ptr [eax], al
  === BLOCK LINK ===
    0x1b2e
=== CODE BLOCK END ===

=== CODE BLOCK ADDRESS 0x1b2e ===
  0x1b2e	add    	byte ptr [eax], al
  0x1b30	add    	byte ptr [eax], al
  0x1b32	add    	byte ptr [eax], al
  0x1b34	add    	byte ptr [eax], al
  0x1b36	add    	byte ptr [eax], al
  === BLOCK LINK ===
    0x1b38
=== CODE BLOCK END ===

=== CODE BLOCK ADDRESS 0x1b38 ===
  0x1b38	add    	byte ptr [eax], al
  0x1b3a	add    	byte ptr [eax], al
  0x1b3c	add    	byte ptr [eax], al
  0x1b3e	add    	byte ptr [eax], al
  0x1b40	add    	byte ptr [eax], al
  === BLOCK LINK ===
    0x1b42
=== CODE BLOCK END ===

=== CODE BLOCK ADDRESS 0x1b42 ===
  0x1b42	add    	byte ptr [eax], al
  0x1b44	add    	byte ptr [eax], al
  0x1b46	add    	byte ptr [eax], al
  0x1b48	add    	byte ptr [eax], al
  0x1b4a	add    	byte ptr [eax], al
  === BLOCK LINK ===
    0x1b4c
=== CODE BLOCK END ===

=== CODE BLOCK ADDRESS 0x1b4c ===
  0x1b4c	add    	byte ptr [eax], al
  0x1b4e	add    	byte ptr [eax], al
  0x1b50	add    	byte ptr [eax], al
  0x1b52	add    	byte ptr [eax], al
  0x1b54	add    	byte ptr [eax], al
  === BLOCK LINK ===
    0x1b56
=== CODE BLOCK END ===

=== CODE BLOCK ADDRESS 0x1b56 ===
  0x1b56	add    	byte ptr [eax], al
  0x1b58	add    	byte ptr [eax], al
  0x1b5a	add    	byte ptr [eax], al
  0x1b5c	add    	byte ptr [eax], al
  0x1b5e	add    	byte ptr [eax], al
  === BLOCK LINK ===
    0x1b60
=== CODE BLOCK END ===

=== CODE BLOCK ADDRESS 0x1b60 ===
  0x1b60	add    	byte ptr [eax], al
  0x1b62	add    	byte ptr [eax], al
  0x1b64	add    	byte ptr [eax], al
  0x1b66	add    	byte ptr [eax], al
  0x1b68	add    	byte ptr [eax], al
  === BLOCK LINK ===
    0x1b6a
=== CODE BLOCK END ===

=== CODE BLOCK ADDRESS 0x1b6a ===
  0x1b6a	add    	byte ptr [eax], al
  0x1b6c	add    	byte ptr [eax], al
  0x1b6e	add    	byte ptr [eax], al
  0x1b70	add    	byte ptr [eax], al
  0x1b72	add    	byte ptr [eax], al
  === BLOCK LINK ===
    0x1b74
=== CODE BLOCK END ===

=== CODE BLOCK ADDRESS 0x1b74 ===
  0x1b74	add    	byte ptr [eax], al
  0x1b76	add    	byte ptr [eax], al
  0x1b78	add    	byte ptr [eax], al
  0x1b7a	add    	byte ptr [eax], al
  0x1b7c	add    	byte ptr [eax], al
  === BLOCK LINK ===
    0x1b7e
=== CODE BLOCK END ===

=== CODE BLOCK ADDRESS 0x1b7e ===
  0x1b7e	add    	byte ptr [eax], al
  0x1b80	add    	byte ptr [eax], al
  0x1b82	add    	byte ptr [eax], al
  0x1b84	add    	byte ptr [eax], al
  0x1b86	add    	byte ptr [eax], al
  === BLOCK LINK ===
    0x1b88
=== CODE BLOCK END ===

=== CODE BLOCK ADDRESS 0x1b88 ===
  0x1b88	add    	byte ptr [eax], al
  0x1b8a	add    	byte ptr [eax], al
  0x1b8c	add    	byte ptr [eax], al
  0x1b8e	add    	byte ptr [eax], al
  0x1b90	add    	byte ptr [eax], al
  === BLOCK LINK ===
    0x1b92
=== CODE BLOCK END ===

=== CODE BLOCK ADDRESS 0x1b92 ===
  0x1b92	add    	byte ptr [eax], al
  0x1b94	add    	byte ptr [eax], al
  0x1b96	add    	byte ptr [eax], al
  0x1b98	add    	byte ptr [eax], al
  0x1b9a	add    	byte ptr [eax], al
  === BLOCK LINK ===
    0x1b9c
=== CODE BLOCK END ===

=== CODE BLOCK ADDRESS 0x1b9c ===
  0x1b9c	add    	byte ptr [eax], al
  0x1b9e	add    	byte ptr [eax], al
  0x1ba0	add    	byte ptr [eax], al
  0x1ba2	add    	byte ptr [eax], al
  0x1ba4	add    	byte ptr [eax], al
  === BLOCK LINK ===
    0x1ba6
=== CODE BLOCK END ===

=== CODE BLOCK ADDRESS 0x1ba6 ===
  0x1ba6	add    	byte ptr [eax], al
  0x1ba8	add    	byte ptr [eax], al
  0x1baa	add    	byte ptr [eax], al
  0x1bac	add    	byte ptr [eax], al
  0x1bae	add    	byte ptr [eax], al
  === BLOCK LINK ===
    0x1bb0
=== CODE BLOCK END ===

=== CODE BLOCK ADDRESS 0x1bb0 ===
  0x1bb0	add    	byte ptr [eax], al
  0x1bb2	add    	byte ptr [eax], al
  0x1bb4	add    	byte ptr [eax], al
  0x1bb6	add    	byte ptr [eax], al
  0x1bb8	add    	byte ptr [eax], al
  === BLOCK LINK ===
    0x1bba
=== CODE BLOCK END ===

=== CODE BLOCK ADDRESS 0x1bba ===
  0x1bba	add    	byte ptr [eax], al
  0x1bbc	add    	byte ptr [eax], al
  0x1bbe	add    	byte ptr [eax], al
  0x1bc0	add    	byte ptr [eax], al
  0x1bc2	add    	byte ptr [eax], al
  === BLOCK LINK ===
    0x1bc4
=== CODE BLOCK END ===

=== CODE BLOCK ADDRESS 0x1bc4 ===
  0x1bc4	add    	byte ptr [eax], al
  0x1bc6	add    	byte ptr [eax], al
  0x1bc8	add    	byte ptr [eax], al
  0x1bca	add    	byte ptr [eax], al
  0x1bcc	add    	byte ptr [eax], al
  === BLOCK LINK ===
    0x1bce
=== CODE BLOCK END ===

=== CODE BLOCK ADDRESS 0x1bce ===
  0x1bce	add    	byte ptr [eax], al
  0x1bd0	add    	byte ptr [eax], al
  0x1bd2	add    	byte ptr [eax], al
  0x1bd4	add    	byte ptr [eax], al
  0x1bd6	add    	byte ptr [eax], al
  === BLOCK LINK ===
    0x1bd8
=== CODE BLOCK END ===

=== CODE BLOCK ADDRESS 0x1bd8 ===
  0x1bd8	add    	byte ptr [eax], al
  0x1bda	add    	byte ptr [eax], al
  0x1bdc	add    	byte ptr [eax], al
  0x1bde	add    	byte ptr [eax], al
  0x1be0	add    	byte ptr [eax], al
  === BLOCK LINK ===
    0x1be2
=== CODE BLOCK END ===

=== CODE BLOCK ADDRESS 0x1be2 ===
  0x1be2	add    	byte ptr [eax], al
  0x1be4	add    	byte ptr [eax], al
  0x1be6	add    	byte ptr [eax], al
  0x1be8	add    	byte ptr [eax], al
  0x1bea	add    	byte ptr [eax], al
  === BLOCK LINK ===
    0x1bec
=== CODE BLOCK END ===

=== CODE BLOCK ADDRESS 0x1bec ===
  0x1bec	add    	byte ptr [eax], al
  0x1bee	add    	byte ptr [eax], al
  0x1bf0	add    	byte ptr [eax], al
  0x1bf2	add    	byte ptr [eax], al
  0x1bf4	add    	byte ptr [eax], al
  === BLOCK LINK ===
    0x1bf6
=== CODE BLOCK END ===

=== CODE BLOCK ADDRESS 0x1bf6 ===
  0x1bf6	add    	byte ptr [eax], al
  0x1bf8	add    	byte ptr [eax], al
  0x1bfa	add    	byte ptr [eax], al
  0x1bfc	add    	byte ptr [eax], al
=== CODE BLOCK END ===

=== DATA BLOCK ADDRESS 0x2000 ===
  0x2000	60 30 00 40 01 00 00 00 00 31 00 40 01 00 00 00 	`00@0000010@0000
  0x2010	18 01 00 00 00 00 00 00 00 00 00 00 00 00 00 00 	0000000000000000
  0x2020	00 00 00 00 00 00 00 00 00 00 00 00 00 00 00 00 	0000000000000000
  0x2030	00 00 00 00 00 00 00 00 00 00 00 00 00 00 00 00 	0000000000000000
  0x2040	00 00 00 00 00 00 00 00 00 00 00 00 00 00 00 00 	0000000000000000
  0x2050	00 00 00 00 00 00 00 00 00 00 00 00 00 00 00 00 	0000000000000000
  0x2060	00 00 00 00 00 00 00 00 08 30 00 40 01 00 00 00 	00000000000@0000
  0x2070	00 00 00 00 00 00 00 00 00 00 00 00 00 00 00 00 	0000000000000000
  0x2080	58 22 00 40 01 00 00 00 60 22 00 40 01 00 00 00 	X"0@0000`"0@0000
  0x2090	a0 22 00 40 01 00 00 00 08 00 00 00 00 00 00 00 	0"0@000000000000
  0x20a0	00 75 01 00 00 00 00 00 00 00 00 00 00 00 00 00 	0u00000000000000
  0x20b0	00 00 00 00 00 00 00 00 00 00 00 00 00 00 00 00 	0000000000000000
  0x20c0	00 00 00 00 00 00 00 00 00 00 00 00 00 00 00 00 	0000000000000000
  0x20d0	00 00 00 00 00 00 00 00 00 00 00 00 00 00 00 00 	0000000000000000
  0x20e0	00 00 00 00 00 00 00 00 00 00 00 00 00 00 00 00 	0000000000000000
  0x20f0	00 00 00 00 00 00 00 00 00 00 00 00 00 00 00 00 	0000000000000000
  0x2100	00 00 00 00 00 00 00 00 00 00 00 00 00 00 00 00 	0000000000000000
  0x2110	00 00 00 00 00 00 00 00 00 00 00 00 00 00 00 00 	0000000000000000
  0x2120	00 00 00 00 00 00 00 00 08 28 00 00 00 00 00 00 	000000000(000000
  0x2130	1a 28 00 00 00 00 00 00 7a 2a 00 00 00 00 00 00 	0(000000z*000000
  0x2140	5e 2a 00 00 00 00 00 00 4a 2a 00 00 00 00 00 00 	^*000000J*000000
  0x2150	30 2a 00 00 00 00 00 00 1c 2a 00 00 00 00 00 00 	0*0000000*000000
  0x2160	0c 2a 00 00 00 00 00 00 f2 29 00 00 00 00 00 00 	0*0000000)000000
  0x2170	dc 29 00 00 00 00 00 00 c6 29 00 00 00 00 00 00 	0)0000000)000000
  0x2180	ac 29 00 00 00 00 00 00 98 29 00 00 00 00 00 00 	0)0000000)000000
  0x2190	7a 29 00 00 00 00 00 00 72 29 00 00 00 00 00 00 	z)000000r)000000
  0x21a0	8e 2a 00 00 00 00 00 00 00 00 00 00 00 00 00 00 	0*00000000000000
  0x21b0	10 29 00 00 00 00 00 00 00 00 00 00 00 00 00 00 	0)00000000000000
  0x21c0	2e 29 00 00 00 00 00 00 40 29 00 00 00 00 00 00 	.)000000@)000000
  0x21d0	00 00 00 00 00 00 00 00 a2 2a 00 00 00 00 00 00 	000000000*000000
  0x21e0	e4 28 00 00 00 00 00 00 da 28 00 00 00 00 00 00 	0(0000000(000000
  0x21f0	d0 28 00 00 00 00 00 00 b8 28 00 00 00 00 00 00 	0(0000000(000000
  0x2200	ac 28 00 00 00 00 00 00 98 28 00 00 00 00 00 00 	0(0000000(000000
  0x2210	8e 28 00 00 00 00 00 00 86 28 00 00 00 00 00 00 	0(0000000(000000
  0x2220	7e 28 00 00 00 00 00 00 6c 28 00 00 00 00 00 00 	~(000000l(000000
  0x2230	5a 28 00 00 00 00 00 00 4c 28 00 00 00 00 00 00 	Z(000000L(000000
  0x2240	3e 28 00 00 00 00 00 00 f0 28 00 00 00 00 00 00 	>(0000000(000000
  0x2250	00 00 00 00 00 00 00 00 f0 17 00 40 01 00 00 00 	00000000000@0000
  0x2260	e0 19 00 40 01 00 00 00 00 00 00 00 00 00 00 00 	000@000000000000
  0x2270	c0 11 00 40 01 00 00 00 00 00 00 00 00 00 00 00 	000@000000000000
  0x2280	00 00 00 00 00 00 00 00 e0 10 00 40 01 00 00 00 	00000000000@0000
  0x2290	20 15 00 40 01 00 00 00 00 00 00 00 00 00 00 00 	 00@000000000000
  0x22a0	e0 10 00 00 c0 11 00 00 80 14 00 00 e0 14 00 00 	0000000000000000
  0x22b0	20 15 00 00 00 16 00 00 f0 17 00 00 40 18 00 00 	 00000000000@000
  0x22c0	25 00 53 00 79 00 73 00 74 00 65 00 6d 00 52 00 	%0S0y0s0t0e0m0R0
  0x22d0	6f 00 6f 00 74 00 25 00 5c 00 53 00 79 00 73 00 	o0o0t0%000S0y0s0
  0x22e0	74 00 65 00 6d 00 33 00 32 00 5c 00 70 00 65 00 	t0e0m0302000p0e0
  0x22f0	72 00 66 00 6d 00 6f 00 6e 00 2e 00 65 00 78 00 	r0f0m0o0n0.0e0x0
  0x2300	65 00 00 00 00 00 00 00 2f 00 72 00 65 00 73 00 	e0000000/0r0e0s0
  0x2310	00 00 00 00 00 00 00 00 00 00 00 00 00 00 00 00 	0000000000000000
  0x2320	00 00 00 00 c6 5f 0d 02 00 00 00 00 02 00 00 00 	00000_0000000000
  0x2330	23 00 00 00 74 23 00 00 74 13 00 00 00 00 00 00 	#000t#00t0000000
  0x2340	c6 5f 0d 02 00 00 00 00 0d 00 00 00 f0 01 00 00 	0_00000000000000
  0x2350	98 23 00 00 98 13 00 00 00 00 00 00 c6 5f 0d 02 	0#00000000000_00
  0x2360	00 00 00 00 10 00 00 00 24 00 00 00 88 25 00 00 	00000000$0000%00
  0x2370	88 15 00 00 52 53 44 53 6d 21 af 3f 71 71 1d 9c 	0000RSDSm!0?qq00
  0x2380	84 36 be 28 df 9f c7 20 01 00 00 00 72 65 73 6d 	060(000 0000resm
  0x2390	6f 6e 2e 70 64 62 00 00 47 43 54 4c 00 10 00 00 	on.pdb00GCTL0000
  0x23a0	d0 09 00 00 2e 74 65 78 74 24 6d 6e 00 00 00 00 	0000.text$mn0000
  0x23b0	d0 19 00 00 20 00 00 00 2e 74 65 78 74 24 6d 6e 	0000 000.text$mn
  0x23c0	24 30 30 00 f0 19 00 00 50 00 00 00 2e 74 65 78 	$0000000P000.tex
  0x23d0	74 24 78 00 00 20 00 00 28 01 00 00 2e 72 64 61 	t$x00 00(000.rda
  0x23e0	74 61 24 62 72 63 00 00 28 21 00 00 30 01 00 00 	ta$brc00(!000000
  0x23f0	2e 69 64 61 74 61 24 35 00 00 00 00 58 22 00 00 	.idata$50000X"00
  0x2400	10 00 00 00 2e 30 30 63 66 67 00 00 68 22 00 00 	0000.00cfg00h"00
  0x2410	08 00 00 00 2e 43 52 54 24 58 43 41 00 00 00 00 	0000.CRT$XCA0000
  0x2420	70 22 00 00 08 00 00 00 2e 43 52 54 24 58 43 41 	p"000000.CRT$XCA
  0x2430	41 00 00 00 78 22 00 00 08 00 00 00 2e 43 52 54 	A000x"000000.CRT
  0x2440	24 58 43 5a 00 00 00 00 80 22 00 00 08 00 00 00 	$XCZ00000"000000
  0x2450	2e 43 52 54 24 58 49 41 00 00 00 00 88 22 00 00 	.CRT$XIA00000"00
  0x2460	08 00 00 00 2e 43 52 54 24 58 49 41 41 00 00 00 	0000.CRT$XIAA000
  0x2470	90 22 00 00 08 00 00 00 2e 43 52 54 24 58 49 59 	0"000000.CRT$XIY
  0x2480	00 00 00 00 98 22 00 00 08 00 00 00 2e 43 52 54 	00000"000000.CRT
  0x2490	24 58 49 5a 00 00 00 00 a0 22 00 00 20 00 00 00 	$XIZ00000"00 000
  0x24a0	2e 67 66 69 64 73 00 00 c0 22 00 00 b4 00 00 00 	.gfids000"000000
  0x24b0	2e 72 64 61 74 61 00 00 74 23 00 00 3c 02 00 00 	.rdata00t#00<000
  0x24c0	2e 72 64 61 74 61 24 7a 7a 7a 64 62 67 00 00 00 	.rdata$zzzdbg000
  0x24d0	b0 25 00 00 c4 00 00 00 2e 78 64 61 74 61 00 00 	0%000000.xdata00
  0x24e0	74 26 00 00 50 00 00 00 2e 69 64 61 74 61 24 32 	t&00P000.idata$2
  0x24f0	00 00 00 00 c4 26 00 00 14 00 00 00 2e 69 64 61 	00000&000000.ida
  0x2500	74 61 24 33 00 00 00 00 d8 26 00 00 30 01 00 00 	ta$300000&000000
  0x2510	2e 69 64 61 74 61 24 34 00 00 00 00 08 28 00 00 	.idata$400000(00
  0x2520	a4 02 00 00 2e 69 64 61 74 61 24 36 00 00 00 00 	0000.idata$60000
  0x2530	00 30 00 00 20 00 00 00 2e 64 61 74 61 00 00 00 	0000 000.data000
  0x2540	20 30 00 00 58 06 00 00 2e 62 73 73 00 00 00 00 	 000X000.bss0000
  0x2550	00 40 00 00 cc 00 00 00 2e 70 64 61 74 61 00 00 	0@000000.pdata00
  0x2560	00 50 00 00 70 03 00 00 2e 72 73 72 63 24 30 31 	0P00p000.rsrc$01
  0x2570	00 00 00 00 70 53 00 00 e8 88 01 00 2e 72 73 72 	0000pS000000.rsr
  0x2580	63 24 30 32 00 00 00 00 20 00 00 00 6d 21 af 3f 	c$020000 000m!0?
  0x2590	71 71 1d 9c 84 36 be 28 df 9f c7 20 38 01 19 50 	qq00060(000 800P
  0x25a0	ff 79 ee 00 c4 99 1b 03 c6 5f 0d 02 00 00 00 00 	0y0000000_000000
  0x25b0	01 0e 03 00 0e 01 20 00 02 50 00 00 01 04 01 00 	000000 00P000000
  0x25c0	04 42 00 00 01 04 01 00 04 62 00 00 09 1c 0b 00 	0B0000000b000000
  0x25d0	1c e4 1b 00 1c 74 1a 00 1c 64 19 00 1c 34 18 00 	00000t000d000400
  0x25e0	1c 01 16 00 15 f0 00 00 da 17 00 00 01 00 00 00 	0000000000000000
  0x25f0	3f 12 00 00 29 14 00 00 f0 19 00 00 29 14 00 00 	?000)0000000)000
  0x2600	01 06 02 00 06 32 02 50 01 00 00 00 09 04 01 00 	0000020P00000000
  0x2610	04 22 00 00 da 17 00 00 01 00 00 00 5c 15 00 00 	0"00000000000000
  0x2620	92 15 00 00 01 00 00 00 92 15 00 00 01 06 02 00 	0000000000000000
  0x2630	06 32 02 30 09 0a 04 00 0a 34 06 00 0a 32 06 70 	020000000400020p
  0x2640	da 17 00 00 01 00 00 00 6d 16 00 00 a0 16 00 00 	00000000m0000000
  0x2650	20 1a 00 00 a0 16 00 00 01 0d 04 00 0d 34 09 00 	 000000000000400
  0x2660	0d 32 06 50 01 0c 02 00 0c 01 11 00 00 00 00 00 	020P000000000000
  0x2670	01 00 00 00 d8 26 00 00 00 00 00 00 00 00 00 00 	00000&0000000000
  0x2680	30 28 00 00 28 21 00 00 88 27 00 00 00 00 00 00 	0(00(!000'000000
  0x2690	00 00 00 00 04 29 00 00 d8 21 00 00 60 27 00 00 	00000)000!00`'00
  0x26a0	00 00 00 00 00 00 00 00 22 29 00 00 b0 21 00 00 	00000000")000!00
  0x26b0	70 27 00 00 00 00 00 00 00 00 00 00 52 29 00 00 	p'0000000000R)00
  0x26c0	c0 21 00 00 00 00 00 00 00 00 00 00 00 00 00 00 	0!00000000000000
  0x26d0	00 00 00 00 00 00 00 00 08 28 00 00 00 00 00 00 	000000000(000000
  0x26e0	1a 28 00 00 00 00 00 00 7a 2a 00 00 00 00 00 00 	0(000000z*000000
  0x26f0	5e 2a 00 00 00 00 00 00 4a 2a 00 00 00 00 00 00 	^*000000J*000000
  0x2700	30 2a 00 00 00 00 00 00 1c 2a 00 00 00 00 00 00 	0*0000000*000000
  0x2710	0c 2a 00 00 00 00 00 00 f2 29 00 00 00 00 00 00 	0*0000000)000000
  0x2720	dc 29 00 00 00 00 00 00 c6 29 00 00 00 00 00 00 	0)0000000)000000
  0x2730	ac 29 00 00 00 00 00 00 98 29 00 00 00 00 00 00 	0)0000000)000000
  0x2740	7a 29 00 00 00 00 00 00 72 29 00 00 00 00 00 00 	z)000000r)000000
  0x2750	8e 2a 00 00 00 00 00 00 00 00 00 00 00 00 00 00 	0*00000000000000
  0x2760	10 29 00 00 00 00 00 00 00 00 00 00 00 00 00 00 	0)00000000000000
  0x2770	2e 29 00 00 00 00 00 00 40 29 00 00 00 00 00 00 	.)000000@)000000
  0x2780	00 00 00 00 00 00 00 00 a2 2a 00 00 00 00 00 00 	000000000*000000
  0x2790	e4 28 00 00 00 00 00 00 da 28 00 00 00 00 00 00 	0(0000000(000000
  0x27a0	d0 28 00 00 00 00 00 00 b8 28 00 00 00 00 00 00 	0(0000000(000000
  0x27b0	ac 28 00 00 00 00 00 00 98 28 00 00 00 00 00 00 	0(0000000(000000
  0x27c0	8e 28 00 00 00 00 00 00 86 28 00 00 00 00 00 00 	0(0000000(000000
  0x27d0	7e 28 00 00 00 00 00 00 6c 28 00 00 00 00 00 00 	~(000000l(000000
  0x27e0	5a 28 00 00 00 00 00 00 4c 28 00 00 00 00 00 00 	Z(000000L(000000
  0x27f0	3e 28 00 00 00 00 00 00 f0 28 00 00 00 00 00 00 	>(0000000(000000
  0x2800	00 00 00 00 00 00 00 00 d9 02 47 65 74 53 74 61 	0000000000GetSta
  0x2810	72 74 75 70 49 6e 66 6f 57 00 58 03 48 65 61 70 	rtupInfoW0X0Heap
  0x2820	53 65 74 49 6e 66 6f 72 6d 61 74 69 6f 6e 00 00 	SetInformation00
  0x2830	4b 45 52 4e 45 4c 33 32 2e 64 6c 6c 00 00 55 00 	KERNEL32.dll00U0
  0x2840	5f 58 63 70 74 46 69 6c 74 65 72 00 ae 00 5f 61 	_XcptFilter000_a
  0x2850	6d 73 67 5f 65 78 69 74 00 00 9d 00 5f 5f 77 67 	msg_exit0000__wg
  0x2860	65 74 6d 61 69 6e 61 72 67 73 00 00 8e 00 5f 5f 	etmainargs0000__
  0x2870	73 65 74 5f 61 70 70 5f 74 79 70 65 00 00 32 04 	set_app_type0020
  0x2880	65 78 69 74 00 00 0e 01 5f 65 78 69 74 00 c1 00 	exit0000_exit000
  0x2890	5f 63 65 78 69 74 00 00 90 00 5f 5f 73 65 74 75 	_cexit0000__setu
  0x28a0	73 65 72 6d 61 74 68 65 72 72 00 00 7d 01 5f 69 	sermatherr00}0_i
  0x28b0	6e 69 74 74 65 72 6d 00 57 00 5f 5f 43 5f 73 70 	nitterm0W0__C_sp
  0x28c0	65 63 69 66 69 63 5f 68 61 6e 64 6c 65 72 00 00 	ecific_handler00
  0x28d0	82 03 5f 77 63 6d 64 6c 6e 00 27 01 5f 66 6d 6f 	00_wcmdln0'0_fmo
  0x28e0	64 65 00 00 d2 00 5f 63 6f 6d 6d 6f 64 65 00 00 	de0000_commode00
  0x28f0	2f 00 3f 74 65 72 6d 69 6e 61 74 65 40 40 59 41 	/0?terminate@@YA
  0x2900	58 58 5a 00 6d 73 76 63 72 74 2e 64 6c 6c 00 00 	XXZ0msvcrt.dll00
  0x2910	ad 01 53 68 65 6c 6c 45 78 65 63 75 74 65 45 78 	00ShellExecuteEx
  0x2920	57 00 53 48 45 4c 4c 33 32 2e 64 6c 6c 00 46 00 	W0SHELL32.dll0F0
  0x2930	43 6f 55 6e 69 6e 69 74 69 61 6c 69 7a 65 00 00 	CoUninitialize00
  0x2940	28 00 43 6f 49 6e 69 74 69 61 6c 69 7a 65 45 78 	(0CoInitializeEx
  0x2950	00 00 61 70 69 2d 6d 73 2d 77 69 6e 2d 63 6f 72 	00api-ms-win-cor
  0x2960	65 2d 63 6f 6d 2d 6c 31 2d 31 2d 30 2e 64 6c 6c 	e-com-l1-1-0.dll
  0x2970	00 00 8d 05 53 6c 65 65 70 00 7d 05 53 65 74 55 	0000Sleep0}0SetU
  0x2980	6e 68 61 6e 64 6c 65 64 45 78 63 65 70 74 69 6f 	nhandledExceptio
  0x2990	6e 46 69 6c 74 65 72 00 80 02 47 65 74 4d 6f 64 	nFilter000GetMod
  0x29a0	75 6c 65 48 61 6e 64 6c 65 57 00 00 51 04 51 75 	uleHandleW00Q0Qu
  0x29b0	65 72 79 50 65 72 66 6f 72 6d 61 6e 63 65 43 6f 	eryPerformanceCo
  0x29c0	75 6e 74 65 72 00 20 02 47 65 74 43 75 72 72 65 	unter0 0GetCurre
  0x29d0	6e 74 50 72 6f 63 65 73 73 49 64 00 24 02 47 65 	ntProcessId0$0Ge
  0x29e0	74 43 75 72 72 65 6e 74 54 68 72 65 61 64 49 64 	tCurrentThreadId
  0x29f0	00 00 f2 02 47 65 74 53 79 73 74 65 6d 54 69 6d 	0000GetSystemTim
  0x2a00	65 41 73 46 69 6c 65 54 69 6d 65 00 10 03 47 65 	eAsFileTime000Ge
  0x2a10	74 54 69 63 6b 43 6f 75 6e 74 00 00 d4 04 52 74 	tTickCount0000Rt
  0x2a20	6c 43 61 70 74 75 72 65 43 6f 6e 74 65 78 74 00 	lCaptureContext0
  0x2a30	db 04 52 74 6c 4c 6f 6f 6b 75 70 46 75 6e 63 74 	00RtlLookupFunct
  0x2a40	69 6f 6e 45 6e 74 72 79 00 00 e2 04 52 74 6c 56 	ionEntry0000RtlV
  0x2a50	69 72 74 75 61 6c 55 6e 77 69 6e 64 00 00 be 05 	irtualUnwind0000
  0x2a60	55 6e 68 61 6e 64 6c 65 64 45 78 63 65 70 74 69 	UnhandledExcepti
  0x2a70	6f 6e 46 69 6c 74 65 72 00 00 1f 02 47 65 74 43 	onFilter0000GetC
  0x2a80	75 72 72 65 6e 74 50 72 6f 63 65 73 73 00 9c 05 	urrentProcess000
  0x2a90	54 65 72 6d 69 6e 61 74 65 50 72 6f 63 65 73 73 	TerminateProcess
  0x2aa0	00 00 96 04 6d 65 6d 73 65 74 00 00 00 00 00 00 	0000memset000000
  0x2ab0	00 00 00 00 00 00 00 00 00 00 00 00 00 00 00 00 	0000000000000000
  0x2ac0	00 00 00 00 00 00 00 00 00 00 00 00 00 00 00 00 	0000000000000000
  0x2ad0	00 00 00 00 00 00 00 00 00 00 00 00 00 00 00 00 	0000000000000000
  0x2ae0	00 00 00 00 00 00 00 00 00 00 00 00 00 00 00 00 	0000000000000000
  0x2af0	00 00 00 00 00 00 00 00 00 00 00 00 00 00 00 00 	0000000000000000
  0x2b00	00 00 00 00 00 00 00 00 00 00 00 00 00 00 00 00 	0000000000000000
  0x2b10	00 00 00 00 00 00 00 00 00 00 00 00 00 00 00 00 	0000000000000000
  0x2b20	00 00 00 00 00 00 00 00 00 00 00 00 00 00 00 00 	0000000000000000
  0x2b30	00 00 00 00 00 00 00 00 00 00 00 00 00 00 00 00 	0000000000000000
  0x2b40	00 00 00 00 00 00 00 00 00 00 00 00 00 00 00 00 	0000000000000000
  0x2b50	00 00 00 00 00 00 00 00 00 00 00 00 00 00 00 00 	0000000000000000
  0x2b60	00 00 00 00 00 00 00 00 00 00 00 00 00 00 00 00 	0000000000000000
  0x2b70	00 00 00 00 00 00 00 00 00 00 00 00 00 00 00 00 	0000000000000000
  0x2b80	00 00 00 00 00 00 00 00 00 00 00 00 00 00 00 00 	0000000000000000
  0x2b90	00 00 00 00 00 00 00 00 00 00 00 00 00 00 00 00 	0000000000000000
  0x2ba0	00 00 00 00 00 00 00 00 00 00 00 00 00 00 00 00 	0000000000000000
  0x2bb0	00 00 00 00 00 00 00 00 00 00 00 00 00 00 00 00 	0000000000000000
  0x2bc0	00 00 00 00 00 00 00 00 00 00 00 00 00 00 00 00 	0000000000000000
  0x2bd0	00 00 00 00 00 00 00 00 00 00 00 00 00 00 00 00 	0000000000000000
  0x2be0	00 00 00 00 00 00 00 00 00 00 00 00 00 00 00 00 	0000000000000000
  0x2bf0	00 00 00 00 00 00 00 00 00 00 00 00 00 00 00 00 	0000000000000000
=== DATA BLOCK END ===

=== DATA BLOCK ADDRESS 0x3000 ===
  0x3000	01 00 00 00 00 00 00 00 32 a2 df 2d 99 2b 00 00 	00000000200-0+00
  0x3010	cd 5d 20 d2 66 d4 ff ff 00 00 00 00 00 00 00 00 	0] 0f00000000000
  0x3020	00 00 00 00 00 00 00 00 00 00 00 00 00 00 00 00 	0000000000000000
  0x3030	00 00 00 00 00 00 00 00 00 00 00 00 00 00 00 00 	0000000000000000
  0x3040	00 00 00 00 00 00 00 00 00 00 00 00 00 00 00 00 	0000000000000000
  0x3050	00 00 00 00 00 00 00 00 00 00 00 00 00 00 00 00 	0000000000000000
  0x3060	00 00 00 00 00 00 00 00 00 00 00 00 00 00 00 00 	0000000000000000
  0x3070	00 00 00 00 00 00 00 00 00 00 00 00 00 00 00 00 	0000000000000000
  0x3080	00 00 00 00 00 00 00 00 00 00 00 00 00 00 00 00 	0000000000000000
  0x3090	00 00 00 00 00 00 00 00 00 00 00 00 00 00 00 00 	0000000000000000
  0x30a0	00 00 00 00 00 00 00 00 00 00 00 00 00 00 00 00 	0000000000000000
  0x30b0	00 00 00 00 00 00 00 00 00 00 00 00 00 00 00 00 	0000000000000000
  0x30c0	00 00 00 00 00 00 00 00 00 00 00 00 00 00 00 00 	0000000000000000
  0x30d0	00 00 00 00 00 00 00 00 00 00 00 00 00 00 00 00 	0000000000000000
  0x30e0	00 00 00 00 00 00 00 00 00 00 00 00 00 00 00 00 	0000000000000000
  0x30f0	00 00 00 00 00 00 00 00 00 00 00 00 00 00 00 00 	0000000000000000
  0x3100	00 00 00 00 00 00 00 00 00 00 00 00 00 00 00 00 	0000000000000000
  0x3110	00 00 00 00 00 00 00 00 00 00 00 00 00 00 00 00 	0000000000000000
  0x3120	00 00 00 00 00 00 00 00 00 00 00 00 00 00 00 00 	0000000000000000
  0x3130	00 00 00 00 00 00 00 00 00 00 00 00 00 00 00 00 	0000000000000000
  0x3140	00 00 00 00 00 00 00 00 00 00 00 00 00 00 00 00 	0000000000000000
  0x3150	00 00 00 00 00 00 00 00 00 00 00 00 00 00 00 00 	0000000000000000
  0x3160	00 00 00 00 00 00 00 00 00 00 00 00 00 00 00 00 	0000000000000000
  0x3170	00 00 00 00 00 00 00 00 00 00 00 00 00 00 00 00 	0000000000000000
  0x3180	00 00 00 00 00 00 00 00 00 00 00 00 00 00 00 00 	0000000000000000
  0x3190	00 00 00 00 00 00 00 00 00 00 00 00 00 00 00 00 	0000000000000000
  0x31a0	00 00 00 00 00 00 00 00 00 00 00 00 00 00 00 00 	0000000000000000
  0x31b0	00 00 00 00 00 00 00 00 00 00 00 00 00 00 00 00 	0000000000000000
  0x31c0	00 00 00 00 00 00 00 00 00 00 00 00 00 00 00 00 	0000000000000000
  0x31d0	00 00 00 00 00 00 00 00 00 00 00 00 00 00 00 00 	0000000000000000
  0x31e0	00 00 00 00 00 00 00 00 00 00 00 00 00 00 00 00 	0000000000000000
  0x31f0	00 00 00 00 00 00 00 00 00 00 00 00 00 00 00 00 	0000000000000000
=== DATA BLOCK END ===

=== DATA BLOCK ADDRESS 0x4000 ===
  0x4000	08 10 00 00 d2 10 00 00 b0 25 00 00 e0 10 00 00 	000000000%000000
  0x4010	b3 11 00 00 bc 25 00 00 c0 11 00 00 09 12 00 00 	00000%0000000000
  0x4020	c4 25 00 00 10 12 00 00 74 14 00 00 cc 25 00 00 	0%000000t0000%00
  0x4030	80 14 00 00 92 14 00 00 bc 25 00 00 b0 14 00 00 	000000000%000000
  0x4040	ce 14 00 00 08 26 00 00 e0 14 00 00 19 15 00 00 	00000&0000000000
  0x4050	bc 25 00 00 20 15 00 00 38 15 00 00 bc 25 00 00 	0%00 00080000%00
  0x4060	4c 15 00 00 a0 15 00 00 0c 26 00 00 a8 15 00 00 	L00000000&000000
  0x4070	ed 15 00 00 2c 26 00 00 60 16 00 00 ad 16 00 00 	0000,&00`0000000
  0x4080	34 26 00 00 f4 16 00 00 c8 17 00 00 58 26 00 00 	4&0000000000X&00
  0x4090	fc 17 00 00 30 18 00 00 2c 26 00 00 40 18 00 00 	00000000,&00@000
  0x40a0	b1 19 00 00 64 26 00 00 e0 19 00 00 e2 19 00 00 	0000d&0000000000
  0x40b0	70 26 00 00 f0 19 00 00 0e 1a 00 00 00 26 00 00 	p&00000000000&00
  0x40c0	20 1a 00 00 40 1a 00 00 00 26 00 00 00 00 00 00 	 000@0000&000000
  0x40d0	00 00 00 00 00 00 00 00 00 00 00 00 00 00 00 00 	0000000000000000
  0x40e0	00 00 00 00 00 00 00 00 00 00 00 00 00 00 00 00 	0000000000000000
  0x40f0	00 00 00 00 00 00 00 00 00 00 00 00 00 00 00 00 	0000000000000000
  0x4100	00 00 00 00 00 00 00 00 00 00 00 00 00 00 00 00 	0000000000000000
  0x4110	00 00 00 00 00 00 00 00 00 00 00 00 00 00 00 00 	0000000000000000
  0x4120	00 00 00 00 00 00 00 00 00 00 00 00 00 00 00 00 	0000000000000000
  0x4130	00 00 00 00 00 00 00 00 00 00 00 00 00 00 00 00 	0000000000000000
  0x4140	00 00 00 00 00 00 00 00 00 00 00 00 00 00 00 00 	0000000000000000
  0x4150	00 00 00 00 00 00 00 00 00 00 00 00 00 00 00 00 	0000000000000000
  0x4160	00 00 00 00 00 00 00 00 00 00 00 00 00 00 00 00 	0000000000000000
  0x4170	00 00 00 00 00 00 00 00 00 00 00 00 00 00 00 00 	0000000000000000
  0x4180	00 00 00 00 00 00 00 00 00 00 00 00 00 00 00 00 	0000000000000000
  0x4190	00 00 00 00 00 00 00 00 00 00 00 00 00 00 00 00 	0000000000000000
  0x41a0	00 00 00 00 00 00 00 00 00 00 00 00 00 00 00 00 	0000000000000000
  0x41b0	00 00 00 00 00 00 00 00 00 00 00 00 00 00 00 00 	0000000000000000
  0x41c0	00 00 00 00 00 00 00 00 00 00 00 00 00 00 00 00 	0000000000000000
  0x41d0	00 00 00 00 00 00 00 00 00 00 00 00 00 00 00 00 	0000000000000000
  0x41e0	00 00 00 00 00 00 00 00 00 00 00 00 00 00 00 00 	0000000000000000
  0x41f0	00 00 00 00 00 00 00 00 00 00 00 00 00 00 00 00 	0000000000000000
=== DATA BLOCK END ===
