===== Assembly blocks =====

=== CODE BLOCK ADDRESS 0x1000 ===
  0x1000	int3   	
  0x1001	int3   	
  0x1002	int3   	
  0x1003	int3   	
  0x1004	int3   	
  === BLOCK LINK ===
    0x1005
=== CODE BLOCK END ===

=== CODE BLOCK ADDRESS 0x1005 ===
  0x1005	int3   	
  0x1006	int3   	
  0x1007	int3   	
  0x1008	dec    	eax
  0x1009	mov    	eax, esp
  === BLOCK LINK ===
    0x100b
=== CODE BLOCK END ===

=== CODE BLOCK ADDRESS 0x100b ===
  0x100b	dec    	eax
  0x100c	mov    	dword ptr [eax + 8], ebx
  0x100f	dec    	eax
  0x1010	mov    	dword ptr [eax + 0x18], esi
  0x1013	dec    	eax
  === BLOCK LINK ===
    0x1014
=== CODE BLOCK END ===

=== CODE BLOCK ADDRESS 0x1014 ===
  0x1014	mov    	dword ptr [eax + 0x20], edi
  0x1017	push   	ebp
  0x1018	inc    	ecx
  0x1019	push   	esp
  0x101a	inc    	ecx
  === BLOCK LINK ===
    0x101b
=== CODE BLOCK END ===

=== CODE BLOCK ADDRESS 0x101b ===
  0x101b	push   	ebp
  0x101c	inc    	ecx
  0x101d	push   	esi
  0x101e	inc    	ecx
  0x101f	push   	edi
  === BLOCK LINK ===
    0x1020
=== CODE BLOCK END ===

=== CODE BLOCK ADDRESS 0x1020 ===
  0x1020	dec    	eax
  0x1021	lea    	ebp, [eax - 0xc8]
  0x1027	dec    	eax
  0x1028	sub    	esp, 0x1a0
  0x102e	dec    	eax
  === BLOCK LINK ===
    0x102f
=== CODE BLOCK END ===

=== CODE BLOCK ADDRESS 0x102f ===
  0x102f	mov    	eax, dword ptr [0xdfcb]
  0x1035	dec    	eax
  0x1036	xor    	eax, esp
  0x1038	dec    	eax
  0x1039	mov    	dword ptr [ebp + 0x90], eax
  === BLOCK LINK ===
    0x103f
=== CODE BLOCK END ===

=== CODE BLOCK ADDRESS 0x103f ===
  0x103f	dec    	eax
  0x1040	mov    	edi, edx
  0x1042	mov    	esi, ecx
  0x1044	xor    	edx, edx
  0x1046	dec    	eax
  === BLOCK LINK ===
    0x1047
=== CODE BLOCK END ===

=== CODE BLOCK ADDRESS 0x1047 ===
  0x1047	lea    	ecx, [esp + 0x40]
  0x104b	inc    	ecx
  0x104c	mov    	eax, 0x128
  0x1051	call   	0x803e
  === BLOCK LINK ===
    0x1056
    0x803e
=== CODE BLOCK END ===

=== CODE BLOCK ADDRESS 0x1056 ===
  0x1056	or     	dword ptr [ebp - 0x38], 0xffffffff
  0x105a	dec    	eax
  0x105b	lea    	ebx, [0x9287]
  0x1061	or     	dword ptr [esp + 0x74], 0xffffffff
  0x1066	inc    	ebp
  === BLOCK LINK ===
    0x1067
=== CODE BLOCK END ===

=== CODE BLOCK ADDRESS 0x1067 ===
  0x1067	xor    	esp, esp
  0x1069	or     	dword ptr [ebp - 0x80], 0xffffffff
  0x106d	inc    	ebp
  0x106e	mov    	ch, ah
  0x1070	dec    	esp
  === BLOCK LINK ===
    0x1071
=== CODE BLOCK END ===

=== CODE BLOCK ADDRESS 0x1071 ===
  0x1071	cmp    	dword ptr [edi], esp
  0x1073	inc    	ebp
  0x1074	mov    	dh, ah
  0x1076	inc    	esp
  0x1077	mov    	dword ptr [esp + 0x64], esp
  === BLOCK LINK ===
    0x107b
=== CODE BLOCK END ===

=== CODE BLOCK ADDRESS 0x107b ===
  0x107b	inc    	ebp
  0x107c	mov    	edi, esp
  0x107e	dec    	eax
  0x107f	cmovne  	ebx, dword ptr [edi]
  0x1082	inc    	ecx
  === BLOCK LINK ===
    0x1083
=== CODE BLOCK END ===

=== CODE BLOCK ADDRESS 0x1083 ===
  0x1083	lea    	edx, [esp + 0x5c]
  0x1087	dec    	eax
  0x1088	mov    	ecx, ebx
  0x108a	dec    	esp
  0x108b	mov    	dword ptr [ebp + 0x70], esp
  === BLOCK LINK ===
    0x108e
=== CODE BLOCK END ===

=== CODE BLOCK ADDRESS 0x108e ===
  0x108e	dec    	esp
  0x108f	mov    	dword ptr [ebp + 0x78], esp
  0x1092	dec    	eax
  0x1093	call   	dword ptr [0x8c9f]
  === BLOCK LINK ===
    0x1099
=== CODE BLOCK END ===

=== CODE BLOCK ADDRESS 0x1099 ===
  0x1099	nop    	dword ptr [eax + eax]
  0x109e	inc    	ecx
  0x109f	lea    	edx, [esp + 0x2f]
  0x10a3	dec    	eax
  0x10a4	mov    	ecx, ebx
  === BLOCK LINK ===
    0x10a6
=== CODE BLOCK END ===

=== CODE BLOCK ADDRESS 0x10a6 ===
  0x10a6	dec    	eax
  0x10a7	mov    	dword ptr [0xe58b], eax
  0x10ad	dec    	eax
  0x10ae	call   	dword ptr [0x8c84]
  === BLOCK LINK ===
    0x10b4
=== CODE BLOCK END ===

=== CODE BLOCK ADDRESS 0x10b4 ===
  0x10b4	nop    	dword ptr [eax + eax]
  0x10b9	dec    	eax
  0x10ba	mov    	ecx, dword ptr [0xe578]
  0x10c0	dec    	eax
  0x10c1	cmp    	eax, ecx
  === BLOCK LINK ===
    0x10c3
=== CODE BLOCK END ===

=== CODE BLOCK ADDRESS 0x10c3 ===
  0x10c3	jbe    	0x10dc
  === BLOCK LINK ===
    0x10c5
    0x10dc
=== CODE BLOCK END ===

=== CODE BLOCK ADDRESS 0x10c5 ===
  0x10c5	inc    	ecx
  0x10c6	lea    	edx, [esp + 0x2f]
  0x10ca	dec    	eax
  0x10cb	mov    	ecx, ebx
  0x10cd	dec    	eax
  === BLOCK LINK ===
    0x10ce
=== CODE BLOCK END ===

=== CODE BLOCK ADDRESS 0x10ce ===
  0x10ce	call   	dword ptr [0x8c64]
  === BLOCK LINK ===
    0x10d4
=== CODE BLOCK END ===

=== CODE BLOCK ADDRESS 0x10d4 ===
  0x10d4	nop    	dword ptr [eax + eax]
  0x10d9	dec    	eax
  0x10da	mov    	ecx, eax
  === BLOCK LINK ===
    0x10dc
=== CODE BLOCK END ===

=== CODE BLOCK ADDRESS 0x10df ===
  0x10df	je     	0x10e5
  === BLOCK LINK ===
    0x10e1
    0x10e5
=== CODE BLOCK END ===

=== CODE BLOCK ADDRESS 0x10e1 ===
  0x10e1	dec    	eax
  0x10e2	lea    	ebx, [ecx + 1]
  === BLOCK LINK ===
    0x10e5
=== CODE BLOCK END ===

=== CODE BLOCK ADDRESS 0x10ed ===
  0x10ed	mov    	dword ptr [0xe545], ebx
  0x10f3	xor    	ecx, ecx
  0x10f5	dec    	eax
  0x10f6	call   	dword ptr [0x8c04]
  === BLOCK LINK ===
    0x10fc
=== CODE BLOCK END ===

=== CODE BLOCK ADDRESS 0x10fc ===
  0x10fc	nop    	dword ptr [eax + eax]
  0x1101	dec    	eax
  0x1102	test   	eax, eax
  0x1104	jne    	0x1114
  === BLOCK LINK ===
    0x1106
    0x1114
=== CODE BLOCK END ===

=== CODE BLOCK ADDRESS 0x1106 ===
  0x1106	dec    	eax
  0x1107	lea    	edx, [0x91e3]
  0x110d	xor    	ecx, ecx
  0x110f	call   	0x6c14
  === BLOCK LINK ===
    0x1114
    0x6c14
=== CODE BLOCK END ===

=== CODE BLOCK ADDRESS 0x1114 ===
  0x1114	xor    	ebx, ebx
  0x1116	dec    	eax
  0x1117	lea    	ecx, [0x91f3]
  0x111d	mov    	word ptr [ebp - 0x10], bx
  0x1121	dec    	eax
  === BLOCK LINK ===
    0x1122
=== CODE BLOCK END ===

=== CODE BLOCK ADDRESS 0x1122 ===
  0x1122	call   	dword ptr [0x8b98]
  === BLOCK LINK ===
    0x1128
=== CODE BLOCK END ===

=== CODE BLOCK ADDRESS 0x1128 ===
  0x1128	nop    	dword ptr [eax + eax]
  0x112d	dec    	eax
  0x112e	lea    	ecx, [0x91e4]
  0x1134	mov    	dword ptr [esp + 0x58], 0x2800
  0x113c	dec    	eax
  === BLOCK LINK ===
    0x113d
=== CODE BLOCK END ===

=== CODE BLOCK ADDRESS 0x113d ===
  0x113d	test   	eax, eax
  0x113f	mov    	dword ptr [esp + 0x68], 0x304
  0x1147	dec    	eax
  0x1148	cmovne  	ecx, eax
  0x114b	or     	dword ptr [esp + 0x5c], 0xffffffff
  === BLOCK LINK ===
    0x1150
=== CODE BLOCK END ===

=== CODE BLOCK ADDRESS 0x1150 ===
  0x1150	or     	dword ptr [esp + 0x6c], 4
  0x1155	dec    	eax
  0x1156	mov    	dword ptr [esp + 0x40], ecx
  0x115a	dec    	eax
  0x115b	call   	dword ptr [0x8c8f]
  === BLOCK LINK ===
    0x1161
=== CODE BLOCK END ===

=== CODE BLOCK ADDRESS 0x1161 ===
  0x1161	nop    	dword ptr [eax + eax]
  0x1166	dec    	eax
  0x1167	mov    	dword ptr [ebp + 0x38], eax
  0x116a	dec    	eax
  0x116b	test   	eax, eax
  === BLOCK LINK ===
    0x116d
=== CODE BLOCK END ===

=== CODE BLOCK ADDRESS 0x116d ===
  0x116d	je     	0x2234
  === BLOCK LINK ===
    0x1173
    0x2234
=== CODE BLOCK END ===

=== CODE BLOCK ADDRESS 0x1173 ===
  0x1173	lea    	edx, [ebx + 0x18]
  0x1176	lea    	ebx, [edx - 0x17]
  0x1179	mov    	ecx, ebx
  0x117b	dec    	eax
  0x117c	call   	dword ptr [0x8aee]
  === BLOCK LINK ===
    0x1182
=== CODE BLOCK END ===

=== CODE BLOCK ADDRESS 0x1182 ===
  0x1182	nop    	dword ptr [eax + eax]
  0x1187	dec    	eax
  0x1188	mov    	dword ptr [ebp - 0x50], eax
  0x118b	dec    	eax
  0x118c	test   	eax, eax
  === BLOCK LINK ===
    0x118e
=== CODE BLOCK END ===

=== CODE BLOCK ADDRESS 0x118e ===
  0x118e	je     	0x2254
  === BLOCK LINK ===
    0x1194
    0x2254
=== CODE BLOCK END ===

=== CODE BLOCK ADDRESS 0x1194 ===
  0x1194	dec    	eax
  0x1195	mov    	dword ptr [ebp - 0x30], edi
  0x1198	mov    	dword ptr [ebp - 0x34], esi
  === BLOCK LINK ===
    0x119b
=== CODE BLOCK END ===

=== CODE BLOCK ADDRESS 0x11a0 ===
  0x11a0	call   	0x2e18
  === BLOCK LINK ===
    0x11a5
    0x2e18
=== CODE BLOCK END ===

=== CODE BLOCK ADDRESS 0x11a5 ===
  0x11a5	inc    	esp
  0x11a6	mov    	ecx, eax
  0x11a8	cmp    	eax, -1
  0x11ab	je     	0x1b39
  === BLOCK LINK ===
    0x11b1
    0x1b39
=== CODE BLOCK END ===

=== CODE BLOCK ADDRESS 0x11b1 ===
  0x11b1	dec    	eax
  0x11b2	lea    	edx, [0xffffee48]
  0x11b8	cmp    	eax, 0x31
  0x11bb	jg     	0x1653
  === BLOCK LINK ===
    0x11c1
    0x1653
=== CODE BLOCK END ===

=== CODE BLOCK ADDRESS 0x11c1 ===
  0x11c1	je     	0x15da
  === BLOCK LINK ===
    0x11c7
    0x15da
=== CODE BLOCK END ===

=== CODE BLOCK ADDRESS 0x11c7 ===
  0x11c7	lea    	eax, [eax - 1]
  0x11ca	cmp    	eax, 0x2f
  0x11cd	ja     	0x2510
  === BLOCK LINK ===
    0x11d3
    0x2510
=== CODE BLOCK END ===

=== CODE BLOCK ADDRESS 0x11d3 ===
  0x11d3	dec    	eax
  0x11d4	cwde   	
  0x11d5	mov    	ecx, dword ptr [edx + eax*4 + 0x2840]
  0x11dc	dec    	eax
  0x11dd	add    	ecx, edx
  === BLOCK LINK ===
    0x11df
=== CODE BLOCK END ===

=== CODE BLOCK ADDRESS 0x11df ===
  0x11df	jmp    	ecx
  === BLOCK LINK ===
    0x11e1
=== CODE BLOCK END ===

=== CODE BLOCK ADDRESS 0x11e1 ===
  0x11e1	int3   	
  0x11e2	int3   	
  0x11e3	int3   	
  0x11e4	int3   	
  0x11e5	or     	dword ptr [esp + 0x68], 0x20
  === BLOCK LINK ===
    0x11ea
=== CODE BLOCK END ===

=== CODE BLOCK ADDRESS 0x11ea ===
  0x11ea	and    	dword ptr [esp + 0x6c], 0xffffffdf
  0x11ef	bts    	dword ptr [esp + 0x64], 0x12
  0x11f5	jmp    	0x119b
  === BLOCK LINK ===
    0x11f7
    0x119b
=== CODE BLOCK END ===

=== CODE BLOCK ADDRESS 0x11f7 ===
  0x11f7	inc    	ebp
  0x11f8	test   	ch, ch
  0x11fa	jne    	0x241d
  === BLOCK LINK ===
    0x1200
    0x241d
=== CODE BLOCK END ===

=== CODE BLOCK ADDRESS 0x1200 ===
  0x1200	dec    	eax
  0x1201	lea    	edi, [0x9199]
  0x1207	inc    	ebp
  0x1208	mov    	ch, cl
  0x120a	dec    	eax
  === BLOCK LINK ===
    0x120b
=== CODE BLOCK END ===

=== CODE BLOCK ADDRESS 0x120b ===
  0x120b	mov    	dword ptr [ebp + 0x70], edi
  0x120e	jmp    	0x119b
  === BLOCK LINK ===
    0x1210
    0x119b
=== CODE BLOCK END ===

=== CODE BLOCK ADDRESS 0x1210 ===
  0x1210	bts    	dword ptr [esp + 0x64], 0xe
  0x1216	jmp    	0x119b
  === BLOCK LINK ===
    0x1218
    0x119b
=== CODE BLOCK END ===

=== CODE BLOCK ADDRESS 0x1218 ===
  0x1218	or     	dword ptr [esp + 0x64], 4
  0x121d	jmp    	0x119b
  === BLOCK LINK ===
    0x1222
    0x119b
=== CODE BLOCK END ===

=== CODE BLOCK ADDRESS 0x1222 ===
  0x1222	bts    	dword ptr [esp + 0x68], 0x11
  0x1228	jmp    	0x119b
  === BLOCK LINK ===
    0x122d
    0x119b
=== CODE BLOCK END ===

=== CODE BLOCK ADDRESS 0x122d ===
  0x122d	dec    	eax
  0x122e	mov    	edx, dword ptr [ebp - 0x28]
  0x1231	dec    	eax
  0x1232	mov    	ecx, dword ptr [ebp + 0x38]
  0x1235	dec    	eax
  === BLOCK LINK ===
    0x1236
=== CODE BLOCK END ===

=== CODE BLOCK ADDRESS 0x1236 ===
  0x1236	call   	dword ptr [0x8d34]
  === BLOCK LINK ===
    0x123c
=== CODE BLOCK END ===

=== CODE BLOCK ADDRESS 0x123c ===
  0x123c	nop    	dword ptr [eax + eax]
  0x1241	test   	eax, eax
  0x1243	jne    	0x2271
  === BLOCK LINK ===
    0x1249
    0x2271
=== CODE BLOCK END ===

=== CODE BLOCK ADDRESS 0x1249 ===
  0x1249	jmp    	0x119b
  === BLOCK LINK ===
    0x124e
    0x119b
=== CODE BLOCK END ===

=== CODE BLOCK ADDRESS 0x124e ===
  0x124e	dec    	eax
  0x124f	mov    	eax, dword ptr [0x7dbb]
  0x1255	xor    	ecx, ecx
  0x1257	mov    	edi, ecx
  0x1259	mov    	esi, ecx
  === BLOCK LINK ===
    0x125b
=== CODE BLOCK END ===

=== CODE BLOCK ADDRESS 0x125b ===
  0x125b	jmp    	0x128c
  === BLOCK LINK ===
    0x125d
    0x128c
=== CODE BLOCK END ===

=== CODE BLOCK ADDRESS 0x125d ===
  0x125d	dec    	eax
  0x125e	mov    	ecx, dword ptr [ebp + 0x38]
  0x1261	dec    	eax
  0x1262	mov    	edx, eax
  0x1264	dec    	eax
  === BLOCK LINK ===
    0x1265
=== CODE BLOCK END ===

=== CODE BLOCK ADDRESS 0x1265 ===
  0x1265	call   	dword ptr [0x8d05]
  === BLOCK LINK ===
    0x126b
=== CODE BLOCK END ===

=== CODE BLOCK ADDRESS 0x126b ===
  0x126b	nop    	dword ptr [eax + eax]
  0x1270	test   	eax, eax
  0x1272	dec    	eax
  0x1273	lea    	eax, [0xffffed87]
  0x1279	jne    	0x23df
  === BLOCK LINK ===
    0x127f
    0x23df
=== CODE BLOCK END ===

=== CODE BLOCK ADDRESS 0x127f ===
  0x127f	add    	edi, ebx
  0x1281	dec    	eax
  0x1282	add    	esi, ebx
  0x1284	dec    	eax
  0x1285	mov    	eax, dword ptr [eax + esi*8 + 0x9010]
  === BLOCK LINK ===
    0x128c
=== CODE BLOCK END ===

=== CODE BLOCK ADDRESS 0x128c ===
  0x128c	dec    	eax
  0x128d	test   	eax, eax
  0x128f	jne    	0x125d
  === BLOCK LINK ===
    0x1291
    0x125d
=== CODE BLOCK END ===

=== CODE BLOCK ADDRESS 0x1291 ===
  0x1291	jmp    	0x119b
  === BLOCK LINK ===
    0x1296
    0x119b
=== CODE BLOCK END ===

=== CODE BLOCK ADDRESS 0x1296 ===
  0x1296	or     	dword ptr [esp + 0x68], 0x40
  0x129b	and    	dword ptr [esp + 0x6c], 0xffffffbf
  0x12a0	bts    	dword ptr [esp + 0x64], 0x14
  0x12a6	jmp    	0x119b
  === BLOCK LINK ===
    0x12ab
    0x119b
=== CODE BLOCK END ===

=== CODE BLOCK ADDRESS 0x12ab ===
  0x12ab	dec    	eax
  0x12ac	mov    	edx, dword ptr [ebp - 0x28]
  === BLOCK LINK ===
    0x12af
=== CODE BLOCK END ===

=== CODE BLOCK ADDRESS 0x12b8 ===
  0x12b8	jmp    	0x119b
  === BLOCK LINK ===
    0x12bd
    0x119b
=== CODE BLOCK END ===

=== CODE BLOCK ADDRESS 0x12bd ===
  0x12bd	dec    	eax
  0x12be	call   	dword ptr [0x8924]
  === BLOCK LINK ===
    0x12c4
=== CODE BLOCK END ===

=== CODE BLOCK ADDRESS 0x12c4 ===
  0x12c4	nop    	dword ptr [eax + eax]
  0x12c9	xor    	esi, esi
  0x12cb	dec    	eax
  0x12cc	lea    	edx, [esp + 0x30]
  0x12d0	mov    	dword ptr [eax], esi
  === BLOCK LINK ===
    0x12d2
=== CODE BLOCK END ===

=== CODE BLOCK ADDRESS 0x12d2 ===
  0x12d2	dec    	eax
  0x12d3	mov    	ecx, dword ptr [ebp - 0x28]
  0x12d6	inc    	esp
  0x12d7	lea    	eax, [esi + 0xa]
  0x12da	dec    	eax
  === BLOCK LINK ===
    0x12db
=== CODE BLOCK END ===

=== CODE BLOCK ADDRESS 0x12db ===
  0x12db	mov    	dword ptr [esp + 0x30], esi
  0x12df	dec    	eax
  0x12e0	call   	dword ptr [0x8a32]
  === BLOCK LINK ===
    0x12e6
=== CODE BLOCK END ===

=== CODE BLOCK ADDRESS 0x12e6 ===
  0x12e6	nop    	dword ptr [eax + eax]
  0x12eb	mov    	edi, eax
  0x12ed	dec    	eax
  0x12ee	call   	dword ptr [0x88f4]
  === BLOCK LINK ===
    0x12f4
=== CODE BLOCK END ===

=== CODE BLOCK ADDRESS 0x12f4 ===
  0x12f4	nop    	dword ptr [eax + eax]
  0x12f9	cmp    	dword ptr [eax], esi
  0x12fb	jne    	0x23fb
  === BLOCK LINK ===
    0x1301
    0x23fb
=== CODE BLOCK END ===

=== CODE BLOCK ADDRESS 0x1301 ===
  0x1301	test   	edi, edi
  0x1303	js     	0x23fb
  === BLOCK LINK ===
    0x1309
    0x23fb
=== CODE BLOCK END ===

=== CODE BLOCK ADDRESS 0x1309 ===
  0x1309	dec    	eax
  0x130a	mov    	ecx, dword ptr [ebp - 0x28]
  0x130d	inc    	eax
  0x130e	cmp    	byte ptr [ecx], dh
  0x1310	je     	0x23fb
  === BLOCK LINK ===
    0x1316
    0x23fb
=== CODE BLOCK END ===

=== CODE BLOCK ADDRESS 0x1316 ===
  0x1316	dec    	eax
  0x1317	mov    	ecx, dword ptr [esp + 0x30]
  0x131b	dec    	eax
  0x131c	test   	ecx, ecx
  0x131e	je     	0x23fb
  === BLOCK LINK ===
    0x1324
    0x23fb
=== CODE BLOCK END ===

=== CODE BLOCK ADDRESS 0x1324 ===
  0x1324	inc    	eax
  0x1325	cmp    	byte ptr [ecx], dh
  0x1327	jne    	0x23fb
  === BLOCK LINK ===
    0x132d
    0x23fb
=== CODE BLOCK END ===

=== CODE BLOCK ADDRESS 0x132d ===
  0x132d	mov    	dword ptr [esp + 0x74], edi
  0x1331	jmp    	0x119b
  === BLOCK LINK ===
    0x1336
    0x119b
=== CODE BLOCK END ===

=== CODE BLOCK ADDRESS 0x1336 ===
  0x1336	dec    	eax
  0x1337	mov    	eax, dword ptr [ebp - 0x28]
  0x133a	dec    	eax
  0x133b	mov    	dword ptr [esp + 0x78], eax
  0x133f	jmp    	0x119b
  === BLOCK LINK ===
    0x1344
    0x119b
=== CODE BLOCK END ===

=== CODE BLOCK ADDRESS 0x1344 ===
  0x1344	inc    	ebp
  0x1345	test   	dh, dh
  0x1347	jne    	0x2456
  === BLOCK LINK ===
    0x134d
    0x2456
=== CODE BLOCK END ===

=== CODE BLOCK ADDRESS 0x134d ===
  0x134d	inc    	ebp
  0x134e	mov    	dh, cl
  0x1350	dec    	esp
  0x1351	lea    	edi, [0x90d1]
  0x1357	jmp    	0x119b
  === BLOCK LINK ===
    0x135c
    0x119b
=== CODE BLOCK END ===

=== CODE BLOCK ADDRESS 0x135c ===
  0x135c	bts    	dword ptr [esp + 0x68], 0xf
  0x1362	jmp    	0x119b
  === BLOCK LINK ===
    0x1367
    0x119b
=== CODE BLOCK END ===

=== CODE BLOCK ADDRESS 0x1367 ===
  0x1367	or     	dword ptr [esp + 0x64], 0x10
  0x136c	jmp    	0x119b
  === BLOCK LINK ===
    0x1371
    0x119b
=== CODE BLOCK END ===

=== CODE BLOCK ADDRESS 0x1371 ===
  0x1371	dec    	eax
  0x1372	mov    	edx, dword ptr [ebp - 0x28]
  0x1375	dec    	eax
  0x1376	mov    	ecx, dword ptr [ebp + 0x38]
  0x1379	dec    	eax
  === BLOCK LINK ===
    0x137a
=== CODE BLOCK END ===

=== CODE BLOCK ADDRESS 0x137a ===
  0x137a	call   	dword ptr [0x8a68]
  === BLOCK LINK ===
    0x1380
=== CODE BLOCK END ===

=== CODE BLOCK ADDRESS 0x1380 ===
  0x1380	nop    	dword ptr [eax + eax]
  0x1385	test   	eax, eax
  0x1387	jne    	0x2286
  === BLOCK LINK ===
    0x138d
    0x2286
=== CODE BLOCK END ===

=== CODE BLOCK ADDRESS 0x138d ===
  0x138d	jmp    	0x119b
  === BLOCK LINK ===
    0x1392
    0x119b
=== CODE BLOCK END ===

=== CODE BLOCK ADDRESS 0x1392 ===
  0x1392	bts    	dword ptr [esp + 0x68], 0xb
  0x1398	jmp    	0x119b
  === BLOCK LINK ===
    0x139d
    0x119b
=== CODE BLOCK END ===

=== CODE BLOCK ADDRESS 0x139d ===
  0x139d	or     	dword ptr [esp + 0x6c], 4
  0x13a2	bts    	dword ptr [esp + 0x68], 0xd
  0x13a8	bts    	dword ptr [esp + 0x64], 0x16
  0x13ae	jmp    	0x119b
  === BLOCK LINK ===
    0x13b3
    0x119b
=== CODE BLOCK END ===

=== CODE BLOCK ADDRESS 0x13b3 ===
  0x13b3	dec    	esp
  0x13b4	mov    	eax, dword ptr [ebp - 0x28]
  0x13b7	mov    	edx, 0x201
  0x13bc	dec    	eax
  0x13bd	mov    	ecx, dword ptr [ebp + 0x38]
  === BLOCK LINK ===
    0x13c0
=== CODE BLOCK END ===

=== CODE BLOCK ADDRESS 0x13c0 ===
  0x13c0	dec    	eax
  0x13c1	call   	dword ptr [0x8a51]
  === BLOCK LINK ===
    0x13c7
=== CODE BLOCK END ===

=== CODE BLOCK ADDRESS 0x13c7 ===
  0x13c7	nop    	dword ptr [eax + eax]
  0x13cc	test   	eax, eax
  0x13ce	jne    	0x229b
  === BLOCK LINK ===
    0x13d4
    0x229b
=== CODE BLOCK END ===

=== CODE BLOCK ADDRESS 0x13d4 ===
  0x13d4	jmp    	0x119b
  === BLOCK LINK ===
    0x13d9
    0x119b
=== CODE BLOCK END ===

=== CODE BLOCK ADDRESS 0x13d9 ===
  0x13d9	dec    	esp
  0x13da	mov    	eax, dword ptr [ebp - 0x28]
  0x13dd	mov    	edx, 0x201
  0x13e2	dec    	eax
  0x13e3	mov    	ecx, dword ptr [ebp + 0x38]
  === BLOCK LINK ===
    0x13e6
=== CODE BLOCK END ===

=== CODE BLOCK ADDRESS 0x13e6 ===
  0x13e6	dec    	eax
  0x13e7	call   	dword ptr [0x8a1b]
  === BLOCK LINK ===
    0x13ed
=== CODE BLOCK END ===

=== CODE BLOCK ADDRESS 0x13ed ===
  0x13ed	nop    	dword ptr [eax + eax]
  0x13f2	test   	eax, eax
  0x13f4	jne    	0x22bf
  === BLOCK LINK ===
    0x13fa
    0x22bf
=== CODE BLOCK END ===

=== CODE BLOCK ADDRESS 0x13fa ===
  0x13fa	jmp    	0x119b
  === BLOCK LINK ===
    0x13ff
    0x119b
=== CODE BLOCK END ===

=== CODE BLOCK ADDRESS 0x13ff ===
  0x13ff	dec    	esp
  0x1400	mov    	eax, dword ptr [ebp - 0x28]
  0x1403	mov    	edx, 0x101
  0x1408	dec    	eax
  0x1409	mov    	ecx, dword ptr [ebp + 0x38]
  === BLOCK LINK ===
    0x140c
=== CODE BLOCK END ===

=== CODE BLOCK ADDRESS 0x140c ===
  0x140c	dec    	eax
  0x140d	call   	dword ptr [0x8a05]
  === BLOCK LINK ===
    0x1413
=== CODE BLOCK END ===

=== CODE BLOCK ADDRESS 0x1413 ===
  0x1413	nop    	dword ptr [eax + eax]
  0x1418	test   	eax, eax
  0x141a	jne    	0x22e3
  === BLOCK LINK ===
    0x1420
    0x22e3
=== CODE BLOCK END ===

=== CODE BLOCK ADDRESS 0x1420 ===
  0x1420	jmp    	0x119b
  === BLOCK LINK ===
    0x1425
    0x119b
=== CODE BLOCK END ===

=== CODE BLOCK ADDRESS 0x1425 ===
  0x1425	dec    	esp
  0x1426	mov    	eax, dword ptr [ebp - 0x28]
  0x1429	mov    	edx, 0x101
  0x142e	dec    	eax
  0x142f	mov    	ecx, dword ptr [ebp + 0x38]
  === BLOCK LINK ===
    0x1432
=== CODE BLOCK END ===

=== CODE BLOCK ADDRESS 0x1432 ===
  0x1432	dec    	eax
  0x1433	call   	dword ptr [0x89cf]
  === BLOCK LINK ===
    0x1439
=== CODE BLOCK END ===

=== CODE BLOCK ADDRESS 0x1439 ===
  0x1439	nop    	dword ptr [eax + eax]
  0x143e	test   	eax, eax
  0x1440	jne    	0x2307
  === BLOCK LINK ===
    0x1446
    0x2307
=== CODE BLOCK END ===

=== CODE BLOCK ADDRESS 0x1446 ===
  0x1446	jmp    	0x119b
  === BLOCK LINK ===
    0x144b
    0x119b
=== CODE BLOCK END ===

=== CODE BLOCK ADDRESS 0x144b ===
  0x144b	or     	dword ptr [esp + 0x6c], 2
  0x1450	jmp    	0x119b
  === BLOCK LINK ===
    0x1455
    0x119b
=== CODE BLOCK END ===

=== CODE BLOCK ADDRESS 0x1455 ===
  0x1455	bts    	dword ptr [esp + 0x68], 0xe
  0x145b	jmp    	0x119b
  === BLOCK LINK ===
    0x1460
    0x119b
=== CODE BLOCK END ===

=== CODE BLOCK ADDRESS 0x1460 ===
  0x1460	and    	dword ptr [esp + 0x68], 0xffffffdf
  0x1465	or     	dword ptr [esp + 0x6c], 0x20
  0x146a	bts    	dword ptr [esp + 0x64], 0x11
  0x1470	jmp    	0x119b
  === BLOCK LINK ===
    0x1475
    0x119b
=== CODE BLOCK END ===

=== CODE BLOCK ADDRESS 0x1475 ===
  0x1475	and    	dword ptr [esp + 0x68], 0xffffffbf
  0x147a	or     	dword ptr [esp + 0x6c], 0x40
  0x147f	bts    	dword ptr [esp + 0x64], 0x13
  0x1485	jmp    	0x119b
  === BLOCK LINK ===
    0x148a
    0x119b
=== CODE BLOCK END ===

=== CODE BLOCK ADDRESS 0x148a ===
  0x148a	and    	dword ptr [esp + 0x6c], 0xfffffffb
  0x148f	btr    	dword ptr [esp + 0x68], 0xd
  0x1495	bts    	dword ptr [esp + 0x64], 0x15
  0x149b	jmp    	0x119b
  === BLOCK LINK ===
    0x14a0
    0x119b
=== CODE BLOCK END ===

=== CODE BLOCK ADDRESS 0x14a0 ===
  0x14a0	btr    	dword ptr [esp + 0x68], 0x12
  0x14a6	jmp    	0x119b
  === BLOCK LINK ===
    0x14ab
    0x119b
=== CODE BLOCK END ===

=== CODE BLOCK ADDRESS 0x14ab ===
  0x14ab	and    	dword ptr [esp + 0x68], 0xfffffffe
  0x14b0	jmp    	0x119b
  === BLOCK LINK ===
    0x14b5
    0x119b
=== CODE BLOCK END ===

=== CODE BLOCK ADDRESS 0x14b5 ===
  0x14b5	and    	dword ptr [esp + 0x68], 0xffffdf1d
  0x14bd	jmp    	0x119b
  === BLOCK LINK ===
    0x14c2
    0x119b
=== CODE BLOCK END ===

=== CODE BLOCK ADDRESS 0x14c2 ===
  0x14c2	btr    	dword ptr [esp + 0x68], 7
  0x14c8	or     	dword ptr [esp + 0x6c], 0x10
  0x14cd	bts    	dword ptr [esp + 0x64], 0xf
  0x14d3	jmp    	0x119b
  === BLOCK LINK ===
    0x14d8
    0x119b
=== CODE BLOCK END ===

=== CODE BLOCK ADDRESS 0x14d8 ===
  0x14d8	bts    	dword ptr [esp + 0x64], 8
  0x14de	jmp    	0x119b
  === BLOCK LINK ===
    0x14e3
    0x119b
=== CODE BLOCK END ===

=== CODE BLOCK ADDRESS 0x14e3 ===
  0x14e3	bts    	dword ptr [esp + 0x64], 9
  0x14e9	dec    	eax
  0x14ea	lea    	eax, [0x8dff]
  0x14f0	dec    	eax
  0x14f1	mov    	dword ptr [ebp - 0x78], eax
  === BLOCK LINK ===
    0x14f4
=== CODE BLOCK END ===

=== CODE BLOCK ADDRESS 0x14f4 ===
  0x14f4	dec    	eax
  0x14f5	mov    	dword ptr [esp + 0x78], eax
  0x14f9	jmp    	0x119b
  === BLOCK LINK ===
    0x14fe
    0x119b
=== CODE BLOCK END ===

=== CODE BLOCK ADDRESS 0x14fe ===
  0x14fe	dec    	esp
  0x14ff	mov    	eax, dword ptr [ebp - 0x28]
  0x1502	mov    	edx, 0x202
  0x1507	dec    	eax
  0x1508	mov    	ecx, dword ptr [ebp + 0x38]
  === BLOCK LINK ===
    0x150b
=== CODE BLOCK END ===

=== CODE BLOCK ADDRESS 0x150b ===
  0x150b	dec    	eax
  0x150c	call   	dword ptr [0x8906]
  === BLOCK LINK ===
    0x1512
=== CODE BLOCK END ===

=== CODE BLOCK ADDRESS 0x1512 ===
  0x1512	nop    	dword ptr [eax + eax]
  0x1517	test   	eax, eax
  0x1519	jne    	0x232b
  === BLOCK LINK ===
    0x151f
    0x232b
=== CODE BLOCK END ===

=== CODE BLOCK ADDRESS 0x151f ===
  0x151f	jmp    	0x119b
  === BLOCK LINK ===
    0x1524
    0x119b
=== CODE BLOCK END ===

=== CODE BLOCK ADDRESS 0x1524 ===
  0x1524	dec    	esp
  0x1525	mov    	eax, dword ptr [ebp - 0x28]
  0x1528	mov    	edx, 0x202
  0x152d	dec    	eax
  0x152e	mov    	ecx, dword ptr [ebp + 0x38]
  === BLOCK LINK ===
    0x1531
=== CODE BLOCK END ===

=== CODE BLOCK ADDRESS 0x1531 ===
  0x1531	dec    	eax
  0x1532	call   	dword ptr [0x88d0]
  === BLOCK LINK ===
    0x1538
=== CODE BLOCK END ===

=== CODE BLOCK ADDRESS 0x1538 ===
  0x1538	nop    	dword ptr [eax + eax]
  0x153d	test   	eax, eax
  0x153f	jne    	0x234f
  === BLOCK LINK ===
    0x1545
    0x234f
=== CODE BLOCK END ===

=== CODE BLOCK ADDRESS 0x1545 ===
  0x1545	jmp    	0x119b
  === BLOCK LINK ===
    0x154a
    0x119b
=== CODE BLOCK END ===

=== CODE BLOCK ADDRESS 0x154a ===
  0x154a	dec    	esp
  0x154b	mov    	eax, dword ptr [ebp - 0x28]
  0x154e	mov    	edx, 0x102
  0x1553	dec    	eax
  0x1554	mov    	ecx, dword ptr [ebp + 0x38]
  === BLOCK LINK ===
    0x1557
=== CODE BLOCK END ===

=== CODE BLOCK ADDRESS 0x1557 ===
  0x1557	dec    	eax
  0x1558	call   	dword ptr [0x88ba]
  === BLOCK LINK ===
    0x155e
=== CODE BLOCK END ===

=== CODE BLOCK ADDRESS 0x155e ===
  0x155e	nop    	dword ptr [eax + eax]
  0x1563	test   	eax, eax
  0x1565	jne    	0x2373
  === BLOCK LINK ===
    0x156b
    0x2373
=== CODE BLOCK END ===

=== CODE BLOCK ADDRESS 0x156b ===
  0x156b	jmp    	0x119b
  === BLOCK LINK ===
    0x1570
    0x119b
=== CODE BLOCK END ===

=== CODE BLOCK ADDRESS 0x1570 ===
  0x1570	dec    	esp
  0x1571	mov    	eax, dword ptr [ebp - 0x28]
  0x1574	mov    	edx, 0x102
  0x1579	dec    	eax
  0x157a	mov    	ecx, dword ptr [ebp + 0x38]
  === BLOCK LINK ===
    0x157d
=== CODE BLOCK END ===

=== CODE BLOCK ADDRESS 0x157d ===
  0x157d	dec    	eax
  0x157e	call   	dword ptr [0x8884]
  === BLOCK LINK ===
    0x1584
=== CODE BLOCK END ===

=== CODE BLOCK ADDRESS 0x1584 ===
  0x1584	nop    	dword ptr [eax + eax]
  0x1589	test   	eax, eax
  0x158b	jne    	0x2397
  === BLOCK LINK ===
    0x1591
    0x2397
=== CODE BLOCK END ===

=== CODE BLOCK ADDRESS 0x1591 ===
  0x1591	jmp    	0x119b
  === BLOCK LINK ===
    0x1596
    0x119b
=== CODE BLOCK END ===

=== CODE BLOCK ADDRESS 0x1596 ===
  0x1596	or     	dword ptr [esp + 0x6c], 8
  0x159b	jmp    	0x119b
  === BLOCK LINK ===
    0x15a0
    0x119b
=== CODE BLOCK END ===

=== CODE BLOCK ADDRESS 0x15a0 ===
  0x15a0	dec    	eax
  0x15a1	mov    	eax, dword ptr [ebp - 0x28]
  0x15a4	dec    	eax
  0x15a5	mov    	dword ptr [ebp - 0x60], eax
  0x15a8	jmp    	0x119b
  === BLOCK LINK ===
    0x15ad
    0x119b
=== CODE BLOCK END ===

=== CODE BLOCK ADDRESS 0x15ad ===
  0x15ad	dec    	eax
  0x15ae	mov    	eax, dword ptr [ebp - 0x28]
  0x15b1	dec    	eax
  0x15b2	mov    	dword ptr [ebp - 0x70], eax
  0x15b5	jmp    	0x119b
  === BLOCK LINK ===
    0x15ba
    0x119b
=== CODE BLOCK END ===

=== CODE BLOCK ADDRESS 0x15ba ===
  0x15ba	dec    	eax
  0x15bb	lea    	edx, [0x8edb]
  0x15c1	jmp    	0x12af
  === BLOCK LINK ===
    0x15c6
    0x12af
=== CODE BLOCK END ===

=== CODE BLOCK ADDRESS 0x15c6 ===
  0x15c6	bts    	dword ptr [esp + 0x68], 0x12
  0x15cc	jmp    	0x119b
  === BLOCK LINK ===
    0x15d1
    0x119b
=== CODE BLOCK END ===

=== CODE BLOCK ADDRESS 0x15d1 ===
  0x15d1	or     	dword ptr [esp + 0x68], ebx
  0x15d5	jmp    	0x119b
  === BLOCK LINK ===
    0x15da
    0x119b
=== CODE BLOCK END ===

=== CODE BLOCK ADDRESS 0x15da ===
  0x15da	dec    	eax
  0x15db	call   	dword ptr [0x8607]
  === BLOCK LINK ===
    0x15e1
=== CODE BLOCK END ===

=== CODE BLOCK ADDRESS 0x15e1 ===
  0x15e1	nop    	dword ptr [eax + eax]
  0x15e6	xor    	esi, esi
  0x15e8	dec    	eax
  0x15e9	lea    	edx, [esp + 0x30]
  0x15ed	mov    	dword ptr [eax], esi
  === BLOCK LINK ===
    0x15ef
=== CODE BLOCK END ===

=== CODE BLOCK ADDRESS 0x15ef ===
  0x15ef	dec    	eax
  0x15f0	mov    	ecx, dword ptr [ebp - 0x28]
  0x15f3	inc    	esp
  0x15f4	lea    	eax, [esi + 0xa]
  0x15f7	dec    	eax
  === BLOCK LINK ===
    0x15f8
=== CODE BLOCK END ===

=== CODE BLOCK ADDRESS 0x15f8 ===
  0x15f8	mov    	dword ptr [esp + 0x30], esi
  0x15fc	dec    	eax
  0x15fd	call   	dword ptr [0x8715]
  === BLOCK LINK ===
    0x1603
=== CODE BLOCK END ===

=== CODE BLOCK ADDRESS 0x1603 ===
  0x1603	nop    	dword ptr [eax + eax]
  0x1608	mov    	edi, eax
  0x160a	dec    	eax
  0x160b	call   	dword ptr [0x85d7]
  === BLOCK LINK ===
    0x1611
=== CODE BLOCK END ===

=== CODE BLOCK ADDRESS 0x1611 ===
  0x1611	nop    	dword ptr [eax + eax]
  0x1616	cmp    	dword ptr [eax], esi
  0x1618	jne    	0x240c
  === BLOCK LINK ===
    0x161e
    0x240c
=== CODE BLOCK END ===

=== CODE BLOCK ADDRESS 0x161e ===
  0x161e	test   	edi, edi
  0x1620	js     	0x240c
  === BLOCK LINK ===
    0x1626
    0x240c
=== CODE BLOCK END ===

=== CODE BLOCK ADDRESS 0x1626 ===
  0x1626	dec    	eax
  0x1627	mov    	ecx, dword ptr [ebp - 0x28]
  0x162a	inc    	eax
  0x162b	cmp    	byte ptr [ecx], dh
  0x162d	je     	0x240c
  === BLOCK LINK ===
    0x1633
    0x240c
=== CODE BLOCK END ===

=== CODE BLOCK ADDRESS 0x1633 ===
  0x1633	dec    	eax
  0x1634	mov    	ecx, dword ptr [esp + 0x30]
  0x1638	dec    	eax
  0x1639	test   	ecx, ecx
  0x163b	je     	0x240c
  === BLOCK LINK ===
    0x1641
    0x240c
=== CODE BLOCK END ===

=== CODE BLOCK ADDRESS 0x1641 ===
  0x1641	inc    	eax
  0x1642	cmp    	byte ptr [ecx], dh
  0x1644	jne    	0x240c
  === BLOCK LINK ===
    0x164a
    0x240c
=== CODE BLOCK END ===

=== CODE BLOCK ADDRESS 0x164a ===
  0x164a	mov    	dword ptr [esp + 0x70], edi
  0x164e	jmp    	0x119b
  === BLOCK LINK ===
    0x1653
    0x119b
=== CODE BLOCK END ===

=== CODE BLOCK ADDRESS 0x1653 ===
  0x1653	inc    	ecx
  0x1654	cmp    	ecx, 0x61
  0x1657	jg     	0x1930
  === BLOCK LINK ===
    0x165d
    0x1930
=== CODE BLOCK END ===

=== CODE BLOCK ADDRESS 0x165d ===
  0x165d	je     	0x1927
  === BLOCK LINK ===
    0x1663
    0x1927
=== CODE BLOCK END ===

=== CODE BLOCK ADDRESS 0x1663 ===
  0x1663	inc    	ecx
  0x1664	cmp    	ecx, 0x48
  0x1667	jg     	0x1841
  === BLOCK LINK ===
    0x166d
    0x1841
=== CODE BLOCK END ===

=== CODE BLOCK ADDRESS 0x166d ===
  0x166d	je     	0x1838
  === BLOCK LINK ===
    0x1673
    0x1838
=== CODE BLOCK END ===

=== CODE BLOCK ADDRESS 0x1673 ===
  0x1673	inc    	ecx
  0x1674	cmp    	ecx, 0x37
  0x1677	jg     	0x175e
  === BLOCK LINK ===
    0x167d
    0x175e
=== CODE BLOCK END ===

=== CODE BLOCK ADDRESS 0x167d ===
  0x167d	je     	0x243f
  === BLOCK LINK ===
    0x1683
    0x243f
=== CODE BLOCK END ===

=== CODE BLOCK ADDRESS 0x1683 ===
  0x1683	inc    	ecx
  0x1684	sub    	ecx, 0x32
  0x1687	je     	0x1753
  === BLOCK LINK ===
    0x168d
=== CODE BLOCK END ===

=== CODE BLOCK ADDRESS 0x168d ===
  0x168d	inc    	esp
  0x168e	sub    	ecx, ebx
  0x1690	je     	0x16db
  === BLOCK LINK ===
    0x1692
=== CODE BLOCK END ===

=== CODE BLOCK ADDRESS 0x1692 ===
  0x1692	inc    	esp
  0x1693	sub    	ecx, ebx
  0x1695	je     	0x16ce
  === BLOCK LINK ===
    0x1697
=== CODE BLOCK END ===

=== CODE BLOCK ADDRESS 0x1697 ===
  0x1697	inc    	esp
  0x1698	sub    	ecx, ebx
  0x169a	je     	0x16c1
  === BLOCK LINK ===
    0x169c
=== CODE BLOCK END ===

=== CODE BLOCK ADDRESS 0x169c ===
  0x169c	inc    	esp
  0x169d	cmp    	ecx, ebx
  0x169f	jne    	0x2510
  === BLOCK LINK ===
    0x16a5
=== CODE BLOCK END ===

=== CODE BLOCK ADDRESS 0x16a5 ===
  0x16a5	inc    	ebp
  0x16a6	test   	ch, ch
  0x16a8	jne    	0x241d
  === BLOCK LINK ===
    0x16ae
=== CODE BLOCK END ===

=== CODE BLOCK ADDRESS 0x16ae ===
  0x16ae	dec    	eax
  0x16af	lea    	eax, [0x8e63]
  0x16b5	inc    	ecx
  0x16b6	mov    	ch, 0x36
  0x16b8	dec    	eax
  === BLOCK LINK ===
    0x16b9
=== CODE BLOCK END ===

=== CODE BLOCK ADDRESS 0x16b9 ===
  0x16b9	mov    	dword ptr [ebp + 0x70], eax
  0x16bc	jmp    	0x119b
  === BLOCK LINK ===
    0x16c1
=== CODE BLOCK END ===

=== CODE BLOCK ADDRESS 0x16c1 ===
  0x16c1	dec    	eax
  0x16c2	mov    	eax, dword ptr [ebp - 0x28]
  0x16c5	dec    	eax
  0x16c6	mov    	dword ptr [ebp + 0x78], eax
  0x16c9	jmp    	0x119b
  === BLOCK LINK ===
    0x16ce
=== CODE BLOCK END ===

=== CODE BLOCK ADDRESS 0x16ce ===
  0x16ce	dec    	eax
  0x16cf	mov    	eax, dword ptr [ebp - 0x28]
  0x16d2	dec    	eax
  0x16d3	mov    	dword ptr [ebp - 0x78], eax
  0x16d6	jmp    	0x119b
  === BLOCK LINK ===
    0x16db
=== CODE BLOCK END ===

=== CODE BLOCK ADDRESS 0x16db ===
  0x16db	dec    	eax
  0x16dc	call   	dword ptr [0x8506]
  === BLOCK LINK ===
    0x16e2
=== CODE BLOCK END ===

=== CODE BLOCK ADDRESS 0x16e2 ===
  0x16e2	nop    	dword ptr [eax + eax]
  0x16e7	xor    	esi, esi
  0x16e9	dec    	eax
  0x16ea	lea    	edx, [esp + 0x30]
  0x16ee	mov    	dword ptr [eax], esi
  === BLOCK LINK ===
    0x16f0
=== CODE BLOCK END ===

=== CODE BLOCK ADDRESS 0x16f0 ===
  0x16f0	dec    	eax
  0x16f1	mov    	ecx, dword ptr [ebp - 0x28]
  0x16f4	inc    	esp
  0x16f5	lea    	eax, [esi + 0xa]
  0x16f8	dec    	eax
  === BLOCK LINK ===
    0x16f9
=== CODE BLOCK END ===

=== CODE BLOCK ADDRESS 0x16f9 ===
  0x16f9	mov    	dword ptr [esp + 0x30], esi
  0x16fd	dec    	eax
  0x16fe	call   	dword ptr [0x8614]
  === BLOCK LINK ===
    0x1704
=== CODE BLOCK END ===

=== CODE BLOCK ADDRESS 0x1704 ===
  0x1704	nop    	dword ptr [eax + eax]
  0x1709	mov    	edi, eax
  0x170b	dec    	eax
  0x170c	call   	dword ptr [0x84d6]
  === BLOCK LINK ===
    0x1712
=== CODE BLOCK END ===

=== CODE BLOCK ADDRESS 0x1712 ===
  0x1712	nop    	dword ptr [eax + eax]
  0x1717	cmp    	dword ptr [eax], esi
  0x1719	jne    	0x242e
  === BLOCK LINK ===
    0x171f
=== CODE BLOCK END ===

=== CODE BLOCK ADDRESS 0x171f ===
  0x171f	test   	edi, edi
  0x1721	js     	0x242e
  === BLOCK LINK ===
    0x1727
=== CODE BLOCK END ===

=== CODE BLOCK ADDRESS 0x1727 ===
  0x1727	dec    	eax
  0x1728	mov    	ecx, dword ptr [ebp - 0x28]
  0x172b	inc    	eax
  0x172c	cmp    	byte ptr [ecx], dh
  0x172e	je     	0x242e
  === BLOCK LINK ===
    0x1734
=== CODE BLOCK END ===

=== CODE BLOCK ADDRESS 0x1734 ===
  0x1734	dec    	eax
  0x1735	mov    	ecx, dword ptr [esp + 0x30]
  0x1739	dec    	eax
  0x173a	test   	ecx, ecx
  0x173c	je     	0x242e
  === BLOCK LINK ===
    0x1742
=== CODE BLOCK END ===

=== CODE BLOCK ADDRESS 0x1742 ===
  0x1742	inc    	eax
  0x1743	cmp    	byte ptr [ecx], dh
  0x1745	jne    	0x242e
  === BLOCK LINK ===
    0x174b
=== CODE BLOCK END ===

=== CODE BLOCK ADDRESS 0x174b ===
  0x174b	mov    	dword ptr [ebp - 0x80], edi
  0x174e	jmp    	0x119b
  === BLOCK LINK ===
    0x1753
=== CODE BLOCK END ===

=== CODE BLOCK ADDRESS 0x1753 ===
  0x1753	bts    	dword ptr [esp + 0x64], 0xc
  0x1759	jmp    	0x119b
  === BLOCK LINK ===
    0x175e
=== CODE BLOCK END ===

=== CODE BLOCK ADDRESS 0x175e ===
  0x175e	inc    	ecx
  0x175f	mov    	ecx, ecx
  0x1761	sub    	ecx, 0x38
  0x1764	je     	0x1822
  === BLOCK LINK ===
    0x176a
=== CODE BLOCK END ===

=== CODE BLOCK ADDRESS 0x176a ===
  0x176a	sub    	ecx, ebx
  0x176c	je     	0x17aa
  === BLOCK LINK ===
    0x176e
=== CODE BLOCK END ===

=== CODE BLOCK ADDRESS 0x176e ===
  0x176e	sub    	ecx, 9
  0x1771	je     	0x119b
  === BLOCK LINK ===
    0x1777
=== CODE BLOCK END ===

=== CODE BLOCK ADDRESS 0x1777 ===
  0x1777	cmp    	ecx, ebx
  0x1779	jne    	0x2510
  === BLOCK LINK ===
    0x177f
=== CODE BLOCK END ===

=== CODE BLOCK ADDRESS 0x177f ===
  0x177f	dec    	eax
  0x1780	mov    	edx, dword ptr [ebp - 0x28]
  0x1783	dec    	eax
  0x1784	or     	eax, 0xffffffff
  0x1787	xor    	esi, esi
  === BLOCK LINK ===
    0x1789
=== CODE BLOCK END ===

=== CODE BLOCK ADDRESS 0x1789 ===
  0x1789	dec    	eax
  0x178a	inc    	eax
  0x178c	inc    	eax
  0x178d	cmp    	byte ptr [edx + eax], dh
  0x1790	jne    	0x1789
  === BLOCK LINK ===
    0x1792
=== CODE BLOCK END ===

=== CODE BLOCK ADDRESS 0x1792 ===
  0x1792	dec    	eax
  0x1793	test   	eax, eax
  0x1795	je     	0x2445
  === BLOCK LINK ===
    0x179b
=== CODE BLOCK END ===

=== CODE BLOCK ADDRESS 0x179b ===
  0x179b	dec    	eax
  0x179c	lea    	ecx, [esp + 0x40]
  0x17a0	call   	0x43e4
  === BLOCK LINK ===
    0x17a5
=== CODE BLOCK END ===

=== CODE BLOCK ADDRESS 0x17a5 ===
  0x17a5	jmp    	0x119b
  === BLOCK LINK ===
    0x17aa
=== CODE BLOCK END ===

=== CODE BLOCK ADDRESS 0x17aa ===
  0x17aa	inc    	ebp
  0x17ab	test   	dh, dh
  0x17ad	jne    	0x2456
  === BLOCK LINK ===
    0x17b3
=== CODE BLOCK END ===

=== CODE BLOCK ADDRESS 0x17b3 ===
  0x17b3	inc    	ebp
  0x17b4	mov    	dh, cl
  0x17b6	inc    	ecx
  0x17b7	sub    	ecx, 0x12
  0x17ba	je     	0x1816
  === BLOCK LINK ===
    0x17bc
=== CODE BLOCK END ===

=== CODE BLOCK ADDRESS 0x17bc ===
  0x17bc	inc    	esp
  0x17bd	sub    	ecx, ebx
  0x17bf	je     	0x180a
  === BLOCK LINK ===
    0x17c1
=== CODE BLOCK END ===

=== CODE BLOCK ADDRESS 0x17c1 ===
  0x17c1	inc    	esp
  0x17c2	sub    	ecx, ebx
  0x17c4	je     	0x17fe
  === BLOCK LINK ===
    0x17c6
=== CODE BLOCK END ===

=== CODE BLOCK ADDRESS 0x17c6 ===
  0x17c6	inc    	esp
  0x17c7	sub    	ecx, ebx
  0x17c9	je     	0x17f2
  === BLOCK LINK ===
    0x17cb
=== CODE BLOCK END ===

=== CODE BLOCK ADDRESS 0x17cb ===
  0x17cb	inc    	esp
  0x17cc	sub    	ecx, ebx
  0x17ce	je     	0x17e6
  === BLOCK LINK ===
    0x17d0
=== CODE BLOCK END ===

=== CODE BLOCK ADDRESS 0x17d0 ===
  0x17d0	inc    	ecx
  0x17d1	cmp    	ecx, 0x23
  0x17d4	jne    	0x119b
  === BLOCK LINK ===
    0x17da
=== CODE BLOCK END ===

=== CODE BLOCK ADDRESS 0x17da ===
  0x17da	dec    	esp
  0x17db	lea    	edi, [0x8ca3]
  0x17e1	jmp    	0x119b
  === BLOCK LINK ===
    0x17e6
=== CODE BLOCK END ===

=== CODE BLOCK ADDRESS 0x17e6 ===
  0x17e6	dec    	esp
  0x17e7	lea    	edi, [0x8c8f]
  0x17ed	jmp    	0x119b
  === BLOCK LINK ===
    0x17f2
=== CODE BLOCK END ===

=== CODE BLOCK ADDRESS 0x17f2 ===
  0x17f2	dec    	esp
  0x17f3	lea    	edi, [0x8c7b]
  0x17f9	jmp    	0x119b
  === BLOCK LINK ===
    0x17fe
=== CODE BLOCK END ===

=== CODE BLOCK ADDRESS 0x17fe ===
  0x17fe	dec    	esp
  0x17ff	lea    	edi, [0x8c67]
  0x1805	jmp    	0x119b
  === BLOCK LINK ===
    0x180a
=== CODE BLOCK END ===

=== CODE BLOCK ADDRESS 0x180a ===
  0x180a	dec    	esp
  0x180b	lea    	edi, [0x8c57]
  0x1811	jmp    	0x119b
  === BLOCK LINK ===
    0x1816
=== CODE BLOCK END ===

=== CODE BLOCK ADDRESS 0x1816 ===
  0x1816	dec    	esp
  0x1817	lea    	edi, [0x8c43]
  0x181d	jmp    	0x119b
  === BLOCK LINK ===
    0x1822
=== CODE BLOCK END ===

=== CODE BLOCK ADDRESS 0x1822 ===
  0x1822	bts    	dword ptr [esp + 0x68], 7
  0x1828	and    	dword ptr [esp + 0x6c], 0xffffffef
  0x182d	bts    	dword ptr [esp + 0x64], 0x10
  0x1833	jmp    	0x119b
  === BLOCK LINK ===
    0x1838
=== CODE BLOCK END ===

=== CODE BLOCK ADDRESS 0x1838 ===
  0x1838	mov    	byte ptr [ebp - 0x67], 0x48
  0x183c	jmp    	0x119b
  === BLOCK LINK ===
    0x1841
=== CODE BLOCK END ===

=== CODE BLOCK ADDRESS 0x1841 ===
  0x1841	inc    	ecx
  0x1842	cmp    	ecx, 0x53
  0x1845	jg     	0x18c0
  === BLOCK LINK ===
    0x1847
=== CODE BLOCK END ===

=== CODE BLOCK ADDRESS 0x1847 ===
  0x1847	je     	0x18b5
  === BLOCK LINK ===
    0x1849
=== CODE BLOCK END ===

=== CODE BLOCK ADDRESS 0x1849 ===
  0x1849	inc    	ecx
  0x184a	sub    	ecx, 0x49
  0x184d	je     	0x18a7
  === BLOCK LINK ===
    0x184f
=== CODE BLOCK END ===

=== CODE BLOCK ADDRESS 0x184f ===
  0x184f	inc    	esp
  0x1850	sub    	ecx, ebx
  0x1852	je     	0x188f
  === BLOCK LINK ===
    0x1854
=== CODE BLOCK END ===

=== CODE BLOCK ADDRESS 0x1854 ===
  0x1854	inc    	ecx
  0x1855	sub    	ecx, 2
  0x1858	je     	0x1886
  === BLOCK LINK ===
    0x185a
=== CODE BLOCK END ===

=== CODE BLOCK ADDRESS 0x185a ===
  0x185a	inc    	ecx
  0x185b	sub    	ecx, 3
  0x185e	je     	0x187b
  === BLOCK LINK ===
    0x1860
=== CODE BLOCK END ===

=== CODE BLOCK ADDRESS 0x1860 ===
  0x1860	inc    	esp
  0x1861	cmp    	ecx, ebx
  0x1863	jne    	0x2510
  === BLOCK LINK ===
    0x1869
=== CODE BLOCK END ===

=== CODE BLOCK ADDRESS 0x1869 ===
  0x1869	and    	dword ptr [esp + 0x68], 0xfffffcff
  0x1871	or     	dword ptr [esp + 0x64], 2
  0x1876	jmp    	0x119b
  === BLOCK LINK ===
    0x187b
=== CODE BLOCK END ===

=== CODE BLOCK ADDRESS 0x187b ===
  0x187b	bts    	dword ptr [esp + 0x64], 0xb
  0x1881	jmp    	0x119b
  === BLOCK LINK ===
    0x1886
=== CODE BLOCK END ===

=== CODE BLOCK ADDRESS 0x1886 ===
  0x1886	mov    	byte ptr [ebp - 0x67], 0x4c
  0x188a	jmp    	0x119b
  === BLOCK LINK ===
    0x188f
=== CODE BLOCK END ===

=== CODE BLOCK ADDRESS 0x188f ===
  0x188f	inc    	ebp
  0x1890	test   	dh, dh
  0x1892	jne    	0x246f
  === BLOCK LINK ===
    0x1898
=== CODE BLOCK END ===

=== CODE BLOCK ADDRESS 0x1898 ===
  0x1898	inc    	ecx
  0x1899	mov    	dh, 0x4a
  0x189b	dec    	esp
  0x189c	lea    	edi, [0x8bba]
  0x18a2	jmp    	0x119b
  === BLOCK LINK ===
    0x18a7
=== CODE BLOCK END ===

=== CODE BLOCK ADDRESS 0x18a7 ===
  0x18a7	dec    	eax
  0x18a8	mov    	eax, dword ptr [ebp - 0x28]
  0x18ab	dec    	eax
  0x18ac	mov    	dword ptr [esp + 0x50], eax
  0x18b0	jmp    	0x119b
  === BLOCK LINK ===
    0x18b5
=== CODE BLOCK END ===

=== CODE BLOCK ADDRESS 0x18b5 ===
  0x18b5	bts    	dword ptr [esp + 0x68], 0xc
  0x18bb	jmp    	0x119b
  === BLOCK LINK ===
    0x18c0
=== CODE BLOCK END ===

=== CODE BLOCK ADDRESS 0x18c0 ===
  0x18c0	inc    	ecx
  0x18c1	sub    	ecx, 0x54
  0x18c4	je     	0x18a7
  === BLOCK LINK ===
    0x18c6
=== CODE BLOCK END ===

=== CODE BLOCK ADDRESS 0x18c6 ===
  0x18c6	inc    	esp
  0x18c7	sub    	ecx, ebx
  0x18c9	je     	0x1917
  === BLOCK LINK ===
    0x18cb
=== CODE BLOCK END ===

=== CODE BLOCK ADDRESS 0x18cb ===
  0x18cb	inc    	ecx
  0x18cc	sub    	ecx, 3
  0x18cf	je     	0x18f3
  === BLOCK LINK ===
    0x18d1
=== CODE BLOCK END ===

=== CODE BLOCK ADDRESS 0x18d1 ===
  0x18d1	inc    	ecx
  0x18d2	cmp    	ecx, 2
  0x18d5	jne    	0x2510
  === BLOCK LINK ===
    0x18db
=== CODE BLOCK END ===

=== CODE BLOCK ADDRESS 0x18db ===
  0x18db	inc    	ebp
  0x18dc	test   	dh, dh
  0x18de	jne    	0x248e
  === BLOCK LINK ===
    0x18e4
=== CODE BLOCK END ===

=== CODE BLOCK ADDRESS 0x18e4 ===
  0x18e4	inc    	ecx
  0x18e5	mov    	dh, 0x5a
  0x18e7	dec    	esp
  0x18e8	lea    	edi, [0x8c3a]
  0x18ee	jmp    	0x119b
  === BLOCK LINK ===
    0x18f3
=== CODE BLOCK END ===

=== CODE BLOCK ADDRESS 0x18f3 ===
  0x18f3	dec    	eax
  0x18f4	mov    	edx, dword ptr [ebp - 0x28]
  0x18f7	inc    	ebp
  0x18f8	xor    	eax, eax
  0x18fa	dec    	eax
  === BLOCK LINK ===
    0x18fb
=== CODE BLOCK END ===

=== CODE BLOCK ADDRESS 0x18fb ===
  0x18fb	mov    	ecx, dword ptr [ebp + 0x38]
  0x18fe	dec    	eax
  0x18ff	call   	dword ptr [0x84fb]
  === BLOCK LINK ===
    0x1905
=== CODE BLOCK END ===

=== CODE BLOCK ADDRESS 0x1905 ===
  0x1905	nop    	dword ptr [eax + eax]
  0x190a	test   	eax, eax
  0x190c	jne    	0x23bb
  === BLOCK LINK ===
    0x1912
=== CODE BLOCK END ===

=== CODE BLOCK ADDRESS 0x1912 ===
  0x1912	jmp    	0x119b
  === BLOCK LINK ===
    0x1917
=== CODE BLOCK END ===

=== CODE BLOCK ADDRESS 0x1917 ===
  0x1917	or     	dword ptr [esp + 0x68], 0x10
  0x191c	bts    	dword ptr [esp + 0x64], 0xd
  0x1922	jmp    	0x119b
  === BLOCK LINK ===
    0x1927
=== CODE BLOCK END ===

=== CODE BLOCK ADDRESS 0x1927 ===
  0x1927	or     	dword ptr [esp + 0x64], ebx
  0x192b	jmp    	0x119b
  === BLOCK LINK ===
    0x1930
=== CODE BLOCK END ===

=== CODE BLOCK ADDRESS 0x1930 ===
  0x1930	inc    	ecx
  0x1931	cmp    	ecx, 0x70
  0x1934	jg     	0x1a8f
  === BLOCK LINK ===
    0x193a
=== CODE BLOCK END ===

=== CODE BLOCK ADDRESS 0x193a ===
  0x193a	je     	0x1a82
  === BLOCK LINK ===
    0x1940
=== CODE BLOCK END ===

=== CODE BLOCK ADDRESS 0x1940 ===
  0x1940	inc    	ecx
  0x1941	cmp    	ecx, 0x6b
  0x1944	jg     	0x1a45
  === BLOCK LINK ===
    0x194a
=== CODE BLOCK END ===

=== CODE BLOCK ADDRESS 0x194a ===
  0x194a	je     	0x1a3b
  === BLOCK LINK ===
    0x1950
=== CODE BLOCK END ===

=== CODE BLOCK ADDRESS 0x1950 ===
  0x1950	inc    	ecx
  0x1951	sub    	ecx, 0x62
  0x1954	je     	0x19b4
  === BLOCK LINK ===
    0x1956
=== CODE BLOCK END ===

=== CODE BLOCK ADDRESS 0x1956 ===
  0x1956	inc    	esp
  0x1957	sub    	ecx, ebx
  0x1959	je     	0x19a3
  === BLOCK LINK ===
    0x195b
=== CODE BLOCK END ===

=== CODE BLOCK ADDRESS 0x195b ===
  0x195b	inc    	ecx
  0x195c	sub    	ecx, 3
  0x195f	je     	0x1995
  === BLOCK LINK ===
    0x1961
=== CODE BLOCK END ===

=== CODE BLOCK ADDRESS 0x1961 ===
  0x1961	inc    	ecx
  0x1962	sub    	ecx, 2
  0x1965	je     	0x1989
  === BLOCK LINK ===
    0x1967
=== CODE BLOCK END ===

=== CODE BLOCK ADDRESS 0x1967 ===
  0x1967	inc    	ecx
  0x1968	cmp    	ecx, 2
  0x196b	jne    	0x2510
  === BLOCK LINK ===
    0x1971
=== CODE BLOCK END ===

=== CODE BLOCK ADDRESS 0x1971 ===
  0x1971	inc    	ebp
  0x1972	test   	dh, dh
  0x1974	jne    	0x24ad
  === BLOCK LINK ===
    0x197a
=== CODE BLOCK END ===

=== CODE BLOCK ADDRESS 0x197a ===
  0x197a	inc    	ecx
  0x197b	mov    	dh, 0x6a
  0x197d	dec    	esp
  0x197e	lea    	edi, [0x8ad0]
  0x1984	jmp    	0x119b
  === BLOCK LINK ===
    0x1989
=== CODE BLOCK END ===

=== CODE BLOCK ADDRESS 0x1989 ===
  0x1989	mov    	byte ptr [ebp - 0x67], 0x4c
  0x198d	inc    	esp
  0x198e	mov    	ah, bl
  0x1990	jmp    	0x119b
  === BLOCK LINK ===
    0x1995
=== CODE BLOCK END ===

=== CODE BLOCK ADDRESS 0x1995 ===
  0x1995	dec    	eax
  0x1996	mov    	eax, dword ptr [ebp - 0x28]
  0x1999	dec    	eax
  0x199a	mov    	dword ptr [esp + 0x40], eax
  0x199e	jmp    	0x119b
  === BLOCK LINK ===
    0x19a3
=== CODE BLOCK END ===

=== CODE BLOCK ADDRESS 0x19a3 ===
  0x19a3	mov    	dl, 0x63
  0x19a5	dec    	eax
  0x19a6	lea    	ecx, [esp + 0x40]
  0x19aa	call   	0x2908
  === BLOCK LINK ===
    0x19af
=== CODE BLOCK END ===

=== CODE BLOCK ADDRESS 0x19af ===
  0x19af	jmp    	0x119b
  === BLOCK LINK ===
    0x19b4
=== CODE BLOCK END ===

=== CODE BLOCK ADDRESS 0x19b4 ===
  0x19b4	dec    	eax
  0x19b5	call   	dword ptr [0x822d]
  === BLOCK LINK ===
    0x19bb
=== CODE BLOCK END ===

=== CODE BLOCK ADDRESS 0x19bb ===
  0x19bb	nop    	dword ptr [eax + eax]
  0x19c0	xor    	esi, esi
  0x19c2	dec    	eax
  0x19c3	lea    	edx, [esp + 0x30]
  0x19c7	mov    	dword ptr [eax], esi
  === BLOCK LINK ===
    0x19c9
=== CODE BLOCK END ===

=== CODE BLOCK ADDRESS 0x19c9 ===
  0x19c9	dec    	eax
  0x19ca	mov    	ecx, dword ptr [ebp - 0x28]
  0x19cd	inc    	esp
  0x19ce	lea    	eax, [esi + 0xa]
  0x19d1	dec    	eax
  === BLOCK LINK ===
    0x19d2
=== CODE BLOCK END ===

=== CODE BLOCK ADDRESS 0x19d2 ===
  0x19d2	mov    	dword ptr [esp + 0x30], esi
  0x19d6	dec    	eax
  0x19d7	call   	dword ptr [0x833b]
  === BLOCK LINK ===
    0x19dd
=== CODE BLOCK END ===

=== CODE BLOCK ADDRESS 0x19dd ===
  0x19dd	nop    	dword ptr [eax + eax]
  0x19e2	mov    	edi, eax
  0x19e4	dec    	eax
  0x19e5	call   	dword ptr [0x81fd]
  === BLOCK LINK ===
    0x19eb
=== CODE BLOCK END ===

=== CODE BLOCK ADDRESS 0x19eb ===
  0x19eb	nop    	dword ptr [eax + eax]
  0x19f0	cmp    	dword ptr [eax], esi
  0x19f2	jne    	0x24cc
  === BLOCK LINK ===
    0x19f8
=== CODE BLOCK END ===

=== CODE BLOCK ADDRESS 0x19f8 ===
  0x19f8	lea    	ecx, [edi - 1]
  0x19fb	cmp    	ecx, 0x1fff
  0x1a01	ja     	0x24cc
  === BLOCK LINK ===
    0x1a07
=== CODE BLOCK END ===

=== CODE BLOCK ADDRESS 0x1a07 ===
  0x1a07	dec    	eax
  0x1a08	mov    	ecx, dword ptr [ebp - 0x28]
  0x1a0b	inc    	eax
  0x1a0c	cmp    	byte ptr [ecx], dh
  0x1a0e	je     	0x24cc
  === BLOCK LINK ===
    0x1a14
=== CODE BLOCK END ===

=== CODE BLOCK ADDRESS 0x1a14 ===
  0x1a14	dec    	eax
  0x1a15	mov    	ecx, dword ptr [esp + 0x30]
  0x1a19	dec    	eax
  0x1a1a	test   	ecx, ecx
  0x1a1c	je     	0x24cc
  === BLOCK LINK ===
    0x1a22
=== CODE BLOCK END ===

=== CODE BLOCK ADDRESS 0x1a22 ===
  0x1a22	inc    	eax
  0x1a23	cmp    	byte ptr [ecx], dh
  0x1a25	jne    	0x24cc
  === BLOCK LINK ===
    0x1a2b
=== CODE BLOCK END ===

=== CODE BLOCK ADDRESS 0x1a2b ===
  0x1a2b	shl    	edi, 9
  0x1a2e	mov    	dword ptr [esp + 0x58], edi
  0x1a32	mov    	dword ptr [esp + 0x5c], edi
  0x1a36	jmp    	0x119b
  === BLOCK LINK ===
    0x1a3b
=== CODE BLOCK END ===

=== CODE BLOCK ADDRESS 0x1a3b ===
  0x1a3b	or     	dword ptr [esp + 0x68], 8
  0x1a40	jmp    	0x119b
  === BLOCK LINK ===
    0x1a45
=== CODE BLOCK END ===

=== CODE BLOCK ADDRESS 0x1a45 ===
  0x1a45	inc    	ecx
  0x1a46	sub    	ecx, 0x6c
  0x1a49	je     	0x1210
  === BLOCK LINK ===
    0x1a4f
=== CODE BLOCK END ===

=== CODE BLOCK ADDRESS 0x1a4f ===
  0x1a4f	inc    	esp
  0x1a50	sub    	ecx, ebx
  0x1a52	je     	0x1a78
  === BLOCK LINK ===
    0x1a54
=== CODE BLOCK END ===

=== CODE BLOCK ADDRESS 0x1a54 ===
  0x1a54	inc    	esp
  0x1a55	sub    	ecx, ebx
  0x1a57	je     	0x1a6d
  === BLOCK LINK ===
    0x1a59
=== CODE BLOCK END ===

=== CODE BLOCK ADDRESS 0x1a59 ===
  0x1a59	inc    	esp
  0x1a5a	cmp    	ecx, ebx
  0x1a5c	jne    	0x2510
  === BLOCK LINK ===
    0x1a62
=== CODE BLOCK END ===

=== CODE BLOCK ADDRESS 0x1a62 ===
  0x1a62	bts    	dword ptr [esp + 0x64], 0xa
  0x1a68	jmp    	0x119b
  === BLOCK LINK ===
    0x1a6d
=== CODE BLOCK END ===

=== CODE BLOCK ADDRESS 0x1a6d ===
  0x1a6d	bts    	dword ptr [esp + 0x64], 7
  0x1a73	jmp    	0x119b
  === BLOCK LINK ===
    0x1a78
=== CODE BLOCK END ===

=== CODE BLOCK ADDRESS 0x1a78 ===
  0x1a78	and    	dword ptr [esp + 0x68], 0xfffffffb
  0x1a7d	jmp    	0x119b
  === BLOCK LINK ===
    0x1a82
=== CODE BLOCK END ===

=== CODE BLOCK ADDRESS 0x1a82 ===
  0x1a82	or     	dword ptr [esp + 0x68], 0x20e2
  0x1a8a	jmp    	0x119b
  === BLOCK LINK ===
    0x1a8f
=== CODE BLOCK END ===

=== CODE BLOCK ADDRESS 0x1a8f ===
  0x1a8f	inc    	ecx
  0x1a90	cmp    	ecx, 0x76
  0x1a93	jg     	0x1ae6
  === BLOCK LINK ===
    0x1a95
=== CODE BLOCK END ===

=== CODE BLOCK ADDRESS 0x1a95 ===
  0x1a95	je     	0x1acc
  === BLOCK LINK ===
    0x1a97
=== CODE BLOCK END ===

=== CODE BLOCK ADDRESS 0x1a97 ===
  0x1a97	inc    	ecx
  0x1a98	sub    	ecx, 0x71
  0x1a9b	je     	0x1adc
  === BLOCK LINK ===
    0x1a9d
=== CODE BLOCK END ===

=== CODE BLOCK ADDRESS 0x1a9d ===
  0x1a9d	inc    	esp
  0x1a9e	sub    	ecx, ebx
  0x1aa0	je     	0x1ad5
  === BLOCK LINK ===
    0x1aa2
=== CODE BLOCK END ===

=== CODE BLOCK ADDRESS 0x1aa2 ===
  0x1aa2	inc    	esp
  0x1aa3	sub    	ecx, ebx
  0x1aa5	je     	0x24dd
  === BLOCK LINK ===
    0x1aab
=== CODE BLOCK END ===

=== CODE BLOCK ADDRESS 0x1aab ===
  0x1aab	inc    	esp
  0x1aac	sub    	ecx, ebx
  0x1aae	je     	0x1ac0
  === BLOCK LINK ===
    0x1ab0
=== CODE BLOCK END ===

=== CODE BLOCK ADDRESS 0x1ab0 ===
  0x1ab0	inc    	esp
  0x1ab1	cmp    	ecx, ebx
  0x1ab3	jne    	0x2510
  === BLOCK LINK ===
    0x1ab9
=== CODE BLOCK END ===

=== CODE BLOCK ADDRESS 0x1ab9 ===
  0x1ab9	mov    	dl, 0x75
  0x1abb	jmp    	0x19a5
  === BLOCK LINK ===
    0x1ac0
=== CODE BLOCK END ===

=== CODE BLOCK ADDRESS 0x1ac0 ===
  0x1ac0	mov    	dl, 0x74
  0x1ac2	dec    	eax
  0x1ac3	lea    	ecx, [esp + 0x40]
  0x1ac7	call   	0x2908
  === BLOCK LINK ===
    0x1acc
=== CODE BLOCK END ===

=== CODE BLOCK ADDRESS 0x1acc ===
  0x1acc	add    	dword ptr [esp + 0x60], ebx
  0x1ad0	jmp    	0x119b
  === BLOCK LINK ===
    0x1ad5
=== CODE BLOCK END ===

=== CODE BLOCK ADDRESS 0x1ad5 ===
  0x1ad5	mov    	dl, 0x72
  0x1ad7	jmp    	0x19a5
  === BLOCK LINK ===
    0x1adc
=== CODE BLOCK END ===

=== CODE BLOCK ADDRESS 0x1adc ===
  0x1adc	or     	dword ptr [esp + 0x64], 8
  0x1ae1	jmp    	0x119b
  === BLOCK LINK ===
    0x1ae6
=== CODE BLOCK END ===

=== CODE BLOCK ADDRESS 0x1ae6 ===
  0x1ae6	inc    	ecx
  0x1ae7	sub    	ecx, 0x77
  0x1aea	je     	0x1b2f
  === BLOCK LINK ===
    0x1aec
=== CODE BLOCK END ===

=== CODE BLOCK ADDRESS 0x1aec ===
  0x1aec	inc    	esp
  0x1aed	sub    	ecx, ebx
  0x1aef	je     	0x1b28
  === BLOCK LINK ===
    0x1af1
=== CODE BLOCK END ===

=== CODE BLOCK ADDRESS 0x1af1 ===
  0x1af1	inc    	esp
  0x1af2	sub    	ecx, ebx
  0x1af4	je     	0x1b17
  === BLOCK LINK ===
    0x1af6
=== CODE BLOCK END ===

=== CODE BLOCK ADDRESS 0x1af6 ===
  0x1af6	inc    	esp
  0x1af7	cmp    	ecx, ebx
  0x1af9	jne    	0x2510
  === BLOCK LINK ===
    0x1aff
=== CODE BLOCK END ===

=== CODE BLOCK ADDRESS 0x1aff ===
  0x1aff	inc    	ebp
  0x1b00	test   	dh, dh
  0x1b02	jne    	0x24f1
  === BLOCK LINK ===
    0x1b08
=== CODE BLOCK END ===

=== CODE BLOCK ADDRESS 0x1b08 ===
  0x1b08	inc    	ecx
  0x1b09	mov    	dh, 0x7a
  0x1b0b	dec    	esp
  0x1b0c	lea    	edi, [0x8a22]
  0x1b12	jmp    	0x119b
  === BLOCK LINK ===
    0x1b17
=== CODE BLOCK END ===

=== CODE BLOCK ADDRESS 0x1b17 ===
  0x1b17	inc    	ebp
  0x1b18	test   	dh, dh
  0x1b1a	jne    	0x2516
  === BLOCK LINK ===
    0x1b20
=== CODE BLOCK END ===

=== CODE BLOCK ADDRESS 0x1b20 ===
  0x1b20	inc    	ecx
  0x1b21	mov    	dh, 0x79
  0x1b23	jmp    	0x197d
  === BLOCK LINK ===
    0x1b28
=== CODE BLOCK END ===

=== CODE BLOCK ADDRESS 0x1b28 ===
  0x1b28	mov    	dl, 0x78
  0x1b2a	jmp    	0x19a5
  === BLOCK LINK ===
    0x1b2f
=== CODE BLOCK END ===

=== CODE BLOCK ADDRESS 0x1b2f ===
  0x1b2f	or     	dword ptr [esp + 0x64], 0x20
  0x1b34	jmp    	0x119b
  === BLOCK LINK ===
    0x1b39
=== CODE BLOCK END ===

=== CODE BLOCK ADDRESS 0x1b39 ===
  0x1b39	movsx  	ecx, byte ptr [ebp - 0x68]
  0x1b3d	xor    	esi, esi
  0x1b3f	test   	cl, cl
  0x1b41	jne    	0x1b51
  === BLOCK LINK ===
    0x1b43
=== CODE BLOCK END ===

=== CODE BLOCK ADDRESS 0x1b43 ===
  0x1b43	inc    	ebp
  0x1b44	test   	ah, ah
  0x1b46	je     	0x253b
  === BLOCK LINK ===
    0x1b4c
=== CODE BLOCK END ===

=== CODE BLOCK ADDRESS 0x1b4c ===
  0x1b4c	jmp    	0x2535
  === BLOCK LINK ===
    0x1b51
=== CODE BLOCK END ===

=== CODE BLOCK ADDRESS 0x1b51 ===
  0x1b51	test   	byte ptr [esp + 0x64], bl
  0x1b55	je     	0x1b78
  === BLOCK LINK ===
    0x1b57
=== CODE BLOCK END ===

=== CODE BLOCK ADDRESS 0x1b57 ===
  0x1b57	mov    	edx, ecx
  0x1b59	dec    	eax
  0x1b5a	lea    	ecx, [0x8a08]
  0x1b60	dec    	eax
  0x1b61	call   	dword ptr [0x81d9]
  === BLOCK LINK ===
    0x1b67
=== CODE BLOCK END ===

=== CODE BLOCK ADDRESS 0x1b67 ===
  0x1b67	nop    	dword ptr [eax + eax]
  0x1b6c	dec    	eax
  0x1b6d	test   	eax, eax
  0x1b6f	je     	0x254c
  === BLOCK LINK ===
    0x1b75
=== CODE BLOCK END ===

=== CODE BLOCK ADDRESS 0x1b75 ===
  0x1b75	mov    	cl, byte ptr [ebp - 0x68]
  0x1b78	test   	byte ptr [esp + 0x6c], 8
  0x1b7d	je     	0x1ba1
  === BLOCK LINK ===
    0x1b7f
=== CODE BLOCK END ===

=== CODE BLOCK ADDRESS 0x1b7f ===
  0x1b7f	movsx  	edx, cl
  0x1b82	dec    	eax
  0x1b83	lea    	ecx, [0x89e7]
  0x1b89	dec    	eax
  0x1b8a	call   	dword ptr [0x81b0]
  === BLOCK LINK ===
    0x1b90
=== CODE BLOCK END ===

=== CODE BLOCK ADDRESS 0x1b90 ===
  0x1b90	nop    	dword ptr [eax + eax]
  0x1b95	dec    	eax
  0x1b96	test   	eax, eax
  0x1b98	je     	0x256c
  === BLOCK LINK ===
    0x1b9e
=== CODE BLOCK END ===

=== CODE BLOCK ADDRESS 0x1b9e ===
  0x1b9e	mov    	cl, byte ptr [ebp - 0x68]
  0x1ba1	test   	byte ptr [esp + 0x64], 8
  0x1ba6	je     	0x1bca
  === BLOCK LINK ===
    0x1ba8
=== CODE BLOCK END ===

=== CODE BLOCK ADDRESS 0x1ba8 ===
  0x1ba8	movsx  	edx, cl
  0x1bab	dec    	eax
  0x1bac	lea    	ecx, [0x89da]
  0x1bb2	dec    	eax
  0x1bb3	call   	dword ptr [0x8187]
  === BLOCK LINK ===
    0x1bb9
=== CODE BLOCK END ===

=== CODE BLOCK ADDRESS 0x1bb9 ===
  0x1bb9	nop    	dword ptr [eax + eax]
  0x1bbe	dec    	eax
  0x1bbf	test   	eax, eax
  0x1bc1	je     	0x258c
  === BLOCK LINK ===
    0x1bc7
=== CODE BLOCK END ===

=== CODE BLOCK ADDRESS 0x1bc7 ===
  0x1bc7	mov    	cl, byte ptr [ebp - 0x68]
  0x1bca	test   	dword ptr [esp + 0x68], 0x8000
  0x1bd2	dec    	esp
  0x1bd3	lea    	esp, [0x89c3]
  0x1bd9	je     	0x1bf9
  === BLOCK LINK ===
    0x1bdb
=== CODE BLOCK END ===

=== CODE BLOCK ADDRESS 0x1bdb ===
  0x1bdb	movsx  	edx, cl
  0x1bde	dec    	ecx
  0x1bdf	mov    	ecx, esp
  0x1be1	dec    	eax
  0x1be2	call   	dword ptr [0x8158]
  === BLOCK LINK ===
    0x1be8
=== CODE BLOCK END ===

=== CODE BLOCK ADDRESS 0x1be8 ===
  0x1be8	nop    	dword ptr [eax + eax]
  0x1bed	dec    	eax
  0x1bee	test   	eax, eax
  0x1bf0	je     	0x25ac
  === BLOCK LINK ===
    0x1bf6
=== CODE BLOCK END ===

=== CODE BLOCK ADDRESS 0x1bf6 ===
  0x1bf6	mov    	cl, byte ptr [ebp - 0x68]
  0x1bf9	test   	dword ptr [esp + 0x68], 0x4000
  0x1c01	je     	0x1c21
  === BLOCK LINK ===
    0x1c03
=== CODE BLOCK END ===

=== CODE BLOCK ADDRESS 0x1c03 ===
  0x1c03	movsx  	edx, cl
  0x1c06	dec    	ecx
  0x1c07	mov    	ecx, esp
  0x1c09	dec    	eax
  0x1c0a	call   	dword ptr [0x8130]
  === BLOCK LINK ===
    0x1c10
=== CODE BLOCK END ===

=== CODE BLOCK ADDRESS 0x1c10 ===
  0x1c10	nop    	dword ptr [eax + eax]
  0x1c15	dec    	eax
  0x1c16	test   	eax, eax
  0x1c18	je     	0x25cc
  === BLOCK LINK ===
    0x1c1e
=== CODE BLOCK END ===

=== CODE BLOCK ADDRESS 0x1c1e ===
  0x1c1e	mov    	cl, byte ptr [ebp - 0x68]
  0x1c21	test   	byte ptr [esp + 0x6c], 2
  0x1c26	je     	0x1c4a
  === BLOCK LINK ===
    0x1c28
=== CODE BLOCK END ===

=== CODE BLOCK ADDRESS 0x1c28 ===
  0x1c28	movsx  	edx, cl
  0x1c2b	dec    	eax
  0x1c2c	lea    	ecx, [0x893e]
  0x1c32	dec    	eax
  0x1c33	call   	dword ptr [0x8107]
  === BLOCK LINK ===
    0x1c39
=== CODE BLOCK END ===

=== CODE BLOCK ADDRESS 0x1c39 ===
  0x1c39	nop    	dword ptr [eax + eax]
  0x1c3e	dec    	eax
  0x1c3f	test   	eax, eax
  0x1c41	je     	0x25ec
  === BLOCK LINK ===
    0x1c47
=== CODE BLOCK END ===

=== CODE BLOCK ADDRESS 0x1c47 ===
  0x1c47	mov    	cl, byte ptr [ebp - 0x68]
  0x1c4a	test   	dword ptr [esp + 0x64], 0x40000
  0x1c52	dec    	eax
  0x1c53	lea    	edi, [0x898b]
  0x1c59	je     	0x1c79
  === BLOCK LINK ===
    0x1c5b
=== CODE BLOCK END ===

=== CODE BLOCK ADDRESS 0x1c5b ===
  0x1c5b	movsx  	edx, cl
  0x1c5e	dec    	eax
  0x1c5f	mov    	ecx, edi
  0x1c61	dec    	eax
  0x1c62	call   	dword ptr [0x80d8]
  === BLOCK LINK ===
    0x1c68
=== CODE BLOCK END ===

=== CODE BLOCK ADDRESS 0x1c68 ===
  0x1c68	nop    	dword ptr [eax + eax]
  0x1c6d	dec    	eax
  0x1c6e	test   	eax, eax
  0x1c70	je     	0x260c
  === BLOCK LINK ===
    0x1c76
=== CODE BLOCK END ===

=== CODE BLOCK ADDRESS 0x1c76 ===
  0x1c76	mov    	cl, byte ptr [ebp - 0x68]
  0x1c79	test   	dword ptr [esp + 0x64], 0x20000
  0x1c81	je     	0x1ca1
  === BLOCK LINK ===
    0x1c83
=== CODE BLOCK END ===

=== CODE BLOCK ADDRESS 0x1c83 ===
  0x1c83	movsx  	edx, cl
  0x1c86	dec    	eax
  0x1c87	mov    	ecx, edi
  0x1c89	dec    	eax
  0x1c8a	call   	dword ptr [0x80b0]
  === BLOCK LINK ===
    0x1c90
=== CODE BLOCK END ===

=== CODE BLOCK ADDRESS 0x1c90 ===
  0x1c90	nop    	dword ptr [eax + eax]
  0x1c95	dec    	eax
  0x1c96	test   	eax, eax
  0x1c98	je     	0x262c
  === BLOCK LINK ===
    0x1c9e
=== CODE BLOCK END ===

=== CODE BLOCK ADDRESS 0x1c9e ===
  0x1c9e	mov    	cl, byte ptr [ebp - 0x68]
  0x1ca1	test   	dword ptr [esp + 0x64], 0x10000
  0x1ca9	je     	0x1cc9
  === BLOCK LINK ===
    0x1cab
=== CODE BLOCK END ===

=== CODE BLOCK ADDRESS 0x1cab ===
  0x1cab	movsx  	edx, cl
  0x1cae	dec    	eax
  0x1caf	mov    	ecx, edi
  0x1cb1	dec    	eax
  0x1cb2	call   	dword ptr [0x8088]
  === BLOCK LINK ===
    0x1cb8
=== CODE BLOCK END ===

=== CODE BLOCK ADDRESS 0x1cb8 ===
  0x1cb8	nop    	dword ptr [eax + eax]
  0x1cbd	dec    	eax
  0x1cbe	test   	eax, eax
  0x1cc0	je     	0x264c
  === BLOCK LINK ===
    0x1cc6
=== CODE BLOCK END ===

=== CODE BLOCK ADDRESS 0x1cc6 ===
  0x1cc6	mov    	cl, byte ptr [ebp - 0x68]
  0x1cc9	test   	dword ptr [esp + 0x64], 0x8000
  0x1cd1	je     	0x1cf1
  === BLOCK LINK ===
    0x1cd3
=== CODE BLOCK END ===

=== CODE BLOCK ADDRESS 0x1cd3 ===
  0x1cd3	movsx  	edx, cl
  0x1cd6	dec    	eax
  0x1cd7	mov    	ecx, edi
  0x1cd9	dec    	eax
  0x1cda	call   	dword ptr [0x8060]
  === BLOCK LINK ===
    0x1ce0
=== CODE BLOCK END ===

=== CODE BLOCK ADDRESS 0x1ce0 ===
  0x1ce0	nop    	dword ptr [eax + eax]
  0x1ce5	dec    	eax
  0x1ce6	test   	eax, eax
  0x1ce8	je     	0x266c
  === BLOCK LINK ===
    0x1cee
=== CODE BLOCK END ===

=== CODE BLOCK ADDRESS 0x1cee ===
  0x1cee	mov    	cl, byte ptr [ebp - 0x68]
  0x1cf1	test   	dword ptr [esp + 0x64], 0x100000
  0x1cf9	je     	0x1d19
  === BLOCK LINK ===
    0x1cfb
=== CODE BLOCK END ===

=== CODE BLOCK ADDRESS 0x1cfb ===
  0x1cfb	movsx  	edx, cl
  0x1cfe	dec    	eax
  0x1cff	mov    	ecx, edi
  0x1d01	dec    	eax
  0x1d02	call   	dword ptr [0x8038]
  === BLOCK LINK ===
    0x1d08
=== CODE BLOCK END ===

=== CODE BLOCK ADDRESS 0x1d08 ===
  0x1d08	nop    	dword ptr [eax + eax]
  0x1d0d	dec    	eax
  0x1d0e	test   	eax, eax
  0x1d10	je     	0x268c
  === BLOCK LINK ===
    0x1d16
=== CODE BLOCK END ===

=== CODE BLOCK ADDRESS 0x1d16 ===
  0x1d16	mov    	cl, byte ptr [ebp - 0x68]
  0x1d19	test   	dword ptr [esp + 0x64], 0x80000
  0x1d21	je     	0x1d41
  === BLOCK LINK ===
    0x1d23
=== CODE BLOCK END ===

=== CODE BLOCK ADDRESS 0x1d23 ===
  0x1d23	movsx  	edx, cl
  0x1d26	dec    	eax
  0x1d27	mov    	ecx, edi
  0x1d29	dec    	eax
  0x1d2a	call   	dword ptr [0x8010]
  === BLOCK LINK ===
    0x1d30
=== CODE BLOCK END ===

=== CODE BLOCK ADDRESS 0x1d30 ===
  0x1d30	nop    	dword ptr [eax + eax]
  0x1d35	dec    	eax
  0x1d36	test   	eax, eax
  0x1d38	je     	0x26ac
  === BLOCK LINK ===
    0x1d3e
=== CODE BLOCK END ===

=== CODE BLOCK ADDRESS 0x1d3e ===
  0x1d3e	mov    	cl, byte ptr [ebp - 0x68]
  0x1d41	test   	dword ptr [esp + 0x64], 0x400000
  0x1d49	je     	0x1d69
  === BLOCK LINK ===
    0x1d4b
=== CODE BLOCK END ===

=== CODE BLOCK ADDRESS 0x1d4b ===
  0x1d4b	movsx  	edx, cl
  0x1d4e	dec    	eax
  0x1d4f	mov    	ecx, edi
  0x1d51	dec    	eax
  0x1d52	call   	dword ptr [0x7fe8]
  === BLOCK LINK ===
    0x1d58
=== CODE BLOCK END ===

=== CODE BLOCK ADDRESS 0x1d58 ===
  0x1d58	nop    	dword ptr [eax + eax]
  0x1d5d	dec    	eax
  0x1d5e	test   	eax, eax
  0x1d60	je     	0x26cc
  === BLOCK LINK ===
    0x1d66
=== CODE BLOCK END ===

=== CODE BLOCK ADDRESS 0x1d66 ===
  0x1d66	mov    	cl, byte ptr [ebp - 0x68]
  0x1d69	test   	dword ptr [esp + 0x64], 0x200000
  0x1d71	je     	0x1d91
  === BLOCK LINK ===
    0x1d73
=== CODE BLOCK END ===

=== CODE BLOCK ADDRESS 0x1d73 ===
  0x1d73	movsx  	edx, cl
  0x1d76	dec    	eax
  0x1d77	mov    	ecx, edi
  0x1d79	dec    	eax
  0x1d7a	call   	dword ptr [0x7fc0]
  === BLOCK LINK ===
    0x1d80
=== CODE BLOCK END ===

=== CODE BLOCK ADDRESS 0x1d80 ===
  0x1d80	nop    	dword ptr [eax + eax]
  0x1d85	dec    	eax
  0x1d86	test   	eax, eax
  0x1d88	je     	0x26ec
  === BLOCK LINK ===
    0x1d8e
=== CODE BLOCK END ===

=== CODE BLOCK ADDRESS 0x1d8e ===
  0x1d8e	mov    	cl, byte ptr [ebp - 0x68]
  0x1d91	test   	dword ptr [esp + 0x64], 0x400
  0x1d99	je     	0x1de5
  === BLOCK LINK ===
    0x1d9b
=== CODE BLOCK END ===

=== CODE BLOCK ADDRESS 0x1d9b ===
  0x1d9b	cmp    	cl, 0x63
  0x1d9e	je     	0x1dd2
  === BLOCK LINK ===
    0x1da0
=== CODE BLOCK END ===

=== CODE BLOCK ADDRESS 0x1da0 ===
  0x1da0	cmp    	cl, 0x78
  0x1da3	je     	0x1dc6
  === BLOCK LINK ===
    0x1da5
=== CODE BLOCK END ===

=== CODE BLOCK ADDRESS 0x1da5 ===
  0x1da5	movsx  	edx, cl
  0x1da8	dec    	eax
  0x1da9	lea    	ecx, [0x88c5]
  0x1daf	dec    	eax
  0x1db0	call   	dword ptr [0x7f8a]
  === BLOCK LINK ===
    0x1db6
=== CODE BLOCK END ===

=== CODE BLOCK ADDRESS 0x1db6 ===
  0x1db6	nop    	dword ptr [eax + eax]
  0x1dbb	dec    	eax
  0x1dbc	test   	eax, eax
  0x1dbe	je     	0x270c
  === BLOCK LINK ===
    0x1dc4
=== CODE BLOCK END ===

=== CODE BLOCK ADDRESS 0x1dc4 ===
  0x1dc4	jmp    	0x1de2
  === BLOCK LINK ===
    0x1dc6
=== CODE BLOCK END ===

=== CODE BLOCK ADDRESS 0x1dc6 ===
  0x1dc6	or     	dword ptr [esp + 0x64], 0x40
  0x1dcb	and    	dword ptr [esp + 0x68], 0xfffffffe
  0x1dd0	jmp    	0x1de5
  === BLOCK LINK ===
    0x1dd2
=== CODE BLOCK END ===

=== CODE BLOCK ADDRESS 0x1dd2 ===
  0x1dd2	dec    	eax
  0x1dd3	mov    	ecx, dword ptr [ebp - 0x50]
  0x1dd6	dec    	eax
  0x1dd7	lea    	edx, [0x888f]
  0x1ddd	call   	0x3330
  === BLOCK LINK ===
    0x1de2
=== CODE BLOCK END ===

=== CODE BLOCK ADDRESS 0x1de2 ===
  0x1de2	mov    	cl, byte ptr [ebp - 0x68]
  0x1de5	test   	dword ptr [esp + 0x64], 0x800
  0x1ded	je     	0x1e11
  === BLOCK LINK ===
    0x1def
=== CODE BLOCK END ===

=== CODE BLOCK ADDRESS 0x1def ===
  0x1def	movsx  	edx, cl
  0x1df2	dec    	eax
  0x1df3	lea    	ecx, [0x8793]
  0x1df9	dec    	eax
  0x1dfa	call   	dword ptr [0x7f40]
  === BLOCK LINK ===
    0x1e00
=== CODE BLOCK END ===

=== CODE BLOCK ADDRESS 0x1e00 ===
  0x1e00	nop    	dword ptr [eax + eax]
  0x1e05	dec    	eax
  0x1e06	test   	eax, eax
  0x1e08	je     	0x272c
  === BLOCK LINK ===
    0x1e0e
=== CODE BLOCK END ===

=== CODE BLOCK ADDRESS 0x1e0e ===
  0x1e0e	mov    	cl, byte ptr [ebp - 0x68]
  0x1e11	test   	dword ptr [esp + 0x64], 0x2000
  0x1e19	je     	0x1e39
  === BLOCK LINK ===
    0x1e1b
=== CODE BLOCK END ===

=== CODE BLOCK ADDRESS 0x1e1b ===
  0x1e1b	movsx  	edx, cl
  0x1e1e	dec    	ecx
  0x1e1f	mov    	ecx, esp
  0x1e21	dec    	eax
  0x1e22	call   	dword ptr [0x7f18]
  === BLOCK LINK ===
    0x1e28
=== CODE BLOCK END ===

=== CODE BLOCK ADDRESS 0x1e28 ===
  0x1e28	nop    	dword ptr [eax + eax]
  0x1e2d	dec    	eax
  0x1e2e	test   	eax, eax
  0x1e30	je     	0x274c
  === BLOCK LINK ===
    0x1e36
=== CODE BLOCK END ===

=== CODE BLOCK ADDRESS 0x1e36 ===
  0x1e36	mov    	cl, byte ptr [ebp - 0x68]
  0x1e39	test   	dword ptr [esp + 0x64], 0x4000
  0x1e41	je     	0x1e65
  === BLOCK LINK ===
    0x1e43
=== CODE BLOCK END ===

=== CODE BLOCK ADDRESS 0x1e43 ===
  0x1e43	movsx  	edx, cl
  0x1e46	dec    	eax
  0x1e47	lea    	ecx, [0x8837]
  0x1e4d	dec    	eax
  0x1e4e	call   	dword ptr [0x7eec]
  === BLOCK LINK ===
    0x1e54
=== CODE BLOCK END ===

=== CODE BLOCK ADDRESS 0x1e54 ===
  0x1e54	nop    	dword ptr [eax + eax]
  0x1e59	dec    	eax
  0x1e5a	test   	eax, eax
  0x1e5c	je     	0x276c
  === BLOCK LINK ===
    0x1e62
=== CODE BLOCK END ===

=== CODE BLOCK ADDRESS 0x1e62 ===
  0x1e62	mov    	cl, byte ptr [ebp - 0x68]
  0x1e65	test   	byte ptr [esp + 0x64], bl
  0x1e69	je     	0x1e86
  === BLOCK LINK ===
    0x1e6b
=== CODE BLOCK END ===

=== CODE BLOCK ADDRESS 0x1e6b ===
  0x1e6b	dec    	eax
  0x1e6c	mov    	edx, dword ptr [esp + 0x40]
  0x1e70	dec    	eax
  0x1e71	mov    	ecx, dword ptr [ebp - 0x50]
  0x1e74	call   	0x33f4
  === BLOCK LINK ===
    0x1e79
=== CODE BLOCK END ===

=== CODE BLOCK ADDRESS 0x1e79 ===
  0x1e79	mov    	cl, byte ptr [ebp - 0x68]
  0x1e7c	test   	eax, eax
  0x1e7e	je     	0x1e86
  === BLOCK LINK ===
    0x1e80
=== CODE BLOCK END ===

=== CODE BLOCK ADDRESS 0x1e80 ===
  0x1e80	inc    	esp
  0x1e81	mov    	dh, dh
  0x1e83	inc    	esp
  0x1e84	mov    	ch, dh
  0x1e86	dec    	eax
  === BLOCK LINK ===
    0x1e87
=== CODE BLOCK END ===

=== CODE BLOCK ADDRESS 0x1e87 ===
  0x1e87	mov    	edi, dword ptr [ebp + 0x78]
  0x1e8a	dec    	esp
  0x1e8b	lea    	esp, [0x8807]
  0x1e91	dec    	eax
  0x1e92	test   	edi, edi
  === BLOCK LINK ===
    0x1e94
=== CODE BLOCK END ===

=== CODE BLOCK ADDRESS 0x1e94 ===
  0x1e94	je     	0x1ec8
  === BLOCK LINK ===
    0x1e96
=== CODE BLOCK END ===

=== CODE BLOCK ADDRESS 0x1e96 ===
  0x1e96	movsx  	edx, cl
  0x1e99	dec    	ecx
  0x1e9a	mov    	ecx, esp
  0x1e9c	dec    	eax
  0x1e9d	call   	dword ptr [0x7e9d]
  === BLOCK LINK ===
    0x1ea3
=== CODE BLOCK END ===

=== CODE BLOCK ADDRESS 0x1ea3 ===
  0x1ea3	nop    	dword ptr [eax + eax]
  0x1ea8	dec    	eax
  0x1ea9	test   	eax, eax
  0x1eab	je     	0x278c
  === BLOCK LINK ===
    0x1eb1
=== CODE BLOCK END ===

=== CODE BLOCK ADDRESS 0x1eb1 ===
  0x1eb1	dec    	eax
  0x1eb2	mov    	ecx, dword ptr [ebp - 0x50]
  0x1eb5	dec    	esp
  0x1eb6	mov    	eax, edi
  0x1eb8	mov    	edx, ebx
  === BLOCK LINK ===
    0x1eba
=== CODE BLOCK END ===

=== CODE BLOCK ADDRESS 0x1eba ===
  0x1eba	call   	0x328c
  === BLOCK LINK ===
    0x1ebf
=== CODE BLOCK END ===

=== CODE BLOCK ADDRESS 0x1ebf ===
  0x1ebf	mov    	cl, byte ptr [ebp - 0x68]
  0x1ec2	inc    	esp
  0x1ec3	mov    	dh, dh
  0x1ec5	inc    	esp
  0x1ec6	mov    	ch, dh
  === BLOCK LINK ===
    0x1ec8
=== CODE BLOCK END ===

=== CODE BLOCK ADDRESS 0x1ec8 ===
  0x1ec8	inc    	ebp
  0x1ec9	test   	dh, dh
  0x1ecb	je     	0x1f76
  === BLOCK LINK ===
    0x1ed1
=== CODE BLOCK END ===

=== CODE BLOCK ADDRESS 0x1ed1 ===
  0x1ed1	inc    	ecx
  0x1ed2	lea    	eax, [esi - 0x4a]
  0x1ed5	cmp    	al, 0x30
  0x1ed7	ja     	0x1f0c
  === BLOCK LINK ===
    0x1ed9
=== CODE BLOCK END ===

=== CODE BLOCK ADDRESS 0x1ed9 ===
  0x1ed9	dec    	eax
  0x1eda	mov    	edx, 0x10001
  0x1edf	add    	dword ptr [eax + 0xf480001], eax
  0x1ee5	mov    	dword ptr [0xf2373c2], eax
  0x1eea	mov    	bh, 5
  === BLOCK LINK ===
    0x1eec
=== CODE BLOCK END ===

=== CODE BLOCK ADDRESS 0x1eec ===
  0x1eec	enter  	0x87, 0
  0x1ef0	mov    	word ptr [ebp + 0x80], ax
  0x1ef7	mov    	al, byte ptr [0x87bd]
  0x1efd	mov    	byte ptr [ebp + 0x82], al
  0x1f03	inc    	esp
  === BLOCK LINK ===
    0x1f04
=== CODE BLOCK END ===

=== CODE BLOCK ADDRESS 0x1f04 ===
  0x1f04	mov    	byte ptr [ebp + 0x81], dh
  0x1f0a	jmp    	0x1f4a
  === BLOCK LINK ===
    0x1f0c
=== CODE BLOCK END ===

=== CODE BLOCK ADDRESS 0x1f0c ===
  0x1f0c	movzx  	eax, word ptr [0x87a9]
  0x1f13	dec    	eax
  0x1f14	lea    	edx, [ebp + 0x80]
  0x1f1a	mov    	word ptr [ebp + 0x80], ax
  0x1f21	dec    	eax
  === BLOCK LINK ===
    0x1f22
=== CODE BLOCK END ===

=== CODE BLOCK ADDRESS 0x1f22 ===
  0x1f22	sub    	edx, ebx
  0x1f24	mov    	al, byte ptr [0x8794]
  0x1f2a	mov    	byte ptr [ebp + 0x82], al
  0x1f30	dec    	eax
  0x1f31	add    	edx, ebx
  === BLOCK LINK ===
    0x1f33
=== CODE BLOCK END ===

=== CODE BLOCK ADDRESS 0x1f33 ===
  0x1f33	inc    	eax
  0x1f34	cmp    	byte ptr [edx], dh
  0x1f36	jne    	0x1f30
  === BLOCK LINK ===
    0x1f38
=== CODE BLOCK END ===

=== CODE BLOCK ADDRESS 0x1f38 ===
  0x1f38	inc    	ebp
  0x1f39	xor    	eax, eax
  0x1f3b	inc    	ebx
  0x1f3c	mov    	al, byte ptr [edi + eax]
  0x1f3f	inc    	edx
  === BLOCK LINK ===
    0x1f40
=== CODE BLOCK END ===

=== CODE BLOCK ADDRESS 0x1f40 ===
  0x1f40	mov    	byte ptr [edx + eax], al
  0x1f43	dec    	ecx
  0x1f44	inc    	eax
  0x1f46	test   	al, al
  0x1f48	jne    	0x1f3b
  === BLOCK LINK ===
    0x1f4a
=== CODE BLOCK END ===

=== CODE BLOCK ADDRESS 0x1f4a ===
  0x1f4a	movsx  	edx, cl
  0x1f4d	dec    	ecx
  0x1f4e	mov    	ecx, esp
  0x1f50	dec    	eax
  0x1f51	call   	dword ptr [0x7de9]
  === BLOCK LINK ===
    0x1f57
=== CODE BLOCK END ===

=== CODE BLOCK ADDRESS 0x1f57 ===
  0x1f57	nop    	dword ptr [eax + eax]
  0x1f5c	dec    	eax
  0x1f5d	test   	eax, eax
  0x1f5f	je     	0x27ac
  === BLOCK LINK ===
    0x1f65
=== CODE BLOCK END ===

=== CODE BLOCK ADDRESS 0x1f65 ===
  0x1f65	dec    	eax
  0x1f66	mov    	ecx, dword ptr [ebp - 0x50]
  0x1f69	dec    	ebp
  0x1f6a	mov    	eax, edi
  0x1f6c	xor    	edx, edx
  === BLOCK LINK ===
    0x1f6e
=== CODE BLOCK END ===

=== CODE BLOCK ADDRESS 0x1f6e ===
  0x1f6e	call   	0x328c
  === BLOCK LINK ===
    0x1f73
=== CODE BLOCK END ===

=== CODE BLOCK ADDRESS 0x1f73 ===
  0x1f73	mov    	cl, byte ptr [ebp - 0x68]
  0x1f76	inc    	ebp
  0x1f77	test   	ch, ch
  0x1f79	je     	0x1fe9
  === BLOCK LINK ===
    0x1f7b
=== CODE BLOCK END ===

=== CODE BLOCK ADDRESS 0x1f7b ===
  0x1f7b	movzx  	eax, word ptr [0x873a]
  0x1f82	dec    	eax
  0x1f83	lea    	edx, [ebp + 0x80]
  0x1f89	mov    	word ptr [ebp + 0x80], ax
  0x1f90	dec    	eax
  === BLOCK LINK ===
    0x1f91
=== CODE BLOCK END ===

=== CODE BLOCK ADDRESS 0x1f91 ===
  0x1f91	sub    	edx, ebx
  0x1f93	mov    	al, byte ptr [0x8725]
  0x1f99	mov    	byte ptr [ebp + 0x82], al
  0x1f9f	dec    	eax
  0x1fa0	add    	edx, ebx
  === BLOCK LINK ===
    0x1fa2
=== CODE BLOCK END ===

=== CODE BLOCK ADDRESS 0x1fa2 ===
  0x1fa2	inc    	eax
  0x1fa3	cmp    	byte ptr [edx], dh
  0x1fa5	jne    	0x1f9f
  === BLOCK LINK ===
    0x1fa7
=== CODE BLOCK END ===

=== CODE BLOCK ADDRESS 0x1fa7 ===
  0x1fa7	dec    	eax
  0x1fa8	mov    	edi, dword ptr [ebp + 0x70]
  0x1fab	inc    	ebp
  0x1fac	xor    	eax, eax
  0x1fae	inc    	edx
  === BLOCK LINK ===
    0x1faf
=== CODE BLOCK END ===

=== CODE BLOCK ADDRESS 0x1faf ===
  0x1faf	mov    	al, byte ptr [edi + eax]
  0x1fb2	inc    	edx
  0x1fb3	mov    	byte ptr [edx + eax], al
  0x1fb6	dec    	ecx
  0x1fb7	inc    	eax
  === BLOCK LINK ===
    0x1fb9
=== CODE BLOCK END ===

=== CODE BLOCK ADDRESS 0x1fb9 ===
  0x1fb9	test   	al, al
  0x1fbb	jne    	0x1fae
  === BLOCK LINK ===
    0x1fbd
=== CODE BLOCK END ===

=== CODE BLOCK ADDRESS 0x1fbd ===
  0x1fbd	movsx  	edx, cl
  0x1fc0	dec    	ecx
  0x1fc1	mov    	ecx, esp
  0x1fc3	dec    	eax
  0x1fc4	call   	dword ptr [0x7d76]
  === BLOCK LINK ===
    0x1fca
=== CODE BLOCK END ===

=== CODE BLOCK ADDRESS 0x1fca ===
  0x1fca	nop    	dword ptr [eax + eax]
  0x1fcf	dec    	eax
  0x1fd0	test   	eax, eax
  0x1fd2	je     	0x27cc
  === BLOCK LINK ===
    0x1fd8
=== CODE BLOCK END ===

=== CODE BLOCK ADDRESS 0x1fd8 ===
  0x1fd8	dec    	eax
  0x1fd9	mov    	ecx, dword ptr [ebp - 0x50]
  0x1fdc	dec    	esp
  0x1fdd	mov    	eax, edi
  0x1fdf	xor    	edx, edx
  === BLOCK LINK ===
    0x1fe1
=== CODE BLOCK END ===

=== CODE BLOCK ADDRESS 0x1fe1 ===
  0x1fe1	call   	0x328c
  === BLOCK LINK ===
    0x1fe6
=== CODE BLOCK END ===

=== CODE BLOCK ADDRESS 0x1fe6 ===
  0x1fe6	mov    	cl, byte ptr [ebp - 0x68]
  0x1fe9	dec    	eax
  0x1fea	mov    	eax, dword ptr [ebp - 0x50]
  0x1fed	dec    	eax
  0x1fee	cmp    	dword ptr [eax], esi
  === BLOCK LINK ===
    0x1ff0
=== CODE BLOCK END ===

=== CODE BLOCK ADDRESS 0x1ff0 ===
  0x1ff0	je     	0x2014
  === BLOCK LINK ===
    0x1ff2
=== CODE BLOCK END ===

=== CODE BLOCK ADDRESS 0x1ff2 ===
  0x1ff2	movsx  	edx, cl
  0x1ff5	dec    	eax
  0x1ff6	lea    	ecx, [0x8574]
  0x1ffc	dec    	eax
  0x1ffd	call   	dword ptr [0x7d3d]
  === BLOCK LINK ===
    0x2003
=== CODE BLOCK END ===

=== CODE BLOCK ADDRESS 0x2003 ===
  0x2003	nop    	dword ptr [eax + eax]
  0x2008	dec    	eax
  0x2009	test   	eax, eax
  0x200b	je     	0x27ec
  === BLOCK LINK ===
    0x2011
=== CODE BLOCK END ===

=== CODE BLOCK ADDRESS 0x2011 ===
  0x2011	mov    	cl, byte ptr [ebp - 0x68]
  0x2014	mov    	dl, byte ptr [ebp - 0x67]
  0x2017	test   	dl, dl
  0x2019	je     	0x205a
  === BLOCK LINK ===
    0x201b
=== CODE BLOCK END ===

=== CODE BLOCK ADDRESS 0x201b ===
  0x201b	movzx  	eax, word ptr [0x8696]
  0x2022	mov    	word ptr [ebp + 0x80], ax
  0x2029	mov    	al, byte ptr [0x868b]
  0x202f	mov    	byte ptr [ebp + 0x81], dl
  0x2035	movsx  	edx, cl
  === BLOCK LINK ===
    0x2038
=== CODE BLOCK END ===

=== CODE BLOCK ADDRESS 0x2038 ===
  0x2038	dec    	eax
  0x2039	lea    	ecx, [0x8531]
  0x203f	mov    	byte ptr [ebp + 0x82], al
  0x2045	dec    	eax
  0x2046	call   	dword ptr [0x7cf4]
  === BLOCK LINK ===
    0x204c
=== CODE BLOCK END ===

=== CODE BLOCK ADDRESS 0x204c ===
  0x204c	nop    	dword ptr [eax + eax]
  0x2051	dec    	eax
  0x2052	test   	eax, eax
  0x2054	je     	0x280c
  === BLOCK LINK ===
    0x205a
=== CODE BLOCK END ===

=== CODE BLOCK ADDRESS 0x205a ===
  0x205a	mov    	edx, dword ptr [esp + 0x64]
  0x205e	dec    	eax
  0x205f	mov    	ecx, dword ptr [ebp + 0x38]
  0x2062	shr    	edx, 7
  0x2065	not    	edx
  === BLOCK LINK ===
    0x2067
=== CODE BLOCK END ===

=== CODE BLOCK ADDRESS 0x2067 ===
  0x2067	and    	edx, ebx
  0x2069	dec    	eax
  0x206a	call   	dword ptr [0x80b0]
  === BLOCK LINK ===
    0x2070
=== CODE BLOCK END ===

=== CODE BLOCK ADDRESS 0x2070 ===
  0x2070	nop    	dword ptr [eax + eax]
  0x2075	dec    	eax
  0x2076	mov    	ecx, dword ptr [esp + 0x40]
  0x207a	cmp    	byte ptr [ecx], 0x2d
  0x207d	jne    	0x2089
  === BLOCK LINK ===
    0x207f
=== CODE BLOCK END ===

=== CODE BLOCK ADDRESS 0x207f ===
  0x207f	inc    	eax
  0x2080	cmp    	byte ptr [ecx + 1], dh
  0x2083	jne    	0x2089
  === BLOCK LINK ===
    0x2085
=== CODE BLOCK END ===

=== CODE BLOCK ADDRESS 0x2085 ===
  0x2085	mov    	eax, esi
  0x2087	jmp    	0x208d
  === BLOCK LINK ===
    0x2089
=== CODE BLOCK END ===

=== CODE BLOCK ADDRESS 0x2089 ===
  0x2089	sbb    	eax, eax
  0x208b	or     	eax, ebx
  0x208d	neg    	eax
  0x208f	dec    	eax
  0x2090	sbb    	eax, eax
  === BLOCK LINK ===
    0x2092
=== CODE BLOCK END ===

=== CODE BLOCK ADDRESS 0x2092 ===
  0x2092	dec    	eax
  0x2093	and    	eax, ecx
  0x2095	movsx  	ecx, byte ptr [ebp - 0x68]
  0x2099	dec    	eax
  0x209a	mov    	dword ptr [esp + 0x40], eax
  === BLOCK LINK ===
    0x209e
=== CODE BLOCK END ===

=== CODE BLOCK ADDRESS 0x209e ===
  0x209e	sub    	ecx, 0x63
  0x20a1	je     	0x217b
  === BLOCK LINK ===
    0x20a7
=== CODE BLOCK END ===

=== CODE BLOCK ADDRESS 0x20a7 ===
  0x20a7	sub    	ecx, 0xf
  0x20aa	je     	0x216f
  === BLOCK LINK ===
    0x20b0
=== CODE BLOCK END ===

=== CODE BLOCK ADDRESS 0x20b0 ===
  0x20b0	sub    	ecx, 2
  0x20b3	je     	0x214e
  === BLOCK LINK ===
    0x20b9
=== CODE BLOCK END ===

=== CODE BLOCK ADDRESS 0x20b9 ===
  0x20b9	sub    	ecx, ebx
  0x20bb	je     	0x2142
  === BLOCK LINK ===
    0x20c1
=== CODE BLOCK END ===

=== CODE BLOCK ADDRESS 0x20c1 ===
  0x20c1	cmp    	ecx, 3
  0x20c4	jne    	0x2185
  === BLOCK LINK ===
    0x20ca
=== CODE BLOCK END ===

=== CODE BLOCK ADDRESS 0x20ca ===
  0x20ca	dec    	eax
  0x20cb	call   	dword ptr [0x7dff]
  === BLOCK LINK ===
    0x20d1
=== CODE BLOCK END ===

=== CODE BLOCK ADDRESS 0x20d1 ===
  0x20d1	nop    	dword ptr [eax + eax]
  0x20d6	dec    	eax
  0x20d7	mov    	edi, eax
  0x20d9	dec    	eax
  0x20da	test   	eax, eax
  === BLOCK LINK ===
    0x20dc
=== CODE BLOCK END ===

=== CODE BLOCK ADDRESS 0x20dc ===
  0x20dc	je     	0x282c
  === BLOCK LINK ===
    0x20e2
=== CODE BLOCK END ===

=== CODE BLOCK ADDRESS 0x20e2 ===
  0x20e2	test   	dword ptr [esp + 0x64], 0x200
  0x20ea	jne    	0x20fb
  === BLOCK LINK ===
    0x20ec
=== CODE BLOCK END ===

=== CODE BLOCK ADDRESS 0x20ec ===
  0x20ec	dec    	eax
  0x20ed	mov    	ecx, eax
  0x20ef	dec    	eax
  0x20f0	call   	dword ptr [0x7da2]
  === BLOCK LINK ===
    0x20f6
=== CODE BLOCK END ===

=== CODE BLOCK ADDRESS 0x20f6 ===
  0x20f6	nop    	dword ptr [eax + eax]
  0x20fb	mov    	edx, dword ptr [esp + 0x68]
  0x20ff	dec    	eax
  0x2100	mov    	ecx, edi
  0x2102	dec    	eax
  === BLOCK LINK ===
    0x2103
=== CODE BLOCK END ===

=== CODE BLOCK ADDRESS 0x2103 ===
  0x2103	call   	dword ptr [0x7def]
  === BLOCK LINK ===
    0x2109
=== CODE BLOCK END ===

=== CODE BLOCK ADDRESS 0x2109 ===
  0x2109	nop    	dword ptr [eax + eax]
  0x210e	dec    	esp
  0x210f	mov    	eax, edi
  0x2111	dec    	eax
  0x2112	lea    	ecx, [esp + 0x40]
  === BLOCK LINK ===
    0x2116
=== CODE BLOCK END ===

=== CODE BLOCK ADDRESS 0x2116 ===
  0x2116	mov    	dl, 0x78
  0x2118	call   	0x35fc
  === BLOCK LINK ===
    0x211d
=== CODE BLOCK END ===

=== CODE BLOCK ADDRESS 0x211d ===
  0x211d	dec    	eax
  0x211e	mov    	ecx, dword ptr [ebp + 0x38]
  0x2121	call   	0x3efc
  === BLOCK LINK ===
    0x2126
=== CODE BLOCK END ===

=== CODE BLOCK ADDRESS 0x2126 ===
  0x2126	mov    	ecx, dword ptr [ebp - 0xc]
  0x2129	test   	eax, eax
  0x212b	cmovne  	ecx, ebx
  0x212e	mov    	dword ptr [ebp - 0xc], ecx
  0x2131	dec    	eax
  === BLOCK LINK ===
    0x2132
=== CODE BLOCK END ===

=== CODE BLOCK ADDRESS 0x2132 ===
  0x2132	mov    	ecx, edi
  0x2134	dec    	eax
  0x2135	call   	dword ptr [0x7d9d]
  === BLOCK LINK ===
    0x213b
=== CODE BLOCK END ===

=== CODE BLOCK ADDRESS 0x213b ===
  0x213b	nop    	dword ptr [eax + eax]
  0x2140	jmp    	0x2185
  === BLOCK LINK ===
    0x2142
=== CODE BLOCK END ===

=== CODE BLOCK ADDRESS 0x2142 ===
  0x2142	dec    	eax
  0x2143	lea    	ecx, [esp + 0x40]
  0x2147	call   	0x5568
  === BLOCK LINK ===
    0x214c
=== CODE BLOCK END ===

=== CODE BLOCK ADDRESS 0x214c ===
  0x214c	jmp    	0x2185
  === BLOCK LINK ===
    0x214e
=== CODE BLOCK END ===

=== CODE BLOCK ADDRESS 0x214e ===
  0x214e	inc    	ebp
  0x214f	xor    	eax, eax
  0x2151	dec    	eax
  0x2152	lea    	ecx, [esp + 0x40]
  0x2156	mov    	dl, 0x74
  === BLOCK LINK ===
    0x2158
=== CODE BLOCK END ===

=== CODE BLOCK ADDRESS 0x2158 ===
  0x2158	call   	0x35fc
  === BLOCK LINK ===
    0x215d
=== CODE BLOCK END ===

=== CODE BLOCK ADDRESS 0x215d ===
  0x215d	dec    	eax
  0x215e	mov    	ecx, dword ptr [ebp + 0x38]
  0x2161	call   	0x3efc
  === BLOCK LINK ===
    0x2166
=== CODE BLOCK END ===

=== CODE BLOCK ADDRESS 0x2166 ===
  0x2166	test   	eax, eax
  0x2168	je     	0x2185
  === BLOCK LINK ===
    0x216a
=== CODE BLOCK END ===

=== CODE BLOCK ADDRESS 0x216a ===
  0x216a	mov    	dword ptr [ebp - 0xc], ebx
  0x216d	jmp    	0x2185
  === BLOCK LINK ===
    0x216f
=== CODE BLOCK END ===

=== CODE BLOCK ADDRESS 0x216f ===
  0x216f	dec    	eax
  0x2170	lea    	ecx, [esp + 0x40]
  0x2174	call   	0x5240
  === BLOCK LINK ===
    0x2179
=== CODE BLOCK END ===

=== CODE BLOCK ADDRESS 0x2179 ===
  0x2179	jmp    	0x2185
  === BLOCK LINK ===
    0x217b
=== CODE BLOCK END ===

=== CODE BLOCK ADDRESS 0x217b ===
  0x217b	dec    	eax
  0x217c	lea    	ecx, [esp + 0x40]
  0x2180	call   	0x4ff0
  === BLOCK LINK ===
    0x2185
=== CODE BLOCK END ===

=== CODE BLOCK ADDRESS 0x2185 ===
  0x2185	dec    	eax
  0x2186	mov    	ecx, dword ptr [ebp + 0x38]
  0x2189	dec    	eax
  0x218a	call   	dword ptr [0x7c68]
  === BLOCK LINK ===
    0x2190
=== CODE BLOCK END ===

=== CODE BLOCK ADDRESS 0x2190 ===
  0x2190	nop    	dword ptr [eax + eax]
  0x2195	dec    	eax
  0x2196	mov    	ebx, dword ptr [ebp - 0x50]
  0x2199	mov    	edx, dword ptr [ebx + 0x10]
  0x219c	dec    	eax
  === BLOCK LINK ===
    0x219d
=== CODE BLOCK END ===

=== CODE BLOCK ADDRESS 0x219d ===
  0x219d	mov    	ecx, dword ptr [ebx + 8]
  0x21a0	call   	0x3398
  === BLOCK LINK ===
    0x21a5
=== CODE BLOCK END ===

=== CODE BLOCK ADDRESS 0x21a5 ===
  0x21a5	dec    	eax
  0x21a6	mov    	ecx, dword ptr [ebx]
  0x21a8	dec    	eax
  0x21a9	call   	dword ptr [0x7b09]
  === BLOCK LINK ===
    0x21af
=== CODE BLOCK END ===

=== CODE BLOCK ADDRESS 0x21af ===
  0x21af	nop    	dword ptr [eax + eax]
  0x21b4	dec    	eax
  0x21b5	mov    	ecx, ebx
  0x21b7	dec    	eax
  0x21b8	call   	dword ptr [0x7afa]
  === BLOCK LINK ===
    0x21be
=== CODE BLOCK END ===

=== CODE BLOCK ADDRESS 0x21be ===
  0x21be	nop    	dword ptr [eax + eax]
  0x21c3	dec    	eax
  0x21c4	mov    	ebx, dword ptr [ebp + 0x60]
  0x21c7	dec    	eax
  0x21c8	test   	ebx, ebx
  === BLOCK LINK ===
    0x21ca
=== CODE BLOCK END ===

=== CODE BLOCK ADDRESS 0x21ca ===
  0x21ca	je     	0x21eb
  === BLOCK LINK ===
    0x21cc
=== CODE BLOCK END ===

=== CODE BLOCK ADDRESS 0x21cc ===
  0x21cc	xor    	edx, edx
  0x21ce	inc    	ecx
  0x21cf	mov    	eax, 0x400
  0x21d4	dec    	eax
  0x21d5	mov    	ecx, ebx
  === BLOCK LINK ===
    0x21d7
=== CODE BLOCK END ===

=== CODE BLOCK ADDRESS 0x21d7 ===
  0x21d7	call   	0x803e
  === BLOCK LINK ===
    0x21dc
=== CODE BLOCK END ===

=== CODE BLOCK ADDRESS 0x21dc ===
  0x21dc	dec    	eax
  0x21dd	mov    	ecx, ebx
  0x21df	dec    	eax
  0x21e0	call   	dword ptr [0x7ad2]
  === BLOCK LINK ===
    0x21e6
=== CODE BLOCK END ===

=== CODE BLOCK ADDRESS 0x21e6 ===
  0x21e6	nop    	dword ptr [eax + eax]
  0x21eb	mov    	eax, dword ptr [ebp - 0xc]
  0x21ee	test   	eax, eax
  0x21f0	je     	0x2203
  === BLOCK LINK ===
    0x21f2
=== CODE BLOCK END ===

=== CODE BLOCK ADDRESS 0x21f2 ===
  0x21f2	dec    	eax
  0x21f3	lea    	edx, [0x84d7]
  0x21f9	xor    	ecx, ecx
  0x21fb	call   	0x6c14
  === BLOCK LINK ===
    0x2200
=== CODE BLOCK END ===

=== CODE BLOCK ADDRESS 0x2200 ===
  0x2200	mov    	eax, dword ptr [ebp - 0xc]
  0x2203	dec    	eax
  0x2204	mov    	ecx, dword ptr [ebp + 0x90]
  0x220a	dec    	eax
  0x220b	xor    	ecx, esp
  === BLOCK LINK ===
    0x220d
=== CODE BLOCK END ===

=== CODE BLOCK ADDRESS 0x220d ===
  0x220d	call   	0x7390
  === BLOCK LINK ===
    0x2212
=== CODE BLOCK END ===

=== CODE BLOCK ADDRESS 0x2212 ===
  0x2212	dec    	esp
  0x2213	lea    	ebx, [esp + 0x1a0]
  0x221a	dec    	ecx
  0x221b	mov    	ebx, dword ptr [ebx + 0x30]
  0x221e	dec    	ecx
  === BLOCK LINK ===
    0x221f
=== CODE BLOCK END ===

=== CODE BLOCK ADDRESS 0x221f ===
  0x221f	mov    	esi, dword ptr [ebx + 0x40]
  0x2222	dec    	ecx
  0x2223	mov    	edi, dword ptr [ebx + 0x48]
  0x2226	dec    	ecx
  0x2227	mov    	esp, ebx
  === BLOCK LINK ===
    0x2229
=== CODE BLOCK END ===

=== CODE BLOCK ADDRESS 0x2229 ===
  0x2229	inc    	ecx
  0x222a	pop    	edi
  0x222b	inc    	ecx
  0x222c	pop    	esi
  0x222d	inc    	ecx
  === BLOCK LINK ===
    0x222e
=== CODE BLOCK END ===

=== CODE BLOCK ADDRESS 0x222e ===
  0x222e	pop    	ebp
  0x222f	inc    	ecx
  0x2230	pop    	esp
  0x2231	pop    	ebp
  0x2232	ret    	
  === BLOCK LINK ===
    0x2233
=== CODE BLOCK END ===

=== CODE BLOCK ADDRESS 0x803e ===
=== CODE BLOCK END ===

=== CODE BLOCK ADDRESS 0x2233 ===
  0x2233	int3   	
  === BLOCK LINK ===
    0x2234
=== CODE BLOCK END ===

=== CODE BLOCK ADDRESS 0x223b ===
  0x223b	nop    	dword ptr [eax + eax]
  0x2240	dec    	esp
  0x2241	lea    	eax, [0x80e1]
  0x2247	mov    	ecx, 1
  0x224c	mov    	edx, dword ptr [eax]
  === BLOCK LINK ===
    0x224e
=== CODE BLOCK END ===

=== CODE BLOCK ADDRESS 0x224e ===
  0x224e	call   	0x6c3c
  === BLOCK LINK ===
    0x2253
=== CODE BLOCK END ===

=== CODE BLOCK ADDRESS 0x2253 ===
  0x2253	int3   	
  === BLOCK LINK ===
    0x2254
=== CODE BLOCK END ===

=== CODE BLOCK ADDRESS 0x225b ===
  0x225b	nop    	dword ptr [eax + eax]
  0x2260	dec    	esp
  0x2261	lea    	eax, [0x80c1]
  0x2267	mov    	ecx, ebx
  0x2269	mov    	edx, dword ptr [eax]
  === BLOCK LINK ===
    0x226b
=== CODE BLOCK END ===

=== CODE BLOCK ADDRESS 0x226b ===
  0x226b	call   	0x6c3c
  === BLOCK LINK ===
    0x2270
=== CODE BLOCK END ===

=== CODE BLOCK ADDRESS 0x2270 ===
  0x2270	int3   	
  === BLOCK LINK ===
    0x2271
=== CODE BLOCK END ===

=== CODE BLOCK ADDRESS 0x227c ===
  0x227c	xor    	edx, edx
  0x227e	mov    	ecx, ebx
  0x2280	call   	0x6c3c
  === BLOCK LINK ===
    0x2285
=== CODE BLOCK END ===

=== CODE BLOCK ADDRESS 0x2285 ===
  0x2285	int3   	
  === BLOCK LINK ===
    0x2286
=== CODE BLOCK END ===

=== CODE BLOCK ADDRESS 0x2291 ===
  0x2291	xor    	edx, edx
  0x2293	mov    	ecx, ebx
  0x2295	call   	0x6c3c
  === BLOCK LINK ===
    0x229a
=== CODE BLOCK END ===

=== CODE BLOCK ADDRESS 0x229a ===
  0x229a	int3   	
  === BLOCK LINK ===
    0x229b
=== CODE BLOCK END ===

=== CODE BLOCK ADDRESS 0x22a6 ===
  0x22a6	nop    	dword ptr [eax + eax]
  0x22ab	dec    	esp
  0x22ac	lea    	eax, [0x81de]
  0x22b2	xor    	edx, edx
  0x22b4	dec    	esp
  === BLOCK LINK ===
    0x22b5
=== CODE BLOCK END ===

=== CODE BLOCK ADDRESS 0x22b5 ===
  0x22b5	mov    	ecx, eax
  0x22b7	mov    	ecx, ebx
  0x22b9	call   	0x6c3c
  === BLOCK LINK ===
    0x22be
=== CODE BLOCK END ===

=== CODE BLOCK ADDRESS 0x22be ===
  0x22be	int3   	
  === BLOCK LINK ===
    0x22bf
=== CODE BLOCK END ===

=== CODE BLOCK ADDRESS 0x22ca ===
  0x22ca	nop    	dword ptr [eax + eax]
  0x22cf	dec    	esp
  0x22d0	lea    	eax, [0x81ba]
  0x22d6	xor    	edx, edx
  0x22d8	dec    	esp
  === BLOCK LINK ===
    0x22d9
=== CODE BLOCK END ===

=== CODE BLOCK ADDRESS 0x22d9 ===
  0x22d9	mov    	ecx, eax
  0x22db	mov    	ecx, ebx
  0x22dd	call   	0x6c3c
  === BLOCK LINK ===
    0x22e2
=== CODE BLOCK END ===

=== CODE BLOCK ADDRESS 0x22e2 ===
  0x22e2	int3   	
  === BLOCK LINK ===
    0x22e3
=== CODE BLOCK END ===

=== CODE BLOCK ADDRESS 0x22ee ===
  0x22ee	nop    	dword ptr [eax + eax]
  0x22f3	dec    	esp
  0x22f4	lea    	eax, [0x8196]
  0x22fa	xor    	edx, edx
  0x22fc	dec    	esp
  === BLOCK LINK ===
    0x22fd
=== CODE BLOCK END ===

=== CODE BLOCK ADDRESS 0x22fd ===
  0x22fd	mov    	ecx, eax
  0x22ff	mov    	ecx, ebx
  0x2301	call   	0x6c3c
  === BLOCK LINK ===
    0x2306
=== CODE BLOCK END ===

=== CODE BLOCK ADDRESS 0x2306 ===
  0x2306	int3   	
  === BLOCK LINK ===
    0x2307
=== CODE BLOCK END ===

=== CODE BLOCK ADDRESS 0x2312 ===
  0x2312	nop    	dword ptr [eax + eax]
  0x2317	dec    	esp
  0x2318	lea    	eax, [0x8172]
  0x231e	xor    	edx, edx
  0x2320	dec    	esp
  === BLOCK LINK ===
    0x2321
=== CODE BLOCK END ===

=== CODE BLOCK ADDRESS 0x2321 ===
  0x2321	mov    	ecx, eax
  0x2323	mov    	ecx, ebx
  0x2325	call   	0x6c3c
  === BLOCK LINK ===
    0x232a
=== CODE BLOCK END ===

=== CODE BLOCK ADDRESS 0x232a ===
  0x232a	int3   	
  === BLOCK LINK ===
    0x232b
=== CODE BLOCK END ===

=== CODE BLOCK ADDRESS 0x2336 ===
  0x2336	nop    	dword ptr [eax + eax]
  0x233b	dec    	esp
  0x233c	lea    	eax, [0x814e]
  0x2342	xor    	edx, edx
  0x2344	dec    	esp
  === BLOCK LINK ===
    0x2345
=== CODE BLOCK END ===

=== CODE BLOCK ADDRESS 0x2345 ===
  0x2345	mov    	ecx, eax
  0x2347	mov    	ecx, ebx
  0x2349	call   	0x6c3c
  === BLOCK LINK ===
    0x234e
=== CODE BLOCK END ===

=== CODE BLOCK ADDRESS 0x234e ===
  0x234e	int3   	
  === BLOCK LINK ===
    0x234f
=== CODE BLOCK END ===

=== CODE BLOCK ADDRESS 0x235a ===
  0x235a	nop    	dword ptr [eax + eax]
  0x235f	dec    	esp
  0x2360	lea    	eax, [0x812a]
  0x2366	xor    	edx, edx
  0x2368	dec    	esp
  === BLOCK LINK ===
    0x2369
=== CODE BLOCK END ===

=== CODE BLOCK ADDRESS 0x2369 ===
  0x2369	mov    	ecx, eax
  0x236b	mov    	ecx, ebx
  0x236d	call   	0x6c3c
  === BLOCK LINK ===
    0x2372
=== CODE BLOCK END ===

=== CODE BLOCK ADDRESS 0x2372 ===
  0x2372	int3   	
  === BLOCK LINK ===
    0x2373
=== CODE BLOCK END ===

=== CODE BLOCK ADDRESS 0x237e ===
  0x237e	nop    	dword ptr [eax + eax]
  0x2383	dec    	esp
  0x2384	lea    	eax, [0x8106]
  0x238a	xor    	edx, edx
  0x238c	dec    	esp
  === BLOCK LINK ===
    0x238d
=== CODE BLOCK END ===

=== CODE BLOCK ADDRESS 0x238d ===
  0x238d	mov    	ecx, eax
  0x238f	mov    	ecx, ebx
  0x2391	call   	0x6c3c
  === BLOCK LINK ===
    0x2396
=== CODE BLOCK END ===

=== CODE BLOCK ADDRESS 0x2396 ===
  0x2396	int3   	
  === BLOCK LINK ===
    0x2397
=== CODE BLOCK END ===

=== CODE BLOCK ADDRESS 0x23a2 ===
  0x23a2	nop    	dword ptr [eax + eax]
  0x23a7	dec    	esp
  0x23a8	lea    	eax, [0x80e2]
  0x23ae	xor    	edx, edx
  0x23b0	dec    	esp
  === BLOCK LINK ===
    0x23b1
=== CODE BLOCK END ===

=== CODE BLOCK ADDRESS 0x23b1 ===
  0x23b1	mov    	ecx, eax
  0x23b3	mov    	ecx, ebx
  0x23b5	call   	0x6c3c
  === BLOCK LINK ===
    0x23ba
=== CODE BLOCK END ===

=== CODE BLOCK ADDRESS 0x23ba ===
  0x23ba	int3   	
  0x23bb	dec    	eax
  0x23bc	mov    	ecx, dword ptr [ebp + 0x38]
  0x23bf	dec    	eax
  0x23c0	call   	dword ptr [0x7b82]
  === BLOCK LINK ===
    0x23c6
=== CODE BLOCK END ===

=== CODE BLOCK ADDRESS 0x23c6 ===
  0x23c6	nop    	dword ptr [eax + eax]
  0x23cb	dec    	esp
  0x23cc	lea    	eax, [0x80be]
  0x23d2	xor    	edx, edx
  0x23d4	dec    	esp
  === BLOCK LINK ===
    0x23d5
=== CODE BLOCK END ===

=== CODE BLOCK ADDRESS 0x23d5 ===
  0x23d5	mov    	ecx, eax
  0x23d7	mov    	ecx, ebx
  0x23d9	call   	0x6c3c
  === BLOCK LINK ===
    0x23de
=== CODE BLOCK END ===

=== CODE BLOCK ADDRESS 0x23de ===
  0x23de	int3   	
  === BLOCK LINK ===
    0x23df
=== CODE BLOCK END ===

=== CODE BLOCK ADDRESS 0x23e9 ===
  0x23e9	xor    	edx, edx
  0x23eb	mov    	ecx, ebx
  0x23ed	dec    	esi
  0x23ee	mov    	ecx, dword ptr [eax + ecx*8 + 0x9010]
  0x23f5	call   	0x6c3c
  === BLOCK LINK ===
    0x23fa
=== CODE BLOCK END ===

=== CODE BLOCK ADDRESS 0x23fa ===
  0x23fa	int3   	
  === BLOCK LINK ===
    0x23fb
=== CODE BLOCK END ===

=== CODE BLOCK ADDRESS 0x2406 ===
  0x2406	call   	0x6c3c
  === BLOCK LINK ===
    0x240b
=== CODE BLOCK END ===

=== CODE BLOCK ADDRESS 0x240b ===
  0x240b	int3   	
  === BLOCK LINK ===
    0x240c
=== CODE BLOCK END ===

=== CODE BLOCK ADDRESS 0x2417 ===
  0x2417	call   	0x6c3c
  === BLOCK LINK ===
    0x241c
=== CODE BLOCK END ===

=== CODE BLOCK ADDRESS 0x241c ===
  0x241c	int3   	
  === BLOCK LINK ===
    0x241d
=== CODE BLOCK END ===

=== CODE BLOCK ADDRESS 0x2428 ===
  0x2428	call   	0x6c3c
  === BLOCK LINK ===
    0x242d
=== CODE BLOCK END ===

=== CODE BLOCK ADDRESS 0x242d ===
  0x242d	int3   	
  0x242e	dec    	esp
  0x242f	lea    	eax, [0x80c3]
  0x2435	xor    	edx, edx
  0x2437	mov    	ecx, ebx
  === BLOCK LINK ===
    0x2439
=== CODE BLOCK END ===

=== CODE BLOCK ADDRESS 0x2439 ===
  0x2439	call   	0x6c3c
  === BLOCK LINK ===
    0x243e
=== CODE BLOCK END ===

=== CODE BLOCK ADDRESS 0x243e ===
  0x243e	int3   	
  0x243f	call   	0x29ec
  === BLOCK LINK ===
    0x2444
=== CODE BLOCK END ===

=== CODE BLOCK ADDRESS 0x2444 ===
  0x2444	int3   	
  0x2445	dec    	esp
  0x2446	lea    	eax, [0x7f64]
  0x244c	xor    	edx, edx
  0x244e	mov    	ecx, ebx
  === BLOCK LINK ===
    0x2450
=== CODE BLOCK END ===

=== CODE BLOCK ADDRESS 0x2450 ===
  0x2450	call   	0x6c3c
  === BLOCK LINK ===
    0x2455
=== CODE BLOCK END ===

=== CODE BLOCK ADDRESS 0x2455 ===
  0x2455	int3   	
  === BLOCK LINK ===
    0x2456
=== CODE BLOCK END ===

=== CODE BLOCK ADDRESS 0x2461 ===
  0x2461	xor    	edx, edx
  0x2463	mov    	dword ptr [esp + 0x20], eax
  0x2467	mov    	ecx, ebx
  0x2469	call   	0x6c3c
  === BLOCK LINK ===
    0x246e
=== CODE BLOCK END ===

=== CODE BLOCK ADDRESS 0x246e ===
  0x246e	int3   	
  0x246f	inc    	ecx
  0x2470	movsx  	eax, dh
  0x2473	dec    	esp
  0x2474	lea    	eax, [0x7f8e]
  === BLOCK LINK ===
    0x247a
=== CODE BLOCK END ===

=== CODE BLOCK ADDRESS 0x247a ===
  0x247a	inc    	ecx
  0x247b	mov    	ecx, 0x4a
  0x2480	mov    	dword ptr [esp + 0x20], eax
  0x2484	xor    	edx, edx
  0x2486	mov    	ecx, ebx
  === BLOCK LINK ===
    0x2488
=== CODE BLOCK END ===

=== CODE BLOCK ADDRESS 0x2488 ===
  0x2488	call   	0x6c3c
  === BLOCK LINK ===
    0x248d
=== CODE BLOCK END ===

=== CODE BLOCK ADDRESS 0x248d ===
  0x248d	int3   	
  0x248e	inc    	ecx
  0x248f	movsx  	eax, dh
  0x2492	dec    	esp
  0x2493	lea    	eax, [0x7f6f]
  === BLOCK LINK ===
    0x2499
=== CODE BLOCK END ===

=== CODE BLOCK ADDRESS 0x2499 ===
  0x2499	inc    	ecx
  0x249a	mov    	ecx, 0x5a
  0x249f	mov    	dword ptr [esp + 0x20], eax
  0x24a3	xor    	edx, edx
  0x24a5	mov    	ecx, ebx
  === BLOCK LINK ===
    0x24a7
=== CODE BLOCK END ===

=== CODE BLOCK ADDRESS 0x24a7 ===
  0x24a7	call   	0x6c3c
  === BLOCK LINK ===
    0x24ac
=== CODE BLOCK END ===

=== CODE BLOCK ADDRESS 0x24ac ===
  0x24ac	int3   	
  0x24ad	inc    	ecx
  0x24ae	movsx  	eax, dh
  0x24b1	dec    	esp
  0x24b2	lea    	eax, [0x7f50]
  === BLOCK LINK ===
    0x24b8
=== CODE BLOCK END ===

=== CODE BLOCK ADDRESS 0x24b8 ===
  0x24b8	inc    	ecx
  0x24b9	mov    	ecx, 0x6a
  0x24be	mov    	dword ptr [esp + 0x20], eax
  0x24c2	xor    	edx, edx
  0x24c4	mov    	ecx, ebx
  === BLOCK LINK ===
    0x24c6
=== CODE BLOCK END ===

=== CODE BLOCK ADDRESS 0x24c6 ===
  0x24c6	call   	0x6c3c
  === BLOCK LINK ===
    0x24cb
=== CODE BLOCK END ===

=== CODE BLOCK ADDRESS 0x24cb ===
  0x24cb	int3   	
  0x24cc	dec    	esp
  0x24cd	lea    	eax, [0x7e65]
  0x24d3	xor    	edx, edx
  0x24d5	mov    	ecx, ebx
  === BLOCK LINK ===
    0x24d7
=== CODE BLOCK END ===

=== CODE BLOCK ADDRESS 0x24d7 ===
  0x24d7	call   	0x6c3c
  === BLOCK LINK ===
    0x24dc
=== CODE BLOCK END ===

=== CODE BLOCK ADDRESS 0x24dc ===
  0x24dc	int3   	
  0x24dd	dec    	eax
  0x24de	lea    	edx, [0x7fbc]
  0x24e4	xor    	ecx, ecx
  0x24e6	call   	0x6c14
  === BLOCK LINK ===
    0x24eb
=== CODE BLOCK END ===

=== CODE BLOCK ADDRESS 0x24eb ===
  0x24eb	call   	0x2944
  === BLOCK LINK ===
    0x24f0
=== CODE BLOCK END ===

=== CODE BLOCK ADDRESS 0x24f0 ===
  0x24f0	int3   	
  0x24f1	inc    	ecx
  0x24f2	movsx  	eax, dh
  0x24f5	dec    	esp
  0x24f6	lea    	eax, [0x7f0c]
  === BLOCK LINK ===
    0x24fc
=== CODE BLOCK END ===

=== CODE BLOCK ADDRESS 0x24fc ===
  0x24fc	inc    	ecx
  0x24fd	mov    	ecx, 0x7a
  0x2502	mov    	dword ptr [esp + 0x20], eax
  0x2506	xor    	edx, edx
  0x2508	mov    	ecx, ebx
  === BLOCK LINK ===
    0x250a
=== CODE BLOCK END ===

=== CODE BLOCK ADDRESS 0x250a ===
  0x250a	call   	0x6c3c
  === BLOCK LINK ===
    0x250f
=== CODE BLOCK END ===

=== CODE BLOCK ADDRESS 0x250f ===
  0x250f	int3   	
  0x2510	call   	0x2944
  === BLOCK LINK ===
    0x2515
=== CODE BLOCK END ===

=== CODE BLOCK ADDRESS 0x2515 ===
  0x2515	int3   	
  0x2516	inc    	ecx
  0x2517	movsx  	eax, dh
  0x251a	dec    	esp
  0x251b	lea    	eax, [0x7ee7]
  === BLOCK LINK ===
    0x2521
=== CODE BLOCK END ===

=== CODE BLOCK ADDRESS 0x2521 ===
  0x2521	inc    	ecx
  0x2522	mov    	ecx, 0x79
  0x2527	mov    	dword ptr [esp + 0x20], eax
  0x252b	xor    	edx, edx
  0x252d	mov    	ecx, ebx
  === BLOCK LINK ===
    0x252f
=== CODE BLOCK END ===

=== CODE BLOCK ADDRESS 0x252f ===
  0x252f	call   	0x6c3c
  === BLOCK LINK ===
    0x2534
=== CODE BLOCK END ===

=== CODE BLOCK ADDRESS 0x2534 ===
  0x2534	int3   	
  0x2535	call   	0x2a28
  === BLOCK LINK ===
    0x253a
=== CODE BLOCK END ===

=== CODE BLOCK ADDRESS 0x253a ===
  0x253a	int3   	
  0x253b	dec    	esp
  0x253c	lea    	eax, [0x7ffe]
  0x2542	xor    	edx, edx
  0x2544	mov    	ecx, ebx
  === BLOCK LINK ===
    0x2546
=== CODE BLOCK END ===

=== CODE BLOCK ADDRESS 0x2546 ===
  0x2546	call   	0x6c3c
  === BLOCK LINK ===
    0x254b
=== CODE BLOCK END ===

=== CODE BLOCK ADDRESS 0x254b ===
  0x254b	int3   	
  0x254c	movsx  	eax, byte ptr [ebp - 0x68]
  0x2550	dec    	esp
  0x2551	lea    	ecx, [0x8015]
  0x2557	dec    	esp
  === BLOCK LINK ===
    0x2558
=== CODE BLOCK END ===

=== CODE BLOCK ADDRESS 0x2558 ===
  0x2558	lea    	eax, [0x81a2]
  0x255e	mov    	dword ptr [esp + 0x20], eax
  0x2562	xor    	edx, edx
  0x2564	mov    	ecx, ebx
  0x2566	call   	0x6c3c
  === BLOCK LINK ===
    0x256b
=== CODE BLOCK END ===

=== CODE BLOCK ADDRESS 0x256b ===
  0x256b	int3   	
  0x256c	movsx  	eax, byte ptr [ebp - 0x68]
  0x2570	dec    	esp
  0x2571	lea    	ecx, [0x8001]
  0x2577	dec    	esp
  === BLOCK LINK ===
    0x2578
=== CODE BLOCK END ===

=== CODE BLOCK ADDRESS 0x2578 ===
  0x2578	lea    	eax, [0x8182]
  0x257e	mov    	dword ptr [esp + 0x20], eax
  0x2582	xor    	edx, edx
  0x2584	mov    	ecx, ebx
  0x2586	call   	0x6c3c
  === BLOCK LINK ===
    0x258b
=== CODE BLOCK END ===

=== CODE BLOCK ADDRESS 0x258b ===
  0x258b	int3   	
  0x258c	movsx  	eax, byte ptr [ebp - 0x68]
  0x2590	dec    	esp
  0x2591	lea    	ecx, [0x7ff9]
  0x2597	dec    	esp
  === BLOCK LINK ===
    0x2598
=== CODE BLOCK END ===

=== CODE BLOCK ADDRESS 0x2598 ===
  0x2598	lea    	eax, [0x8162]
  0x259e	mov    	dword ptr [esp + 0x20], eax
  0x25a2	xor    	edx, edx
  0x25a4	mov    	ecx, ebx
  0x25a6	call   	0x6c3c
  === BLOCK LINK ===
    0x25ab
=== CODE BLOCK END ===

=== CODE BLOCK ADDRESS 0x25ab ===
  0x25ab	int3   	
  0x25ac	movsx  	eax, byte ptr [ebp - 0x68]
  0x25b0	dec    	esp
  0x25b1	lea    	ecx, [0x7fe9]
  0x25b7	dec    	esp
  === BLOCK LINK ===
    0x25b8
=== CODE BLOCK END ===

=== CODE BLOCK ADDRESS 0x25b8 ===
  0x25b8	lea    	eax, [0x8142]
  0x25be	mov    	dword ptr [esp + 0x20], eax
  0x25c2	xor    	edx, edx
  0x25c4	mov    	ecx, ebx
  0x25c6	call   	0x6c3c
  === BLOCK LINK ===
    0x25cb
=== CODE BLOCK END ===

=== CODE BLOCK ADDRESS 0x25cb ===
  0x25cb	int3   	
  0x25cc	movsx  	eax, byte ptr [ebp - 0x68]
  0x25d0	dec    	esp
  0x25d1	lea    	ecx, [0x7fe1]
  0x25d7	dec    	esp
  === BLOCK LINK ===
    0x25d8
=== CODE BLOCK END ===

=== CODE BLOCK ADDRESS 0x25d8 ===
  0x25d8	lea    	eax, [0x8122]
  0x25de	mov    	dword ptr [esp + 0x20], eax
  0x25e2	xor    	edx, edx
  0x25e4	mov    	ecx, ebx
  0x25e6	call   	0x6c3c
  === BLOCK LINK ===
    0x25eb
=== CODE BLOCK END ===

=== CODE BLOCK ADDRESS 0x25eb ===
  0x25eb	int3   	
  0x25ec	movsx  	eax, byte ptr [ebp - 0x68]
  0x25f0	dec    	esp
  0x25f1	lea    	ecx, [0x7fe1]
  0x25f7	dec    	esp
  === BLOCK LINK ===
    0x25f8
=== CODE BLOCK END ===

=== CODE BLOCK ADDRESS 0x25f8 ===
  0x25f8	lea    	eax, [0x8102]
  0x25fe	mov    	dword ptr [esp + 0x20], eax
  0x2602	xor    	edx, edx
  0x2604	mov    	ecx, ebx
  0x2606	call   	0x6c3c
  === BLOCK LINK ===
    0x260b
=== CODE BLOCK END ===

=== CODE BLOCK ADDRESS 0x260b ===
  0x260b	int3   	
  0x260c	movsx  	eax, byte ptr [ebp - 0x68]
  0x2610	dec    	esp
  0x2611	lea    	ecx, [0x7fd5]
  0x2617	dec    	esp
  === BLOCK LINK ===
    0x2618
=== CODE BLOCK END ===

=== CODE BLOCK ADDRESS 0x2618 ===
  0x2618	lea    	eax, [0x80e2]
  0x261e	mov    	dword ptr [esp + 0x20], eax
  0x2622	xor    	edx, edx
  0x2624	mov    	ecx, ebx
  0x2626	call   	0x6c3c
  === BLOCK LINK ===
    0x262b
=== CODE BLOCK END ===

=== CODE BLOCK ADDRESS 0x262b ===
  0x262b	int3   	
  0x262c	movsx  	eax, byte ptr [ebp - 0x68]
  0x2630	dec    	esp
  0x2631	lea    	ecx, [0x7fc1]
  0x2637	dec    	esp
  === BLOCK LINK ===
    0x2638
=== CODE BLOCK END ===

=== CODE BLOCK ADDRESS 0x2638 ===
  0x2638	lea    	eax, [0x80c2]
  0x263e	mov    	dword ptr [esp + 0x20], eax
  0x2642	xor    	edx, edx
  0x2644	mov    	ecx, ebx
  0x2646	call   	0x6c3c
  === BLOCK LINK ===
    0x264b
=== CODE BLOCK END ===

=== CODE BLOCK ADDRESS 0x264b ===
  0x264b	int3   	
  0x264c	movsx  	eax, byte ptr [ebp - 0x68]
  0x2650	dec    	esp
  0x2651	lea    	ecx, [0x7fb1]
  0x2657	dec    	esp
  === BLOCK LINK ===
    0x2658
=== CODE BLOCK END ===

=== CODE BLOCK ADDRESS 0x2658 ===
  0x2658	lea    	eax, [0x80a2]
  0x265e	mov    	dword ptr [esp + 0x20], eax
  0x2662	xor    	edx, edx
  0x2664	mov    	ecx, ebx
  0x2666	call   	0x6c3c
  === BLOCK LINK ===
    0x266b
=== CODE BLOCK END ===

=== CODE BLOCK ADDRESS 0x266b ===
  0x266b	int3   	
  0x266c	movsx  	eax, byte ptr [ebp - 0x68]
  0x2670	dec    	esp
  0x2671	lea    	ecx, [0x7fa1]
  0x2677	dec    	esp
  === BLOCK LINK ===
    0x2678
=== CODE BLOCK END ===

=== CODE BLOCK ADDRESS 0x2678 ===
  0x2678	lea    	eax, [0x8082]
  0x267e	mov    	dword ptr [esp + 0x20], eax
  0x2682	xor    	edx, edx
  0x2684	mov    	ecx, ebx
  0x2686	call   	0x6c3c
  === BLOCK LINK ===
    0x268b
=== CODE BLOCK END ===

=== CODE BLOCK ADDRESS 0x268b ===
  0x268b	int3   	
  0x268c	movsx  	eax, byte ptr [ebp - 0x68]
  0x2690	dec    	esp
  0x2691	lea    	ecx, [0x7f91]
  0x2697	dec    	esp
  === BLOCK LINK ===
    0x2698
=== CODE BLOCK END ===

=== CODE BLOCK ADDRESS 0x2698 ===
  0x2698	lea    	eax, [0x8062]
  0x269e	mov    	dword ptr [esp + 0x20], eax
  0x26a2	xor    	edx, edx
  0x26a4	mov    	ecx, ebx
  0x26a6	call   	0x6c3c
  === BLOCK LINK ===
    0x26ab
=== CODE BLOCK END ===

=== CODE BLOCK ADDRESS 0x26ab ===
  0x26ab	int3   	
  0x26ac	movsx  	eax, byte ptr [ebp - 0x68]
  0x26b0	dec    	esp
  0x26b1	lea    	ecx, [0x7f81]
  0x26b7	dec    	esp
  === BLOCK LINK ===
    0x26b8
=== CODE BLOCK END ===

=== CODE BLOCK ADDRESS 0x26b8 ===
  0x26b8	lea    	eax, [0x8042]
  0x26be	mov    	dword ptr [esp + 0x20], eax
  0x26c2	xor    	edx, edx
  0x26c4	mov    	ecx, ebx
  0x26c6	call   	0x6c3c
  === BLOCK LINK ===
    0x26cb
=== CODE BLOCK END ===

=== CODE BLOCK ADDRESS 0x26cb ===
  0x26cb	int3   	
  0x26cc	movsx  	eax, byte ptr [ebp - 0x68]
  0x26d0	dec    	esp
  0x26d1	lea    	ecx, [0x7f71]
  0x26d7	dec    	esp
  === BLOCK LINK ===
    0x26d8
=== CODE BLOCK END ===

=== CODE BLOCK ADDRESS 0x26d8 ===
  0x26d8	lea    	eax, [0x8022]
  0x26de	mov    	dword ptr [esp + 0x20], eax
  0x26e2	xor    	edx, edx
  0x26e4	mov    	ecx, ebx
  0x26e6	call   	0x6c3c
  === BLOCK LINK ===
    0x26eb
=== CODE BLOCK END ===

=== CODE BLOCK ADDRESS 0x26eb ===
  0x26eb	int3   	
  0x26ec	movsx  	eax, byte ptr [ebp - 0x68]
  0x26f0	dec    	esp
  0x26f1	lea    	ecx, [0x7f61]
  0x26f7	dec    	esp
  === BLOCK LINK ===
    0x26f8
=== CODE BLOCK END ===

=== CODE BLOCK ADDRESS 0x26f8 ===
  0x26f8	lea    	eax, [0x8002]
  0x26fe	mov    	dword ptr [esp + 0x20], eax
  0x2702	xor    	edx, edx
  0x2704	mov    	ecx, ebx
  0x2706	call   	0x6c3c
  === BLOCK LINK ===
    0x270b
=== CODE BLOCK END ===

=== CODE BLOCK ADDRESS 0x270b ===
  0x270b	int3   	
  0x270c	movsx  	eax, byte ptr [ebp - 0x68]
  0x2710	dec    	esp
  0x2711	lea    	ecx, [0x7f61]
  0x2717	dec    	esp
  === BLOCK LINK ===
    0x2718
=== CODE BLOCK END ===

=== CODE BLOCK ADDRESS 0x2718 ===
  0x2718	lea    	eax, [0x7fe2]
  0x271e	mov    	dword ptr [esp + 0x20], eax
  0x2722	xor    	edx, edx
  0x2724	mov    	ecx, ebx
  0x2726	call   	0x6c3c
  === BLOCK LINK ===
    0x272b
=== CODE BLOCK END ===

=== CODE BLOCK ADDRESS 0x272b ===
  0x272b	int3   	
  0x272c	movsx  	eax, byte ptr [ebp - 0x68]
  0x2730	dec    	esp
  0x2731	lea    	ecx, [0x7f45]
  0x2737	dec    	esp
  === BLOCK LINK ===
    0x2738
=== CODE BLOCK END ===

=== CODE BLOCK ADDRESS 0x2738 ===
  0x2738	lea    	eax, [0x7fc2]
  0x273e	mov    	dword ptr [esp + 0x20], eax
  0x2742	xor    	edx, edx
  0x2744	mov    	ecx, ebx
  0x2746	call   	0x6c3c
  === BLOCK LINK ===
    0x274b
=== CODE BLOCK END ===

=== CODE BLOCK ADDRESS 0x274b ===
  0x274b	int3   	
  0x274c	movsx  	eax, byte ptr [ebp - 0x68]
  0x2750	dec    	esp
  0x2751	lea    	ecx, [0x7f29]
  0x2757	dec    	esp
  === BLOCK LINK ===
    0x2758
=== CODE BLOCK END ===

=== CODE BLOCK ADDRESS 0x2758 ===
  0x2758	lea    	eax, [0x7fa2]
  0x275e	mov    	dword ptr [esp + 0x20], eax
  0x2762	xor    	edx, edx
  0x2764	mov    	ecx, ebx
  0x2766	call   	0x6c3c
  === BLOCK LINK ===
    0x276b
=== CODE BLOCK END ===

=== CODE BLOCK ADDRESS 0x276b ===
  0x276b	int3   	
  0x276c	movsx  	eax, byte ptr [ebp - 0x68]
  0x2770	dec    	esp
  0x2771	lea    	ecx, [0x7f11]
  0x2777	dec    	esp
  === BLOCK LINK ===
    0x2778
=== CODE BLOCK END ===

=== CODE BLOCK ADDRESS 0x2778 ===
  0x2778	lea    	eax, [0x7f82]
  0x277e	mov    	dword ptr [esp + 0x20], eax
  0x2782	xor    	edx, edx
  0x2784	mov    	ecx, ebx
  0x2786	call   	0x6c3c
  === BLOCK LINK ===
    0x278b
=== CODE BLOCK END ===

=== CODE BLOCK ADDRESS 0x278b ===
  0x278b	int3   	
  0x278c	movsx  	eax, byte ptr [ebp - 0x68]
  0x2790	dec    	esp
  0x2791	lea    	ecx, [0x7f09]
  0x2797	dec    	esp
  === BLOCK LINK ===
    0x2798
=== CODE BLOCK END ===

=== CODE BLOCK ADDRESS 0x2798 ===
  0x2798	lea    	eax, [0x7f62]
  0x279e	mov    	dword ptr [esp + 0x20], eax
  0x27a2	xor    	edx, edx
  0x27a4	mov    	ecx, ebx
  0x27a6	call   	0x6c3c
  === BLOCK LINK ===
    0x27ab
=== CODE BLOCK END ===

=== CODE BLOCK ADDRESS 0x27ab ===
  0x27ab	int3   	
  0x27ac	movsx  	eax, byte ptr [ebp - 0x68]
  0x27b0	dec    	esp
  0x27b1	lea    	ecx, [ebp + 0x80]
  0x27b7	dec    	esp
  === BLOCK LINK ===
    0x27b8
=== CODE BLOCK END ===

=== CODE BLOCK ADDRESS 0x27b8 ===
  0x27b8	lea    	eax, [0x7f42]
  0x27be	mov    	dword ptr [esp + 0x20], eax
  0x27c2	xor    	edx, edx
  0x27c4	mov    	ecx, ebx
  0x27c6	call   	0x6c3c
  === BLOCK LINK ===
    0x27cb
=== CODE BLOCK END ===

=== CODE BLOCK ADDRESS 0x27cb ===
  0x27cb	int3   	
  0x27cc	movsx  	eax, byte ptr [ebp - 0x68]
  0x27d0	dec    	esp
  0x27d1	lea    	ecx, [ebp + 0x80]
  0x27d7	dec    	esp
  === BLOCK LINK ===
    0x27d8
=== CODE BLOCK END ===

=== CODE BLOCK ADDRESS 0x27d8 ===
  0x27d8	lea    	eax, [0x7f22]
  0x27de	mov    	dword ptr [esp + 0x20], eax
  0x27e2	xor    	edx, edx
  0x27e4	mov    	ecx, ebx
  0x27e6	call   	0x6c3c
  === BLOCK LINK ===
    0x27eb
=== CODE BLOCK END ===

=== CODE BLOCK ADDRESS 0x27eb ===
  0x27eb	int3   	
  0x27ec	movsx  	eax, byte ptr [ebp - 0x68]
  0x27f0	dec    	esp
  0x27f1	lea    	ecx, [0x7ec9]
  0x27f7	dec    	esp
  === BLOCK LINK ===
    0x27f8
=== CODE BLOCK END ===

=== CODE BLOCK ADDRESS 0x27f8 ===
  0x27f8	lea    	eax, [0x7f02]
  0x27fe	mov    	dword ptr [esp + 0x20], eax
  0x2802	xor    	edx, edx
  0x2804	mov    	ecx, ebx
  0x2806	call   	0x6c3c
  === BLOCK LINK ===
    0x280b
=== CODE BLOCK END ===

=== CODE BLOCK ADDRESS 0x280b ===
  0x280b	int3   	
  0x280c	movsx  	eax, byte ptr [ebp - 0x68]
  0x2810	dec    	esp
  0x2811	lea    	ecx, [ebp + 0x80]
  0x2817	dec    	esp
  === BLOCK LINK ===
    0x2818
=== CODE BLOCK END ===

=== CODE BLOCK ADDRESS 0x2818 ===
  0x2818	lea    	eax, [0x7ee2]
  0x281e	mov    	dword ptr [esp + 0x20], eax
  0x2822	xor    	edx, edx
  0x2824	mov    	ecx, ebx
  0x2826	call   	0x6c3c
  === BLOCK LINK ===
    0x282b
=== CODE BLOCK END ===

=== CODE BLOCK ADDRESS 0x282b ===
  0x282b	int3   	
  0x282c	dec    	esp
  0x282d	lea    	eax, [0x8d4d]
  0x2833	mov    	edx, 0xc
  0x2838	mov    	ecx, ebx
  === BLOCK LINK ===
    0x283a
=== CODE BLOCK END ===

=== CODE BLOCK ADDRESS 0x283a ===
  0x283a	call   	0x6c3c
  === BLOCK LINK ===
    0x283f
=== CODE BLOCK END ===

=== CODE BLOCK ADDRESS 0x283f ===
  0x283f	int3   	
  0x2840	in     	eax, 0x11
  0x2842	add    	byte ptr [eax], al
  0x2844	not    	dword ptr [ecx]
  0x2846	add    	byte ptr [eax], al
  === BLOCK LINK ===
    0x2848
=== CODE BLOCK END ===

=== CODE BLOCK ADDRESS 0x2848 ===
  0x2848	adc    	byte ptr [edx], dl
  0x284a	add    	byte ptr [eax], al
  0x284c	sbb    	byte ptr [edx], dl
  0x284e	add    	byte ptr [eax], al
  0x2850	and    	dl, byte ptr [edx]
  === BLOCK LINK ===
    0x2852
=== CODE BLOCK END ===

=== CODE BLOCK ADDRESS 0x2852 ===
  0x2852	add    	byte ptr [eax], al
  0x2854	sub    	eax, 0x4e000012
  0x2859	adc    	al, byte ptr [eax]
  0x285b	add    	byte ptr [esi - 0x54ffffee], dl
  0x2861	adc    	al, byte ptr [eax]
  === BLOCK LINK ===
    0x2863
=== CODE BLOCK END ===

=== CODE BLOCK ADDRESS 0x2863 ===
  0x2863	add    	byte ptr [ebp + 0x36000012], bh
  0x2869	adc    	eax, dword ptr [eax]
  0x286b	add    	byte ptr [ebx + edx], al
  0x286f	add    	byte ptr [0x5c000025], dh
  0x2875	adc    	eax, dword ptr [eax]
  === BLOCK LINK ===
    0x2877
=== CODE BLOCK END ===

=== CODE BLOCK ADDRESS 0x2877 ===
  0x2877	add    	byte ptr [edi + 0x13], ah
  0x287a	add    	byte ptr [eax], al
  0x287c	jno    	0x2891
  === BLOCK LINK ===
    0x287e
=== CODE BLOCK END ===

=== CODE BLOCK ADDRESS 0x287e ===
  0x287e	add    	byte ptr [eax], al
  0x2880	xchg   	eax, edx
  0x2881	adc    	eax, dword ptr [eax]
  0x2883	add    	byte ptr [edx - 0x55ffffe9], ch
  0x2889	pop    	ss
  === BLOCK LINK ===
    0x288a
=== CODE BLOCK END ===

=== CODE BLOCK ADDRESS 0x288a ===
  0x288a	add    	byte ptr [eax], al
  0x288c	stosb  	byte ptr es:[edi], al
  0x288d	pop    	ss
  0x288e	add    	byte ptr [eax], al
  0x2890	stosb  	byte ptr es:[edi], al
  === BLOCK LINK ===
    0x2891
=== CODE BLOCK END ===

=== CODE BLOCK ADDRESS 0x2891 ===
  0x2891	pop    	ss
  0x2892	add    	byte ptr [eax], al
  0x2894	stosb  	byte ptr es:[edi], al
  0x2895	pop    	ss
  0x2896	add    	byte ptr [eax], al
  === BLOCK LINK ===
    0x2898
=== CODE BLOCK END ===

=== CODE BLOCK ADDRESS 0x2898 ===
  0x2898	popfd  	
  0x2899	adc    	eax, dword ptr [eax]
  0x289b	add    	byte ptr [ebx - 0x26ffffed], dh
  0x28a1	adc    	eax, dword ptr [eax]
  0x28a3	add    	bh, bh
  === BLOCK LINK ===
    0x28a5
=== CODE BLOCK END ===

=== CODE BLOCK ADDRESS 0x28a5 ===
  0x28a5	adc    	eax, dword ptr [eax]
  0x28a7	add    	byte ptr [0x4b000014], ah
  0x28ad	adc    	al, 0
  0x28af	add    	byte ptr [ebp + 0x14], dl
  0x28b2	add    	byte ptr [eax], al
  === BLOCK LINK ===
    0x28b4
=== CODE BLOCK END ===

=== CODE BLOCK ADDRESS 0x28b4 ===
  0x28b4	pushal  	
  0x28b5	adc    	al, 0
  0x28b7	add    	byte ptr [ebp + 0x14], dh
  0x28ba	add    	byte ptr [eax], al
  0x28bc	mov    	dl, byte ptr [eax + eax]
  === BLOCK LINK ===
    0x28bf
=== CODE BLOCK END ===

=== CODE BLOCK ADDRESS 0x28bf ===
  0x28bf	add    	byte ptr [eax - 0x54ffffec], ah
  0x28c5	adc    	al, 0
  0x28c7	add    	byte ptr [ebp - 0x3dffffec], dh
  0x28cd	adc    	al, 0
  0x28cf	add    	al, bl
  === BLOCK LINK ===
    0x28d1
=== CODE BLOCK END ===

=== CODE BLOCK ADDRESS 0x28d1 ===
  0x28d1	adc    	al, 0
  0x28d3	add    	bl, ah
  0x28d5	adc    	al, 0
  0x28d7	add    	dh, bh
  0x28d9	adc    	al, 0
  === BLOCK LINK ===
    0x28db
=== CODE BLOCK END ===

=== CODE BLOCK ADDRESS 0x28db ===
  0x28db	add    	byte ptr [edx + 0x154a0000], ah
  0x28e2	add    	byte ptr [eax], al
  0x28e4	jo     	0x28fb
  === BLOCK LINK ===
    0x28e6
=== CODE BLOCK END ===

=== CODE BLOCK ADDRESS 0x28e6 ===
  0x28e6	add    	byte ptr [eax], al
  0x28e8	xchg   	eax, esi
  0x28e9	adc    	eax, 0x15a00000
  0x28ee	add    	byte ptr [eax], al
  0x28f0	lodsd  	eax, dword ptr [esi]
  === BLOCK LINK ===
    0x28f1
=== CODE BLOCK END ===

=== CODE BLOCK ADDRESS 0x28f1 ===
  0x28f1	adc    	eax, 0x15ba0000
  0x28f6	add    	byte ptr [eax], al
  0x28f8	.byte  	0xc6
  0x28f9	adc    	eax, 0x15d10000
  0x28fe	add    	byte ptr [eax], al
  === BLOCK LINK ===
    0x2900
=== CODE BLOCK END ===

=== CODE BLOCK ADDRESS 0x2900 ===
  0x2900	int3   	
  0x2901	int3   	
  0x2902	int3   	
  0x2903	int3   	
  0x2904	int3   	
  === BLOCK LINK ===
    0x2905
=== CODE BLOCK END ===

=== CODE BLOCK ADDRESS 0x2905 ===
  0x2905	int3   	
  0x2906	int3   	
  0x2907	int3   	
  0x2908	dec    	eax
  0x2909	sub    	esp, 0x38
  === BLOCK LINK ===
    0x290c
=== CODE BLOCK END ===

=== CODE BLOCK ADDRESS 0x290c ===
  0x290c	movsx  	eax, byte ptr [ecx + 0x58]
  0x2910	test   	al, al
  0x2912	je     	0x2918
  === BLOCK LINK ===
    0x2914
=== CODE BLOCK END ===

=== CODE BLOCK ADDRESS 0x2914 ===
  0x2914	cmp    	al, dl
  0x2916	jne    	0x2921
  === BLOCK LINK ===
    0x2918
=== CODE BLOCK END ===

=== CODE BLOCK ADDRESS 0x2918 ===
  0x2918	mov    	byte ptr [ecx + 0x58], dl
  0x291b	dec    	eax
  0x291c	add    	esp, 0x38
  0x291f	ret    	
  0x2920	int3   	
  === BLOCK LINK ===
    0x2921
=== CODE BLOCK END ===

=== CODE BLOCK ADDRESS 0x10dc ===
  0x10dc	dec    	eax
  0x10dd	test   	ecx, ecx
  === BLOCK LINK ===
    0x10df
=== CODE BLOCK END ===

=== CODE BLOCK ADDRESS 0x2921 ===
  0x2921	inc    	esp
  0x2922	movsx  	ecx, dl
  0x2925	dec    	esp
  0x2926	lea    	eax, [0x7adc]
  0x292c	xor    	edx, edx
  === BLOCK LINK ===
    0x292e
=== CODE BLOCK END ===

=== CODE BLOCK ADDRESS 0x292e ===
  0x292e	mov    	dword ptr [esp + 0x20], eax
  0x2932	lea    	ecx, [edx + 1]
  0x2935	call   	0x6c3c
  === BLOCK LINK ===
    0x293a
=== CODE BLOCK END ===

=== CODE BLOCK ADDRESS 0x293a ===
  0x293a	int3   	
  0x293b	int3   	
  0x293c	int3   	
  0x293d	int3   	
  0x293e	int3   	
  === BLOCK LINK ===
    0x293f
=== CODE BLOCK END ===

=== CODE BLOCK ADDRESS 0x293f ===
  0x293f	int3   	
  0x2940	int3   	
  0x2941	int3   	
  0x2942	int3   	
  0x2943	int3   	
  === BLOCK LINK ===
    0x2944
=== CODE BLOCK END ===

=== CODE BLOCK ADDRESS 0x2944 ===
  0x2944	dec    	eax
  0x2945	mov    	dword ptr [esp + 8], ebx
  0x2949	push   	edi
  0x294a	dec    	eax
  0x294b	sub    	esp, 0x20
  === BLOCK LINK ===
    0x294e
=== CODE BLOCK END ===

=== CODE BLOCK ADDRESS 0x294e ===
  0x294e	call   	0x6b54
  === BLOCK LINK ===
    0x2953
=== CODE BLOCK END ===

=== CODE BLOCK ADDRESS 0x2953 ===
  0x2953	mov    	edi, 2
  0x2958	dec    	eax
  0x2959	mov    	ebx, eax
  0x295b	mov    	ecx, edi
  0x295d	call   	0x7f36
  === BLOCK LINK ===
    0x2962
=== CODE BLOCK END ===

=== CODE BLOCK ADDRESS 0x2962 ===
  0x2962	dec    	eax
  0x2963	mov    	ecx, eax
  0x2965	dec    	eax
  0x2966	lea    	edx, [0x7dbc]
  0x296c	call   	0x8098
  === BLOCK LINK ===
    0x2971
=== CODE BLOCK END ===

=== CODE BLOCK ADDRESS 0x2971 ===
  0x2971	mov    	ecx, edi
  0x2973	call   	0x7f36
  === BLOCK LINK ===
    0x2978
=== CODE BLOCK END ===

=== CODE BLOCK ADDRESS 0x2978 ===
  0x2978	dec    	eax
  0x2979	mov    	ecx, eax
  0x297b	dec    	eax
  0x297c	lea    	edx, [0x7dae]
  0x2982	dec    	esp
  === BLOCK LINK ===
    0x2983
=== CODE BLOCK END ===

=== CODE BLOCK ADDRESS 0x2983 ===
  0x2983	mov    	eax, ebx
  0x2985	call   	0x8098
  === BLOCK LINK ===
    0x298a
=== CODE BLOCK END ===

=== CODE BLOCK ADDRESS 0x298a ===
  0x298a	mov    	ecx, edi
  0x298c	call   	0x7f36
  === BLOCK LINK ===
    0x2991
=== CODE BLOCK END ===

=== CODE BLOCK ADDRESS 0x2991 ===
  0x2991	dec    	eax
  0x2992	mov    	ecx, eax
  0x2994	dec    	eax
  0x2995	lea    	edx, [0x7dbd]
  0x299b	dec    	esp
  === BLOCK LINK ===
    0x299c
=== CODE BLOCK END ===

=== CODE BLOCK ADDRESS 0x299c ===
  0x299c	mov    	eax, ebx
  0x299e	call   	0x8098
  === BLOCK LINK ===
    0x29a3
=== CODE BLOCK END ===

=== CODE BLOCK ADDRESS 0x29a3 ===
  0x29a3	mov    	ecx, edi
  0x29a5	call   	0x7f36
  === BLOCK LINK ===
    0x29aa
=== CODE BLOCK END ===

=== CODE BLOCK ADDRESS 0x29aa ===
  0x29aa	dec    	eax
  0x29ab	mov    	ecx, eax
  0x29ad	dec    	eax
  0x29ae	lea    	edx, [0x7dcc]
  0x29b4	dec    	esp
  === BLOCK LINK ===
    0x29b5
=== CODE BLOCK END ===

=== CODE BLOCK ADDRESS 0x29b5 ===
  0x29b5	mov    	eax, ebx
  0x29b7	call   	0x8098
  === BLOCK LINK ===
    0x29bc
=== CODE BLOCK END ===

=== CODE BLOCK ADDRESS 0x29bc ===
  0x29bc	mov    	ecx, edi
  0x29be	call   	0x7f36
  === BLOCK LINK ===
    0x29c3
=== CODE BLOCK END ===

=== CODE BLOCK ADDRESS 0x29c3 ===
  0x29c3	dec    	eax
  0x29c4	mov    	ecx, eax
  0x29c6	dec    	eax
  0x29c7	lea    	edx, [0x7deb]
  0x29cd	dec    	esp
  === BLOCK LINK ===
    0x29ce
=== CODE BLOCK END ===

=== CODE BLOCK ADDRESS 0x29ce ===
  0x29ce	mov    	eax, ebx
  0x29d0	call   	0x8098
  === BLOCK LINK ===
    0x29d5
=== CODE BLOCK END ===

=== CODE BLOCK ADDRESS 0x29d5 ===
  0x29d5	lea    	ecx, [edi - 1]
  0x29d8	dec    	eax
  0x29d9	call   	dword ptr [0x7299]
  === BLOCK LINK ===
    0x29df
=== CODE BLOCK END ===

=== CODE BLOCK ADDRESS 0x29df ===
  0x29df	nop    	dword ptr [eax + eax]
  0x29e4	int3   	
  0x29e5	int3   	
  0x29e6	int3   	
  0x29e7	int3   	
  === BLOCK LINK ===
    0x29e8
=== CODE BLOCK END ===

=== CODE BLOCK ADDRESS 0x29e8 ===
  0x29e8	int3   	
  0x29e9	int3   	
  0x29ea	int3   	
  0x29eb	int3   	
  0x29ec	dec    	eax
  === BLOCK LINK ===
    0x29ed
=== CODE BLOCK END ===

=== CODE BLOCK ADDRESS 0x29ed ===
  0x29ed	sub    	esp, 0x28
  0x29f0	dec    	eax
  0x29f1	call   	dword ptr [0x7419]
  === BLOCK LINK ===
    0x29f7
=== CODE BLOCK END ===

=== CODE BLOCK ADDRESS 0x29f7 ===
  0x29f7	nop    	dword ptr [eax + eax]
  0x29fc	dec    	esp
  0x29fd	mov    	eax, eax
  0x29ff	dec    	eax
  0x2a00	lea    	edx, [0x7dca]
  === BLOCK LINK ===
    0x2a06
=== CODE BLOCK END ===

=== CODE BLOCK ADDRESS 0x2a06 ===
  0x2a06	dec    	eax
  0x2a07	lea    	ecx, [0x7dcb]
  0x2a0d	call   	0x80e4
  === BLOCK LINK ===
    0x2a12
=== CODE BLOCK END ===

=== CODE BLOCK ADDRESS 0x2a12 ===
  0x2a12	xor    	ecx, ecx
  0x2a14	dec    	eax
  0x2a15	call   	dword ptr [0x725d]
  === BLOCK LINK ===
    0x2a1b
=== CODE BLOCK END ===

=== CODE BLOCK ADDRESS 0x2a1b ===
  0x2a1b	nop    	dword ptr [eax + eax]
  0x2a20	int3   	
  0x2a21	int3   	
  0x2a22	int3   	
  0x2a23	int3   	
  === BLOCK LINK ===
    0x2a24
=== CODE BLOCK END ===

=== CODE BLOCK ADDRESS 0x2a24 ===
  0x2a24	int3   	
  0x2a25	int3   	
  0x2a26	int3   	
  0x2a27	int3   	
  0x2a28	dec    	eax
  === BLOCK LINK ===
    0x2a29
=== CODE BLOCK END ===

=== CODE BLOCK ADDRESS 0x2a29 ===
  0x2a29	mov    	dword ptr [esp + 8], ebx
  0x2a2d	dec    	eax
  0x2a2e	mov    	dword ptr [esp + 0x10], esi
  0x2a32	push   	edi
  0x2a33	dec    	eax
  === BLOCK LINK ===
    0x2a34
=== CODE BLOCK END ===

=== CODE BLOCK ADDRESS 0x2a34 ===
  0x2a34	sub    	esp, 0x20
  0x2a37	dec    	eax
  0x2a38	mov    	esi, dword ptr [0xcbfa]
  0x2a3e	mov    	ecx, 2
  0x2a43	call   	0x7f36
  === BLOCK LINK ===
    0x2a48
=== CODE BLOCK END ===

=== CODE BLOCK ADDRESS 0x2a48 ===
  0x2a48	dec    	eax
  0x2a49	mov    	ecx, eax
  0x2a4b	dec    	eax
  0x2a4c	call   	dword ptr [0x7246]
  === BLOCK LINK ===
    0x2a52
=== CODE BLOCK END ===

=== CODE BLOCK ADDRESS 0x2a52 ===
  0x2a52	nop    	dword ptr [eax + eax]
  0x2a57	dec    	eax
  0x2a58	lea    	edx, [0x788a]
  0x2a5e	dec    	eax
  0x2a5f	mov    	ecx, esi
  === BLOCK LINK ===
    0x2a61
=== CODE BLOCK END ===

=== CODE BLOCK ADDRESS 0x2a61 ===
  0x2a61	call   	0x8281
  === BLOCK LINK ===
    0x2a66
=== CODE BLOCK END ===

=== CODE BLOCK ADDRESS 0x2a66 ===
  0x2a66	test   	eax, eax
  0x2a68	dec    	eax
  0x2a69	lea    	ecx, [0x8199]
  0x2a6f	dec    	esp
  0x2a70	lea    	eax, [0x7879]
  === BLOCK LINK ===
    0x2a76
=== CODE BLOCK END ===

=== CODE BLOCK ADDRESS 0x2a76 ===
  0x2a76	dec    	eax
  0x2a77	mov    	edx, esi
  0x2a79	dec    	esp
  0x2a7a	cmovne  	eax, ecx
  0x2a7d	dec    	eax
  === BLOCK LINK ===
    0x2a7e
=== CODE BLOCK END ===

=== CODE BLOCK ADDRESS 0x2a7e ===
  0x2a7e	lea    	ecx, [0x8194]
  0x2a84	call   	0x80e4
  === BLOCK LINK ===
    0x2a89
=== CODE BLOCK END ===

=== CODE BLOCK ADDRESS 0x2a89 ===
  0x2a89	mov    	al, byte ptr [0x7d61]
  0x2a8f	dec    	eax
  0x2a90	lea    	ebx, [0x7d5a]
  0x2a96	jmp    	0x2ade
  === BLOCK LINK ===
    0x2a98
=== CODE BLOCK END ===

=== CODE BLOCK ADDRESS 0x2a98 ===
  0x2a98	cmp    	al, 0x25
  0x2a9a	jne    	0x2aca
  === BLOCK LINK ===
    0x2a9c
=== CODE BLOCK END ===

=== CODE BLOCK ADDRESS 0x2a9c ===
  0x2a9c	cmp    	byte ptr [ebx + 1], 0x70
  0x2aa0	jne    	0x2ac3
  === BLOCK LINK ===
    0x2aa2
=== CODE BLOCK END ===

=== CODE BLOCK ADDRESS 0x2aa2 ===
  0x2aa2	mov    	ecx, 1
  0x2aa7	call   	0x7f36
  === BLOCK LINK ===
    0x2aac
=== CODE BLOCK END ===

=== CODE BLOCK ADDRESS 0x2aac ===
  0x2aac	dec    	eax
  0x2aad	mov    	edx, eax
  0x2aaf	dec    	eax
  0x2ab0	mov    	ecx, esi
  0x2ab2	dec    	eax
  === BLOCK LINK ===
    0x2ab3
=== CODE BLOCK END ===

=== CODE BLOCK ADDRESS 0x2ab3 ===
  0x2ab3	call   	dword ptr [0x71ef]
  === BLOCK LINK ===
    0x2ab9
=== CODE BLOCK END ===

=== CODE BLOCK ADDRESS 0x2ab9 ===
  0x2ab9	nop    	dword ptr [eax + eax]
  0x2abe	dec    	eax
  0x2abf	inc    	ebx
  0x2ac1	jmp    	0x2ad9
  === BLOCK LINK ===
    0x2ac3
=== CODE BLOCK END ===

=== CODE BLOCK ADDRESS 0x2ac3 ===
  0x2ac3	mov    	ecx, 0x25
  0x2ac8	jmp    	0x2acd
  === BLOCK LINK ===
    0x2aca
=== CODE BLOCK END ===

=== CODE BLOCK ADDRESS 0x2aca ===
  0x2aca	movsx  	ecx, al
  0x2acd	dec    	eax
  0x2ace	call   	dword ptr [0x721c]
  === BLOCK LINK ===
    0x2ad4
=== CODE BLOCK END ===

=== CODE BLOCK ADDRESS 0x2ad4 ===
  0x2ad4	nop    	dword ptr [eax + eax]
  0x2ad9	dec    	eax
  0x2ada	inc    	ebx
  0x2adc	mov    	al, byte ptr [ebx]
  0x2ade	test   	al, al
  === BLOCK LINK ===
    0x2ae0
=== CODE BLOCK END ===

=== CODE BLOCK ADDRESS 0x2ae0 ===
  0x2ae0	jne    	0x2a98
  === BLOCK LINK ===
    0x2ae2
=== CODE BLOCK END ===

=== CODE BLOCK ADDRESS 0x2ae2 ===
  0x2ae2	call   	0x29ec
  === BLOCK LINK ===
    0x2ae7
=== CODE BLOCK END ===

=== CODE BLOCK ADDRESS 0x2ae7 ===
  0x2ae7	int3   	
  0x2ae8	int3   	
  0x2ae9	int3   	
  0x2aea	int3   	
  0x2aeb	int3   	
  === BLOCK LINK ===
    0x2aec
=== CODE BLOCK END ===

=== CODE BLOCK ADDRESS 0x2aec ===
  0x2aec	int3   	
  0x2aed	int3   	
  0x2aee	int3   	
  0x2aef	int3   	
  0x2af0	dec    	eax
  === BLOCK LINK ===
    0x2af1
=== CODE BLOCK END ===

=== CODE BLOCK ADDRESS 0x2af1 ===
  0x2af1	mov    	dword ptr [esp + 8], ebx
  0x2af5	dec    	eax
  0x2af6	mov    	dword ptr [esp + 0x10], ebp
  0x2afa	dec    	eax
  0x2afb	mov    	dword ptr [esp + 0x18], esi
  === BLOCK LINK ===
    0x2aff
=== CODE BLOCK END ===

=== CODE BLOCK ADDRESS 0x2aff ===
  0x2aff	push   	edi
  0x2b00	inc    	ecx
  0x2b01	push   	esp
  0x2b02	inc    	ecx
  0x2b03	push   	ebp
  === BLOCK LINK ===
    0x2b04
=== CODE BLOCK END ===

=== CODE BLOCK ADDRESS 0x2b04 ===
  0x2b04	inc    	ecx
  0x2b05	push   	esi
  0x2b06	inc    	ecx
  0x2b07	push   	edi
  0x2b08	dec    	eax
  === BLOCK LINK ===
    0x2b09
=== CODE BLOCK END ===

=== CODE BLOCK ADDRESS 0x2b09 ===
  0x2b09	sub    	esp, 0x30
  0x2b0c	dec    	eax
  0x2b0d	or     	ebx, 0xffffffff
  0x2b10	dec    	eax
  0x2b11	mov    	esi, ecx
  === BLOCK LINK ===
    0x2b13
=== CODE BLOCK END ===

=== CODE BLOCK ADDRESS 0x2b13 ===
  0x2b13	inc    	ebp
  0x2b14	xor    	ebp, ebp
  0x2b16	dec    	eax
  0x2b17	inc    	ebx
  0x2b19	inc    	esp
  === BLOCK LINK ===
    0x2b1a
=== CODE BLOCK END ===

=== CODE BLOCK ADDRESS 0x2b1a ===
  0x2b1a	cmp    	byte ptr [ecx + ebx], ch
  0x2b1d	jne    	0x2b16
  === BLOCK LINK ===
    0x2b1f
=== CODE BLOCK END ===

=== CODE BLOCK ADDRESS 0x2b1f ===
  0x2b1f	lea    	ecx, [ebx + 1]
  0x2b22	dec    	eax
  0x2b23	add    	ecx, ecx
  0x2b25	dec    	eax
  0x2b26	call   	dword ptr [0x71b4]
  === BLOCK LINK ===
    0x2b2c
=== CODE BLOCK END ===

=== CODE BLOCK ADDRESS 0x2b2c ===
  0x2b2c	nop    	dword ptr [eax + eax]
  0x2b31	dec    	eax
  0x2b32	mov    	edi, eax
  0x2b34	dec    	eax
  0x2b35	test   	eax, eax
  === BLOCK LINK ===
    0x2b37
=== CODE BLOCK END ===

=== CODE BLOCK ADDRESS 0x2b37 ===
  0x2b37	je     	0x2d78
  === BLOCK LINK ===
    0x2b3d
=== CODE BLOCK END ===

=== CODE BLOCK ADDRESS 0x2b3d ===
  0x2b3d	mov    	dword ptr [esp + 0x28], ebx
  0x2b41	inc    	esp
  0x2b42	mov    	ecx, ebx
  0x2b44	dec    	esp
  0x2b45	mov    	eax, esi
  === BLOCK LINK ===
    0x2b47
=== CODE BLOCK END ===

=== CODE BLOCK ADDRESS 0x2b47 ===
  0x2b47	dec    	eax
  0x2b48	mov    	dword ptr [esp + 0x20], eax
  0x2b4c	xor    	edx, edx
  0x2b4e	xor    	ecx, ecx
  0x2b50	dec    	eax
  === BLOCK LINK ===
    0x2b51
=== CODE BLOCK END ===

=== CODE BLOCK ADDRESS 0x2b51 ===
  0x2b51	call   	dword ptr [0x7039]
  === BLOCK LINK ===
    0x2b57
=== CODE BLOCK END ===

=== CODE BLOCK ADDRESS 0x2b57 ===
  0x2b57	nop    	dword ptr [eax + eax]
  0x2b5c	test   	eax, eax
  0x2b5e	je     	0x2d69
  === BLOCK LINK ===
    0x2b64
=== CODE BLOCK END ===

=== CODE BLOCK ADDRESS 0x2b64 ===
  0x2b64	mov    	eax, eax
  0x2b66	inc    	ebp
  0x2b67	xor    	ecx, ecx
  0x2b69	inc    	ebp
  0x2b6a	xor    	eax, eax
  === BLOCK LINK ===
    0x2b6c
=== CODE BLOCK END ===

=== CODE BLOCK ADDRESS 0x2b6c ===
  0x2b6c	xor    	edx, edx
  0x2b6e	dec    	eax
  0x2b6f	mov    	ecx, edi
  0x2b71	inc    	sp
  0x2b73	mov    	dword ptr [edi + eax*2], ebp
  === BLOCK LINK ===
    0x2b76
=== CODE BLOCK END ===

=== CODE BLOCK ADDRESS 0x2b76 ===
  0x2b76	dec    	eax
  0x2b77	call   	dword ptr [0x6f53]
  === BLOCK LINK ===
    0x2b7d
=== CODE BLOCK END ===

=== CODE BLOCK ADDRESS 0x2b7d ===
  0x2b7d	nop    	dword ptr [eax + eax]
  0x2b82	mov    	esi, eax
  0x2b84	test   	eax, eax
  0x2b86	je     	0x2d69
  === BLOCK LINK ===
    0x2b8c
=== CODE BLOCK END ===

=== CODE BLOCK ADDRESS 0x2b8c ===
  0x2b8c	mov    	ecx, esi
  0x2b8e	dec    	eax
  0x2b8f	add    	ecx, ecx
  0x2b91	dec    	eax
  0x2b92	call   	dword ptr [0x7148]
  === BLOCK LINK ===
    0x2b98
=== CODE BLOCK END ===

=== CODE BLOCK ADDRESS 0x2b98 ===
  0x2b98	nop    	dword ptr [eax + eax]
  0x2b9d	dec    	eax
  0x2b9e	mov    	ebx, eax
  0x2ba0	dec    	eax
  0x2ba1	test   	eax, eax
  === BLOCK LINK ===
    0x2ba3
=== CODE BLOCK END ===

=== CODE BLOCK ADDRESS 0x2ba3 ===
  0x2ba3	je     	0x2d69
  === BLOCK LINK ===
    0x2ba9
=== CODE BLOCK END ===

=== CODE BLOCK ADDRESS 0x2ba9 ===
  0x2ba9	inc    	ebp
  0x2baa	xor    	ecx, ecx
  0x2bac	dec    	esp
  0x2bad	mov    	eax, eax
  0x2baf	mov    	edx, esi
  === BLOCK LINK ===
    0x2bb1
=== CODE BLOCK END ===

=== CODE BLOCK ADDRESS 0x2bb1 ===
  0x2bb1	dec    	eax
  0x2bb2	mov    	ecx, edi
  0x2bb4	dec    	eax
  0x2bb5	call   	dword ptr [0x6f15]
  === BLOCK LINK ===
    0x2bbb
=== CODE BLOCK END ===

=== CODE BLOCK ADDRESS 0x2bbb ===
  0x2bbb	nop    	dword ptr [eax + eax]
  0x2bc0	dec    	eax
  0x2bc1	mov    	ecx, edi
  0x2bc3	mov    	esi, eax
  0x2bc5	dec    	eax
  === BLOCK LINK ===
    0x2bc6
=== CODE BLOCK END ===

=== CODE BLOCK ADDRESS 0x2bc6 ===
  0x2bc6	call   	dword ptr [0x70ec]
  === BLOCK LINK ===
    0x2bcc
=== CODE BLOCK END ===

=== CODE BLOCK ADDRESS 0x2bcc ===
  0x2bcc	nop    	dword ptr [eax + eax]
  0x2bd1	inc    	cx
  0x2bd3	mov    	edx, 0x8b4c005c
  0x2bd8	jecxz  	0x2c40
  === BLOCK LINK ===
    0x2bda
=== CODE BLOCK END ===

=== CODE BLOCK ADDRESS 0x2bda ===
  0x2bda	inc    	esp
  0x2bdb	cmp    	dword ptr [ebx], edx
  0x2bdd	jne    	0x2c3e
  === BLOCK LINK ===
    0x2bdf
=== CODE BLOCK END ===

=== CODE BLOCK ADDRESS 0x2bdf ===
  0x2bdf	mov    	edx, 0x3f
  0x2be4	inc    	sp
  0x2be6	cmp    	dword ptr [ebx + 2], edx
  0x2be9	jne    	0x2c3e
  === BLOCK LINK ===
    0x2beb
=== CODE BLOCK END ===

=== CODE BLOCK ADDRESS 0x2beb ===
  0x2beb	cmp    	word ptr [ebx + 4], dx
  0x2bef	jne    	0x2bf8
  === BLOCK LINK ===
    0x2bf1
=== CODE BLOCK END ===

=== CODE BLOCK ADDRESS 0x2bf1 ===
  0x2bf1	inc    	sp
  0x2bf3	cmp    	dword ptr [ebx + 6], edx
  0x2bf6	je     	0x2c36
  === BLOCK LINK ===
    0x2bf8
=== CODE BLOCK END ===

=== CODE BLOCK ADDRESS 0x2bf8 ===
  0x2bf8	inc    	sp
  0x2bfa	cmp    	dword ptr [ebx + 2], edx
  0x2bfd	jne    	0x2c3e
  === BLOCK LINK ===
    0x2bff
=== CODE BLOCK END ===

=== CODE BLOCK ADDRESS 0x2bff ===
  0x2bff	cmp    	word ptr [ebx + 4], 0x2e
  0x2c04	jne    	0x2c3e
  === BLOCK LINK ===
    0x2c06
=== CODE BLOCK END ===

=== CODE BLOCK ADDRESS 0x2c06 ===
  0x2c06	inc    	sp
  0x2c08	cmp    	dword ptr [ebx + 6], edx
  0x2c0b	jne    	0x2c3e
  === BLOCK LINK ===
    0x2c0d
=== CODE BLOCK END ===

=== CODE BLOCK ADDRESS 0x2c0d ===
  0x2c0d	movzx  	ecx, word ptr [ebx + 8]
  0x2c11	lea    	eax, [ecx - 0x61]
  0x2c14	cmp    	ax, 0x19
  0x2c18	jbe    	0x2c24
  === BLOCK LINK ===
    0x2c1a
=== CODE BLOCK END ===

=== CODE BLOCK ADDRESS 0x2c1a ===
  0x2c1a	sub    	cx, 0x41
  0x2c1e	cmp    	cx, 0x19
  0x2c22	ja     	0x2c36
  === BLOCK LINK ===
    0x2c24
=== CODE BLOCK END ===

=== CODE BLOCK ADDRESS 0x2c24 ===
  0x2c24	cmp    	word ptr [ebx + 0xa], 0x3a
  0x2c29	jne    	0x2c36
  === BLOCK LINK ===
    0x2c2b
=== CODE BLOCK END ===

=== CODE BLOCK ADDRESS 0x2c2b ===
  0x2c2b	inc    	sp
  0x2c2d	cmp    	dword ptr [ebx + 0xc], edx
  0x2c30	jne    	0x2c36
  === BLOCK LINK ===
    0x2c32
=== CODE BLOCK END ===

=== CODE BLOCK ADDRESS 0x2c32 ===
  0x2c32	mov    	word ptr [ebx + 4], dx
  0x2c36	dec    	eax
  0x2c37	mov    	eax, ebx
  0x2c39	jmp    	0x2d7a
  === BLOCK LINK ===
    0x2c3e
=== CODE BLOCK END ===

=== CODE BLOCK ADDRESS 0x2c3e ===
  0x2c3e	inc    	ecx
  0x2c3f	mov    	ebp, ebp
  0x2c41	inc    	sp
  0x2c43	cmp    	dword ptr [ebx], edx
  0x2c45	jne    	0x2cc3
  === BLOCK LINK ===
    0x2c47
=== CODE BLOCK END ===

=== CODE BLOCK ADDRESS 0x2c47 ===
  0x2c47	inc    	sp
  0x2c49	cmp    	dword ptr [ebx + 2], edx
  0x2c4c	jne    	0x2cc3
  === BLOCK LINK ===
    0x2c4e
=== CODE BLOCK END ===

=== CODE BLOCK ADDRESS 0x2c4e ===
  0x2c4e	dec    	eax
  0x2c4f	lea    	edx, [ebx + 4]
  0x2c52	movzx  	ecx, word ptr [edx]
  0x2c55	inc    	cx
  0x2c57	cmp    	ecx, edx
  === BLOCK LINK ===
    0x2c59
=== CODE BLOCK END ===

=== CODE BLOCK ADDRESS 0x2c59 ===
  0x2c59	je     	0x2cc3
  === BLOCK LINK ===
    0x2c5b
=== CODE BLOCK END ===

=== CODE BLOCK ADDRESS 0x2c5b ===
  0x2c5b	dec    	eax
  0x2c5c	mov    	eax, edx
  0x2c5e	inc    	esp
  0x2c5f	movzx  	eax, cx
  0x2c62	test   	cx, cx
  === BLOCK LINK ===
    0x2c65
=== CODE BLOCK END ===

=== CODE BLOCK ADDRESS 0x2c65 ===
  0x2c65	je     	0x2c78
  === BLOCK LINK ===
    0x2c67
=== CODE BLOCK END ===

=== CODE BLOCK ADDRESS 0x2c67 ===
  0x2c67	dec    	eax
  0x2c68	add    	eax, 2
  0x2c6b	movzx  	ecx, word ptr [eax]
  0x2c6e	inc    	esp
  0x2c6f	movzx  	eax, cx
  === BLOCK LINK ===
    0x2c72
=== CODE BLOCK END ===

=== CODE BLOCK ADDRESS 0x2c72 ===
  0x2c72	inc    	cx
  0x2c74	cmp    	ecx, edx
  0x2c76	jne    	0x2c5e
  === BLOCK LINK ===
    0x2c78
=== CODE BLOCK END ===

=== CODE BLOCK ADDRESS 0x2c78 ===
  0x2c78	inc    	bp
  0x2c7a	cmp    	eax, edx
  0x2c7c	jne    	0x2cc3
  === BLOCK LINK ===
    0x2c7e
=== CODE BLOCK END ===

=== CODE BLOCK ADDRESS 0x2c7e ===
  0x2c7e	dec    	eax
  0x2c7f	add    	eax, 2
  0x2c82	dec    	esp
  0x2c83	mov    	ecx, eax
  0x2c85	movzx  	ecx, word ptr [eax]
  === BLOCK LINK ===
    0x2c88
=== CODE BLOCK END ===

=== CODE BLOCK ADDRESS 0x2c88 ===
  0x2c88	inc    	cx
  0x2c8a	cmp    	ecx, edx
  0x2c8c	je     	0x2cb3
  === BLOCK LINK ===
    0x2c8e
=== CODE BLOCK END ===

=== CODE BLOCK ADDRESS 0x2c8e ===
  0x2c8e	inc    	esp
  0x2c8f	movzx  	eax, cx
  0x2c92	inc    	ecx
  0x2c93	movzx  	ecx, ax
  0x2c96	inc    	bp
  === BLOCK LINK ===
    0x2c98
=== CODE BLOCK END ===

=== CODE BLOCK ADDRESS 0x2c98 ===
  0x2c98	test   	eax, eax
  0x2c9a	je     	0x2cad
  === BLOCK LINK ===
    0x2c9c
=== CODE BLOCK END ===

=== CODE BLOCK ADDRESS 0x2c9c ===
  0x2c9c	dec    	eax
  0x2c9d	add    	eax, 2
  0x2ca0	movzx  	ecx, word ptr [eax]
  0x2ca3	inc    	esp
  0x2ca4	movzx  	eax, cx
  === BLOCK LINK ===
    0x2ca7
=== CODE BLOCK END ===

=== CODE BLOCK ADDRESS 0x2ca7 ===
  0x2ca7	inc    	cx
  0x2ca9	cmp    	ecx, edx
  0x2cab	jne    	0x2c92
  === BLOCK LINK ===
    0x2cad
=== CODE BLOCK END ===

=== CODE BLOCK ADDRESS 0x2cad ===
  0x2cad	inc    	cx
  0x2caf	cmp    	ecx, edx
  0x2cb1	jne    	0x2cc3
  === BLOCK LINK ===
    0x2cb3
=== CODE BLOCK END ===

=== CODE BLOCK ADDRESS 0x2cb3 ===
  0x2cb3	dec    	ecx
  0x2cb4	cmp    	eax, ecx
  0x2cb6	je     	0x2cc3
  === BLOCK LINK ===
    0x2cb8
=== CODE BLOCK END ===

=== CODE BLOCK ADDRESS 0x2cb8 ===
  0x2cb8	dec    	eax
  0x2cb9	mov    	ebx, edx
  0x2cbb	add    	esi, -2
  0x2cbe	mov    	ebp, 1
  0x2cc3	lea    	esi, [esi + ebp*4]
  === BLOCK LINK ===
    0x2cc6
=== CODE BLOCK END ===

=== CODE BLOCK ADDRESS 0x2cc6 ===
  0x2cc6	add    	esi, 5
  0x2cc9	mov    	ecx, esi
  0x2ccb	inc    	esp
  0x2ccc	mov    	edi, esi
  0x2cce	dec    	eax
  === BLOCK LINK ===
    0x2ccf
=== CODE BLOCK END ===

=== CODE BLOCK ADDRESS 0x2ccf ===
  0x2ccf	add    	ecx, ecx
  0x2cd1	dec    	eax
  0x2cd2	call   	dword ptr [0x7008]
  === BLOCK LINK ===
    0x2cd8
=== CODE BLOCK END ===

=== CODE BLOCK ADDRESS 0x2cd8 ===
  0x2cd8	nop    	dword ptr [eax + eax]
  0x2cdd	dec    	eax
  0x2cde	mov    	edi, eax
  0x2ce0	dec    	esp
  0x2ce1	mov    	esi, eax
  === BLOCK LINK ===
    0x2ce3
=== CODE BLOCK END ===

=== CODE BLOCK ADDRESS 0x2ce3 ===
  0x2ce3	dec    	eax
  0x2ce4	test   	eax, eax
  0x2ce6	jne    	0x2ced
  === BLOCK LINK ===
    0x2ce8
=== CODE BLOCK END ===

=== CODE BLOCK ADDRESS 0x2ce8 ===
  0x2ce8	dec    	ecx
  0x2ce9	mov    	ecx, esp
  0x2ceb	jmp    	0x2d6c
  === BLOCK LINK ===
    0x2ced
=== CODE BLOCK END ===

=== CODE BLOCK ADDRESS 0x2ced ===
  0x2ced	inc    	ecx
  0x2cee	mov    	eax, 4
  0x2cf3	dec    	eax
  0x2cf4	lea    	edx, [0x7f3e]
  0x2cfa	dec    	eax
  === BLOCK LINK ===
    0x2cfb
=== CODE BLOCK END ===

=== CODE BLOCK ADDRESS 0x2cfb ===
  0x2cfb	mov    	ecx, edi
  0x2cfd	dec    	eax
  0x2cfe	call   	dword ptr [0x70c4]
  === BLOCK LINK ===
    0x2d04
=== CODE BLOCK END ===

=== CODE BLOCK ADDRESS 0x2d04 ===
  0x2d04	nop    	dword ptr [eax + eax]
  0x2d09	dec    	eax
  0x2d0a	add    	edi, 8
  0x2d0d	add    	esi, -4
  0x2d10	test   	ebp, ebp
  === BLOCK LINK ===
    0x2d12
=== CODE BLOCK END ===

=== CODE BLOCK ADDRESS 0x2d12 ===
  0x2d12	je     	0x2d37
  === BLOCK LINK ===
    0x2d14
=== CODE BLOCK END ===

=== CODE BLOCK ADDRESS 0x2d14 ===
  0x2d14	inc    	ecx
  0x2d15	mov    	eax, 4
  0x2d1a	dec    	eax
  0x2d1b	lea    	edx, [0x7f27]
  0x2d21	dec    	eax
  === BLOCK LINK ===
    0x2d22
=== CODE BLOCK END ===

=== CODE BLOCK ADDRESS 0x2d22 ===
  0x2d22	mov    	ecx, edi
  0x2d24	dec    	eax
  0x2d25	call   	dword ptr [0x709d]
  === BLOCK LINK ===
    0x2d2b
=== CODE BLOCK END ===

=== CODE BLOCK ADDRESS 0x2d2b ===
  0x2d2b	nop    	dword ptr [eax + eax]
  0x2d30	dec    	eax
  0x2d31	add    	edi, 8
  0x2d34	add    	esi, -4
  0x2d37	inc    	esp
  === BLOCK LINK ===
    0x2d38
=== CODE BLOCK END ===

=== CODE BLOCK ADDRESS 0x2d38 ===
  0x2d38	mov    	eax, esi
  0x2d3a	dec    	eax
  0x2d3b	mov    	edx, ebx
  0x2d3d	dec    	eax
  0x2d3e	mov    	ecx, edi
  === BLOCK LINK ===
    0x2d40
=== CODE BLOCK END ===

=== CODE BLOCK ADDRESS 0x2d40 ===
  0x2d40	dec    	eax
  0x2d41	call   	dword ptr [0x7081]
  === BLOCK LINK ===
    0x2d47
=== CODE BLOCK END ===

=== CODE BLOCK ADDRESS 0x2d47 ===
  0x2d47	nop    	dword ptr [eax + eax]
  0x2d4c	dec    	ecx
  0x2d4d	mov    	ecx, esp
  0x2d4f	dec    	eax
  0x2d50	call   	dword ptr [0x6f62]
  === BLOCK LINK ===
    0x2d56
=== CODE BLOCK END ===

=== CODE BLOCK ADDRESS 0x2d56 ===
  0x2d56	nop    	dword ptr [eax + eax]
  0x2d5b	inc    	ecx
  0x2d5c	lea    	ecx, [edi - 1]
  0x2d5f	dec    	ecx
  0x2d60	mov    	eax, esi
  === BLOCK LINK ===
    0x2d62
=== CODE BLOCK END ===

=== CODE BLOCK ADDRESS 0x2d62 ===
  0x2d62	inc    	bp
  0x2d64	mov    	dword ptr [esi + ecx*2], ebp
  0x2d67	jmp    	0x2d7a
  === BLOCK LINK ===
    0x2d69
=== CODE BLOCK END ===

=== CODE BLOCK ADDRESS 0x2d69 ===
  0x2d69	dec    	eax
  0x2d6a	mov    	ecx, edi
  0x2d6c	dec    	eax
  0x2d6d	call   	dword ptr [0x6f45]
  === BLOCK LINK ===
    0x2d73
=== CODE BLOCK END ===

=== CODE BLOCK ADDRESS 0x2d73 ===
  0x2d73	nop    	dword ptr [eax + eax]
  0x2d78	xor    	eax, eax
  0x2d7a	dec    	eax
  0x2d7b	mov    	ebx, dword ptr [esp + 0x60]
  0x2d7f	dec    	eax
  === BLOCK LINK ===
    0x2d80
=== CODE BLOCK END ===

=== CODE BLOCK ADDRESS 0x2d80 ===
  0x2d80	mov    	ebp, dword ptr [esp + 0x68]
  0x2d84	dec    	eax
  0x2d85	mov    	esi, dword ptr [esp + 0x70]
  0x2d89	dec    	eax
  0x2d8a	add    	esp, 0x30
  === BLOCK LINK ===
    0x2d8d
=== CODE BLOCK END ===

=== CODE BLOCK ADDRESS 0x2d8d ===
  0x2d8d	inc    	ecx
  0x2d8e	pop    	edi
  0x2d8f	inc    	ecx
  0x2d90	pop    	esi
  0x2d91	inc    	ecx
  === BLOCK LINK ===
    0x2d92
=== CODE BLOCK END ===

=== CODE BLOCK ADDRESS 0x2d92 ===
  0x2d92	pop    	ebp
  0x2d93	inc    	ecx
  0x2d94	pop    	esp
  0x2d95	pop    	edi
  0x2d96	ret    	
  === BLOCK LINK ===
    0x2d97
=== CODE BLOCK END ===

=== CODE BLOCK ADDRESS 0x10e5 ===
  0x10e5	dec    	eax
  0x10e6	lea    	edx, [0x9203]
  0x10ec	dec    	eax
  === BLOCK LINK ===
    0x10ed
=== CODE BLOCK END ===

=== CODE BLOCK ADDRESS 0x2d97 ===
  0x2d97	int3   	
  0x2d98	int3   	
  0x2d99	int3   	
  0x2d9a	int3   	
  0x2d9b	int3   	
  === BLOCK LINK ===
    0x2d9c
=== CODE BLOCK END ===

=== CODE BLOCK ADDRESS 0x2d9c ===
  0x2d9c	int3   	
  0x2d9d	int3   	
  0x2d9e	int3   	
  0x2d9f	int3   	
  0x2da0	inc    	eax
  === BLOCK LINK ===
    0x2da1
=== CODE BLOCK END ===

=== CODE BLOCK ADDRESS 0x2da1 ===
  0x2da1	push   	ebx
  0x2da2	dec    	eax
  0x2da3	sub    	esp, 0x20
  0x2da6	xor    	ebx, ebx
  0x2da8	test   	ecx, ecx
  === BLOCK LINK ===
    0x2daa
=== CODE BLOCK END ===

=== CODE BLOCK ADDRESS 0x2daa ===
  0x2daa	jne    	0x2dbc
  === BLOCK LINK ===
    0x2dac
=== CODE BLOCK END ===

=== CODE BLOCK ADDRESS 0x2dac ===
  0x2dac	dec    	eax
  0x2dad	call   	dword ptr [0x6e35]
  === BLOCK LINK ===
    0x2db3
=== CODE BLOCK END ===

=== CODE BLOCK ADDRESS 0x2db3 ===
  0x2db3	nop    	dword ptr [eax + eax]
  0x2db8	mov    	dword ptr [eax], ebx
  0x2dba	jmp    	0x2e08
  === BLOCK LINK ===
    0x2dbc
=== CODE BLOCK END ===

=== CODE BLOCK ADDRESS 0x2dbc ===
  0x2dbc	dec    	eax
  0x2dbd	lea    	eax, [0x7e9d]
  0x2dc3	cmp    	dword ptr [eax], ecx
  0x2dc5	je     	0x2ded
  === BLOCK LINK ===
    0x2dc7
=== CODE BLOCK END ===

=== CODE BLOCK ADDRESS 0x2dc7 ===
  0x2dc7	inc    	ebx
  0x2dc9	dec    	eax
  0x2dca	lea    	edx, [0x8a10]
  0x2dd0	dec    	eax
  0x2dd1	add    	eax, 8
  === BLOCK LINK ===
    0x2dd4
=== CODE BLOCK END ===

=== CODE BLOCK ADDRESS 0x2dd4 ===
  0x2dd4	dec    	eax
  0x2dd5	cmp    	eax, edx
  0x2dd7	jl     	0x2dc3
  === BLOCK LINK ===
    0x2dd9
=== CODE BLOCK END ===

=== CODE BLOCK ADDRESS 0x2dd9 ===
  0x2dd9	dec    	eax
  0x2dda	call   	dword ptr [0x6e08]
  === BLOCK LINK ===
    0x2de0
=== CODE BLOCK END ===

=== CODE BLOCK ADDRESS 0x2de0 ===
  0x2de0	nop    	dword ptr [eax + eax]
  0x2de5	mov    	dword ptr [eax], 0x16
  0x2deb	jmp    	0x2e08
  === BLOCK LINK ===
    0x2ded
=== CODE BLOCK END ===

=== CODE BLOCK ADDRESS 0x2ded ===
  0x2ded	dec    	eax
  0x2dee	call   	dword ptr [0x6df4]
  === BLOCK LINK ===
    0x2df4
=== CODE BLOCK END ===

=== CODE BLOCK ADDRESS 0x2df4 ===
  0x2df4	nop    	dword ptr [eax + eax]
  0x2df9	dec    	eax
  0x2dfa	arpl   	bx, cx
  0x2dfc	dec    	eax
  0x2dfd	lea    	edx, [0x7e61]
  === BLOCK LINK ===
    0x2e03
=== CODE BLOCK END ===

=== CODE BLOCK ADDRESS 0x2e03 ===
  0x2e03	mov    	ecx, dword ptr [edx + ecx*8]
  0x2e06	mov    	dword ptr [eax], ecx
  0x2e08	dec    	eax
  0x2e09	add    	esp, 0x20
  0x2e0c	pop    	ebx
  === BLOCK LINK ===
    0x2e0d
=== CODE BLOCK END ===

=== CODE BLOCK ADDRESS 0x2e0d ===
  0x2e0d	ret    	
  0x2e0e	int3   	
  0x2e0f	int3   	
  0x2e10	int3   	
  0x2e11	int3   	
  === BLOCK LINK ===
    0x2e12
=== CODE BLOCK END ===

=== CODE BLOCK ADDRESS 0x2e12 ===
  0x2e12	int3   	
  0x2e13	int3   	
  0x2e14	int3   	
  0x2e15	int3   	
  0x2e16	int3   	
  === BLOCK LINK ===
    0x2e17
=== CODE BLOCK END ===

=== CODE BLOCK ADDRESS 0x2e17 ===
  0x2e17	int3   	
  === BLOCK LINK ===
    0x2e18
=== CODE BLOCK END ===

=== CODE BLOCK ADDRESS 0x2e22 ===
  0x2e22	dec    	eax
  0x2e23	mov    	dword ptr [esp + 0x18], esi
  0x2e27	push   	edi
  0x2e28	inc    	ecx
  0x2e29	push   	esp
  === BLOCK LINK ===
    0x2e2a
=== CODE BLOCK END ===

=== CODE BLOCK ADDRESS 0x2e2a ===
  0x2e2a	inc    	ecx
  0x2e2b	push   	ebp
  0x2e2c	inc    	ecx
  0x2e2d	push   	esi
  0x2e2e	inc    	ecx
  === BLOCK LINK ===
    0x2e2f
=== CODE BLOCK END ===

=== CODE BLOCK ADDRESS 0x2e2f ===
  0x2e2f	push   	edi
  0x2e30	dec    	eax
  0x2e31	sub    	esp, 0x30
  0x2e34	mov    	eax, dword ptr [ecx + 0x78]
  0x2e37	dec    	eax
  === BLOCK LINK ===
    0x2e38
=== CODE BLOCK END ===

=== CODE BLOCK ADDRESS 0x2e38 ===
  0x2e38	lea    	ebp, [0x787e]
  0x2e3e	inc    	ebp
  0x2e3f	xor    	esp, esp
  0x2e41	dec    	eax
  0x2e42	mov    	ebx, ecx
  === BLOCK LINK ===
    0x2e44
=== CODE BLOCK END ===

=== CODE BLOCK ADDRESS 0x2e44 ===
  0x2e44	inc    	ebp
  0x2e45	mov    	esi, esp
  0x2e47	inc    	ebp
  0x2e48	mov    	edi, esp
  0x2e4a	inc    	ecx
  === BLOCK LINK ===
    0x2e4b
=== CODE BLOCK END ===

=== CODE BLOCK ADDRESS 0x2e4b ===
  0x2e4b	lea    	esi, [esp + 2]
  0x2e4f	inc    	ebp
  0x2e50	lea    	ebp, [esp + 0x3f]
  0x2e54	inc    	ebp
  0x2e55	lea    	ecx, [esp + 0x2d]
  === BLOCK LINK ===
    0x2e59
=== CODE BLOCK END ===

=== CODE BLOCK ADDRESS 0x2e59 ===
  0x2e59	dec    	esp
  0x2e5a	mov    	dword ptr [ebx + 0x98], esp
  0x2e60	inc    	ecx
  0x2e61	mov    	edi, ebp
  0x2e63	test   	eax, eax
  === BLOCK LINK ===
    0x2e65
=== CODE BLOCK END ===

=== CODE BLOCK ADDRESS 0x2e65 ===
  0x2e65	jne    	0x2ebf
  === BLOCK LINK ===
    0x2e67
=== CODE BLOCK END ===

=== CODE BLOCK ADDRESS 0x2e67 ===
  0x2e67	dec    	eax
  0x2e68	add    	dword ptr [ebx + 0x90], 8
  0x2e6f	mov    	edx, dword ptr [ebx + 0x8c]
  0x2e75	dec    	eax
  0x2e76	mov    	ecx, dword ptr [ebx + 0x90]
  === BLOCK LINK ===
    0x2e7c
=== CODE BLOCK END ===

=== CODE BLOCK ADDRESS 0x2e7c ===
  0x2e7c	dec    	edx
  0x2e7e	mov    	dword ptr [ebx + 0x8c], edx
  0x2e84	dec    	eax
  0x2e85	mov    	eax, dword ptr [ecx]
  0x2e87	dec    	eax
  === BLOCK LINK ===
    0x2e88
=== CODE BLOCK END ===

=== CODE BLOCK ADDRESS 0x2e88 ===
  0x2e88	test   	eax, eax
  0x2e8a	je     	0x300e
  === BLOCK LINK ===
    0x2e90
=== CODE BLOCK END ===

=== CODE BLOCK ADDRESS 0x2e90 ===
  0x2e90	inc    	esp
  0x2e91	cmp    	byte ptr [eax], cl
  0x2e93	je     	0x2edc
  === BLOCK LINK ===
    0x2e95
=== CODE BLOCK END ===

=== CODE BLOCK ADDRESS 0x2e95 ===
  0x2e95	mov    	dword ptr [ebx + 0x78], 1
  0x2e9c	dec    	eax
  0x2e9d	mov    	eax, dword ptr [ecx]
  0x2e9f	dec    	eax
  0x2ea0	mov    	dword ptr [ebx + 0x80], eax
  === BLOCK LINK ===
    0x2ea6
=== CODE BLOCK END ===

=== CODE BLOCK ADDRESS 0x2ea6 ===
  0x2ea6	dec    	eax
  0x2ea7	lea    	eax, [ecx + 8]
  0x2eaa	dec    	eax
  0x2eab	mov    	dword ptr [ebx + 0x90], eax
  0x2eb1	lea    	eax, [edx - 1]
  === BLOCK LINK ===
    0x2eb4
=== CODE BLOCK END ===

=== CODE BLOCK ADDRESS 0x2eb4 ===
  0x2eb4	mov    	dword ptr [ebx + 0x8c], eax
  0x2eba	mov    	eax, 1
  0x2ebf	cmp    	eax, 1
  0x2ec2	jne    	0x2f36
  === BLOCK LINK ===
    0x2ec4
=== CODE BLOCK END ===

=== CODE BLOCK ADDRESS 0x2ec4 ===
  0x2ec4	dec    	eax
  0x2ec5	mov    	eax, dword ptr [ebx + 0x80]
  0x2ecb	movsx  	edi, byte ptr [eax]
  0x2ece	dec    	eax
  0x2ecf	inc    	eax
  === BLOCK LINK ===
    0x2ed1
=== CODE BLOCK END ===

=== CODE BLOCK ADDRESS 0x2ed1 ===
  0x2ed1	dec    	eax
  0x2ed2	mov    	dword ptr [ebx + 0x80], eax
  0x2ed8	test   	edi, edi
  0x2eda	jne    	0x2ee1
  === BLOCK LINK ===
    0x2edc
=== CODE BLOCK END ===

=== CODE BLOCK ADDRESS 0x2edc ===
  0x2edc	mov    	dword ptr [ebx + 0x78], esi
  0x2edf	jmp    	0x2f36
  === BLOCK LINK ===
    0x2ee1
=== CODE BLOCK END ===

=== CODE BLOCK ADDRESS 0x2ee1 ===
  0x2ee1	mov    	edx, edi
  0x2ee3	dec    	eax
  0x2ee4	lea    	ecx, [0x7ee6]
  0x2eea	dec    	eax
  0x2eeb	call   	dword ptr [0x6e4f]
  === BLOCK LINK ===
    0x2ef1
=== CODE BLOCK END ===

=== CODE BLOCK ADDRESS 0x2ef1 ===
  0x2ef1	nop    	dword ptr [eax + eax]
  0x2ef6	dec    	eax
  0x2ef7	test   	eax, eax
  0x2ef9	je     	0x2fef
  === BLOCK LINK ===
    0x2eff
=== CODE BLOCK END ===

=== CODE BLOCK ADDRESS 0x2eff ===
  0x2eff	cmp    	byte ptr [eax + 1], 0x3a
  0x2f03	jne    	0x2f30
  === BLOCK LINK ===
    0x2f05
=== CODE BLOCK END ===

=== CODE BLOCK ADDRESS 0x2f05 ===
  0x2f05	dec    	eax
  0x2f06	mov    	ecx, dword ptr [ebx + 0x90]
  0x2f0c	dec    	eax
  0x2f0d	mov    	eax, dword ptr [ecx]
  0x2f0f	dec    	eax
  === BLOCK LINK ===
    0x2f10
=== CODE BLOCK END ===

=== CODE BLOCK ADDRESS 0x2f10 ===
  0x2f10	mov    	dword ptr [ebx + 0x98], eax
  0x2f16	dec    	eax
  0x2f17	test   	eax, eax
  0x2f19	je     	0x2fde
  === BLOCK LINK ===
    0x2f1f
=== CODE BLOCK END ===

=== CODE BLOCK ADDRESS 0x2f1f ===
  0x2f1f	dec    	dword ptr [ebx + 0x8c]
  0x2f25	dec    	eax
  0x2f26	lea    	eax, [ecx + 8]
  0x2f29	dec    	eax
  0x2f2a	mov    	dword ptr [ebx + 0x90], eax
  === BLOCK LINK ===
    0x2f30
=== CODE BLOCK END ===

=== CODE BLOCK ADDRESS 0x2f30 ===
  0x2f30	inc    	ecx
  0x2f31	mov    	ecx, 0x2d
  0x2f36	mov    	eax, dword ptr [ebx + 0x78]
  0x2f39	cmp    	eax, esi
  0x2f3b	jne    	0x2fb3
  === BLOCK LINK ===
    0x2f3d
=== CODE BLOCK END ===

=== CODE BLOCK ADDRESS 0x2f3d ===
  0x2f3d	dec    	esp
  0x2f3e	mov    	eax, dword ptr [ebx + 0x90]
  0x2f44	dec    	ecx
  0x2f45	mov    	ecx, dword ptr [eax]
  0x2f47	dec    	eax
  === BLOCK LINK ===
    0x2f48
=== CODE BLOCK END ===

=== CODE BLOCK ADDRESS 0x2f48 ===
  0x2f48	test   	ecx, ecx
  0x2f4a	je     	0x300e
  === BLOCK LINK ===
    0x2f50
=== CODE BLOCK END ===

=== CODE BLOCK ADDRESS 0x2f50 ===
  0x2f50	inc    	esp
  0x2f51	cmp    	byte ptr [ecx], cl
  0x2f53	jne    	0x300e
  === BLOCK LINK ===
    0x2f59
=== CODE BLOCK END ===

=== CODE BLOCK ADDRESS 0x2f59 ===
  0x2f59	movzx  	edx, byte ptr [ecx]
  0x2f5c	inc    	ecx
  0x2f5d	movzx  	eax, cl
  0x2f60	sub    	edx, eax
  0x2f62	jne    	0x2f7a
  === BLOCK LINK ===
    0x2f64
=== CODE BLOCK END ===

=== CODE BLOCK ADDRESS 0x2f64 ===
  0x2f64	movzx  	edx, byte ptr [ecx + 1]
  0x2f68	inc    	ecx
  0x2f69	movzx  	eax, cl
  0x2f6c	sub    	edx, eax
  0x2f6e	jne    	0x2f7a
  === BLOCK LINK ===
    0x2f70
=== CODE BLOCK END ===

=== CODE BLOCK ADDRESS 0x2f70 ===
  0x2f70	movzx  	edx, byte ptr [ecx + 2]
  0x2f74	inc    	ecx
  0x2f75	movzx  	eax, ah
  0x2f78	sub    	edx, eax
  0x2f7a	dec    	ecx
  === BLOCK LINK ===
    0x2f7b
=== CODE BLOCK END ===

=== CODE BLOCK ADDRESS 0x2f7b ===
  0x2f7b	lea    	eax, [eax + 8]
  0x2f7e	dec    	eax
  0x2f7f	mov    	dword ptr [ebx + 0x90], eax
  0x2f85	dec    	dword ptr [ebx + 0x8c]
  0x2f8b	test   	edx, edx
  === BLOCK LINK ===
    0x2f8d
=== CODE BLOCK END ===

=== CODE BLOCK ADDRESS 0x2f8d ===
  0x2f8d	je     	0x300e
  === BLOCK LINK ===
    0x2f8f
=== CODE BLOCK END ===

=== CODE BLOCK ADDRESS 0x2f8f ===
  0x2f8f	dec    	eax
  0x2f90	mov    	dword ptr [ebx + 0x80], ecx
  0x2f96	inc    	esp
  0x2f97	cmp    	byte ptr [ecx + 1], cl
  0x2f9a	je     	0x2ff7
  === BLOCK LINK ===
    0x2f9c
=== CODE BLOCK END ===

=== CODE BLOCK ADDRESS 0x2f9c ===
  0x2f9c	dec    	eax
  0x2f9d	lea    	eax, [ecx + 1]
  0x2fa0	mov    	dword ptr [ebx + 0x78], 3
  0x2fa7	dec    	eax
  0x2fa8	mov    	dword ptr [ebx + 0x80], eax
  === BLOCK LINK ===
    0x2fae
=== CODE BLOCK END ===

=== CODE BLOCK ADDRESS 0x2fae ===
  0x2fae	mov    	eax, 3
  0x2fb3	cmp    	eax, 3
  0x2fb6	jne    	0x3091
  === BLOCK LINK ===
    0x2fbc
=== CODE BLOCK END ===

=== CODE BLOCK ADDRESS 0x2fbc ===
  0x2fbc	dec    	eax
  0x2fbd	mov    	eax, dword ptr [ebx + 0x80]
  0x2fc3	movsx  	edi, byte ptr [eax]
  0x2fc6	dec    	eax
  0x2fc7	inc    	eax
  === BLOCK LINK ===
    0x2fc9
=== CODE BLOCK END ===

=== CODE BLOCK ADDRESS 0x2fc9 ===
  0x2fc9	dec    	eax
  0x2fca	mov    	dword ptr [ebx + 0x80], eax
  0x2fd0	test   	edi, edi
  0x2fd2	jne    	0x3016
  === BLOCK LINK ===
    0x2fd4
=== CODE BLOCK END ===

=== CODE BLOCK ADDRESS 0x2fd4 ===
  0x2fd4	mov    	dword ptr [ebx + 0x78], esi
  0x2fd7	mov    	eax, esi
  0x2fd9	jmp    	0x2e59
  === BLOCK LINK ===
    0x2fde
=== CODE BLOCK END ===

=== CODE BLOCK ADDRESS 0x2fde ===
  0x2fde	dec    	eax
  0x2fdf	lea    	edx, [0x8303]
  0x2fe5	inc    	esp
  0x2fe6	mov    	eax, edi
  0x2fe8	xor    	ecx, ecx
  === BLOCK LINK ===
    0x2fea
=== CODE BLOCK END ===

=== CODE BLOCK ADDRESS 0x2fea ===
  0x2fea	call   	0x6c14
  === BLOCK LINK ===
    0x2fef
=== CODE BLOCK END ===

=== CODE BLOCK ADDRESS 0x2fef ===
  0x2fef	inc    	ecx
  0x2ff0	mov    	eax, ebp
  0x2ff2	jmp    	0x31fe
  === BLOCK LINK ===
    0x2ff7
=== CODE BLOCK END ===

=== CODE BLOCK ADDRESS 0x2ff7 ===
  0x2ff7	dec    	eax
  0x2ff8	lea    	eax, [ecx + 2]
  0x2ffb	mov    	dword ptr [ebx + 0x78], 4
  0x3002	dec    	eax
  0x3003	mov    	dword ptr [ebx + 0x80], eax
  === BLOCK LINK ===
    0x3009
=== CODE BLOCK END ===

=== CODE BLOCK ADDRESS 0x3009 ===
  0x3009	jmp    	0x3091
  === BLOCK LINK ===
    0x300e
=== CODE BLOCK END ===

=== CODE BLOCK ADDRESS 0x300e ===
  0x300e	or     	eax, 0xffffffff
  0x3011	jmp    	0x31fe
  === BLOCK LINK ===
    0x3016
=== CODE BLOCK END ===

=== CODE BLOCK ADDRESS 0x3016 ===
  0x3016	mov    	edx, edi
  0x3018	dec    	eax
  0x3019	lea    	ecx, [0x7db1]
  0x301f	dec    	eax
  0x3020	call   	dword ptr [0x6d1a]
  === BLOCK LINK ===
    0x3026
=== CODE BLOCK END ===

=== CODE BLOCK ADDRESS 0x3026 ===
  0x3026	nop    	dword ptr [eax + eax]
  0x302b	dec    	eax
  0x302c	test   	eax, eax
  0x302e	je     	0x2fef
  === BLOCK LINK ===
    0x3030
=== CODE BLOCK END ===

=== CODE BLOCK ADDRESS 0x3030 ===
  0x3030	cmp    	byte ptr [eax + 1], 0x3a
  0x3034	jne    	0x3091
  === BLOCK LINK ===
    0x3036
=== CODE BLOCK END ===

=== CODE BLOCK ADDRESS 0x3036 ===
  0x3036	dec    	eax
  0x3037	mov    	ecx, dword ptr [ebx + 0x80]
  0x303d	inc    	esp
  0x303e	cmp    	byte ptr [ecx], ah
  0x3040	jne    	0x3072
  === BLOCK LINK ===
    0x3042
=== CODE BLOCK END ===

=== CODE BLOCK ADDRESS 0x3042 ===
  0x3042	dec    	eax
  0x3043	mov    	eax, dword ptr [ebx + 0x90]
  0x3049	dec    	eax
  0x304a	mov    	ecx, dword ptr [eax]
  0x304c	dec    	eax
  === BLOCK LINK ===
    0x304d
=== CODE BLOCK END ===

=== CODE BLOCK ADDRESS 0x304d ===
  0x304d	mov    	dword ptr [ebx + 0x80], ecx
  0x3053	dec    	eax
  0x3054	test   	ecx, ecx
  0x3056	jne    	0x3061
  === BLOCK LINK ===
    0x3058
=== CODE BLOCK END ===

=== CODE BLOCK ADDRESS 0x3058 ===
  0x3058	dec    	eax
  0x3059	lea    	edx, [0x82a9]
  0x305f	jmp    	0x2fe5
  === BLOCK LINK ===
    0x3061
=== CODE BLOCK END ===

=== CODE BLOCK ADDRESS 0x3061 ===
  0x3061	dec    	eax
  0x3062	add    	eax, 8
  0x3065	dec    	dword ptr [ebx + 0x8c]
  0x306b	dec    	eax
  0x306c	mov    	dword ptr [ebx + 0x90], eax
  === BLOCK LINK ===
    0x3072
=== CODE BLOCK END ===

=== CODE BLOCK ADDRESS 0x3072 ===
  0x3072	cmp    	edi, 0x57
  0x3075	jne    	0x3087
  === BLOCK LINK ===
    0x3077
=== CODE BLOCK END ===

=== CODE BLOCK ADDRESS 0x3077 ===
  0x3077	mov    	dword ptr [ebx + 0x78], 4
  0x307e	dec    	eax
  0x307f	lea    	ebp, [0x82a3]
  0x3085	jmp    	0x3091
  === BLOCK LINK ===
    0x3087
=== CODE BLOCK END ===

=== CODE BLOCK ADDRESS 0x3087 ===
  0x3087	mov    	dword ptr [ebx + 0x78], esi
  0x308a	dec    	eax
  0x308b	mov    	dword ptr [ebx + 0x98], ecx
  0x3091	cmp    	dword ptr [ebx + 0x78], 4
  0x3095	jne    	0x31fc
  === BLOCK LINK ===
    0x309b
=== CODE BLOCK END ===

=== CODE BLOCK ADDRESS 0x309b ===
  0x309b	dec    	eax
  0x309c	mov    	ecx, dword ptr [ebx + 0x80]
  0x30a2	mov    	edx, 0x3d
  0x30a7	mov    	dword ptr [ebx + 0x78], esi
  0x30aa	dec    	eax
  === BLOCK LINK ===
    0x30ab
=== CODE BLOCK END ===

=== CODE BLOCK ADDRESS 0x30ab ===
  0x30ab	call   	dword ptr [0x6c8f]
  === BLOCK LINK ===
    0x30b1
=== CODE BLOCK END ===

=== CODE BLOCK ADDRESS 0x30b1 ===
  0x30b1	nop    	dword ptr [eax + eax]
  0x30b6	dec    	eax
  0x30b7	test   	eax, eax
  0x30b9	je     	0x30d1
  === BLOCK LINK ===
    0x30bb
=== CODE BLOCK END ===

=== CODE BLOCK ADDRESS 0x30bb ===
  0x30bb	dec    	eax
  0x30bc	mov    	edi, eax
  0x30be	dec    	eax
  0x30bf	sub    	edi, dword ptr [ebx + 0x80]
  0x30c5	dec    	eax
  === BLOCK LINK ===
    0x30c6
=== CODE BLOCK END ===

=== CODE BLOCK ADDRESS 0x30c6 ===
  0x30c6	inc    	eax
  0x30c8	dec    	eax
  0x30c9	mov    	dword ptr [ebx + 0x98], eax
  0x30cf	jmp    	0x30e5
  === BLOCK LINK ===
    0x30d1
=== CODE BLOCK END ===

=== CODE BLOCK ADDRESS 0x30d1 ===
  0x30d1	dec    	eax
  0x30d2	mov    	eax, dword ptr [ebx + 0x80]
  0x30d8	dec    	eax
  0x30d9	or     	edi, 0xffffffff
  0x30dc	dec    	eax
  === BLOCK LINK ===
    0x30dd
=== CODE BLOCK END ===

=== CODE BLOCK ADDRESS 0x30dd ===
  0x30dd	inc    	edi
  0x30df	inc    	esp
  0x30e0	cmp    	byte ptr [eax + edi], ah
  0x30e3	jne    	0x30dc
  === BLOCK LINK ===
    0x30e5
=== CODE BLOCK END ===

=== CODE BLOCK ADDRESS 0x30e5 ===
  0x30e5	dec    	eax
  0x30e6	mov    	edx, dword ptr [0x5fd4]
  0x30ec	dec    	eax
  0x30ed	lea    	esi, [0x5fcd]
  0x30f3	dec    	eax
  === BLOCK LINK ===
    0x30f4
=== CODE BLOCK END ===

=== CODE BLOCK ADDRESS 0x30f4 ===
  0x30f4	test   	edx, edx
  0x30f6	je     	0x31df
  === BLOCK LINK ===
    0x30fc
=== CODE BLOCK END ===

=== CODE BLOCK ADDRESS 0x30fc ===
  0x30fc	dec    	eax
  0x30fd	mov    	ecx, dword ptr [ebx + 0x80]
  0x3103	mov    	al, byte ptr [ecx]
  0x3105	cmp    	byte ptr [edx], al
  0x3107	jne    	0x3137
  === BLOCK LINK ===
    0x3109
=== CODE BLOCK END ===

=== CODE BLOCK ADDRESS 0x3109 ===
  0x3109	dec    	esp
  0x310a	mov    	eax, edi
  0x310c	dec    	eax
  0x310d	call   	dword ptr [0x6ca5]
  === BLOCK LINK ===
    0x3113
=== CODE BLOCK END ===

=== CODE BLOCK ADDRESS 0x3113 ===
  0x3113	nop    	dword ptr [eax + eax]
  0x3118	test   	eax, eax
  0x311a	jne    	0x3137
  === BLOCK LINK ===
    0x311c
=== CODE BLOCK END ===

=== CODE BLOCK ADDRESS 0x311c ===
  0x311c	dec    	eax
  0x311d	mov    	ecx, dword ptr [esi]
  0x311f	dec    	ebp
  0x3120	mov    	edi, esi
  0x3122	dec    	esp
  === BLOCK LINK ===
    0x3123
=== CODE BLOCK END ===

=== CODE BLOCK ADDRESS 0x3123 ===
  0x3123	mov    	esi, esi
  0x3125	dec    	eax
  0x3126	or     	eax, 0xffffffff
  0x3129	dec    	eax
  0x312a	inc    	eax
  === BLOCK LINK ===
    0x312c
=== CODE BLOCK END ===

=== CODE BLOCK ADDRESS 0x312c ===
  0x312c	inc    	esp
  0x312d	cmp    	byte ptr [ecx + eax], ah
  0x3130	jne    	0x3129
  === BLOCK LINK ===
    0x3132
=== CODE BLOCK END ===

=== CODE BLOCK ADDRESS 0x3132 ===
  0x3132	dec    	eax
  0x3133	cmp    	eax, edi
  0x3135	je     	0x3145
  === BLOCK LINK ===
    0x3137
=== CODE BLOCK END ===

=== CODE BLOCK ADDRESS 0x3137 ===
  0x3137	dec    	eax
  0x3138	add    	esi, 0x10
  0x313b	dec    	eax
  0x313c	mov    	edx, dword ptr [esi]
  0x313e	dec    	eax
  === BLOCK LINK ===
    0x313f
=== CODE BLOCK END ===

=== CODE BLOCK ADDRESS 0x313f ===
  0x313f	test   	edx, edx
  0x3141	je     	0x3148
  === BLOCK LINK ===
    0x3143
=== CODE BLOCK END ===

=== CODE BLOCK ADDRESS 0x3143 ===
  0x3143	jmp    	0x30fc
  === BLOCK LINK ===
    0x3145
=== CODE BLOCK END ===

=== CODE BLOCK ADDRESS 0x3145 ===
  0x3145	dec    	ebp
  0x3146	mov    	edi, esp
  0x3148	dec    	ebp
  0x3149	test   	esi, esi
  0x314b	je     	0x31df
  === BLOCK LINK ===
    0x3151
=== CODE BLOCK END ===

=== CODE BLOCK ADDRESS 0x3151 ===
  0x3151	dec    	ebp
  0x3152	test   	edi, edi
  0x3154	je     	0x3183
  === BLOCK LINK ===
    0x3156
=== CODE BLOCK END ===

=== CODE BLOCK ADDRESS 0x3156 ===
  0x3156	dec    	ecx
  0x3157	mov    	eax, dword ptr [edi]
  0x3159	dec    	eax
  0x315a	lea    	edx, [0x81f0]
  0x3160	dec    	esp
  === BLOCK LINK ===
    0x3161
=== CODE BLOCK END ===

=== CODE BLOCK ADDRESS 0x3161 ===
  0x3161	mov    	ecx, dword ptr [ebx + 0x80]
  0x3167	dec    	esp
  0x3168	mov    	eax, ebp
  0x316a	dec    	eax
  0x316b	mov    	dword ptr [esp + 0x28], eax
  === BLOCK LINK ===
    0x316f
=== CODE BLOCK END ===

=== CODE BLOCK ADDRESS 0x316f ===
  0x316f	xor    	ecx, ecx
  0x3171	dec    	ecx
  0x3172	mov    	eax, dword ptr [esi]
  0x3174	dec    	eax
  0x3175	mov    	dword ptr [esp + 0x20], eax
  === BLOCK LINK ===
    0x3179
=== CODE BLOCK END ===

=== CODE BLOCK ADDRESS 0x3179 ===
  0x3179	call   	0x6c14
  === BLOCK LINK ===
    0x317e
=== CODE BLOCK END ===

=== CODE BLOCK ADDRESS 0x317e ===
  0x317e	jmp    	0x2fef
  === BLOCK LINK ===
    0x3183
=== CODE BLOCK END ===

=== CODE BLOCK ADDRESS 0x3183 ===
  0x3183	dec    	eax
  0x3184	mov    	eax, dword ptr [ebx + 0x98]
  0x318a	inc    	ebp
  0x318b	cmp    	dword ptr [esi + 8], esp
  0x318e	je     	0x31ce
  === BLOCK LINK ===
    0x3190
=== CODE BLOCK END ===

=== CODE BLOCK ADDRESS 0x3190 ===
  0x3190	dec    	eax
  0x3191	test   	eax, eax
  0x3193	jne    	0x31c8
  === BLOCK LINK ===
    0x3195
=== CODE BLOCK END ===

=== CODE BLOCK ADDRESS 0x3195 ===
  0x3195	dec    	eax
  0x3196	mov    	ecx, dword ptr [ebx + 0x90]
  0x319c	dec    	eax
  0x319d	mov    	eax, dword ptr [ecx]
  0x319f	dec    	eax
  === BLOCK LINK ===
    0x31a0
=== CODE BLOCK END ===

=== CODE BLOCK ADDRESS 0x31a0 ===
  0x31a0	mov    	dword ptr [ebx + 0x98], eax
  0x31a6	dec    	eax
  0x31a7	test   	eax, eax
  0x31a9	jne    	0x31b7
  === BLOCK LINK ===
    0x31ab
=== CODE BLOCK END ===

=== CODE BLOCK ADDRESS 0x31ab ===
  0x31ab	dec    	ebp
  0x31ac	mov    	ecx, dword ptr [esi]
  0x31ae	dec    	eax
  0x31af	lea    	edx, [0x81cb]
  0x31b5	jmp    	0x31ed
  === BLOCK LINK ===
    0x31b7
=== CODE BLOCK END ===

=== CODE BLOCK ADDRESS 0x31b7 ===
  0x31b7	dec    	dword ptr [ebx + 0x8c]
  0x31bd	dec    	eax
  0x31be	lea    	eax, [ecx + 8]
  0x31c1	dec    	eax
  0x31c2	mov    	dword ptr [ebx + 0x90], eax
  === BLOCK LINK ===
    0x31c8
=== CODE BLOCK END ===

=== CODE BLOCK ADDRESS 0x31c8 ===
  0x31c8	inc    	ecx
  0x31c9	mov    	eax, dword ptr [esi + 0xc]
  0x31cc	jmp    	0x31fe
  === BLOCK LINK ===
    0x31ce
=== CODE BLOCK END ===

=== CODE BLOCK ADDRESS 0x31ce ===
  0x31ce	dec    	eax
  0x31cf	test   	eax, eax
  0x31d1	je     	0x31c8
  === BLOCK LINK ===
    0x31d3
=== CODE BLOCK END ===

=== CODE BLOCK ADDRESS 0x31d3 ===
  0x31d3	dec    	ebp
  0x31d4	mov    	ecx, dword ptr [esi]
  0x31d6	dec    	eax
  0x31d7	lea    	edx, [0x81cb]
  0x31dd	jmp    	0x31ed
  === BLOCK LINK ===
    0x31df
=== CODE BLOCK END ===

=== CODE BLOCK ADDRESS 0x31df ===
  0x31df	dec    	esp
  0x31e0	mov    	ecx, dword ptr [ebx + 0x80]
  0x31e6	dec    	eax
  0x31e7	lea    	edx, [0x8143]
  0x31ed	dec    	esp
  === BLOCK LINK ===
    0x31ee
=== CODE BLOCK END ===

=== CODE BLOCK ADDRESS 0x31ee ===
  0x31ee	mov    	eax, ebp
  0x31f0	xor    	ecx, ecx
  0x31f2	call   	0x6c14
  === BLOCK LINK ===
    0x31f7
=== CODE BLOCK END ===

=== CODE BLOCK ADDRESS 0x31f7 ===
  0x31f7	jmp    	0x2fef
  === BLOCK LINK ===
    0x31fc
=== CODE BLOCK END ===

=== CODE BLOCK ADDRESS 0x31fc ===
  0x31fc	mov    	eax, edi
  0x31fe	dec    	eax
  0x31ff	mov    	ebx, dword ptr [esp + 0x60]
  0x3203	dec    	eax
  0x3204	mov    	ebp, dword ptr [esp + 0x68]
  === BLOCK LINK ===
    0x3208
=== CODE BLOCK END ===

=== CODE BLOCK ADDRESS 0x3208 ===
  0x3208	dec    	eax
  0x3209	mov    	esi, dword ptr [esp + 0x70]
  0x320d	dec    	eax
  0x320e	add    	esp, 0x30
  0x3211	inc    	ecx
  === BLOCK LINK ===
    0x3212
=== CODE BLOCK END ===

=== CODE BLOCK ADDRESS 0x3212 ===
  0x3212	pop    	edi
  0x3213	inc    	ecx
  0x3214	pop    	esi
  0x3215	inc    	ecx
  0x3216	pop    	ebp
  === BLOCK LINK ===
    0x3217
=== CODE BLOCK END ===

=== CODE BLOCK ADDRESS 0x3217 ===
  0x3217	inc    	ecx
  0x3218	pop    	esp
  0x3219	pop    	edi
  0x321a	ret    	
  0x321b	int3   	
  === BLOCK LINK ===
    0x321c
=== CODE BLOCK END ===

=== CODE BLOCK ADDRESS 0x6c14 ===
=== CODE BLOCK END ===

=== CODE BLOCK ADDRESS 0x321c ===
  0x321c	int3   	
  0x321d	int3   	
  0x321e	int3   	
  0x321f	int3   	
  0x3220	int3   	
  === BLOCK LINK ===
    0x3221
=== CODE BLOCK END ===

=== CODE BLOCK ADDRESS 0x3221 ===
  0x3221	int3   	
  0x3222	int3   	
  0x3223	int3   	
  0x3224	dec    	eax
  0x3225	mov    	dword ptr [esp + 8], ebx
  === BLOCK LINK ===
    0x3229
=== CODE BLOCK END ===

=== CODE BLOCK ADDRESS 0x3229 ===
  0x3229	dec    	eax
  0x322a	mov    	eax, dword ptr [ecx]
  0x322c	inc    	ebp
  0x322d	xor    	eax, eax
  0x322f	dec    	eax
  === BLOCK LINK ===
    0x3230
=== CODE BLOCK END ===

=== CODE BLOCK ADDRESS 0x3230 ===
  0x3230	mov    	ebx, edx
  0x3232	dec    	eax
  0x3233	test   	eax, eax
  0x3235	je     	0x326e
  === BLOCK LINK ===
    0x3237
=== CODE BLOCK END ===

=== CODE BLOCK ADDRESS 0x3237 ===
  0x3237	inc    	ebp
  0x3238	xor    	ecx, ecx
  0x323a	dec    	esp
  0x323b	mov    	ebx, ebx
  0x323d	dec    	esp
  === BLOCK LINK ===
    0x323e
=== CODE BLOCK END ===

=== CODE BLOCK ADDRESS 0x323e ===
  0x323e	sub    	ebx, eax
  0x3240	movzx  	edx, byte ptr [eax]
  0x3243	inc    	esi
  0x3244	movzx  	edx, byte ptr [eax + ebx]
  0x3248	inc    	ecx
  === BLOCK LINK ===
    0x3249
=== CODE BLOCK END ===

=== CODE BLOCK ADDRESS 0x3249 ===
  0x3249	sub    	edx, edx
  0x324b	jne    	0x3255
  === BLOCK LINK ===
    0x324d
=== CODE BLOCK END ===

=== CODE BLOCK ADDRESS 0x324d ===
  0x324d	dec    	eax
  0x324e	inc    	eax
  0x3250	inc    	ebp
  0x3251	test   	edx, edx
  0x3253	jne    	0x3240
  === BLOCK LINK ===
    0x3255
=== CODE BLOCK END ===

=== CODE BLOCK ADDRESS 0x3255 ===
  0x3255	test   	edx, edx
  0x3257	je     	0x3277
  === BLOCK LINK ===
    0x3259
=== CODE BLOCK END ===

=== CODE BLOCK ADDRESS 0x3259 ===
  0x3259	dec    	ecx
  0x325a	inc    	ecx
  0x325c	inc    	ecx
  0x325d	inc    	eax
  0x325f	dec    	ecx
  === BLOCK LINK ===
    0x3260
=== CODE BLOCK END ===

=== CODE BLOCK ADDRESS 0x3260 ===
  0x3260	mov    	eax, ecx
  0x3262	dec    	eax
  0x3263	add    	eax, eax
  0x3265	dec    	eax
  0x3266	mov    	eax, dword ptr [ecx + eax*8]
  === BLOCK LINK ===
    0x3269
=== CODE BLOCK END ===

=== CODE BLOCK ADDRESS 0x3269 ===
  0x3269	dec    	eax
  0x326a	test   	eax, eax
  0x326c	jne    	0x323a
  === BLOCK LINK ===
    0x326e
=== CODE BLOCK END ===

=== CODE BLOCK ADDRESS 0x326e ===
  0x326e	xor    	eax, eax
  0x3270	dec    	eax
  0x3271	mov    	ebx, dword ptr [esp + 8]
  0x3275	ret    	
  0x3276	int3   	
  === BLOCK LINK ===
    0x3277
=== CODE BLOCK END ===

=== CODE BLOCK ADDRESS 0x2234 ===
  0x2234	dec    	eax
  0x2235	call   	dword ptr [0x79ad]
  === BLOCK LINK ===
    0x223b
=== CODE BLOCK END ===

=== CODE BLOCK ADDRESS 0x3277 ===
  0x3277	dec    	ecx
  0x3278	arpl   	ax, ax
  0x327a	dec    	eax
  0x327b	add    	eax, eax
  0x327d	dec    	eax
  === BLOCK LINK ===
    0x327e
=== CODE BLOCK END ===

=== CODE BLOCK ADDRESS 0x327e ===
  0x327e	mov    	eax, dword ptr [ecx + eax*8 + 8]
  0x3282	jmp    	0x3270
  === BLOCK LINK ===
    0x3284
=== CODE BLOCK END ===

=== CODE BLOCK ADDRESS 0x3284 ===
  0x3284	int3   	
  0x3285	int3   	
  0x3286	int3   	
  0x3287	int3   	
  0x3288	int3   	
  === BLOCK LINK ===
    0x3289
=== CODE BLOCK END ===

=== CODE BLOCK ADDRESS 0x3289 ===
  0x3289	int3   	
  0x328a	int3   	
  0x328b	int3   	
  0x328c	dec    	eax
  0x328d	mov    	dword ptr [esp + 8], ebx
  === BLOCK LINK ===
    0x3291
=== CODE BLOCK END ===

=== CODE BLOCK ADDRESS 0x3291 ===
  0x3291	dec    	eax
  0x3292	mov    	dword ptr [esp + 0x10], ebp
  0x3296	dec    	eax
  0x3297	mov    	dword ptr [esp + 0x18], esi
  0x329b	push   	edi
  === BLOCK LINK ===
    0x329c
=== CODE BLOCK END ===

=== CODE BLOCK ADDRESS 0x329c ===
  0x329c	dec    	eax
  0x329d	sub    	esp, 0x20
  0x32a0	mov    	ebp, edx
  0x32a2	dec    	eax
  0x32a3	mov    	ebx, ecx
  === BLOCK LINK ===
    0x32a5
=== CODE BLOCK END ===

=== CODE BLOCK ADDRESS 0x32a5 ===
  0x32a5	dec    	eax
  0x32a6	arpl   	word ptr [ecx + 0x10], dx
  0x32a9	dec    	ecx
  0x32aa	mov    	esi, eax
  0x32ac	dec    	eax
  === BLOCK LINK ===
    0x32ad
=== CODE BLOCK END ===

=== CODE BLOCK ADDRESS 0x32ad ===
  0x32ad	mov    	ecx, dword ptr [ecx + 8]
  0x32b0	dec    	eax
  0x32b1	inc    	edx
  0x32b3	dec    	eax
  0x32b4	shl    	edx, 4
  === BLOCK LINK ===
    0x32b7
=== CODE BLOCK END ===

=== CODE BLOCK ADDRESS 0x32b7 ===
  0x32b7	dec    	eax
  0x32b8	call   	dword ptr [0x6a3a]
  === BLOCK LINK ===
    0x32be
=== CODE BLOCK END ===

=== CODE BLOCK ADDRESS 0x32be ===
  0x32be	nop    	dword ptr [eax + eax]
  0x32c3	dec    	eax
  0x32c4	mov    	edi, eax
  0x32c6	dec    	eax
  0x32c7	test   	eax, eax
  === BLOCK LINK ===
    0x32c9
=== CODE BLOCK END ===

=== CODE BLOCK ADDRESS 0x32c9 ===
  0x32c9	je     	0x3316
  === BLOCK LINK ===
    0x32cb
=== CODE BLOCK END ===

=== CODE BLOCK ADDRESS 0x32cb ===
  0x32cb	dec    	eax
  0x32cc	mov    	ecx, esi
  0x32ce	dec    	eax
  0x32cf	call   	dword ptr [0x698b]
  === BLOCK LINK ===
    0x32d5
=== CODE BLOCK END ===

=== CODE BLOCK ADDRESS 0x32d5 ===
  0x32d5	nop    	dword ptr [eax + eax]
  0x32da	dec    	eax
  0x32db	test   	eax, eax
  0x32dd	je     	0x3316
  === BLOCK LINK ===
    0x32df
=== CODE BLOCK END ===

=== CODE BLOCK ADDRESS 0x32df ===
  0x32df	dec    	eax
  0x32e0	arpl   	word ptr [ebx + 0x10], cx
  0x32e3	dec    	eax
  0x32e4	mov    	esi, dword ptr [esp + 0x40]
  0x32e8	dec    	eax
  === BLOCK LINK ===
    0x32e9
=== CODE BLOCK END ===

=== CODE BLOCK ADDRESS 0x32e9 ===
  0x32e9	add    	ecx, ecx
  0x32eb	dec    	eax
  0x32ec	mov    	dword ptr [ebx + 8], edi
  0x32ef	mov    	dword ptr [edi + ecx*8], ebp
  0x32f2	dec    	eax
  === BLOCK LINK ===
    0x32f3
=== CODE BLOCK END ===

=== CODE BLOCK ADDRESS 0x32f3 ===
  0x32f3	arpl   	word ptr [ebx + 0x10], dx
  0x32f6	dec    	eax
  0x32f7	mov    	ecx, dword ptr [ebx + 8]
  0x32fa	dec    	eax
  0x32fb	add    	edx, edx
  === BLOCK LINK ===
    0x32fd
=== CODE BLOCK END ===

=== CODE BLOCK ADDRESS 0x32fd ===
  0x32fd	dec    	eax
  0x32fe	mov    	ebp, dword ptr [esp + 0x38]
  0x3302	dec    	eax
  0x3303	mov    	dword ptr [ecx + edx*8 + 8], eax
  0x3307	inc    	dword ptr [ebx + 0x10]
  === BLOCK LINK ===
    0x330a
=== CODE BLOCK END ===

=== CODE BLOCK ADDRESS 0x330a ===
  0x330a	dec    	eax
  0x330b	mov    	ebx, dword ptr [esp + 0x30]
  0x330f	dec    	eax
  0x3310	add    	esp, 0x20
  0x3313	pop    	edi
  === BLOCK LINK ===
    0x3314
=== CODE BLOCK END ===

=== CODE BLOCK ADDRESS 0x3314 ===
  0x3314	ret    	
  0x3315	int3   	
  0x3316	xor    	edx, edx
  0x3318	dec    	esp
  0x3319	lea    	eax, [0x8239]
  === BLOCK LINK ===
    0x331f
=== CODE BLOCK END ===

=== CODE BLOCK ADDRESS 0x2254 ===
  0x2254	dec    	eax
  0x2255	call   	dword ptr [0x798d]
  === BLOCK LINK ===
    0x225b
=== CODE BLOCK END ===

=== CODE BLOCK ADDRESS 0x331f ===
  0x331f	lea    	ecx, [edx + 1]
  0x3322	call   	0x6c3c
  === BLOCK LINK ===
    0x3327
=== CODE BLOCK END ===

=== CODE BLOCK ADDRESS 0x3327 ===
  0x3327	int3   	
  0x3328	int3   	
  0x3329	int3   	
  0x332a	int3   	
  0x332b	int3   	
  === BLOCK LINK ===
    0x332c
=== CODE BLOCK END ===

=== CODE BLOCK ADDRESS 0x332c ===
  0x332c	int3   	
  0x332d	int3   	
  0x332e	int3   	
  0x332f	int3   	
  0x3330	dec    	eax
  === BLOCK LINK ===
    0x3331
=== CODE BLOCK END ===

=== CODE BLOCK ADDRESS 0x3331 ===
  0x3331	mov    	dword ptr [esp + 8], ebx
  0x3335	push   	edi
  0x3336	dec    	eax
  0x3337	sub    	esp, 0x20
  0x333a	dec    	eax
  === BLOCK LINK ===
    0x333b
=== CODE BLOCK END ===

=== CODE BLOCK ADDRESS 0x333b ===
  0x333b	mov    	ebx, ecx
  0x333d	dec    	eax
  0x333e	mov    	ecx, edx
  0x3340	dec    	eax
  0x3341	call   	dword ptr [0x6919]
  === BLOCK LINK ===
    0x3347
=== CODE BLOCK END ===

=== CODE BLOCK ADDRESS 0x3347 ===
  0x3347	nop    	dword ptr [eax + eax]
  0x334c	dec    	eax
  0x334d	mov    	edi, eax
  0x334f	dec    	eax
  0x3350	test   	eax, eax
  === BLOCK LINK ===
    0x3352
=== CODE BLOCK END ===

=== CODE BLOCK ADDRESS 0x3352 ===
  0x3352	je     	0x3372
  === BLOCK LINK ===
    0x3354
=== CODE BLOCK END ===

=== CODE BLOCK ADDRESS 0x3354 ===
  0x3354	dec    	eax
  0x3355	mov    	ecx, dword ptr [ebx]
  0x3357	dec    	eax
  0x3358	call   	dword ptr [0x695a]
  === BLOCK LINK ===
    0x335e
=== CODE BLOCK END ===

=== CODE BLOCK ADDRESS 0x335e ===
  0x335e	nop    	dword ptr [eax + eax]
  0x3363	dec    	eax
  0x3364	mov    	dword ptr [ebx], edi
  0x3366	dec    	eax
  0x3367	mov    	ebx, dword ptr [esp + 0x30]
  === BLOCK LINK ===
    0x336b
=== CODE BLOCK END ===

=== CODE BLOCK ADDRESS 0x336b ===
  0x336b	dec    	eax
  0x336c	add    	esp, 0x20
  0x336f	pop    	edi
  0x3370	ret    	
  0x3371	int3   	
  === BLOCK LINK ===
    0x3372
=== CODE BLOCK END ===

=== CODE BLOCK ADDRESS 0x2e18 ===
  0x2e18	dec    	eax
  0x2e19	mov    	dword ptr [esp + 8], ebx
  0x2e1d	dec    	eax
  0x2e1e	mov    	dword ptr [esp + 0x10], ebp
  === BLOCK LINK ===
    0x2e22
=== CODE BLOCK END ===

=== CODE BLOCK ADDRESS 0x3372 ===
  0x3372	xor    	edx, edx
  0x3374	dec    	esp
  0x3375	lea    	eax, [0x81dd]
  0x337b	lea    	ecx, [edx + 1]
  0x337e	call   	0x6c3c
  === BLOCK LINK ===
    0x3383
=== CODE BLOCK END ===

=== CODE BLOCK ADDRESS 0x3383 ===
  0x3383	int3   	
  0x3384	int3   	
  0x3385	int3   	
  0x3386	int3   	
  0x3387	int3   	
  === BLOCK LINK ===
    0x3388
=== CODE BLOCK END ===

=== CODE BLOCK ADDRESS 0x3388 ===
  0x3388	int3   	
  0x3389	int3   	
  0x338a	int3   	
  0x338b	int3   	
  0x338c	dec    	eax
  === BLOCK LINK ===
    0x338d
=== CODE BLOCK END ===

=== CODE BLOCK ADDRESS 0x338d ===
  0x338d	mov    	eax, dword ptr [ecx]
  0x338f	ret    	
  0x3390	int3   	
  0x3391	int3   	
  0x3392	int3   	
  === BLOCK LINK ===
    0x3393
=== CODE BLOCK END ===

=== CODE BLOCK ADDRESS 0x3393 ===
  0x3393	int3   	
  0x3394	int3   	
  0x3395	int3   	
  0x3396	int3   	
  0x3397	int3   	
  === BLOCK LINK ===
    0x3398
=== CODE BLOCK END ===

=== CODE BLOCK ADDRESS 0x3398 ===
  0x3398	dec    	eax
  0x3399	mov    	dword ptr [esp + 8], ebx
  0x339d	dec    	eax
  0x339e	mov    	dword ptr [esp + 0x10], esi
  0x33a2	push   	edi
  === BLOCK LINK ===
    0x33a3
=== CODE BLOCK END ===

=== CODE BLOCK ADDRESS 0x33a3 ===
  0x33a3	dec    	eax
  0x33a4	sub    	esp, 0x20
  0x33a7	dec    	eax
  0x33a8	arpl   	dx, di
  0x33aa	dec    	eax
  === BLOCK LINK ===
    0x33ab
=== CODE BLOCK END ===

=== CODE BLOCK ADDRESS 0x33ab ===
  0x33ab	mov    	esi, ecx
  0x33ad	test   	edx, edx
  0x33af	jle    	0x33ce
  === BLOCK LINK ===
    0x33b1
=== CODE BLOCK END ===

=== CODE BLOCK ADDRESS 0x33b1 ===
  0x33b1	dec    	eax
  0x33b2	lea    	ebx, [ecx + 8]
  0x33b5	dec    	eax
  0x33b6	mov    	ecx, dword ptr [ebx]
  0x33b8	dec    	eax
  === BLOCK LINK ===
    0x33b9
=== CODE BLOCK END ===

=== CODE BLOCK ADDRESS 0x33b9 ===
  0x33b9	call   	dword ptr [0x68f9]
  === BLOCK LINK ===
    0x33bf
=== CODE BLOCK END ===

=== CODE BLOCK ADDRESS 0x33bf ===
  0x33bf	nop    	dword ptr [eax + eax]
  0x33c4	dec    	eax
  0x33c5	lea    	ebx, [ebx + 0x10]
  0x33c8	dec    	eax
  0x33c9	sub    	edi, 1
  === BLOCK LINK ===
    0x33cc
=== CODE BLOCK END ===

=== CODE BLOCK ADDRESS 0x33cc ===
  0x33cc	jne    	0x33b5
  === BLOCK LINK ===
    0x33ce
=== CODE BLOCK END ===

=== CODE BLOCK ADDRESS 0x33ce ===
  0x33ce	dec    	eax
  0x33cf	mov    	ecx, esi
  0x33d1	dec    	eax
  0x33d2	mov    	ebx, dword ptr [esp + 0x30]
  0x33d6	dec    	eax
  === BLOCK LINK ===
    0x33d7
=== CODE BLOCK END ===

=== CODE BLOCK ADDRESS 0x33d7 ===
  0x33d7	mov    	esi, dword ptr [esp + 0x38]
  0x33db	dec    	eax
  0x33dc	add    	esp, 0x20
  0x33df	pop    	edi
  0x33e0	dec    	eax
  === BLOCK LINK ===
    0x33e1
=== CODE BLOCK END ===

=== CODE BLOCK ADDRESS 0x33e1 ===
  0x33e1	jmp    	dword ptr [0x68d1]
  === BLOCK LINK ===
    0x33e7
=== CODE BLOCK END ===

=== CODE BLOCK ADDRESS 0x33e7 ===
  0x33e7	int3   	
  0x33e8	int3   	
  0x33e9	int3   	
  0x33ea	int3   	
  0x33eb	int3   	
  === BLOCK LINK ===
    0x33ec
=== CODE BLOCK END ===

=== CODE BLOCK ADDRESS 0x33ec ===
  0x33ec	int3   	
  0x33ed	int3   	
  0x33ee	int3   	
  0x33ef	int3   	
  0x33f0	int3   	
  === BLOCK LINK ===
    0x33f1
=== CODE BLOCK END ===

=== CODE BLOCK ADDRESS 0x33f1 ===
  0x33f1	int3   	
  0x33f2	int3   	
  0x33f3	int3   	
  0x33f4	dec    	eax
  0x33f5	mov    	dword ptr [esp + 8], ebx
  === BLOCK LINK ===
    0x33f9
=== CODE BLOCK END ===

=== CODE BLOCK ADDRESS 0x33f9 ===
  0x33f9	dec    	eax
  0x33fa	mov    	dword ptr [esp + 0x10], ebp
  0x33fe	dec    	eax
  0x33ff	mov    	dword ptr [esp + 0x18], esi
  0x3403	push   	edi
  === BLOCK LINK ===
    0x3404
=== CODE BLOCK END ===

=== CODE BLOCK ADDRESS 0x3404 ===
  0x3404	inc    	ecx
  0x3405	push   	esi
  0x3406	inc    	ecx
  0x3407	push   	edi
  0x3408	dec    	eax
  === BLOCK LINK ===
    0x3409
=== CODE BLOCK END ===

=== CODE BLOCK ADDRESS 0x3409 ===
  0x3409	sub    	esp, 0x20
  0x340c	dec    	eax
  0x340d	mov    	ebx, ecx
  0x340f	dec    	eax
  0x3410	mov    	ecx, edx
  === BLOCK LINK ===
    0x3412
=== CODE BLOCK END ===

=== CODE BLOCK ADDRESS 0x3412 ===
  0x3412	dec    	eax
  0x3413	call   	dword ptr [0x6847]
  === BLOCK LINK ===
    0x3419
=== CODE BLOCK END ===

=== CODE BLOCK ADDRESS 0x3419 ===
  0x3419	nop    	dword ptr [eax + eax]
  0x341e	dec    	eax
  0x341f	mov    	esi, eax
  0x3421	dec    	eax
  0x3422	test   	eax, eax
  === BLOCK LINK ===
    0x3424
=== CODE BLOCK END ===

=== CODE BLOCK ADDRESS 0x3424 ===
  0x3424	je     	0x35d7
  === BLOCK LINK ===
    0x342a
=== CODE BLOCK END ===

=== CODE BLOCK ADDRESS 0x342a ===
  0x342a	dec    	eax
  0x342b	mov    	ebp, dword ptr [ebx + 8]
  0x342e	dec    	eax
  0x342f	mov    	ecx, eax
  0x3431	dec    	eax
  === BLOCK LINK ===
    0x3432
=== CODE BLOCK END ===

=== CODE BLOCK ADDRESS 0x3432 ===
  0x3432	and    	dword ptr [ebx + 8], 0
  0x3436	inc    	esp
  0x3437	mov    	edi, dword ptr [ebx + 0x10]
  0x343a	and    	dword ptr [ebx + 0x10], 0
  0x343e	mov    	edx, 0x2e
  === BLOCK LINK ===
    0x3443
=== CODE BLOCK END ===

=== CODE BLOCK ADDRESS 0x3443 ===
  0x3443	dec    	eax
  0x3444	call   	dword ptr [0x68ee]
  === BLOCK LINK ===
    0x344a
=== CODE BLOCK END ===

=== CODE BLOCK ADDRESS 0x344a ===
  0x344a	nop    	dword ptr [eax + eax]
  0x344f	dec    	eax
  0x3450	mov    	edi, eax
  0x3452	dec    	eax
  0x3453	test   	eax, eax
  === BLOCK LINK ===
    0x3455
=== CODE BLOCK END ===

=== CODE BLOCK ADDRESS 0x3455 ===
  0x3455	je     	0x3526
  === BLOCK LINK ===
    0x345b
=== CODE BLOCK END ===

=== CODE BLOCK ADDRESS 0x345b ===
  0x345b	dec    	eax
  0x345c	test   	eax, eax
  0x345e	je     	0x3526
  === BLOCK LINK ===
    0x3464
=== CODE BLOCK END ===

=== CODE BLOCK ADDRESS 0x3464 ===
  0x3464	dec    	eax
  0x3465	mov    	edx, eax
  0x3467	dec    	eax
  0x3468	lea    	ecx, [0x62b2]
  0x346e	call   	0x3224
  === BLOCK LINK ===
    0x3473
=== CODE BLOCK END ===

=== CODE BLOCK ADDRESS 0x3473 ===
  0x3473	dec    	eax
  0x3474	test   	eax, eax
  0x3476	je     	0x348d
  === BLOCK LINK ===
    0x3478
=== CODE BLOCK END ===

=== CODE BLOCK ADDRESS 0x3478 ===
  0x3478	dec    	esp
  0x3479	mov    	eax, eax
  0x347b	xor    	edx, edx
  0x347d	dec    	eax
  0x347e	mov    	ecx, ebx
  === BLOCK LINK ===
    0x3480
=== CODE BLOCK END ===

=== CODE BLOCK ADDRESS 0x3480 ===
  0x3480	call   	0x328c
  === BLOCK LINK ===
    0x3485
=== CODE BLOCK END ===

=== CODE BLOCK ADDRESS 0x3485 ===
  0x3485	mov    	byte ptr [edi], 0
  0x3488	jmp    	0x3513
  === BLOCK LINK ===
    0x348d
=== CODE BLOCK END ===

=== CODE BLOCK ADDRESS 0x348d ===
  0x348d	dec    	eax
  0x348e	mov    	edx, edi
  0x3490	dec    	eax
  0x3491	lea    	ecx, [0x6419]
  0x3497	call   	0x3224
  === BLOCK LINK ===
    0x349c
=== CODE BLOCK END ===

=== CODE BLOCK ADDRESS 0x349c ===
  0x349c	dec    	eax
  0x349d	test   	eax, eax
  0x349f	jne    	0x351b
  === BLOCK LINK ===
    0x34a1
=== CODE BLOCK END ===

=== CODE BLOCK ADDRESS 0x34a1 ===
  0x34a1	dec    	eax
  0x34a2	mov    	edx, edi
  0x34a4	dec    	eax
  0x34a5	lea    	ecx, [0x6345]
  0x34ab	call   	0x3224
  === BLOCK LINK ===
    0x34b0
=== CODE BLOCK END ===

=== CODE BLOCK ADDRESS 0x34b0 ===
  0x34b0	dec    	esp
  0x34b1	mov    	esi, eax
  0x34b3	dec    	eax
  0x34b4	test   	eax, eax
  0x34b6	je     	0x3526
  === BLOCK LINK ===
    0x34b8
=== CODE BLOCK END ===

=== CODE BLOCK ADDRESS 0x34b8 ===
  0x34b8	mov    	byte ptr [edi], 0
  0x34bb	dec    	eax
  0x34bc	or     	ecx, 0xffffffff
  0x34bf	dec    	eax
  0x34c0	inc    	ecx
  === BLOCK LINK ===
    0x34c2
=== CODE BLOCK END ===

=== CODE BLOCK ADDRESS 0x34c2 ===
  0x34c2	cmp    	byte ptr [eax + ecx], 0
  0x34c6	jne    	0x34bf
  === BLOCK LINK ===
    0x34c8
=== CODE BLOCK END ===

=== CODE BLOCK ADDRESS 0x34c8 ===
  0x34c8	dec    	eax
  0x34c9	or     	eax, 0xffffffff
  0x34cc	dec    	eax
  0x34cd	inc    	eax
  0x34cf	cmp    	byte ptr [esi + eax], 0
  === BLOCK LINK ===
    0x34d3
=== CODE BLOCK END ===

=== CODE BLOCK ADDRESS 0x34d3 ===
  0x34d3	jne    	0x34cc
  === BLOCK LINK ===
    0x34d5
=== CODE BLOCK END ===

=== CODE BLOCK ADDRESS 0x34d5 ===
  0x34d5	dec    	eax
  0x34d6	lea    	edx, [eax + 1]
  0x34d9	dec    	eax
  0x34da	add    	edx, ecx
  0x34dc	dec    	eax
  === BLOCK LINK ===
    0x34dd
=== CODE BLOCK END ===

=== CODE BLOCK ADDRESS 0x34dd ===
  0x34dd	mov    	ecx, esi
  0x34df	dec    	eax
  0x34e0	call   	dword ptr [0x6812]
  === BLOCK LINK ===
    0x34e6
=== CODE BLOCK END ===

=== CODE BLOCK ADDRESS 0x34e6 ===
  0x34e6	nop    	dword ptr [eax + eax]
  0x34eb	dec    	eax
  0x34ec	mov    	esi, eax
  0x34ee	dec    	eax
  0x34ef	test   	eax, eax
  === BLOCK LINK ===
    0x34f1
=== CODE BLOCK END ===

=== CODE BLOCK ADDRESS 0x34f1 ===
  0x34f1	je     	0x35d7
  === BLOCK LINK ===
    0x34f7
=== CODE BLOCK END ===

=== CODE BLOCK ADDRESS 0x34f7 ===
  0x34f7	dec    	eax
  0x34f8	lea    	ecx, [eax - 1]
  0x34fb	dec    	eax
  0x34fc	inc    	ecx
  0x34fe	cmp    	byte ptr [ecx], 0
  === BLOCK LINK ===
    0x3501
=== CODE BLOCK END ===

=== CODE BLOCK ADDRESS 0x3501 ===
  0x3501	jne    	0x34fb
  === BLOCK LINK ===
    0x3503
=== CODE BLOCK END ===

=== CODE BLOCK ADDRESS 0x3503 ===
  0x3503	xor    	edx, edx
  0x3505	inc    	ecx
  0x3506	mov    	al, byte ptr [esi + edx]
  0x3509	mov    	byte ptr [ecx + edx], al
  0x350c	dec    	eax
  === BLOCK LINK ===
    0x350d
=== CODE BLOCK END ===

=== CODE BLOCK ADDRESS 0x350d ===
  0x350d	inc    	edx
  0x350f	test   	al, al
  0x3511	jne    	0x3505
  === BLOCK LINK ===
    0x3513
=== CODE BLOCK END ===

=== CODE BLOCK ADDRESS 0x3513 ===
  0x3513	dec    	eax
  0x3514	mov    	ecx, esi
  0x3516	jmp    	0x343e
  === BLOCK LINK ===
    0x351b
=== CODE BLOCK END ===

=== CODE BLOCK ADDRESS 0x351b ===
  0x351b	dec    	eax
  0x351c	mov    	edx, eax
  0x351e	dec    	eax
  0x351f	mov    	ecx, ebx
  0x3521	call   	0x3330
  === BLOCK LINK ===
    0x3526
=== CODE BLOCK END ===

=== CODE BLOCK ADDRESS 0x3526 ===
  0x3526	dec    	eax
  0x3527	mov    	ecx, esi
  0x3529	dec    	eax
  0x352a	call   	dword ptr [0x6788]
  === BLOCK LINK ===
    0x3530
=== CODE BLOCK END ===

=== CODE BLOCK ADDRESS 0x3530 ===
  0x3530	nop    	dword ptr [eax + eax]
  0x3535	dec    	eax
  0x3536	cmp    	dword ptr [ebx + 8], 0
  0x353a	je     	0x35cb
  === BLOCK LINK ===
    0x3540
=== CODE BLOCK END ===

=== CODE BLOCK ADDRESS 0x3540 ===
  0x3540	inc    	ecx
  0x3541	mov    	edx, edi
  0x3543	dec    	eax
  0x3544	mov    	ecx, ebp
  0x3546	call   	0x3398
  === BLOCK LINK ===
    0x354b
=== CODE BLOCK END ===

=== CODE BLOCK ADDRESS 0x354b ===
  0x354b	dec    	eax
  0x354c	arpl   	word ptr [ebx + 0x10], cx
  0x354f	dec    	eax
  0x3550	shl    	ecx, 4
  0x3553	dec    	eax
  === BLOCK LINK ===
    0x3554
=== CODE BLOCK END ===

=== CODE BLOCK ADDRESS 0x3554 ===
  0x3554	call   	dword ptr [0x6786]
  === BLOCK LINK ===
    0x355a
=== CODE BLOCK END ===

=== CODE BLOCK ADDRESS 0x355a ===
  0x355a	nop    	dword ptr [eax + eax]
  0x355f	dec    	eax
  0x3560	mov    	edi, eax
  0x3562	dec    	eax
  0x3563	test   	eax, eax
  === BLOCK LINK ===
    0x3565
=== CODE BLOCK END ===

=== CODE BLOCK ADDRESS 0x3565 ===
  0x3565	je     	0x35d7
  === BLOCK LINK ===
    0x3567
=== CODE BLOCK END ===

=== CODE BLOCK ADDRESS 0x3567 ===
  0x3567	dec    	eax
  0x3568	arpl   	word ptr [ebx + 0x10], dx
  0x356b	dec    	eax
  0x356c	test   	edx, edx
  0x356e	jle    	0x3598
  === BLOCK LINK ===
    0x3570
=== CODE BLOCK END ===

=== CODE BLOCK ADDRESS 0x3570 ===
  0x3570	dec    	esp
  0x3571	mov    	eax, edx
  0x3573	dec    	esp
  0x3574	mov    	ecx, eax
  0x3576	dec    	ecx
  === BLOCK LINK ===
    0x3577
=== CODE BLOCK END ===

=== CODE BLOCK ADDRESS 0x3577 ===
  0x3577	shl    	eax, 4
  0x357a	dec    	eax
  0x357b	mov    	ecx, dword ptr [ebx + 8]
  0x357e	dec    	ebp
  0x357f	lea    	eax, [eax - 0x10]
  === BLOCK LINK ===
    0x3582
=== CODE BLOCK END ===

=== CODE BLOCK ADDRESS 0x3582 ===
  0x3582	dec    	eax
  0x3583	dec    	edx
  0x3585	inc    	ecx
  0x3586	movups  	xmm0, xmmword ptr [eax + ecx]
  0x358a	inc    	ecx
  === BLOCK LINK ===
    0x358c
=== CODE BLOCK END ===

=== CODE BLOCK ADDRESS 0x358c ===
  0x358c	movq   	qword ptr [ecx], mm0
  0x358f	dec    	ebp
  0x3590	lea    	ecx, [ecx + 0x10]
  0x3593	dec    	eax
  0x3594	test   	edx, edx
  === BLOCK LINK ===
    0x3596
=== CODE BLOCK END ===

=== CODE BLOCK ADDRESS 0x3596 ===
  0x3596	jg     	0x357a
  === BLOCK LINK ===
    0x3598
=== CODE BLOCK END ===

=== CODE BLOCK ADDRESS 0x3598 ===
  0x3598	dec    	eax
  0x3599	mov    	ecx, dword ptr [ebx + 8]
  0x359c	dec    	eax
  0x359d	call   	dword ptr [0x6715]
  === BLOCK LINK ===
    0x35a3
=== CODE BLOCK END ===

=== CODE BLOCK ADDRESS 0x35a3 ===
  0x35a3	nop    	dword ptr [eax + eax]
  0x35a8	mov    	eax, 1
  0x35ad	dec    	eax
  0x35ae	mov    	dword ptr [ebx + 8], edi
  0x35b1	dec    	eax
  === BLOCK LINK ===
    0x35b2
=== CODE BLOCK END ===

=== CODE BLOCK ADDRESS 0x35b2 ===
  0x35b2	mov    	ebx, dword ptr [esp + 0x40]
  0x35b6	dec    	eax
  0x35b7	mov    	ebp, dword ptr [esp + 0x48]
  0x35bb	dec    	eax
  0x35bc	mov    	esi, dword ptr [esp + 0x50]
  === BLOCK LINK ===
    0x35c0
=== CODE BLOCK END ===

=== CODE BLOCK ADDRESS 0x35c0 ===
  0x35c0	dec    	eax
  0x35c1	add    	esp, 0x20
  0x35c4	inc    	ecx
  0x35c5	pop    	edi
  0x35c6	inc    	ecx
  === BLOCK LINK ===
    0x35c7
=== CODE BLOCK END ===

=== CODE BLOCK ADDRESS 0x35c7 ===
  0x35c7	pop    	esi
  0x35c8	pop    	edi
  0x35c9	ret    	
  0x35ca	int3   	
  0x35cb	dec    	eax
  === BLOCK LINK ===
    0x35cc
=== CODE BLOCK END ===

=== CODE BLOCK ADDRESS 0x35cc ===
  0x35cc	mov    	dword ptr [ebx + 8], ebp
  0x35cf	xor    	eax, eax
  0x35d1	inc    	esp
  0x35d2	mov    	dword ptr [ebx + 0x10], edi
  0x35d5	jmp    	0x35b1
  === BLOCK LINK ===
    0x35d7
=== CODE BLOCK END ===

=== CODE BLOCK ADDRESS 0x35d7 ===
  0x35d7	xor    	edx, edx
  0x35d9	dec    	esp
  0x35da	lea    	eax, [0x7f78]
  0x35e0	lea    	ecx, [edx + 1]
  0x35e3	call   	0x6c3c
  === BLOCK LINK ===
    0x35e8
=== CODE BLOCK END ===

=== CODE BLOCK ADDRESS 0x35e8 ===
  0x35e8	int3   	
  0x35e9	int3   	
  0x35ea	int3   	
  0x35eb	int3   	
  0x35ec	int3   	
  === BLOCK LINK ===
    0x35ed
=== CODE BLOCK END ===

=== CODE BLOCK ADDRESS 0x35ed ===
  0x35ed	int3   	
  0x35ee	int3   	
  0x35ef	int3   	
  0x35f0	ret    	0
  0x35f3	int3   	
  === BLOCK LINK ===
    0x35f4
=== CODE BLOCK END ===

=== CODE BLOCK ADDRESS 0x35f4 ===
  0x35f4	int3   	
  0x35f5	int3   	
  0x35f6	int3   	
  0x35f7	int3   	
  0x35f8	int3   	
  === BLOCK LINK ===
    0x35f9
=== CODE BLOCK END ===

=== CODE BLOCK ADDRESS 0x35f9 ===
  0x35f9	int3   	
  0x35fa	int3   	
  0x35fb	int3   	
  0x35fc	dec    	eax
  0x35fd	mov    	dword ptr [esp + 0x20], ebx
  === BLOCK LINK ===
    0x3601
=== CODE BLOCK END ===

=== CODE BLOCK ADDRESS 0x3601 ===
  0x3601	dec    	esp
  0x3602	mov    	dword ptr [esp + 0x18], eax
  0x3606	mov    	byte ptr [esp + 0x10], dl
  0x360a	push   	ebp
  0x360b	push   	esi
  === BLOCK LINK ===
    0x360c
=== CODE BLOCK END ===

=== CODE BLOCK ADDRESS 0x360c ===
  0x360c	push   	edi
  0x360d	inc    	ecx
  0x360e	push   	esp
  0x360f	inc    	ecx
  0x3610	push   	ebp
  === BLOCK LINK ===
    0x3611
=== CODE BLOCK END ===

=== CODE BLOCK ADDRESS 0x3611 ===
  0x3611	inc    	ecx
  0x3612	push   	esi
  0x3613	inc    	ecx
  0x3614	push   	edi
  0x3615	dec    	eax
  === BLOCK LINK ===
    0x3616
=== CODE BLOCK END ===

=== CODE BLOCK ADDRESS 0x3616 ===
  0x3616	mov    	ebp, esp
  0x3618	dec    	eax
  0x3619	sub    	esp, 0x40
  0x361c	dec    	eax
  0x361d	mov    	eax, dword ptr [ecx + 0x90]
  === BLOCK LINK ===
    0x3623
=== CODE BLOCK END ===

=== CODE BLOCK ADDRESS 0x3623 ===
  0x3623	dec    	eax
  0x3624	mov    	edi, ecx
  0x3626	jmp    	0x3655
  === BLOCK LINK ===
    0x3628
=== CODE BLOCK END ===

=== CODE BLOCK ADDRESS 0x3628 ===
  0x3628	dec    	eax
  0x3629	mov    	edx, ecx
  0x362b	dec    	eax
  0x362c	mov    	ecx, dword ptr [edi + 0xf8]
  0x3632	dec    	eax
  === BLOCK LINK ===
    0x3633
=== CODE BLOCK END ===

=== CODE BLOCK ADDRESS 0x3633 ===
  0x3633	call   	dword ptr [0x67af]
  === BLOCK LINK ===
    0x3639
=== CODE BLOCK END ===

=== CODE BLOCK ADDRESS 0x3639 ===
  0x3639	nop    	dword ptr [eax + eax]
  0x363e	test   	eax, eax
  0x3640	jne    	0x3def
  === BLOCK LINK ===
    0x3646
=== CODE BLOCK END ===

=== CODE BLOCK ADDRESS 0x3646 ===
  0x3646	dec    	eax
  0x3647	add    	dword ptr [edi + 0x90], 8
  0x364e	dec    	eax
  0x364f	mov    	eax, dword ptr [edi + 0x90]
  0x3655	dec    	eax
  === BLOCK LINK ===
    0x3656
=== CODE BLOCK END ===

=== CODE BLOCK ADDRESS 0x3656 ===
  0x3656	mov    	ecx, dword ptr [eax]
  0x3658	dec    	eax
  0x3659	test   	ecx, ecx
  0x365b	jne    	0x3628
  === BLOCK LINK ===
    0x365d
=== CODE BLOCK END ===

=== CODE BLOCK ADDRESS 0x365d ===
  0x365d	dec    	eax
  0x365e	mov    	edx, dword ptr [edi + 0x10]
  0x3661	dec    	eax
  0x3662	test   	edx, edx
  0x3664	je     	0x368c
  === BLOCK LINK ===
    0x3666
=== CODE BLOCK END ===

=== CODE BLOCK ADDRESS 0x3666 ===
  0x3666	inc    	esp
  0x3667	mov    	eax, dword ptr [edi + 0x24]
  0x366a	dec    	eax
  0x366b	mov    	ecx, dword ptr [edi + 0xf8]
  0x3671	inc    	ecx
  === BLOCK LINK ===
    0x3672
=== CODE BLOCK END ===

=== CODE BLOCK ADDRESS 0x3672 ===
  0x3672	and    	eax, 0x100
  0x3678	dec    	eax
  0x3679	call   	dword ptr [0x6831]
  === BLOCK LINK ===
    0x367f
=== CODE BLOCK END ===

=== CODE BLOCK ADDRESS 0x367f ===
  0x367f	nop    	dword ptr [eax + eax]
  0x3684	test   	eax, eax
  0x3686	jne    	0x3dc7
  === BLOCK LINK ===
    0x368c
=== CODE BLOCK END ===

=== CODE BLOCK ADDRESS 0x368c ===
  0x368c	dec    	eax
  0x368d	call   	dword ptr [0x67ed]
  === BLOCK LINK ===
    0x3693
=== CODE BLOCK END ===

=== CODE BLOCK ADDRESS 0x3693 ===
  0x3693	nop    	dword ptr [eax + eax]
  0x3698	dec    	esp
  0x3699	mov    	ebp, dword ptr [edi + 0x70]
  0x369c	inc    	ebp
  0x369d	xor    	esp, esp
  === BLOCK LINK ===
    0x369f
=== CODE BLOCK END ===

=== CODE BLOCK ADDRESS 0x369f ===
  0x369f	inc    	ebp
  0x36a0	xor    	edi, edi
  0x36a2	dec    	eax
  0x36a3	mov    	esi, eax
  0x36a5	inc    	ebp
  === BLOCK LINK ===
    0x36a6
=== CODE BLOCK END ===

=== CODE BLOCK ADDRESS 0x36a6 ===
  0x36a6	lea    	esi, [esp + 1]
  0x36aa	inc    	ebp
  0x36ab	cmp    	dword ptr [ebp + 0x10], esp
  0x36ae	jle    	0x36e5
  === BLOCK LINK ===
    0x36b0
=== CODE BLOCK END ===

=== CODE BLOCK ADDRESS 0x36b0 ===
  0x36b0	xor    	ebx, ebx
  0x36b2	dec    	ecx
  0x36b3	mov    	edx, dword ptr [ebp + 8]
  0x36b6	cmp    	dword ptr [ebx + edx], 0
  0x36ba	je     	0x36d3
  === BLOCK LINK ===
    0x36bc
=== CODE BLOCK END ===

=== CODE BLOCK ADDRESS 0x36bc ===
  0x36bc	dec    	eax
  0x36bd	mov    	edx, dword ptr [ebx + edx + 8]
  0x36c1	dec    	eax
  0x36c2	mov    	ecx, esi
  0x36c4	dec    	eax
  === BLOCK LINK ===
    0x36c5
=== CODE BLOCK END ===

=== CODE BLOCK ADDRESS 0x36c5 ===
  0x36c5	call   	dword ptr [0x6755]
  === BLOCK LINK ===
    0x36cb
=== CODE BLOCK END ===

=== CODE BLOCK ADDRESS 0x36cb ===
  0x36cb	nop    	dword ptr [eax + eax]
  0x36d0	inc    	ebp
  0x36d1	add    	esp, esi
  0x36d3	inc    	ebp
  0x36d4	add    	edi, esi
  === BLOCK LINK ===
    0x36d6
=== CODE BLOCK END ===

=== CODE BLOCK ADDRESS 0x36d6 ===
  0x36d6	dec    	eax
  0x36d7	add    	ebx, 0x10
  0x36da	inc    	ebp
  0x36db	cmp    	edi, dword ptr [ebp + 0x10]
  0x36de	jl     	0x36b2
  === BLOCK LINK ===
    0x36e0
=== CODE BLOCK END ===

=== CODE BLOCK ADDRESS 0x36e0 ===
  0x36e0	inc    	ebp
  0x36e1	test   	esp, esp
  0x36e3	jne    	0x36f4
  === BLOCK LINK ===
    0x36e5
=== CODE BLOCK END ===

=== CODE BLOCK ADDRESS 0x36e5 ===
  0x36e5	dec    	eax
  0x36e6	mov    	ecx, esi
  0x36e8	dec    	eax
  0x36e9	call   	dword ptr [0x67a1]
  === BLOCK LINK ===
    0x36ef
=== CODE BLOCK END ===

=== CODE BLOCK ADDRESS 0x36ef ===
  0x36ef	nop    	dword ptr [eax + eax]
  0x36f4	dec    	eax
  0x36f5	mov    	ecx, esi
  0x36f7	dec    	eax
  0x36f8	call   	dword ptr [0x677a]
  === BLOCK LINK ===
    0x36fe
=== CODE BLOCK END ===

=== CODE BLOCK ADDRESS 0x36fe ===
  0x36fe	nop    	dword ptr [eax + eax]
  0x3703	dec    	eax
  0x3704	lea    	ecx, [0x7ebe]
  0x370a	dec    	eax
  0x370b	call   	dword ptr [0x65af]
  === BLOCK LINK ===
    0x3711
=== CODE BLOCK END ===

=== CODE BLOCK ADDRESS 0x3711 ===
  0x3711	nop    	dword ptr [eax + eax]
  0x3716	dec    	esp
  0x3717	mov    	esp, eax
  0x3719	dec    	eax
  0x371a	test   	eax, eax
  === BLOCK LINK ===
    0x371c
=== CODE BLOCK END ===

=== CODE BLOCK ADDRESS 0x371c ===
  0x371c	je     	0x37c3
  === BLOCK LINK ===
    0x3722
=== CODE BLOCK END ===

=== CODE BLOCK ADDRESS 0x3722 ===
  0x3722	dec    	eax
  0x3723	or     	ebx, 0xffffffff
  0x3726	dec    	eax
  0x3727	inc    	ebx
  0x3729	cmp    	byte ptr [eax + ebx], 0
  === BLOCK LINK ===
    0x372d
=== CODE BLOCK END ===

=== CODE BLOCK ADDRESS 0x372d ===
  0x372d	jne    	0x3726
  === BLOCK LINK ===
    0x372f
=== CODE BLOCK END ===

=== CODE BLOCK ADDRESS 0x372f ===
  0x372f	dec    	ecx
  0x3730	add    	ebx, esi
  0x3732	dec    	eax
  0x3733	lea    	ecx, [ebx + 0x1d]
  0x3736	dec    	eax
  === BLOCK LINK ===
    0x3737
=== CODE BLOCK END ===

=== CODE BLOCK ADDRESS 0x3737 ===
  0x3737	call   	dword ptr [0x65a3]
  === BLOCK LINK ===
    0x373d
=== CODE BLOCK END ===

=== CODE BLOCK ADDRESS 0x373d ===
  0x373d	nop    	dword ptr [eax + eax]
  0x3742	dec    	esp
  0x3743	mov    	edi, eax
  0x3745	dec    	eax
  0x3746	test   	eax, eax
  === BLOCK LINK ===
    0x3748
=== CODE BLOCK END ===

=== CODE BLOCK ADDRESS 0x3748 ===
  0x3748	je     	0x3e17
  === BLOCK LINK ===
    0x374e
=== CODE BLOCK END ===

=== CODE BLOCK ADDRESS 0x374e ===
  0x374e	movups  	xmm0, xmmword ptr [0x7e8b]
  0x3755	dec    	ecx
  0x3756	lea    	ecx, [edi + 0x1d]
  0x3759	dec    	esp
  0x375a	mov    	eax, ebx
  === BLOCK LINK ===
    0x375c
=== CODE BLOCK END ===

=== CODE BLOCK ADDRESS 0x375c ===
  0x375c	dec    	ecx
  0x375d	mov    	edx, esp
  0x375f	movups  	xmmword ptr [eax], xmm0
  0x3762	movsd  	xmm1, qword ptr [0x7e86]
  0x376a	movsd  	qword ptr [eax + 0x10], xmm1
  === BLOCK LINK ===
    0x376f
=== CODE BLOCK END ===

=== CODE BLOCK ADDRESS 0x376f ===
  0x376f	mov    	eax, dword ptr [0x7e83]
  0x3775	inc    	ecx
  0x3776	mov    	dword ptr [edi + 0x18], eax
  0x3779	mov    	al, byte ptr [0x7e7d]
  0x377f	inc    	ecx
  === BLOCK LINK ===
    0x3780
=== CODE BLOCK END ===

=== CODE BLOCK ADDRESS 0x3780 ===
  0x3780	mov    	byte ptr [edi + 0x1c], al
  0x3783	call   	0x828d
  === BLOCK LINK ===
    0x3788
=== CODE BLOCK END ===

=== CODE BLOCK ADDRESS 0x3788 ===
  0x3788	dec    	ecx
  0x3789	mov    	edx, edi
  0x378b	dec    	eax
  0x378c	mov    	ecx, esi
  0x378e	dec    	eax
  === BLOCK LINK ===
    0x378f
=== CODE BLOCK END ===

=== CODE BLOCK ADDRESS 0x378f ===
  0x378f	call   	dword ptr [0x66ab]
  === BLOCK LINK ===
    0x3795
=== CODE BLOCK END ===

=== CODE BLOCK ADDRESS 0x3795 ===
  0x3795	nop    	dword ptr [eax + eax]
  0x379a	dec    	ecx
  0x379b	mov    	ecx, edi
  0x379d	mov    	ebx, eax
  0x379f	dec    	eax
  === BLOCK LINK ===
    0x37a0
=== CODE BLOCK END ===

=== CODE BLOCK ADDRESS 0x37a0 ===
  0x37a0	call   	dword ptr [0x6512]
  === BLOCK LINK ===
    0x37a6
=== CODE BLOCK END ===

=== CODE BLOCK ADDRESS 0x37a6 ===
  0x37a6	nop    	dword ptr [eax + eax]
  0x37ab	dec    	eax
  0x37ac	mov    	ecx, esi
  0x37ae	cmp    	ebx, -0x1e
  0x37b1	je     	0x3e35
  === BLOCK LINK ===
    0x37b7
=== CODE BLOCK END ===

=== CODE BLOCK ADDRESS 0x37b7 ===
  0x37b7	dec    	eax
  0x37b8	call   	dword ptr [0x672a]
  === BLOCK LINK ===
    0x37be
=== CODE BLOCK END ===

=== CODE BLOCK ADDRESS 0x37be ===
  0x37be	nop    	dword ptr [eax + eax]
  0x37c3	dec    	eax
  0x37c4	mov    	edx, dword ptr [edi + 0x60]
  0x37c7	dec    	eax
  0x37c8	mov    	ecx, esi
  === BLOCK LINK ===
    0x37ca
=== CODE BLOCK END ===

=== CODE BLOCK ADDRESS 0x37ca ===
  0x37ca	dec    	eax
  0x37cb	call   	dword ptr [0x666f]
  === BLOCK LINK ===
    0x37d1
=== CODE BLOCK END ===

=== CODE BLOCK ADDRESS 0x37d1 ===
  0x37d1	nop    	dword ptr [eax + eax]
  0x37d6	test   	eax, eax
  0x37d8	jne    	0x3e56
  === BLOCK LINK ===
    0x37de
=== CODE BLOCK END ===

=== CODE BLOCK ADDRESS 0x37de ===
  0x37de	test   	byte ptr [edi + 0x24], 0x10
  0x37e2	je     	0x3802
  === BLOCK LINK ===
    0x37e4
=== CODE BLOCK END ===

=== CODE BLOCK ADDRESS 0x37e4 ===
  0x37e4	dec    	eax
  0x37e5	lea    	edx, [0x7e1d]
  0x37eb	dec    	eax
  0x37ec	mov    	ecx, esi
  0x37ee	dec    	eax
  === BLOCK LINK ===
    0x37ef
=== CODE BLOCK END ===

=== CODE BLOCK ADDRESS 0x37ef ===
  0x37ef	call   	dword ptr [0x664b]
  === BLOCK LINK ===
    0x37f5
=== CODE BLOCK END ===

=== CODE BLOCK ADDRESS 0x37f5 ===
  0x37f5	nop    	dword ptr [eax + eax]
  0x37fa	test   	eax, eax
  0x37fc	jne    	0x3e7a
  === BLOCK LINK ===
    0x3802
=== CODE BLOCK END ===

=== CODE BLOCK ADDRESS 0x3802 ===
  0x3802	dec    	eax
  0x3803	mov    	edx, dword ptr [edi + 0x50]
  0x3806	dec    	eax
  0x3807	mov    	ecx, esi
  0x3809	dec    	eax
  === BLOCK LINK ===
    0x380a
=== CODE BLOCK END ===

=== CODE BLOCK ADDRESS 0x380a ===
  0x380a	test   	edx, edx
  0x380c	je     	0x381c
  === BLOCK LINK ===
    0x380e
=== CODE BLOCK END ===

=== CODE BLOCK ADDRESS 0x380e ===
  0x380e	dec    	eax
  0x380f	call   	dword ptr [0x665b]
  === BLOCK LINK ===
    0x3815
=== CODE BLOCK END ===

=== CODE BLOCK ADDRESS 0x3815 ===
  0x3815	nop    	dword ptr [eax + eax]
  0x381a	jmp    	0x3832
  === BLOCK LINK ===
    0x381c
=== CODE BLOCK END ===

=== CODE BLOCK ADDRESS 0x381c ===
  0x381c	dec    	esp
  0x381d	lea    	eax, [0x10fd]
  0x3823	dec    	eax
  0x3824	mov    	edx, edi
  0x3826	dec    	eax
  === BLOCK LINK ===
    0x3827
=== CODE BLOCK END ===

=== CODE BLOCK ADDRESS 0x3827 ===
  0x3827	call   	dword ptr [0x6703]
  === BLOCK LINK ===
    0x382d
=== CODE BLOCK END ===

=== CODE BLOCK ADDRESS 0x382d ===
  0x382d	nop    	dword ptr [eax + eax]
  0x3832	dec    	eax
  0x3833	mov    	ecx, esi
  0x3835	test   	eax, eax
  0x3837	jne    	0x3e9e
  === BLOCK LINK ===
    0x383d
=== CODE BLOCK END ===

=== CODE BLOCK ADDRESS 0x383d ===
  0x383d	dec    	esp
  0x383e	arpl   	word ptr [edi + 0x18], ax
  0x3841	dec    	eax
  0x3842	mov    	edx, dword ptr [edi]
  0x3844	dec    	eax
  === BLOCK LINK ===
    0x3845
=== CODE BLOCK END ===

=== CODE BLOCK ADDRESS 0x3845 ===
  0x3845	call   	dword ptr [0x66bd]
  === BLOCK LINK ===
    0x384b
=== CODE BLOCK END ===

=== CODE BLOCK ADDRESS 0x384b ===
  0x384b	nop    	dword ptr [eax + eax]
  0x3850	test   	eax, eax
  0x3852	jne    	0x3ebf
  === BLOCK LINK ===
    0x3858
=== CODE BLOCK END ===

=== CODE BLOCK ADDRESS 0x3858 ===
  0x3858	dec    	eax
  0x3859	mov    	ecx, edi
  0x385b	call   	0x4508
  === BLOCK LINK ===
    0x3860
=== CODE BLOCK END ===

=== CODE BLOCK ADDRESS 0x3860 ===
  0x3860	inc    	esp
  0x3861	mov    	ah, byte ptr [ebp + 0x48]
  0x3864	inc    	ecx
  0x3865	cmp    	ah, 0x78
  0x3868	jne    	0x38b3
  === BLOCK LINK ===
    0x386a
=== CODE BLOCK END ===

=== CODE BLOCK ADDRESS 0x386a ===
  0x386a	dec    	esp
  0x386b	lea    	eax, [ebp - 0x20]
  0x386e	dec    	eax
  0x386f	mov    	dword ptr [ebp - 0x20], edi
  0x3872	dec    	eax
  === BLOCK LINK ===
    0x3873
=== CODE BLOCK END ===

=== CODE BLOCK ADDRESS 0x3873 ===
  0x3873	lea    	edx, [0xfffffd77]
  0x3879	dec    	eax
  0x387a	mov    	dword ptr [ebp - 0x18], esi
  0x387d	dec    	eax
  0x387e	mov    	ecx, esi
  === BLOCK LINK ===
    0x3880
=== CODE BLOCK END ===

=== CODE BLOCK ADDRESS 0x3880 ===
  0x3880	dec    	eax
  0x3881	call   	dword ptr [0x65e1]
  === BLOCK LINK ===
    0x3887
=== CODE BLOCK END ===

=== CODE BLOCK ADDRESS 0x3887 ===
  0x3887	nop    	dword ptr [eax + eax]
  0x388c	test   	byte ptr [edi + 0x24], 4
  0x3890	jne    	0x3ee3
  === BLOCK LINK ===
    0x3896
=== CODE BLOCK END ===

=== CODE BLOCK ADDRESS 0x3896 ===
  0x3896	test   	dword ptr [edi + 0x24], 0x800
  0x389d	je     	0x38b3
  === BLOCK LINK ===
    0x389f
=== CODE BLOCK END ===

=== CODE BLOCK ADDRESS 0x389f ===
  0x389f	mov    	edx, 0x8000
  0x38a4	inc    	ecx
  0x38a5	mov    	ecx, esi
  0x38a7	dec    	eax
  0x38a8	call   	dword ptr [0x63a2]
  === BLOCK LINK ===
    0x38ae
=== CODE BLOCK END ===

=== CODE BLOCK ADDRESS 0x38ae ===
  0x38ae	nop    	dword ptr [eax + eax]
  0x38b3	dec    	esp
  0x38b4	mov    	ebp, dword ptr [ebp + 0x50]
  0x38b7	test   	byte ptr [edi + 0x24], 8
  0x38bb	je     	0x38d8
  === BLOCK LINK ===
    0x38bd
=== CODE BLOCK END ===

=== CODE BLOCK ADDRESS 0x38bd ===
  0x38bd	dec    	eax
  0x38be	mov    	ecx, dword ptr [edi + 0xf8]
  0x38c4	dec    	eax
  0x38c5	call   	dword ptr [0x665d]
  === BLOCK LINK ===
    0x38cb
=== CODE BLOCK END ===

=== CODE BLOCK ADDRESS 0x38cb ===
  0x38cb	nop    	dword ptr [eax + eax]
  0x38d0	test   	eax, eax
  0x38d2	je     	0x3b40
  === BLOCK LINK ===
    0x38d8
=== CODE BLOCK END ===

=== CODE BLOCK ADDRESS 0x38d8 ===
  0x38d8	dec    	eax
  0x38d9	lea    	edx, [ebp + 0x40]
  0x38dc	dec    	eax
  0x38dd	mov    	ecx, esi
  0x38df	dec    	eax
  === BLOCK LINK ===
    0x38e0
=== CODE BLOCK END ===

=== CODE BLOCK ADDRESS 0x38e0 ===
  0x38e0	call   	dword ptr [0x660a]
  === BLOCK LINK ===
    0x38e6
=== CODE BLOCK END ===

=== CODE BLOCK ADDRESS 0x38e6 ===
  0x38e6	nop    	dword ptr [eax + eax]
  0x38eb	dec    	eax
  0x38ec	mov    	ecx, dword ptr [ebp + 0x40]
  0x38ef	mov    	ebx, eax
  0x38f1	dec    	eax
  === BLOCK LINK ===
    0x38f2
=== CODE BLOCK END ===

=== CODE BLOCK ADDRESS 0x38f2 ===
  0x38f2	mov    	dword ptr [ebp - 0x10], ecx
  0x38f5	inc    	ecx
  0x38f6	cmp    	eax, esi
  0x38f8	je     	0x3b40
  === BLOCK LINK ===
    0x38fe
=== CODE BLOCK END ===

=== CODE BLOCK ADDRESS 0x38fe ===
  0x38fe	test   	eax, eax
  0x3900	jns    	0x3926
  === BLOCK LINK ===
    0x3902
=== CODE BLOCK END ===

=== CODE BLOCK ADDRESS 0x3902 ===
  0x3902	dec    	eax
  0x3903	mov    	ecx, esi
  0x3905	dec    	eax
  0x3906	call   	dword ptr [0x663c]
  === BLOCK LINK ===
    0x390c
=== CODE BLOCK END ===

=== CODE BLOCK ADDRESS 0x390c ===
  0x390c	nop    	dword ptr [eax + eax]
  0x3911	dec    	eax
  0x3912	lea    	edx, [0x7ce8]
  0x3918	xor    	ecx, ecx
  0x391a	dec    	esp
  === BLOCK LINK ===
    0x391b
=== CODE BLOCK END ===

=== CODE BLOCK ADDRESS 0x391b ===
  0x391b	mov    	eax, eax
  0x391d	call   	0x6c14
  === BLOCK LINK ===
    0x3922
=== CODE BLOCK END ===

=== CODE BLOCK ADDRESS 0x3922 ===
  0x3922	dec    	eax
  0x3923	mov    	ecx, dword ptr [ebp + 0x40]
  0x3926	cmp    	ebx, -0x14
  0x3929	jg     	0x3932
  === BLOCK LINK ===
    0x392b
=== CODE BLOCK END ===

=== CODE BLOCK ADDRESS 0x392b ===
  0x392b	inc    	esp
  0x392c	mov    	dword ptr [edi + 0xb4], esi
  0x3932	cmp    	ebx, -0xa
  0x3935	jne    	0x394a
  === BLOCK LINK ===
    0x3937
=== CODE BLOCK END ===

=== CODE BLOCK ADDRESS 0x3937 ===
  0x3937	dec    	eax
  0x3938	lea    	edx, [0x7d32]
  0x393e	xor    	ecx, ecx
  0x3940	call   	0x6c14
  === BLOCK LINK ===
    0x3945
=== CODE BLOCK END ===

=== CODE BLOCK ADDRESS 0x3945 ===
  0x3945	jmp    	0x38b7
  === BLOCK LINK ===
    0x394a
=== CODE BLOCK END ===

=== CODE BLOCK ADDRESS 0x394a ===
  0x394a	cmp    	ebx, -0x1e
  0x394d	je     	0x3b40
  === BLOCK LINK ===
    0x3953
=== CODE BLOCK END ===

=== CODE BLOCK ADDRESS 0x3953 ===
  0x3953	dec    	eax
  0x3954	call   	dword ptr [0x6586]
  === BLOCK LINK ===
    0x395a
=== CODE BLOCK END ===

=== CODE BLOCK ADDRESS 0x395a ===
  0x395a	nop    	dword ptr [eax + eax]
  0x395f	dec    	eax
  0x3960	test   	eax, eax
  0x3962	je     	0x3dad
  === BLOCK LINK ===
    0x3968
=== CODE BLOCK END ===

=== CODE BLOCK ADDRESS 0x3968 ===
  0x3968	cmp    	byte ptr [eax], 0
  0x396b	je     	0x3dad
  === BLOCK LINK ===
    0x3971
=== CODE BLOCK END ===

=== CODE BLOCK ADDRESS 0x3971 ===
  0x3971	cmp    	dword ptr [edi + 0x40], 0
  0x3975	jl     	0x399d
  === BLOCK LINK ===
    0x3977
=== CODE BLOCK END ===

=== CODE BLOCK ADDRESS 0x3977 ===
  0x3977	dec    	eax
  0x3978	arpl   	word ptr [edi + 0x40], dx
  0x397b	dec    	eax
  0x397c	mov    	ecx, dword ptr [ebp + 0x40]
  0x397f	dec    	eax
  === BLOCK LINK ===
    0x3980
=== CODE BLOCK END ===

=== CODE BLOCK ADDRESS 0x3980 ===
  0x3980	call   	dword ptr [0x6502]
  === BLOCK LINK ===
    0x3986
=== CODE BLOCK END ===

=== CODE BLOCK ADDRESS 0x3986 ===
  0x3986	nop    	dword ptr [eax + eax]
  0x398b	dec    	eax
  0x398c	mov    	ecx, dword ptr [ebp + 0x40]
  0x398f	xor    	edx, edx
  0x3991	dec    	eax
  === BLOCK LINK ===
    0x3992
=== CODE BLOCK END ===

=== CODE BLOCK ADDRESS 0x3992 ===
  0x3992	call   	dword ptr [0x64c0]
  === BLOCK LINK ===
    0x3998
=== CODE BLOCK END ===

=== CODE BLOCK ADDRESS 0x3998 ===
  0x3998	nop    	dword ptr [eax + eax]
  0x399d	cmp    	dword ptr [edi + 0x34], 0
  0x39a1	jl     	0x39c9
  === BLOCK LINK ===
    0x39a3
=== CODE BLOCK END ===

=== CODE BLOCK ADDRESS 0x39a3 ===
  0x39a3	dec    	eax
  0x39a4	arpl   	word ptr [edi + 0x34], dx
  0x39a7	dec    	eax
  0x39a8	mov    	ecx, dword ptr [ebp + 0x40]
  0x39ab	dec    	eax
  === BLOCK LINK ===
    0x39ac
=== CODE BLOCK END ===

=== CODE BLOCK ADDRESS 0x39ac ===
  0x39ac	call   	dword ptr [0x64ae]
  === BLOCK LINK ===
    0x39b2
=== CODE BLOCK END ===

=== CODE BLOCK ADDRESS 0x39b2 ===
  0x39b2	nop    	dword ptr [eax + eax]
  0x39b7	dec    	eax
  0x39b8	mov    	ecx, dword ptr [ebp + 0x40]
  0x39bb	xor    	edx, edx
  0x39bd	dec    	eax
  === BLOCK LINK ===
    0x39be
=== CODE BLOCK END ===

=== CODE BLOCK ADDRESS 0x39be ===
  0x39be	call   	dword ptr [0x6504]
  === BLOCK LINK ===
    0x39c4
=== CODE BLOCK END ===

=== CODE BLOCK ADDRESS 0x39c4 ===
  0x39c4	nop    	dword ptr [eax + eax]
  0x39c9	dec    	eax
  0x39ca	mov    	edx, dword ptr [edi + 0x48]
  0x39cd	dec    	eax
  0x39ce	test   	edx, edx
  === BLOCK LINK ===
    0x39d0
=== CODE BLOCK END ===

=== CODE BLOCK ADDRESS 0x39d0 ===
  0x39d0	je     	0x39e2
  === BLOCK LINK ===
    0x39d2
=== CODE BLOCK END ===

=== CODE BLOCK ADDRESS 0x39d2 ===
  0x39d2	dec    	eax
  0x39d3	mov    	ecx, dword ptr [ebp + 0x40]
  0x39d6	dec    	eax
  0x39d7	call   	dword ptr [0x647b]
  === BLOCK LINK ===
    0x39dd
=== CODE BLOCK END ===

=== CODE BLOCK ADDRESS 0x39dd ===
  0x39dd	nop    	dword ptr [eax + eax]
  0x39e2	dec    	eax
  0x39e3	mov    	edx, dword ptr [edi + 0x38]
  0x39e6	dec    	eax
  0x39e7	test   	edx, edx
  === BLOCK LINK ===
    0x39e9
=== CODE BLOCK END ===

=== CODE BLOCK ADDRESS 0x39e9 ===
  0x39e9	je     	0x39fb
  === BLOCK LINK ===
    0x39eb
=== CODE BLOCK END ===

=== CODE BLOCK ADDRESS 0x39eb ===
  0x39eb	dec    	eax
  0x39ec	mov    	ecx, dword ptr [ebp + 0x40]
  0x39ef	dec    	eax
  0x39f0	call   	dword ptr [0x64d2]
  === BLOCK LINK ===
    0x39f6
=== CODE BLOCK END ===

=== CODE BLOCK ADDRESS 0x39f6 ===
  0x39f6	nop    	dword ptr [eax + eax]
  0x39fb	dec    	eax
  0x39fc	mov    	edx, dword ptr [ebp + 0x40]
  0x39ff	dec    	eax
  0x3a00	mov    	ecx, dword ptr [edi + 0xf8]
  === BLOCK LINK ===
    0x3a06
=== CODE BLOCK END ===

=== CODE BLOCK ADDRESS 0x3a06 ===
  0x3a06	dec    	eax
  0x3a07	call   	dword ptr [0x6503]
  === BLOCK LINK ===
    0x3a0d
=== CODE BLOCK END ===

=== CODE BLOCK ADDRESS 0x3a0d ===
  0x3a0d	nop    	dword ptr [eax + eax]
  0x3a12	test   	eax, eax
  0x3a14	jne    	0x38b7
  === BLOCK LINK ===
    0x3a1a
=== CODE BLOCK END ===

=== CODE BLOCK ADDRESS 0x3a1a ===
  0x3a1a	inc    	ecx
  0x3a1b	cmp    	ah, 0x74
  0x3a1e	jne    	0x3bf2
  === BLOCK LINK ===
    0x3a24
=== CODE BLOCK END ===

=== CODE BLOCK ADDRESS 0x3a24 ===
  0x3a24	mov    	eax, dword ptr [edi + 0x24]
  0x3a27	and    	eax, 0x800
  0x3a2c	neg    	eax
  0x3a2e	sbb    	ecx, ecx
  0x3a30	neg    	ecx
  === BLOCK LINK ===
    0x3a32
=== CODE BLOCK END ===

=== CODE BLOCK ADDRESS 0x3a32 ===
  0x3a32	inc    	ecx
  0x3a33	add    	ecx, esi
  0x3a35	call   	0x7f36
  === BLOCK LINK ===
    0x3a3a
=== CODE BLOCK END ===

=== CODE BLOCK ADDRESS 0x3a3a ===
  0x3a3a	cmp    	dword ptr [edi + 0x20], 2
  0x3a3e	dec    	eax
  0x3a3f	mov    	ebx, eax
  0x3a41	jge    	0x3a67
  === BLOCK LINK ===
    0x3a43
=== CODE BLOCK END ===

=== CODE BLOCK ADDRESS 0x3a43 ===
  0x3a43	dec    	eax
  0x3a44	mov    	ecx, dword ptr [ebp + 0x40]
  0x3a47	dec    	eax
  0x3a48	call   	dword ptr [0x6492]
  === BLOCK LINK ===
    0x3a4e
=== CODE BLOCK END ===

=== CODE BLOCK ADDRESS 0x3a4e ===
  0x3a4e	nop    	dword ptr [eax + eax]
  0x3a53	dec    	eax
  0x3a54	lea    	edx, [0x7ba6]
  0x3a5a	dec    	eax
  0x3a5b	mov    	ecx, ebx
  === BLOCK LINK ===
    0x3a5d
=== CODE BLOCK END ===

=== CODE BLOCK ADDRESS 0x3a5d ===
  0x3a5d	dec    	esp
  0x3a5e	mov    	eax, eax
  0x3a60	call   	0x3f88
  === BLOCK LINK ===
    0x3a65
=== CODE BLOCK END ===

=== CODE BLOCK ADDRESS 0x3a65 ===
  0x3a65	jmp    	0x3a76
  === BLOCK LINK ===
    0x3a67
=== CODE BLOCK END ===

=== CODE BLOCK ADDRESS 0x3a67 ===
  0x3a67	dec    	esp
  0x3a68	mov    	eax, dword ptr [ebp + 0x40]
  0x3a6b	dec    	eax
  0x3a6c	mov    	edx, ebx
  0x3a6e	dec    	eax
  === BLOCK LINK ===
    0x3a6f
=== CODE BLOCK END ===

=== CODE BLOCK ADDRESS 0x3a6f ===
  0x3a6f	mov    	ecx, edi
  0x3a71	call   	0x4988
  === BLOCK LINK ===
    0x3a76
=== CODE BLOCK END ===

=== CODE BLOCK ADDRESS 0x3a76 ===
  0x3a76	dec    	eax
  0x3a77	mov    	ecx, ebx
  0x3a79	dec    	eax
  0x3a7a	call   	dword ptr [0x6218]
  === BLOCK LINK ===
    0x3a80
=== CODE BLOCK END ===

=== CODE BLOCK ADDRESS 0x3a80 ===
  0x3a80	nop    	dword ptr [eax + eax]
  0x3a85	dec    	eax
  0x3a86	mov    	ecx, esi
  0x3a88	dec    	eax
  0x3a89	call   	dword ptr [0x6431]
  === BLOCK LINK ===
    0x3a8f
=== CODE BLOCK END ===

=== CODE BLOCK ADDRESS 0x3a8f ===
  0x3a8f	nop    	dword ptr [eax + eax]
  0x3a94	inc    	esp
  0x3a95	mov    	edi, eax
  0x3a97	cmp    	eax, -0x14
  0x3a9a	jne    	0x3acb
  === BLOCK LINK ===
    0x3a9c
=== CODE BLOCK END ===

=== CODE BLOCK ADDRESS 0x3a9c ===
  0x3a9c	dec    	eax
  0x3a9d	lea    	edx, [0x7b01]
  0x3aa3	dec    	eax
  0x3aa4	mov    	ecx, ebx
  0x3aa6	call   	0x8098
  === BLOCK LINK ===
    0x3aab
=== CODE BLOCK END ===

=== CODE BLOCK ADDRESS 0x3aab ===
  0x3aab	dec    	eax
  0x3aac	mov    	ecx, esi
  0x3aae	dec    	eax
  0x3aaf	call   	dword ptr [0x6493]
  === BLOCK LINK ===
    0x3ab5
=== CODE BLOCK END ===

=== CODE BLOCK ADDRESS 0x3ab5 ===
  0x3ab5	nop    	dword ptr [eax + eax]
  0x3aba	dec    	eax
  0x3abb	lea    	edx, [0x7b3f]
  0x3ac1	xor    	ecx, ecx
  0x3ac3	dec    	esp
  === BLOCK LINK ===
    0x3ac4
=== CODE BLOCK END ===

=== CODE BLOCK ADDRESS 0x3ac4 ===
  0x3ac4	mov    	eax, eax
  0x3ac6	call   	0x6c14
  === BLOCK LINK ===
    0x3acb
=== CODE BLOCK END ===

=== CODE BLOCK ADDRESS 0x3acb ===
  0x3acb	inc    	ecx
  0x3acc	cmp    	edi, -0xa
  0x3acf	jne    	0x3b00
  === BLOCK LINK ===
    0x3ad1
=== CODE BLOCK END ===

=== CODE BLOCK ADDRESS 0x3ad1 ===
  0x3ad1	dec    	eax
  0x3ad2	lea    	edx, [0x7acc]
  0x3ad8	dec    	eax
  0x3ad9	mov    	ecx, ebx
  0x3adb	call   	0x8098
  === BLOCK LINK ===
    0x3ae0
=== CODE BLOCK END ===

=== CODE BLOCK ADDRESS 0x3ae0 ===
  0x3ae0	dec    	eax
  0x3ae1	mov    	ecx, esi
  0x3ae3	dec    	eax
  0x3ae4	call   	dword ptr [0x645e]
  === BLOCK LINK ===
    0x3aea
=== CODE BLOCK END ===

=== CODE BLOCK ADDRESS 0x3aea ===
  0x3aea	nop    	dword ptr [eax + eax]
  0x3aef	dec    	eax
  0x3af0	lea    	edx, [0x7b0a]
  0x3af6	xor    	ecx, ecx
  0x3af8	dec    	esp
  === BLOCK LINK ===
    0x3af9
=== CODE BLOCK END ===

=== CODE BLOCK ADDRESS 0x3af9 ===
  0x3af9	mov    	eax, eax
  0x3afb	call   	0x6c14
  === BLOCK LINK ===
    0x3b00
=== CODE BLOCK END ===

=== CODE BLOCK ADDRESS 0x3b00 ===
  0x3b00	dec    	eax
  0x3b01	lea    	edx, [0x7a9d]
  0x3b07	dec    	eax
  0x3b08	mov    	ecx, ebx
  0x3b0a	call   	0x8098
  === BLOCK LINK ===
    0x3b0f
=== CODE BLOCK END ===

=== CODE BLOCK ADDRESS 0x3b0f ===
  0x3b0f	inc    	ecx
  0x3b10	cmp    	edi, -0x1e
  0x3b13	jne    	0x38b7
  === BLOCK LINK ===
    0x3b19
=== CODE BLOCK END ===

=== CODE BLOCK ADDRESS 0x3b19 ===
  0x3b19	dec    	eax
  0x3b1a	mov    	ecx, esi
  0x3b1c	dec    	eax
  0x3b1d	call   	dword ptr [0x6425]
  === BLOCK LINK ===
    0x3b23
=== CODE BLOCK END ===

=== CODE BLOCK ADDRESS 0x3b23 ===
  0x3b23	nop    	dword ptr [eax + eax]
  0x3b28	dec    	eax
  0x3b29	lea    	edx, [0x7ad1]
  0x3b2f	xor    	ecx, ecx
  0x3b31	dec    	esp
  === BLOCK LINK ===
    0x3b32
=== CODE BLOCK END ===

=== CODE BLOCK ADDRESS 0x3b32 ===
  0x3b32	mov    	eax, eax
  0x3b34	call   	0x6c14
  === BLOCK LINK ===
    0x3b39
=== CODE BLOCK END ===

=== CODE BLOCK ADDRESS 0x3b39 ===
  0x3b39	inc    	esp
  0x3b3a	mov    	dword ptr [edi + 0xb4], esi
  0x3b40	dec    	eax
  0x3b41	mov    	ecx, esi
  0x3b43	dec    	eax
  === BLOCK LINK ===
    0x3b44
=== CODE BLOCK END ===

=== CODE BLOCK ADDRESS 0x3b44 ===
  0x3b44	call   	dword ptr [0x63ce]
  === BLOCK LINK ===
    0x3b4a
=== CODE BLOCK END ===

=== CODE BLOCK ADDRESS 0x3b4a ===
  0x3b4a	nop    	dword ptr [eax + eax]
  0x3b4f	mov    	ebx, eax
  0x3b51	test   	eax, eax
  0x3b53	je     	0x3b75
  === BLOCK LINK ===
    0x3b55
=== CODE BLOCK END ===

=== CODE BLOCK ADDRESS 0x3b55 ===
  0x3b55	dec    	eax
  0x3b56	mov    	ecx, esi
  0x3b58	dec    	eax
  0x3b59	call   	dword ptr [0x63e9]
  === BLOCK LINK ===
    0x3b5f
=== CODE BLOCK END ===

=== CODE BLOCK ADDRESS 0x3b5f ===
  0x3b5f	nop    	dword ptr [eax + eax]
  0x3b64	dec    	eax
  0x3b65	lea    	edx, [0x7a95]
  0x3b6b	xor    	ecx, ecx
  0x3b6d	dec    	esp
  === BLOCK LINK ===
    0x3b6e
=== CODE BLOCK END ===

=== CODE BLOCK ADDRESS 0x3b6e ===
  0x3b6e	mov    	eax, eax
  0x3b70	call   	0x6c14
  === BLOCK LINK ===
    0x3b75
=== CODE BLOCK END ===

=== CODE BLOCK ADDRESS 0x3b75 ===
  0x3b75	cmp    	ebx, -0x14
  0x3b78	jg     	0x3b81
  === BLOCK LINK ===
    0x3b7a
=== CODE BLOCK END ===

=== CODE BLOCK ADDRESS 0x3b7a ===
  0x3b7a	inc    	esp
  0x3b7b	mov    	dword ptr [edi + 0xb4], esi
  0x3b81	cmp    	dword ptr [edi + 0x20], 2
  0x3b85	jle    	0x3bca
  === BLOCK LINK ===
    0x3b87
=== CODE BLOCK END ===

=== CODE BLOCK ADDRESS 0x3b87 ===
  0x3b87	xor    	edx, edx
  0x3b89	dec    	eax
  0x3b8a	mov    	ecx, esi
  0x3b8c	dec    	eax
  0x3b8d	call   	dword ptr [0x636d]
  === BLOCK LINK ===
    0x3b93
=== CODE BLOCK END ===

=== CODE BLOCK ADDRESS 0x3b93 ===
  0x3b93	nop    	dword ptr [eax + eax]
  0x3b98	dec    	eax
  0x3b99	mov    	ecx, esi
  0x3b9b	dec    	eax
  0x3b9c	mov    	edi, eax
  === BLOCK LINK ===
    0x3b9e
=== CODE BLOCK END ===

=== CODE BLOCK ADDRESS 0x3b9e ===
  0x3b9e	dec    	eax
  0x3b9f	call   	dword ptr [0x637b]
  === BLOCK LINK ===
    0x3ba5
=== CODE BLOCK END ===

=== CODE BLOCK ADDRESS 0x3ba5 ===
  0x3ba5	nop    	dword ptr [eax + eax]
  0x3baa	inc    	ecx
  0x3bab	mov    	ecx, esi
  0x3bad	dec    	eax
  0x3bae	mov    	ebx, eax
  === BLOCK LINK ===
    0x3bb0
=== CODE BLOCK END ===

=== CODE BLOCK ADDRESS 0x3bb0 ===
  0x3bb0	call   	0x7f36
  === BLOCK LINK ===
    0x3bb5
=== CODE BLOCK END ===

=== CODE BLOCK ADDRESS 0x3bb5 ===
  0x3bb5	dec    	eax
  0x3bb6	mov    	ecx, eax
  0x3bb8	dec    	eax
  0x3bb9	lea    	edx, [0x7b29]
  0x3bbf	dec    	esp
  === BLOCK LINK ===
    0x3bc0
=== CODE BLOCK END ===

=== CODE BLOCK ADDRESS 0x3bc0 ===
  0x3bc0	mov    	ecx, edi
  0x3bc2	dec    	esp
  0x3bc3	mov    	eax, ebx
  0x3bc5	call   	0x8098
  === BLOCK LINK ===
    0x3bca
=== CODE BLOCK END ===

=== CODE BLOCK ADDRESS 0x3bca ===
  0x3bca	dec    	eax
  0x3bcb	mov    	ecx, esi
  0x3bcd	dec    	eax
  0x3bce	call   	dword ptr [0x62d4]
  === BLOCK LINK ===
    0x3bd4
=== CODE BLOCK END ===

=== CODE BLOCK ADDRESS 0x3bd4 ===
  0x3bd4	nop    	dword ptr [eax + eax]
  0x3bd9	dec    	eax
  0x3bda	mov    	ebx, dword ptr [esp + 0x98]
  0x3be1	dec    	eax
  0x3be2	add    	esp, 0x40
  === BLOCK LINK ===
    0x3be5
=== CODE BLOCK END ===

=== CODE BLOCK ADDRESS 0x3be5 ===
  0x3be5	inc    	ecx
  0x3be6	pop    	edi
  0x3be7	inc    	ecx
  0x3be8	pop    	esi
  0x3be9	inc    	ecx
  === BLOCK LINK ===
    0x3bea
=== CODE BLOCK END ===

=== CODE BLOCK ADDRESS 0x3bea ===
  0x3bea	pop    	ebp
  0x3beb	inc    	ecx
  0x3bec	pop    	esp
  0x3bed	pop    	edi
  0x3bee	pop    	esi
  === BLOCK LINK ===
    0x3bef
=== CODE BLOCK END ===

=== CODE BLOCK ADDRESS 0x3bef ===
  0x3bef	pop    	ebp
  0x3bf0	ret    	
  0x3bf1	int3   	
  0x3bf2	dec    	eax
  0x3bf3	mov    	edx, dword ptr [ebp + 0x40]
  === BLOCK LINK ===
    0x3bf6
=== CODE BLOCK END ===

=== CODE BLOCK ADDRESS 0x2510 ===
=== CODE BLOCK END ===

=== CODE BLOCK ADDRESS 0x3bf6 ===
  0x3bf6	dec    	eax
  0x3bf7	mov    	ecx, edi
  0x3bf9	call   	0x4744
  === BLOCK LINK ===
    0x3bfe
=== CODE BLOCK END ===

=== CODE BLOCK ADDRESS 0x3bfe ===
  0x3bfe	test   	eax, eax
  0x3c00	jne    	0x38b7
  === BLOCK LINK ===
    0x3c06
=== CODE BLOCK END ===

=== CODE BLOCK ADDRESS 0x3c06 ===
  0x3c06	test   	byte ptr [edi + 0x24], 0x20
  0x3c0a	je     	0x3c33
  === BLOCK LINK ===
    0x3c0c
=== CODE BLOCK END ===

=== CODE BLOCK ADDRESS 0x3c0c ===
  0x3c0c	dec    	eax
  0x3c0d	mov    	ecx, dword ptr [ebp + 0x40]
  0x3c10	dec    	eax
  0x3c11	call   	dword ptr [0x62c9]
  === BLOCK LINK ===
    0x3c17
=== CODE BLOCK END ===

=== CODE BLOCK ADDRESS 0x3c17 ===
  0x3c17	nop    	dword ptr [eax + eax]
  0x3c1c	dec    	eax
  0x3c1d	mov    	edx, eax
  0x3c1f	dec    	eax
  0x3c20	lea    	ecx, [0x7a9a]
  === BLOCK LINK ===
    0x3c26
=== CODE BLOCK END ===

=== CODE BLOCK ADDRESS 0x3c26 ===
  0x3c26	call   	0x42c4
  === BLOCK LINK ===
    0x3c2b
=== CODE BLOCK END ===

=== CODE BLOCK ADDRESS 0x3c2b ===
  0x3c2b	test   	eax, eax
  0x3c2d	je     	0x38b7
  === BLOCK LINK ===
    0x3c33
=== CODE BLOCK END ===

=== CODE BLOCK ADDRESS 0x3c33 ===
  0x3c33	inc    	esp
  0x3c34	cmp    	dword ptr [edi + 0x20], esi
  0x3c37	jle    	0x3c6d
  === BLOCK LINK ===
    0x3c39
=== CODE BLOCK END ===

=== CODE BLOCK ADDRESS 0x3c39 ===
  0x3c39	mov    	ecx, 2
  0x3c3e	call   	0x7f36
  === BLOCK LINK ===
    0x3c43
=== CODE BLOCK END ===

=== CODE BLOCK ADDRESS 0x3c43 ===
  0x3c43	dec    	eax
  0x3c44	mov    	ecx, eax
  0x3c46	dec    	eax
  0x3c47	lea    	edx, [0x7a83]
  0x3c4d	call   	0x3f88
  === BLOCK LINK ===
    0x3c52
=== CODE BLOCK END ===

=== CODE BLOCK ADDRESS 0x3c52 ===
  0x3c52	mov    	ecx, 2
  0x3c57	call   	0x7f36
  === BLOCK LINK ===
    0x3c5c
=== CODE BLOCK END ===

=== CODE BLOCK ADDRESS 0x3c5c ===
  0x3c5c	dec    	esp
  0x3c5d	mov    	eax, dword ptr [ebp + 0x40]
  0x3c60	dec    	eax
  0x3c61	mov    	edx, eax
  0x3c63	dec    	eax
  === BLOCK LINK ===
    0x3c64
=== CODE BLOCK END ===

=== CODE BLOCK ADDRESS 0x3c64 ===
  0x3c64	mov    	ecx, edi
  0x3c66	call   	0x4988
  === BLOCK LINK ===
    0x3c6b
=== CODE BLOCK END ===

=== CODE BLOCK ADDRESS 0x3c6b ===
  0x3c6b	jmp    	0x3ca2
  === BLOCK LINK ===
    0x3c6d
=== CODE BLOCK END ===

=== CODE BLOCK ADDRESS 0x3c6d ===
  0x3c6d	cmp    	dword ptr [edi + 0x20], 0
  0x3c71	jle    	0x3cbb
  === BLOCK LINK ===
    0x3c73
=== CODE BLOCK END ===

=== CODE BLOCK ADDRESS 0x3c73 ===
  0x3c73	dec    	eax
  0x3c74	mov    	ecx, dword ptr [ebp + 0x40]
  0x3c77	dec    	eax
  0x3c78	call   	dword ptr [0x6262]
  === BLOCK LINK ===
    0x3c7e
=== CODE BLOCK END ===

=== CODE BLOCK ADDRESS 0x3c7e ===
  0x3c7e	nop    	dword ptr [eax + eax]
  0x3c83	mov    	ecx, 2
  0x3c88	dec    	eax
  0x3c89	mov    	ebx, eax
  0x3c8b	call   	0x7f36
  === BLOCK LINK ===
    0x3c90
=== CODE BLOCK END ===

=== CODE BLOCK ADDRESS 0x3c90 ===
  0x3c90	dec    	eax
  0x3c91	mov    	ecx, eax
  0x3c93	dec    	eax
  0x3c94	lea    	edx, [0x7a3a]
  0x3c9a	dec    	esp
  === BLOCK LINK ===
    0x3c9b
=== CODE BLOCK END ===

=== CODE BLOCK ADDRESS 0x3c9b ===
  0x3c9b	mov    	eax, ebx
  0x3c9d	call   	0x3f88
  === BLOCK LINK ===
    0x3ca2
=== CODE BLOCK END ===

=== CODE BLOCK ADDRESS 0x3ca2 ===
  0x3ca2	mov    	ecx, 2
  0x3ca7	call   	0x7f36
  === BLOCK LINK ===
    0x3cac
=== CODE BLOCK END ===

=== CODE BLOCK ADDRESS 0x3cac ===
  0x3cac	dec    	eax
  0x3cad	mov    	ecx, eax
  0x3caf	dec    	eax
  0x3cb0	call   	dword ptr [0x5fe2]
  === BLOCK LINK ===
    0x3cb6
=== CODE BLOCK END ===

=== CODE BLOCK ADDRESS 0x3cb6 ===
  0x3cb6	nop    	dword ptr [eax + eax]
  0x3cbb	test   	dword ptr [edi + 0x24], 0x800
  0x3cc2	dec    	eax
  0x3cc3	mov    	ecx, esi
  0x3cc5	je     	0x3cd8
  === BLOCK LINK ===
    0x3cc7
=== CODE BLOCK END ===

=== CODE BLOCK ADDRESS 0x3cc7 ===
  0x3cc7	inc    	ecx
  0x3cc8	mov    	edx, esi
  0x3cca	dec    	eax
  0x3ccb	call   	dword ptr [0x6167]
  === BLOCK LINK ===
    0x3cd1
=== CODE BLOCK END ===

=== CODE BLOCK ADDRESS 0x3cd1 ===
  0x3cd1	nop    	dword ptr [eax + eax]
  0x3cd6	jmp    	0x3ceb
  === BLOCK LINK ===
    0x3cd8
=== CODE BLOCK END ===

=== CODE BLOCK ADDRESS 0x3cd8 ===
  0x3cd8	dec    	eax
  0x3cd9	mov    	edx, dword ptr [ebp + 0x40]
  0x3cdc	dec    	ebp
  0x3cdd	mov    	eax, ebp
  0x3cdf	dec    	eax
  === BLOCK LINK ===
    0x3ce0
=== CODE BLOCK END ===

=== CODE BLOCK ADDRESS 0x3ce0 ===
  0x3ce0	call   	dword ptr [0x616a]
  === BLOCK LINK ===
    0x3ce6
=== CODE BLOCK END ===

=== CODE BLOCK ADDRESS 0x3ce6 ===
  0x3ce6	nop    	dword ptr [eax + eax]
  0x3ceb	inc    	esp
  0x3cec	mov    	edi, eax
  0x3cee	test   	eax, eax
  0x3cf0	je     	0x3d7f
  === BLOCK LINK ===
    0x3cf6
=== CODE BLOCK END ===

=== CODE BLOCK ADDRESS 0x3cf6 ===
  0x3cf6	cmp    	dword ptr [edi + 0x20], 0
  0x3cfa	jne    	0x3d2b
  === BLOCK LINK ===
    0x3cfc
=== CODE BLOCK END ===

=== CODE BLOCK ADDRESS 0x3cfc ===
  0x3cfc	dec    	eax
  0x3cfd	mov    	ecx, dword ptr [ebp + 0x40]
  0x3d00	dec    	eax
  0x3d01	call   	dword ptr [0x61d9]
  === BLOCK LINK ===
    0x3d07
=== CODE BLOCK END ===

=== CODE BLOCK ADDRESS 0x3d07 ===
  0x3d07	nop    	dword ptr [eax + eax]
  0x3d0c	mov    	ecx, 2
  0x3d11	dec    	eax
  0x3d12	mov    	ebx, eax
  0x3d14	call   	0x7f36
  === BLOCK LINK ===
    0x3d19
=== CODE BLOCK END ===

=== CODE BLOCK ADDRESS 0x3d19 ===
  0x3d19	dec    	eax
  0x3d1a	mov    	ecx, eax
  0x3d1c	dec    	eax
  0x3d1d	lea    	edx, [0x78dd]
  0x3d23	dec    	esp
  === BLOCK LINK ===
    0x3d24
=== CODE BLOCK END ===

=== CODE BLOCK ADDRESS 0x3d24 ===
  0x3d24	mov    	eax, ebx
  0x3d26	call   	0x3f88
  === BLOCK LINK ===
    0x3d2b
=== CODE BLOCK END ===

=== CODE BLOCK ADDRESS 0x3d2b ===
  0x3d2b	dec    	eax
  0x3d2c	mov    	ecx, esi
  0x3d2e	dec    	eax
  0x3d2f	call   	dword ptr [0x6213]
  === BLOCK LINK ===
    0x3d35
=== CODE BLOCK END ===

=== CODE BLOCK ADDRESS 0x3d35 ===
  0x3d35	nop    	dword ptr [eax + eax]
  0x3d3a	mov    	ecx, 2
  0x3d3f	dec    	eax
  0x3d40	mov    	ebx, eax
  0x3d42	call   	0x7f36
  === BLOCK LINK ===
    0x3d47
=== CODE BLOCK END ===

=== CODE BLOCK ADDRESS 0x3d47 ===
  0x3d47	dec    	eax
  0x3d48	mov    	ecx, eax
  0x3d4a	dec    	eax
  0x3d4b	lea    	edx, [0x798b]
  0x3d51	dec    	esp
  === BLOCK LINK ===
    0x3d52
=== CODE BLOCK END ===

=== CODE BLOCK ADDRESS 0x3d52 ===
  0x3d52	mov    	eax, ebx
  0x3d54	call   	0x3f88
  === BLOCK LINK ===
    0x3d59
=== CODE BLOCK END ===

=== CODE BLOCK ADDRESS 0x3d59 ===
  0x3d59	cmp    	dword ptr [edi + 0x20], 0
  0x3d5d	jne    	0x3d78
  === BLOCK LINK ===
    0x3d5f
=== CODE BLOCK END ===

=== CODE BLOCK ADDRESS 0x3d5f ===
  0x3d5f	mov    	ecx, 2
  0x3d64	call   	0x7f36
  === BLOCK LINK ===
    0x3d69
=== CODE BLOCK END ===

=== CODE BLOCK ADDRESS 0x3d69 ===
  0x3d69	dec    	eax
  0x3d6a	mov    	ecx, eax
  0x3d6c	dec    	eax
  0x3d6d	lea    	edx, [0x7831]
  0x3d73	call   	0x8098
  === BLOCK LINK ===
    0x3d78
=== CODE BLOCK END ===

=== CODE BLOCK ADDRESS 0x3d78 ===
  0x3d78	inc    	esp
  0x3d79	mov    	dword ptr [edi + 0xb4], esi
  0x3d7f	cmp    	dword ptr [edi + 0x20], 0
  0x3d83	je     	0x3d9e
  === BLOCK LINK ===
    0x3d85
=== CODE BLOCK END ===

=== CODE BLOCK ADDRESS 0x3d85 ===
  0x3d85	mov    	ecx, 2
  0x3d8a	call   	0x7f36
  === BLOCK LINK ===
    0x3d8f
=== CODE BLOCK END ===

=== CODE BLOCK ADDRESS 0x3d8f ===
  0x3d8f	dec    	eax
  0x3d90	mov    	ecx, eax
  0x3d92	dec    	eax
  0x3d93	lea    	edx, [0x780b]
  0x3d99	call   	0x8098
  === BLOCK LINK ===
    0x3d9e
=== CODE BLOCK END ===

=== CODE BLOCK ADDRESS 0x3d9e ===
  0x3d9e	inc    	ecx
  0x3d9f	cmp    	edi, -0x1e
  0x3da2	je     	0x3b40
  === BLOCK LINK ===
    0x3da8
=== CODE BLOCK END ===

=== CODE BLOCK ADDRESS 0x3da8 ===
  0x3da8	jmp    	0x38b7
  === BLOCK LINK ===
    0x3dad
=== CODE BLOCK END ===

=== CODE BLOCK ADDRESS 0x3dad ===
  0x3dad	dec    	eax
  0x3dae	lea    	edx, [0x78cc]
  0x3db4	xor    	ecx, ecx
  0x3db6	call   	0x6c14
  === BLOCK LINK ===
    0x3dbb
=== CODE BLOCK END ===

=== CODE BLOCK ADDRESS 0x3dbb ===
  0x3dbb	inc    	esp
  0x3dbc	mov    	dword ptr [edi + 0xb4], esi
  0x3dc2	jmp    	0x38b7
  === BLOCK LINK ===
    0x3dc7
=== CODE BLOCK END ===

=== CODE BLOCK ADDRESS 0x3dc7 ===
  0x3dc7	dec    	eax
  0x3dc8	mov    	ecx, dword ptr [edi + 0xf8]
  0x3dce	dec    	eax
  0x3dcf	call   	dword ptr [0x6173]
  === BLOCK LINK ===
    0x3dd5
=== CODE BLOCK END ===

=== CODE BLOCK ADDRESS 0x3dd5 ===
  0x3dd5	nop    	dword ptr [eax + eax]
  0x3dda	xor    	edx, edx
  0x3ddc	dec    	esp
  0x3ddd	lea    	eax, [0x77c5]
  0x3de3	dec    	esp
  === BLOCK LINK ===
    0x3de4
=== CODE BLOCK END ===

=== CODE BLOCK ADDRESS 0x3de4 ===
  0x3de4	mov    	ecx, eax
  0x3de6	lea    	ecx, [edx + 1]
  0x3de9	call   	0x6c3c
  === BLOCK LINK ===
    0x3dee
=== CODE BLOCK END ===

=== CODE BLOCK ADDRESS 0x3dee ===
  0x3dee	int3   	
  0x3def	dec    	eax
  0x3df0	mov    	ecx, dword ptr [edi + 0xf8]
  0x3df6	dec    	eax
  0x3df7	call   	dword ptr [0x614b]
  === BLOCK LINK ===
    0x3dfd
=== CODE BLOCK END ===

=== CODE BLOCK ADDRESS 0x3dfd ===
  0x3dfd	nop    	dword ptr [eax + eax]
  0x3e02	xor    	edx, edx
  0x3e04	dec    	esp
  0x3e05	lea    	eax, [0x779d]
  0x3e0b	dec    	esp
  === BLOCK LINK ===
    0x3e0c
=== CODE BLOCK END ===

=== CODE BLOCK ADDRESS 0x3e0c ===
  0x3e0c	mov    	ecx, eax
  0x3e0e	lea    	ecx, [edx + 1]
  0x3e11	call   	0x6c3c
  === BLOCK LINK ===
    0x3e16
=== CODE BLOCK END ===

=== CODE BLOCK ADDRESS 0x3e16 ===
  0x3e16	int3   	
  0x3e17	dec    	eax
  0x3e18	call   	dword ptr [0x5dca]
  === BLOCK LINK ===
    0x3e1e
=== CODE BLOCK END ===

=== CODE BLOCK ADDRESS 0x3e1e ===
  0x3e1e	nop    	dword ptr [eax + eax]
  0x3e23	dec    	esp
  0x3e24	lea    	eax, [0x64fe]
  0x3e2a	inc    	ecx
  0x3e2b	mov    	ecx, esi
  === BLOCK LINK ===
    0x3e2d
=== CODE BLOCK END ===

=== CODE BLOCK ADDRESS 0x3e2d ===
  0x3e2d	mov    	edx, dword ptr [eax]
  0x3e2f	call   	0x6c3c
  === BLOCK LINK ===
    0x3e34
=== CODE BLOCK END ===

=== CODE BLOCK ADDRESS 0x3e34 ===
  0x3e34	int3   	
  0x3e35	dec    	eax
  0x3e36	call   	dword ptr [0x610c]
  === BLOCK LINK ===
    0x3e3c
=== CODE BLOCK END ===

=== CODE BLOCK ADDRESS 0x3e3c ===
  0x3e3c	nop    	dword ptr [eax + eax]
  0x3e41	dec    	esp
  0x3e42	lea    	eax, [0x77b8]
  0x3e48	xor    	edx, edx
  0x3e4a	dec    	esp
  === BLOCK LINK ===
    0x3e4b
=== CODE BLOCK END ===

=== CODE BLOCK ADDRESS 0x3e4b ===
  0x3e4b	mov    	ecx, eax
  0x3e4d	inc    	ecx
  0x3e4e	mov    	ecx, esi
  0x3e50	call   	0x6c3c
  === BLOCK LINK ===
    0x3e55
=== CODE BLOCK END ===

=== CODE BLOCK ADDRESS 0x3e55 ===
  0x3e55	int3   	
  0x3e56	dec    	eax
  0x3e57	mov    	ecx, esi
  0x3e59	dec    	eax
  0x3e5a	call   	dword ptr [0x60e8]
  === BLOCK LINK ===
    0x3e60
=== CODE BLOCK END ===

=== CODE BLOCK ADDRESS 0x3e60 ===
  0x3e60	nop    	dword ptr [eax + eax]
  0x3e65	dec    	esp
  0x3e66	lea    	eax, [0x7794]
  0x3e6c	xor    	edx, edx
  0x3e6e	dec    	esp
  === BLOCK LINK ===
    0x3e6f
=== CODE BLOCK END ===

=== CODE BLOCK ADDRESS 0x3e6f ===
  0x3e6f	mov    	ecx, eax
  0x3e71	inc    	ecx
  0x3e72	mov    	ecx, esi
  0x3e74	call   	0x6c3c
  === BLOCK LINK ===
    0x3e79
=== CODE BLOCK END ===

=== CODE BLOCK ADDRESS 0x3e79 ===
  0x3e79	int3   	
  0x3e7a	dec    	eax
  0x3e7b	mov    	ecx, esi
  0x3e7d	dec    	eax
  0x3e7e	call   	dword ptr [0x60c4]
  === BLOCK LINK ===
    0x3e84
=== CODE BLOCK END ===

=== CODE BLOCK ADDRESS 0x3e84 ===
  0x3e84	nop    	dword ptr [eax + eax]
  0x3e89	dec    	esp
  0x3e8a	lea    	eax, [0x7770]
  0x3e90	xor    	edx, edx
  0x3e92	dec    	esp
  === BLOCK LINK ===
    0x3e93
=== CODE BLOCK END ===

=== CODE BLOCK ADDRESS 0x3e93 ===
  0x3e93	mov    	ecx, eax
  0x3e95	inc    	ecx
  0x3e96	mov    	ecx, esi
  0x3e98	call   	0x6c3c
  === BLOCK LINK ===
    0x3e9d
=== CODE BLOCK END ===

=== CODE BLOCK ADDRESS 0x3e9d ===
  0x3e9d	int3   	
  0x3e9e	dec    	eax
  0x3e9f	call   	dword ptr [0x60a3]
  === BLOCK LINK ===
    0x3ea5
=== CODE BLOCK END ===

=== CODE BLOCK ADDRESS 0x3ea5 ===
  0x3ea5	nop    	dword ptr [eax + eax]
  0x3eaa	dec    	esp
  0x3eab	lea    	eax, [0x774f]
  0x3eb1	xor    	edx, edx
  0x3eb3	dec    	esp
  === BLOCK LINK ===
    0x3eb4
=== CODE BLOCK END ===

=== CODE BLOCK ADDRESS 0x3eb4 ===
  0x3eb4	mov    	ecx, eax
  0x3eb6	inc    	ecx
  0x3eb7	mov    	ecx, esi
  0x3eb9	call   	0x6c3c
  === BLOCK LINK ===
    0x3ebe
=== CODE BLOCK END ===

=== CODE BLOCK ADDRESS 0x3ebe ===
  0x3ebe	int3   	
  0x3ebf	dec    	eax
  0x3ec0	mov    	ecx, esi
  0x3ec2	dec    	eax
  0x3ec3	call   	dword ptr [0x607f]
  === BLOCK LINK ===
    0x3ec9
=== CODE BLOCK END ===

=== CODE BLOCK ADDRESS 0x3ec9 ===
  0x3ec9	nop    	dword ptr [eax + eax]
  0x3ece	dec    	esp
  0x3ecf	lea    	eax, [0x7753]
  0x3ed5	xor    	edx, edx
  0x3ed7	dec    	esp
  === BLOCK LINK ===
    0x3ed8
=== CODE BLOCK END ===

=== CODE BLOCK ADDRESS 0x3ed8 ===
  0x3ed8	mov    	ecx, eax
  0x3eda	inc    	ecx
  0x3edb	mov    	ecx, esi
  0x3edd	call   	0x6c3c
  === BLOCK LINK ===
    0x3ee2
=== CODE BLOCK END ===

=== CODE BLOCK ADDRESS 0x3ee2 ===
  0x3ee2	int3   	
  0x3ee3	dec    	esp
  0x3ee4	lea    	eax, [0x775e]
  0x3eea	xor    	edx, edx
  0x3eec	inc    	ecx
  === BLOCK LINK ===
    0x3eed
=== CODE BLOCK END ===

=== CODE BLOCK ADDRESS 0x3eed ===
  0x3eed	mov    	ecx, esi
  0x3eef	call   	0x6c3c
  === BLOCK LINK ===
    0x3ef4
=== CODE BLOCK END ===

=== CODE BLOCK ADDRESS 0x3ef4 ===
  0x3ef4	int3   	
  0x3ef5	int3   	
  0x3ef6	int3   	
  0x3ef7	int3   	
  0x3ef8	int3   	
  === BLOCK LINK ===
    0x3ef9
=== CODE BLOCK END ===

=== CODE BLOCK ADDRESS 0x3ef9 ===
  0x3ef9	int3   	
  0x3efa	int3   	
  0x3efb	int3   	
  0x3efc	dec    	eax
  0x3efd	mov    	dword ptr [esp + 0x10], edx
  === BLOCK LINK ===
    0x3f01
=== CODE BLOCK END ===

=== CODE BLOCK ADDRESS 0x3f01 ===
  0x3f01	push   	ebx
  0x3f02	dec    	eax
  0x3f03	sub    	esp, 0x20
  0x3f06	dec    	eax
  0x3f07	mov    	ebx, ecx
  === BLOCK LINK ===
    0x3f09
=== CODE BLOCK END ===

=== CODE BLOCK ADDRESS 0x3f09 ===
  0x3f09	dec    	eax
  0x3f0a	test   	ecx, ecx
  0x3f0c	jne    	0x3f2f
  === BLOCK LINK ===
    0x3f0e
=== CODE BLOCK END ===

=== CODE BLOCK ADDRESS 0x3f0e ===
  0x3f0e	xor    	eax, eax
  0x3f10	jmp    	0x3f58
  === BLOCK LINK ===
    0x3f12
=== CODE BLOCK END ===

=== CODE BLOCK ADDRESS 0x3f12 ===
  0x3f12	dec    	esp
  0x3f13	mov    	eax, dword ptr [esp + 0x38]
  0x3f17	dec    	esp
  0x3f18	lea    	ecx, [0x764a]
  0x3f1e	dec    	eax
  === BLOCK LINK ===
    0x3f1f
=== CODE BLOCK END ===

=== CODE BLOCK ADDRESS 0x3f1f ===
  0x3f1f	lea    	edx, [0x77eb]
  0x3f25	xor    	ecx, ecx
  0x3f27	call   	0x6c14
  === BLOCK LINK ===
    0x3f2c
=== CODE BLOCK END ===

=== CODE BLOCK ADDRESS 0x3f2c ===
  0x3f2c	dec    	eax
  0x3f2d	mov    	ecx, ebx
  0x3f2f	dec    	eax
  0x3f30	lea    	edx, [esp + 0x38]
  0x3f34	dec    	eax
  === BLOCK LINK ===
    0x3f35
=== CODE BLOCK END ===

=== CODE BLOCK ADDRESS 0x3f35 ===
  0x3f35	call   	dword ptr [0x5f0d]
  === BLOCK LINK ===
    0x3f3b
=== CODE BLOCK END ===

=== CODE BLOCK ADDRESS 0x3f3b ===
  0x3f3b	nop    	dword ptr [eax + eax]
  0x3f40	test   	eax, eax
  0x3f42	je     	0x3f12
  === BLOCK LINK ===
    0x3f44
=== CODE BLOCK END ===

=== CODE BLOCK ADDRESS 0x3f44 ===
  0x3f44	cmp    	eax, -0x1e
  0x3f47	je     	0x3f5f
  === BLOCK LINK ===
    0x3f49
=== CODE BLOCK END ===

=== CODE BLOCK ADDRESS 0x3f49 ===
  0x3f49	dec    	eax
  0x3f4a	mov    	ecx, ebx
  0x3f4c	dec    	eax
  0x3f4d	call   	dword ptr [0x5fd5]
  === BLOCK LINK ===
    0x3f53
=== CODE BLOCK END ===

=== CODE BLOCK ADDRESS 0x3f53 ===
  0x3f53	nop    	dword ptr [eax + eax]
  0x3f58	dec    	eax
  0x3f59	add    	esp, 0x20
  0x3f5c	pop    	ebx
  0x3f5d	ret    	
  === BLOCK LINK ===
    0x3f5e
=== CODE BLOCK END ===

=== CODE BLOCK ADDRESS 0x119b ===
  0x119b	dec    	eax
  0x119c	lea    	ecx, [esp + 0x40]
  === BLOCK LINK ===
    0x11a0
=== CODE BLOCK END ===

=== CODE BLOCK ADDRESS 0x3f5e ===
  0x3f5e	int3   	
  0x3f5f	dec    	eax
  0x3f60	call   	dword ptr [0x5c82]
  === BLOCK LINK ===
    0x3f66
=== CODE BLOCK END ===

=== CODE BLOCK ADDRESS 0x3f66 ===
  0x3f66	nop    	dword ptr [eax + eax]
  0x3f6b	dec    	esp
  0x3f6c	lea    	eax, [0x63b6]
  0x3f72	mov    	ecx, 1
  0x3f77	mov    	edx, dword ptr [eax]
  === BLOCK LINK ===
    0x3f79
=== CODE BLOCK END ===

=== CODE BLOCK ADDRESS 0x3f79 ===
  0x3f79	call   	0x6c3c
  === BLOCK LINK ===
    0x3f7e
=== CODE BLOCK END ===

=== CODE BLOCK ADDRESS 0x3f7e ===
  0x3f7e	int3   	
  0x3f7f	int3   	
  0x3f80	int3   	
  0x3f81	int3   	
  0x3f82	int3   	
  === BLOCK LINK ===
    0x3f83
=== CODE BLOCK END ===

=== CODE BLOCK ADDRESS 0x3f83 ===
  0x3f83	int3   	
  0x3f84	int3   	
  0x3f85	int3   	
  0x3f86	int3   	
  0x3f87	int3   	
  === BLOCK LINK ===
    0x3f88
=== CODE BLOCK END ===

=== CODE BLOCK ADDRESS 0x3f88 ===
  0x3f88	dec    	eax
  0x3f89	mov    	eax, esp
  0x3f8b	dec    	eax
  0x3f8c	mov    	dword ptr [eax + 0x10], edx
  0x3f8f	dec    	esp
  === BLOCK LINK ===
    0x3f90
=== CODE BLOCK END ===

=== CODE BLOCK ADDRESS 0x3f90 ===
  0x3f90	mov    	dword ptr [eax + 0x18], eax
  0x3f93	dec    	esp
  0x3f94	mov    	dword ptr [eax + 0x20], ecx
  0x3f97	push   	ebp
  0x3f98	push   	ebx
  === BLOCK LINK ===
    0x3f99
=== CODE BLOCK END ===

=== CODE BLOCK ADDRESS 0x3f99 ===
  0x3f99	push   	esi
  0x3f9a	push   	edi
  0x3f9b	inc    	ecx
  0x3f9c	push   	esp
  0x3f9d	inc    	ecx
  === BLOCK LINK ===
    0x3f9e
=== CODE BLOCK END ===

=== CODE BLOCK ADDRESS 0x3f9e ===
  0x3f9e	push   	ebp
  0x3f9f	inc    	ecx
  0x3fa0	push   	esi
  0x3fa1	inc    	ecx
  0x3fa2	push   	edi
  === BLOCK LINK ===
    0x3fa3
=== CODE BLOCK END ===

=== CODE BLOCK ADDRESS 0x3fa3 ===
  0x3fa3	dec    	eax
  0x3fa4	lea    	ebp, [eax - 0x188]
  0x3faa	dec    	eax
  0x3fab	sub    	esp, 0x248
  0x3fb1	dec    	eax
  === BLOCK LINK ===
    0x3fb2
=== CODE BLOCK END ===

=== CODE BLOCK ADDRESS 0x3fb2 ===
  0x3fb2	mov    	eax, dword ptr [0xb048]
  0x3fb8	dec    	eax
  0x3fb9	xor    	eax, esp
  0x3fbb	dec    	eax
  0x3fbc	mov    	dword ptr [ebp + 0x130], eax
  === BLOCK LINK ===
    0x3fc2
=== CODE BLOCK END ===

=== CODE BLOCK ADDRESS 0x3fc2 ===
  0x3fc2	dec    	esp
  0x3fc3	mov    	ebp, ecx
  0x3fc5	dec    	esp
  0x3fc6	lea    	ecx, [ebp + 0x1a0]
  0x3fcc	dec    	esp
  === BLOCK LINK ===
    0x3fcd
=== CODE BLOCK END ===

=== CODE BLOCK ADDRESS 0x3fcd ===
  0x3fcd	mov    	eax, edx
  0x3fcf	dec    	eax
  0x3fd0	lea    	ecx, [ebp + 0x30]
  0x3fd3	mov    	ebx, 0x100
  0x3fd8	dec    	eax
  === BLOCK LINK ===
    0x3fd9
=== CODE BLOCK END ===

=== CODE BLOCK ADDRESS 0x3fd9 ===
  0x3fd9	lea    	esi, [ebp + 0x30]
  0x3fdc	mov    	edx, ebx
  0x3fde	inc    	ebp
  0x3fdf	xor    	edi, edi
  0x3fe1	call   	0x8138
  === BLOCK LINK ===
    0x3fe6
=== CODE BLOCK END ===

=== CODE BLOCK ADDRESS 0x3fe6 ===
  0x3fe6	dec    	esp
  0x3fe7	and    	dword ptr [esp + 0x28], edi
  0x3feb	mov    	edi, eax
  0x3fed	test   	eax, eax
  0x3fef	js     	0x3ff9
  === BLOCK LINK ===
    0x3ff1
=== CODE BLOCK END ===

=== CODE BLOCK ADDRESS 0x3ff1 ===
  0x3ff1	cmp    	eax, ebx
  0x3ff3	jl     	0x4089
  === BLOCK LINK ===
    0x3ff9
=== CODE BLOCK END ===

=== CODE BLOCK ADDRESS 0x3ff9 ===
  0x3ff9	cmp    	edi, ebx
  0x3ffb	jl     	0x4002
  === BLOCK LINK ===
    0x3ffd
=== CODE BLOCK END ===

=== CODE BLOCK ADDRESS 0x3ffd ===
  0x3ffd	lea    	ebx, [edi + 1]
  0x4000	jmp    	0x4023
  === BLOCK LINK ===
    0x4002
=== CODE BLOCK END ===

=== CODE BLOCK ADDRESS 0x4002 ===
  0x4002	cmp    	ebx, 0x2000
  0x4008	jge    	0x400e
  === BLOCK LINK ===
    0x400a
=== CODE BLOCK END ===

=== CODE BLOCK ADDRESS 0x400a ===
  0x400a	add    	ebx, ebx
  0x400c	jmp    	0x4023
  === BLOCK LINK ===
    0x400e
=== CODE BLOCK END ===

=== CODE BLOCK ADDRESS 0x400e ===
  0x400e	cmp    	ebx, 0xf4240
  0x4014	jge    	0x407e
  === BLOCK LINK ===
    0x4016
=== CODE BLOCK END ===

=== CODE BLOCK ADDRESS 0x4016 ===
  0x4016	mov    	eax, ebx
  0x4018	cdq    	
  0x4019	and    	edx, 3
  0x401c	add    	eax, edx
  0x401e	sar    	eax, 2
  === BLOCK LINK ===
    0x4021
=== CODE BLOCK END ===

=== CODE BLOCK ADDRESS 0x4021 ===
  0x4021	add    	ebx, eax
  0x4023	dec    	ecx
  0x4024	mov    	ecx, edi
  0x4026	dec    	eax
  0x4027	call   	dword ptr [0x5c8b]
  === BLOCK LINK ===
    0x402d
=== CODE BLOCK END ===

=== CODE BLOCK ADDRESS 0x402d ===
  0x402d	nop    	dword ptr [eax + eax]
  0x4032	dec    	eax
  0x4033	arpl   	bx, di
  0x4035	dec    	eax
  0x4036	mov    	ecx, edi
  === BLOCK LINK ===
    0x4038
=== CODE BLOCK END ===

=== CODE BLOCK ADDRESS 0x4038 ===
  0x4038	dec    	eax
  0x4039	call   	dword ptr [0x5ca1]
  === BLOCK LINK ===
    0x403f
=== CODE BLOCK END ===

=== CODE BLOCK ADDRESS 0x403f ===
  0x403f	nop    	dword ptr [eax + eax]
  0x4044	dec    	esp
  0x4045	mov    	edi, eax
  0x4047	dec    	eax
  0x4048	test   	eax, eax
  === BLOCK LINK ===
    0x404a
=== CODE BLOCK END ===

=== CODE BLOCK ADDRESS 0x404a ===
  0x404a	je     	0x4073
  === BLOCK LINK ===
    0x404c
=== CODE BLOCK END ===

=== CODE BLOCK ADDRESS 0x404c ===
  0x404c	dec    	esp
  0x404d	mov    	eax, dword ptr [ebp + 0x198]
  0x4053	dec    	esp
  0x4054	lea    	ecx, [ebp + 0x1a0]
  0x405a	dec    	eax
  === BLOCK LINK ===
    0x405b
=== CODE BLOCK END ===

=== CODE BLOCK ADDRESS 0x405b ===
  0x405b	mov    	edx, edi
  0x405d	dec    	eax
  0x405e	mov    	ecx, eax
  0x4060	dec    	eax
  0x4061	mov    	esi, eax
  === BLOCK LINK ===
    0x4063
=== CODE BLOCK END ===

=== CODE BLOCK ADDRESS 0x4063 ===
  0x4063	call   	0x8138
  === BLOCK LINK ===
    0x4068
=== CODE BLOCK END ===

=== CODE BLOCK ADDRESS 0x4068 ===
  0x4068	dec    	eax
  0x4069	and    	dword ptr [esp + 0x28], 0
  0x406e	jmp    	0x3feb
  === BLOCK LINK ===
    0x4073
=== CODE BLOCK END ===

=== CODE BLOCK ADDRESS 0x4073 ===
  0x4073	dec    	eax
  0x4074	lea    	esi, [ebp + 0x30]
  0x4077	mov    	edi, 0xff
  0x407c	jmp    	0x4089
  === BLOCK LINK ===
    0x407e
=== CODE BLOCK END ===

=== CODE BLOCK ADDRESS 0x407e ===
  0x407e	dec    	eax
  0x407f	arpl   	bx, ax
  0x4081	mov    	edi, ebx
  0x4083	inc    	edx
  0x4084	mov    	byte ptr [eax + edi - 1], 0
  === BLOCK LINK ===
    0x4089
=== CODE BLOCK END ===

=== CODE BLOCK ADDRESS 0x4089 ===
  0x4089	xor    	edx, edx
  0x408b	xor    	ecx, ecx
  0x408d	inc    	esp
  0x408e	lea    	eax, [edx + 1]
  0x4091	dec    	eax
  === BLOCK LINK ===
    0x4092
=== CODE BLOCK END ===

=== CODE BLOCK ADDRESS 0x4092 ===
  0x4092	call   	dword ptr [0x5c50]
  === BLOCK LINK ===
    0x4098
=== CODE BLOCK END ===

=== CODE BLOCK ADDRESS 0x4098 ===
  0x4098	nop    	dword ptr [eax + eax]
  0x409d	cmp    	eax, -1
  0x40a0	jne    	0x40d5
  === BLOCK LINK ===
    0x40a2
=== CODE BLOCK END ===

=== CODE BLOCK ADDRESS 0x40a2 ===
  0x40a2	dec    	ecx
  0x40a3	mov    	ecx, edi
  0x40a5	dec    	eax
  0x40a6	call   	dword ptr [0x5c0c]
  === BLOCK LINK ===
    0x40ac
=== CODE BLOCK END ===

=== CODE BLOCK ADDRESS 0x40ac ===
  0x40ac	nop    	dword ptr [eax + eax]
  0x40b1	dec    	eax
  0x40b2	mov    	ecx, dword ptr [ebp + 0x130]
  0x40b8	dec    	eax
  0x40b9	xor    	ecx, esp
  === BLOCK LINK ===
    0x40bb
=== CODE BLOCK END ===

=== CODE BLOCK ADDRESS 0x40bb ===
  0x40bb	call   	0x7390
  === BLOCK LINK ===
    0x40c0
=== CODE BLOCK END ===

=== CODE BLOCK ADDRESS 0x40c0 ===
  0x40c0	dec    	eax
  0x40c1	add    	esp, 0x248
  0x40c7	inc    	ecx
  0x40c8	pop    	edi
  0x40c9	inc    	ecx
  === BLOCK LINK ===
    0x40ca
=== CODE BLOCK END ===

=== CODE BLOCK ADDRESS 0x40ca ===
  0x40ca	pop    	esi
  0x40cb	inc    	ecx
  0x40cc	pop    	ebp
  0x40cd	inc    	ecx
  0x40ce	pop    	esp
  === BLOCK LINK ===
    0x40cf
=== CODE BLOCK END ===

=== CODE BLOCK ADDRESS 0x40cf ===
  0x40cf	pop    	edi
  0x40d0	pop    	esi
  0x40d1	pop    	ebx
  0x40d2	pop    	ebp
  0x40d3	ret    	
  === BLOCK LINK ===
    0x40d4
=== CODE BLOCK END ===

=== CODE BLOCK ADDRESS 0x241d ===
  0x241d	dec    	esp
  0x241e	lea    	eax, [0x7f4c]
  0x2424	xor    	edx, edx
  0x2426	mov    	ecx, ebx
  === BLOCK LINK ===
    0x2428
=== CODE BLOCK END ===

=== CODE BLOCK ADDRESS 0x40d4 ===
  0x40d4	int3   	
  0x40d5	xor    	ebx, ebx
  0x40d7	inc    	ecx
  0x40d8	mov    	ah, 1
  0x40da	cmp    	byte ptr [esi], bl
  === BLOCK LINK ===
    0x40dc
=== CODE BLOCK END ===

=== CODE BLOCK ADDRESS 0x40dc ===
  0x40dc	je     	0x41aa
  === BLOCK LINK ===
    0x40e2
=== CODE BLOCK END ===

=== CODE BLOCK ADDRESS 0x40e2 ===
  0x40e2	inc    	ebp
  0x40e3	test   	ah, ah
  0x40e5	je     	0x415f
  === BLOCK LINK ===
    0x40e7
=== CODE BLOCK END ===

=== CODE BLOCK ADDRESS 0x40e7 ===
  0x40e7	dec    	esp
  0x40e8	arpl   	di, ax
  0x40ea	dec    	eax
  0x40eb	lea    	ecx, [esp + 0x20]
  0x40ef	dec    	eax
  === BLOCK LINK ===
    0x40f0
=== CODE BLOCK END ===

=== CODE BLOCK ADDRESS 0x40f0 ===
  0x40f0	mov    	edx, esi
  0x40f2	dec    	eax
  0x40f3	call   	dword ptr [0x5bef]
  === BLOCK LINK ===
    0x40f9
=== CODE BLOCK END ===

=== CODE BLOCK ADDRESS 0x40f9 ===
  0x40f9	nop    	dword ptr [eax + eax]
  0x40fe	inc    	esp
  0x40ff	mov    	esi, eax
  0x4101	cmp    	eax, -1
  0x4104	je     	0x415f
  === BLOCK LINK ===
    0x4106
=== CODE BLOCK END ===

=== CODE BLOCK ADDRESS 0x4106 ===
  0x4106	movzx  	ecx, word ptr [esp + 0x20]
  0x410b	mov    	edx, 0x157
  0x4110	sub    	edi, eax
  0x4112	dec    	eax
  0x4113	call   	dword ptr [0x5bbf]
  === BLOCK LINK ===
    0x4119
=== CODE BLOCK END ===

=== CODE BLOCK ADDRESS 0x4119 ===
  0x4119	nop    	dword ptr [eax + eax]
  0x411e	test   	eax, eax
  0x4120	je     	0x4158
  === BLOCK LINK ===
    0x4122
=== CODE BLOCK END ===

=== CODE BLOCK ADDRESS 0x4122 ===
  0x4122	cmp    	word ptr [esp + 0x20], 0x5c
  0x4128	je     	0x4158
  === BLOCK LINK ===
    0x412a
=== CODE BLOCK END ===

=== CODE BLOCK ADDRESS 0x412a ===
  0x412a	jmp    	0x413a
  === BLOCK LINK ===
    0x412c
=== CODE BLOCK END ===

=== CODE BLOCK ADDRESS 0x412c ===
  0x412c	mov    	al, byte ptr [esi]
  0x412e	inc    	ecx
  0x412f	dec    	esi
  0x4131	mov    	byte ptr [esp + ebx + 0x30], al
  0x4135	inc    	ebx
  === BLOCK LINK ===
    0x4137
=== CODE BLOCK END ===

=== CODE BLOCK ADDRESS 0x4137 ===
  0x4137	dec    	eax
  0x4138	inc    	esi
  0x413a	inc    	ebp
  0x413b	test   	esi, esi
  0x413d	jg     	0x412c
  === BLOCK LINK ===
    0x413f
=== CODE BLOCK END ===

=== CODE BLOCK ADDRESS 0x413f ===
  0x413f	jmp    	0x4176
  === BLOCK LINK ===
    0x4141
=== CODE BLOCK END ===

=== CODE BLOCK ADDRESS 0x4141 ===
  0x4141	inc    	esp
  0x4142	mov    	al, byte ptr [esi]
  0x4144	dec    	eax
  0x4145	lea    	ecx, [esp + 0x30]
  0x4149	mov    	edx, ebx
  === BLOCK LINK ===
    0x414b
=== CODE BLOCK END ===

=== CODE BLOCK ADDRESS 0x414b ===
  0x414b	inc    	ecx
  0x414c	dec    	esi
  0x414e	call   	0x41dc
  === BLOCK LINK ===
    0x4153
=== CODE BLOCK END ===

=== CODE BLOCK ADDRESS 0x4153 ===
  0x4153	add    	ebx, eax
  0x4155	dec    	eax
  0x4156	inc    	esi
  0x4158	inc    	ebp
  0x4159	test   	esi, esi
  === BLOCK LINK ===
    0x415b
=== CODE BLOCK END ===

=== CODE BLOCK ADDRESS 0x415b ===
  0x415b	jg     	0x4141
  === BLOCK LINK ===
    0x415d
=== CODE BLOCK END ===

=== CODE BLOCK ADDRESS 0x415d ===
  0x415d	jmp    	0x4176
  === BLOCK LINK ===
    0x415f
=== CODE BLOCK END ===

=== CODE BLOCK ADDRESS 0x415f ===
  0x415f	inc    	esp
  0x4160	mov    	al, byte ptr [esi]
  0x4162	dec    	eax
  0x4163	lea    	ecx, [esp + 0x30]
  0x4167	mov    	edx, ebx
  === BLOCK LINK ===
    0x4169
=== CODE BLOCK END ===

=== CODE BLOCK ADDRESS 0x4169 ===
  0x4169	call   	0x41dc
  === BLOCK LINK ===
    0x416e
=== CODE BLOCK END ===

=== CODE BLOCK ADDRESS 0x416e ===
  0x416e	add    	ebx, eax
  0x4170	dec    	eax
  0x4171	inc    	esi
  0x4173	inc    	ebp
  0x4174	xor    	ah, ah
  === BLOCK LINK ===
    0x4176
=== CODE BLOCK END ===

=== CODE BLOCK ADDRESS 0x4176 ===
  0x4176	cmp    	ebx, 0x80
  0x417c	jbe    	0x41a1
  === BLOCK LINK ===
    0x417e
=== CODE BLOCK END ===

=== CODE BLOCK ADDRESS 0x417e ===
  0x417e	cmp    	ebx, 0x100
  0x4184	jae    	0x41d0
  === BLOCK LINK ===
    0x4186
=== CODE BLOCK END ===

=== CODE BLOCK ADDRESS 0x4186 ===
  0x4186	dec    	esp
  0x4187	lea    	eax, [esp + 0x30]
  0x418b	mov    	byte ptr [esp + ebx + 0x30], 0
  0x4190	dec    	eax
  0x4191	lea    	edx, [0x7469]
  === BLOCK LINK ===
    0x4197
=== CODE BLOCK END ===

=== CODE BLOCK ADDRESS 0x4197 ===
  0x4197	dec    	ecx
  0x4198	mov    	ecx, ebp
  0x419a	call   	0x8098
  === BLOCK LINK ===
    0x419f
=== CODE BLOCK END ===

=== CODE BLOCK ADDRESS 0x419f ===
  0x419f	xor    	ebx, ebx
  0x41a1	cmp    	byte ptr [esi], 0
  0x41a4	jne    	0x40e2
  === BLOCK LINK ===
    0x41aa
=== CODE BLOCK END ===

=== CODE BLOCK ADDRESS 0x41aa ===
  0x41aa	cmp    	ebx, 0x100
  0x41b0	jae    	0x41d0
  === BLOCK LINK ===
    0x41b2
=== CODE BLOCK END ===

=== CODE BLOCK ADDRESS 0x41b2 ===
  0x41b2	dec    	esp
  0x41b3	lea    	eax, [esp + 0x30]
  0x41b7	mov    	byte ptr [esp + ebx + 0x30], 0
  0x41bc	dec    	eax
  0x41bd	lea    	edx, [0x743d]
  === BLOCK LINK ===
    0x41c3
=== CODE BLOCK END ===

=== CODE BLOCK ADDRESS 0x41c3 ===
  0x41c3	dec    	ecx
  0x41c4	mov    	ecx, ebp
  0x41c6	call   	0x8098
  === BLOCK LINK ===
    0x41cb
=== CODE BLOCK END ===

=== CODE BLOCK ADDRESS 0x41cb ===
  0x41cb	jmp    	0x40a2
  === BLOCK LINK ===
    0x41d0
=== CODE BLOCK END ===

=== CODE BLOCK ADDRESS 0x41d0 ===
  0x41d0	call   	0x74f8
  === BLOCK LINK ===
    0x41d5
=== CODE BLOCK END ===

=== CODE BLOCK ADDRESS 0x41d5 ===
  0x41d5	int3   	
  0x41d6	int3   	
  0x41d7	int3   	
  0x41d8	int3   	
  0x41d9	int3   	
  === BLOCK LINK ===
    0x41da
=== CODE BLOCK END ===

=== CODE BLOCK ADDRESS 0x41da ===
  0x41da	int3   	
  0x41db	int3   	
  0x41dc	dec    	eax
  0x41dd	mov    	eax, esp
  0x41df	dec    	eax
  === BLOCK LINK ===
    0x41e0
=== CODE BLOCK END ===

=== CODE BLOCK ADDRESS 0x41e0 ===
  0x41e0	mov    	dword ptr [eax + 8], ebx
  0x41e3	dec    	eax
  0x41e4	mov    	dword ptr [eax + 0x10], ebp
  0x41e7	dec    	eax
  0x41e8	mov    	dword ptr [eax + 0x18], esi
  === BLOCK LINK ===
    0x41eb
=== CODE BLOCK END ===

=== CODE BLOCK ADDRESS 0x41eb ===
  0x41eb	dec    	eax
  0x41ec	mov    	dword ptr [eax + 0x20], edi
  0x41ef	inc    	ecx
  0x41f0	push   	esi
  0x41f1	dec    	eax
  === BLOCK LINK ===
    0x41f2
=== CODE BLOCK END ===

=== CODE BLOCK ADDRESS 0x41f2 ===
  0x41f2	sub    	esp, 0x20
  0x41f5	inc    	ecx
  0x41f6	movsx  	esi, al
  0x41f9	dec    	esp
  0x41fa	mov    	esi, ecx
  === BLOCK LINK ===
    0x41fc
=== CODE BLOCK END ===

=== CODE BLOCK ADDRESS 0x41fc ===
  0x41fc	inc    	eax
  0x41fd	movzx  	ebp, dh
  0x4200	dec    	eax
  0x4201	mov    	edi, edx
  0x4203	mov    	ecx, ebp
  === BLOCK LINK ===
    0x4205
=== CODE BLOCK END ===

=== CODE BLOCK ADDRESS 0x4205 ===
  0x4205	dec    	eax
  0x4206	call   	dword ptr [0x5abc]
  === BLOCK LINK ===
    0x420c
=== CODE BLOCK END ===

=== CODE BLOCK ADDRESS 0x420c ===
  0x420c	nop    	dword ptr [eax + eax]
  0x4211	test   	eax, eax
  0x4213	je     	0x4225
  === BLOCK LINK ===
    0x4215
=== CODE BLOCK END ===

=== CODE BLOCK ADDRESS 0x4215 ===
  0x4215	inc    	eax
  0x4216	cmp    	dh, 0x5c
  0x4219	je     	0x4225
  === BLOCK LINK ===
    0x421b
=== CODE BLOCK END ===

=== CODE BLOCK ADDRESS 0x421b ===
  0x421b	inc    	ecx
  0x421c	mov    	byte ptr [esi + edi], dh
  0x421f	dec    	eax
  0x4220	lea    	ebx, [edi + 1]
  0x4223	jmp    	0x429a
  === BLOCK LINK ===
    0x4225
=== CODE BLOCK END ===

=== CODE BLOCK ADDRESS 0x4225 ===
  0x4225	mov    	edx, esi
  0x4227	inc    	ecx
  0x4228	mov    	byte ptr [esi + edi], 0x5c
  0x422c	dec    	eax
  0x422d	lea    	ebx, [edi + 1]
  === BLOCK LINK ===
    0x4230
=== CODE BLOCK END ===

=== CODE BLOCK ADDRESS 0x4230 ===
  0x4230	dec    	edx
  0x4231	lea    	ecx, [ebx + esi]
  0x4234	sub    	edx, 7
  0x4237	je     	0x4294
  === BLOCK LINK ===
    0x4239
=== CODE BLOCK END ===

=== CODE BLOCK ADDRESS 0x4239 ===
  0x4239	sub    	edx, 1
  0x423c	je     	0x428f
  === BLOCK LINK ===
    0x423e
=== CODE BLOCK END ===

=== CODE BLOCK ADDRESS 0x423e ===
  0x423e	sub    	edx, 1
  0x4241	je     	0x428a
  === BLOCK LINK ===
    0x4243
=== CODE BLOCK END ===

=== CODE BLOCK ADDRESS 0x4243 ===
  0x4243	sub    	edx, 1
  0x4246	je     	0x4285
  === BLOCK LINK ===
    0x4248
=== CODE BLOCK END ===

=== CODE BLOCK ADDRESS 0x4248 ===
  0x4248	sub    	edx, 1
  0x424b	je     	0x4280
  === BLOCK LINK ===
    0x424d
=== CODE BLOCK END ===

=== CODE BLOCK ADDRESS 0x424d ===
  0x424d	sub    	edx, 1
  0x4250	je     	0x427b
  === BLOCK LINK ===
    0x4252
=== CODE BLOCK END ===

=== CODE BLOCK ADDRESS 0x4252 ===
  0x4252	sub    	edx, 1
  0x4255	je     	0x4276
  === BLOCK LINK ===
    0x4257
=== CODE BLOCK END ===

=== CODE BLOCK ADDRESS 0x4257 ===
  0x4257	cmp    	edx, 0x4f
  0x425a	je     	0x4271
  === BLOCK LINK ===
    0x425c
=== CODE BLOCK END ===

=== CODE BLOCK ADDRESS 0x425c ===
  0x425c	inc    	esp
  0x425d	mov    	eax, ebp
  0x425f	dec    	eax
  0x4260	lea    	edx, [0x74b2]
  0x4266	call   	0x81a0
  === BLOCK LINK ===
    0x426b
=== CODE BLOCK END ===

=== CODE BLOCK ADDRESS 0x426b ===
  0x426b	dec    	eax
  0x426c	add    	ebx, 3
  0x426f	jmp    	0x429a
  === BLOCK LINK ===
    0x4271
=== CODE BLOCK END ===

=== CODE BLOCK ADDRESS 0x4271 ===
  0x4271	mov    	byte ptr [ecx], 0x5c
  0x4274	jmp    	0x4297
  === BLOCK LINK ===
    0x4276
=== CODE BLOCK END ===

=== CODE BLOCK ADDRESS 0x4276 ===
  0x4276	mov    	byte ptr [ecx], 0x72
  0x4279	jmp    	0x4297
  === BLOCK LINK ===
    0x427b
=== CODE BLOCK END ===

=== CODE BLOCK ADDRESS 0x427b ===
  0x427b	mov    	byte ptr [ecx], 0x66
  0x427e	jmp    	0x4297
  === BLOCK LINK ===
    0x4280
=== CODE BLOCK END ===

=== CODE BLOCK ADDRESS 0x4280 ===
  0x4280	mov    	byte ptr [ecx], 0x76
  0x4283	jmp    	0x4297
  === BLOCK LINK ===
    0x4285
=== CODE BLOCK END ===

=== CODE BLOCK ADDRESS 0x4285 ===
  0x4285	mov    	byte ptr [ecx], 0x6e
  0x4288	jmp    	0x4297
  === BLOCK LINK ===
    0x428a
=== CODE BLOCK END ===

=== CODE BLOCK ADDRESS 0x428a ===
  0x428a	mov    	byte ptr [ecx], 0x74
  0x428d	jmp    	0x4297
  === BLOCK LINK ===
    0x428f
=== CODE BLOCK END ===

=== CODE BLOCK ADDRESS 0x428f ===
  0x428f	mov    	byte ptr [ecx], 0x62
  0x4292	jmp    	0x4297
  === BLOCK LINK ===
    0x4294
=== CODE BLOCK END ===

=== CODE BLOCK ADDRESS 0x4294 ===
  0x4294	mov    	byte ptr [ecx], 0x61
  0x4297	dec    	eax
  0x4298	inc    	ebx
  0x429a	dec    	eax
  0x429b	mov    	ebp, dword ptr [esp + 0x38]
  === BLOCK LINK ===
    0x429f
=== CODE BLOCK END ===

=== CODE BLOCK ADDRESS 0x429f ===
  0x429f	dec    	eax
  0x42a0	sub    	ebx, edi
  0x42a2	dec    	eax
  0x42a3	mov    	esi, dword ptr [esp + 0x40]
  0x42a7	dec    	eax
  === BLOCK LINK ===
    0x42a8
=== CODE BLOCK END ===

=== CODE BLOCK ADDRESS 0x42a8 ===
  0x42a8	mov    	eax, ebx
  0x42aa	dec    	eax
  0x42ab	mov    	ebx, dword ptr [esp + 0x30]
  0x42af	dec    	eax
  0x42b0	mov    	edi, dword ptr [esp + 0x48]
  === BLOCK LINK ===
    0x42b4
=== CODE BLOCK END ===

=== CODE BLOCK ADDRESS 0x42b4 ===
  0x42b4	dec    	eax
  0x42b5	add    	esp, 0x20
  0x42b8	inc    	ecx
  0x42b9	pop    	esi
  0x42ba	ret    	
  === BLOCK LINK ===
    0x42bb
=== CODE BLOCK END ===

=== CODE BLOCK ADDRESS 0x42bb ===
  0x42bb	int3   	
  0x42bc	int3   	
  0x42bd	int3   	
  0x42be	int3   	
  0x42bf	int3   	
  === BLOCK LINK ===
    0x42c0
=== CODE BLOCK END ===

=== CODE BLOCK ADDRESS 0x42c0 ===
  0x42c0	int3   	
  0x42c1	int3   	
  0x42c2	int3   	
  0x42c3	int3   	
  0x42c4	dec    	esp
  === BLOCK LINK ===
    0x42c5
=== CODE BLOCK END ===

=== CODE BLOCK ADDRESS 0x42c5 ===
  0x42c5	mov    	ebx, esp
  0x42c7	dec    	ecx
  0x42c8	mov    	dword ptr [ebx + 8], ecx
  0x42cb	dec    	ecx
  0x42cc	mov    	dword ptr [ebx + 0x10], edx
  === BLOCK LINK ===
    0x42cf
=== CODE BLOCK END ===

=== CODE BLOCK ADDRESS 0x42cf ===
  0x42cf	dec    	ebp
  0x42d0	mov    	dword ptr [ebx + 0x18], eax
  0x42d3	dec    	ebp
  0x42d4	mov    	dword ptr [ebx + 0x20], ecx
  0x42d7	push   	ebx
  === BLOCK LINK ===
    0x42d8
=== CODE BLOCK END ===

=== CODE BLOCK ADDRESS 0x42d8 ===
  0x42d8	push   	edi
  0x42d9	dec    	eax
  0x42da	sub    	esp, 0x58
  0x42dd	dec    	eax
  0x42de	mov    	eax, dword ptr [0xad1c]
  === BLOCK LINK ===
    0x42e4
=== CODE BLOCK END ===

=== CODE BLOCK ADDRESS 0x42e4 ===
  0x42e4	dec    	eax
  0x42e5	xor    	eax, esp
  0x42e7	dec    	eax
  0x42e8	mov    	dword ptr [esp + 0x40], eax
  0x42ec	mov    	edi, 2
  === BLOCK LINK ===
    0x42f1
=== CODE BLOCK END ===

=== CODE BLOCK ADDRESS 0x42f1 ===
  0x42f1	dec    	ecx
  0x42f2	lea    	ebx, [ebx + 0x10]
  0x42f5	mov    	ecx, edi
  0x42f7	call   	0x7f36
  === BLOCK LINK ===
    0x42fc
=== CODE BLOCK END ===

=== CODE BLOCK ADDRESS 0x42fc ===
  0x42fc	dec    	eax
  0x42fd	mov    	edx, dword ptr [esp + 0x70]
  0x4301	dec    	eax
  0x4302	mov    	ecx, eax
  0x4304	dec    	esp
  === BLOCK LINK ===
    0x4305
=== CODE BLOCK END ===

=== CODE BLOCK ADDRESS 0x4305 ===
  0x4305	mov    	eax, ebx
  0x4307	call   	0x804c
  === BLOCK LINK ===
    0x430c
=== CODE BLOCK END ===

=== CODE BLOCK ADDRESS 0x430c ===
  0x430c	mov    	ecx, edi
  0x430e	call   	0x7f36
  === BLOCK LINK ===
    0x4313
=== CODE BLOCK END ===

=== CODE BLOCK ADDRESS 0x4313 ===
  0x4313	dec    	eax
  0x4314	mov    	ecx, eax
  0x4316	dec    	eax
  0x4317	lea    	edx, [0x7403]
  0x431d	call   	0x8098
  === BLOCK LINK ===
    0x4322
=== CODE BLOCK END ===

=== CODE BLOCK ADDRESS 0x4322 ===
  0x4322	mov    	ecx, edi
  0x4324	call   	0x7f36
  === BLOCK LINK ===
    0x4329
=== CODE BLOCK END ===

=== CODE BLOCK ADDRESS 0x4329 ===
  0x4329	dec    	eax
  0x432a	mov    	ecx, eax
  0x432c	dec    	eax
  0x432d	call   	dword ptr [0x5965]
  === BLOCK LINK ===
    0x4333
=== CODE BLOCK END ===

=== CODE BLOCK ADDRESS 0x4333 ===
  0x4333	nop    	dword ptr [eax + eax]
  0x4338	inc    	esp
  0x4339	lea    	eax, [edi + 0x1d]
  0x433c	mov    	ecx, edi
  0x433e	dec    	eax
  === BLOCK LINK ===
    0x433f
=== CODE BLOCK END ===

=== CODE BLOCK ADDRESS 0x433f ===
  0x433f	lea    	edx, [esp + 0x20]
  0x4343	dec    	eax
  0x4344	call   	dword ptr [0x58d6]
  === BLOCK LINK ===
    0x434a
=== CODE BLOCK END ===

=== CODE BLOCK ADDRESS 0x434a ===
  0x434a	nop    	dword ptr [eax + eax]
  0x434f	dec    	eax
  0x4350	arpl   	ax, dx
  0x4352	test   	eax, eax
  0x4354	jns    	0x437c
  === BLOCK LINK ===
    0x4356
=== CODE BLOCK END ===

=== CODE BLOCK ADDRESS 0x4356 ===
  0x4356	mov    	ecx, edi
  0x4358	call   	0x7f36
  === BLOCK LINK ===
    0x435d
=== CODE BLOCK END ===

=== CODE BLOCK ADDRESS 0x435d ===
  0x435d	dec    	eax
  0x435e	mov    	ecx, eax
  0x4360	dec    	eax
  0x4361	lea    	edx, [0x73c9]
  0x4367	call   	0x8098
  === BLOCK LINK ===
    0x436c
=== CODE BLOCK END ===

=== CODE BLOCK ADDRESS 0x436c ===
  0x436c	lea    	ecx, [edi - 1]
  0x436f	dec    	eax
  0x4370	call   	dword ptr [0x5902]
  === BLOCK LINK ===
    0x4376
=== CODE BLOCK END ===

=== CODE BLOCK ADDRESS 0x4376 ===
  0x4376	nop    	dword ptr [eax + eax]
  0x437b	int3   	
  0x437c	je     	0x43b0
  === BLOCK LINK ===
    0x437e
=== CODE BLOCK END ===

=== CODE BLOCK ADDRESS 0x437e ===
  0x437e	dec    	eax
  0x437f	cmp    	edx, 0x20
  0x4382	jae    	0x43d6
  === BLOCK LINK ===
    0x4384
=== CODE BLOCK END ===

=== CODE BLOCK ADDRESS 0x4384 ===
  0x4384	mov    	byte ptr [esp + edx + 0x20], 0
  0x4389	dec    	eax
  0x438a	lea    	ebx, [esp + 0x20]
  0x438e	mov    	al, byte ptr [esp + 0x20]
  0x4392	jmp    	0x43ac
  === BLOCK LINK ===
    0x4394
=== CODE BLOCK END ===

=== CODE BLOCK ADDRESS 0x4394 ===
  0x4394	movzx  	ecx, al
  0x4397	dec    	eax
  0x4398	call   	dword ptr [0x5932]
  === BLOCK LINK ===
    0x439e
=== CODE BLOCK END ===

=== CODE BLOCK ADDRESS 0x439e ===
  0x439e	nop    	dword ptr [eax + eax]
  0x43a3	test   	eax, eax
  0x43a5	je     	0x43c7
  === BLOCK LINK ===
    0x43a7
=== CODE BLOCK END ===

=== CODE BLOCK ADDRESS 0x43a7 ===
  0x43a7	dec    	eax
  0x43a8	inc    	ebx
  0x43aa	mov    	al, byte ptr [ebx]
  0x43ac	test   	al, al
  0x43ae	jne    	0x4394
  === BLOCK LINK ===
    0x43b0
=== CODE BLOCK END ===

=== CODE BLOCK ADDRESS 0x43b0 ===
  0x43b0	xor    	eax, eax
  0x43b2	dec    	eax
  0x43b3	mov    	ecx, dword ptr [esp + 0x40]
  0x43b7	dec    	eax
  0x43b8	xor    	ecx, esp
  === BLOCK LINK ===
    0x43ba
=== CODE BLOCK END ===

=== CODE BLOCK ADDRESS 0x43ba ===
  0x43ba	call   	0x7390
  === BLOCK LINK ===
    0x43bf
=== CODE BLOCK END ===

=== CODE BLOCK ADDRESS 0x43bf ===
  0x43bf	dec    	eax
  0x43c0	add    	esp, 0x58
  0x43c3	pop    	edi
  0x43c4	pop    	ebx
  0x43c5	ret    	
  === BLOCK LINK ===
    0x43c6
=== CODE BLOCK END ===

=== CODE BLOCK ADDRESS 0x43c6 ===
  0x43c6	int3   	
  0x43c7	mov    	al, byte ptr [ebx]
  0x43c9	sub    	al, 0x59
  0x43cb	test   	al, 0xdf
  0x43cd	jne    	0x43b0
  === BLOCK LINK ===
    0x43cf
=== CODE BLOCK END ===

=== CODE BLOCK ADDRESS 0x43cf ===
  0x43cf	mov    	eax, 1
  0x43d4	jmp    	0x43b2
  === BLOCK LINK ===
    0x43d6
=== CODE BLOCK END ===

=== CODE BLOCK ADDRESS 0x43d6 ===
  0x43d6	call   	0x74f8
  === BLOCK LINK ===
    0x43db
=== CODE BLOCK END ===

=== CODE BLOCK ADDRESS 0x43db ===
  0x43db	int3   	
  0x43dc	int3   	
  0x43dd	int3   	
  0x43de	int3   	
  0x43df	int3   	
  === BLOCK LINK ===
    0x43e0
=== CODE BLOCK END ===

=== CODE BLOCK ADDRESS 0x43e0 ===
  0x43e0	int3   	
  0x43e1	int3   	
  0x43e2	int3   	
  0x43e3	int3   	
  0x43e4	dec    	eax
  === BLOCK LINK ===
    0x43e5
=== CODE BLOCK END ===

=== CODE BLOCK ADDRESS 0x43e5 ===
  0x43e5	mov    	dword ptr [esp + 8], ebx
  0x43e9	dec    	eax
  0x43ea	mov    	dword ptr [esp + 0x10], ebp
  0x43ee	dec    	eax
  0x43ef	mov    	dword ptr [esp + 0x18], esi
  === BLOCK LINK ===
    0x43f3
=== CODE BLOCK END ===

=== CODE BLOCK ADDRESS 0x43f3 ===
  0x43f3	push   	edi
  0x43f4	dec    	eax
  0x43f5	sub    	esp, 0x20
  0x43f8	dec    	eax
  0x43f9	mov    	ebx, ecx
  === BLOCK LINK ===
    0x43fb
=== CODE BLOCK END ===

=== CODE BLOCK ADDRESS 0x43fb ===
  0x43fb	dec    	eax
  0x43fc	mov    	esi, edx
  0x43fe	mov    	cl, byte ptr [edx]
  0x4400	cmp    	cl, 0x2f
  0x4403	je     	0x442a
  === BLOCK LINK ===
    0x4405
=== CODE BLOCK END ===

=== CODE BLOCK ADDRESS 0x4405 ===
  0x4405	cmp    	cl, 0x5c
  0x4408	je     	0x442a
  === BLOCK LINK ===
    0x440a
=== CODE BLOCK END ===

=== CODE BLOCK ADDRESS 0x440a ===
  0x440a	lea    	eax, [ecx - 0x61]
  0x440d	cmp    	al, 0x19
  0x440f	jbe    	0x4419
  === BLOCK LINK ===
    0x4411
=== CODE BLOCK END ===

=== CODE BLOCK ADDRESS 0x4411 ===
  0x4411	sub    	cl, 0x41
  0x4414	cmp    	cl, 0x19
  0x4417	ja     	0x443f
  === BLOCK LINK ===
    0x4419
=== CODE BLOCK END ===

=== CODE BLOCK ADDRESS 0x4419 ===
  0x4419	cmp    	byte ptr [edx + 1], 0x3a
  0x441d	jne    	0x443f
  === BLOCK LINK ===
    0x441f
=== CODE BLOCK END ===

=== CODE BLOCK ADDRESS 0x441f ===
  0x441f	mov    	al, byte ptr [edx + 2]
  0x4422	cmp    	al, 0x2f
  0x4424	je     	0x442a
  === BLOCK LINK ===
    0x4426
=== CODE BLOCK END ===

=== CODE BLOCK ADDRESS 0x4426 ===
  0x4426	cmp    	al, 0x5c
  0x4428	jne    	0x443f
  === BLOCK LINK ===
    0x442a
=== CODE BLOCK END ===

=== CODE BLOCK ADDRESS 0x442a ===
  0x442a	dec    	eax
  0x442b	mov    	ecx, dword ptr [ebx + 8]
  0x442e	dec    	eax
  0x442f	call   	dword ptr [0x5883]
  === BLOCK LINK ===
    0x4435
=== CODE BLOCK END ===

=== CODE BLOCK ADDRESS 0x4435 ===
  0x4435	nop    	dword ptr [eax + eax]
  0x443a	dec    	eax
  0x443b	and    	dword ptr [ebx + 8], 0
  0x443f	dec    	eax
  0x4440	mov    	edi, dword ptr [ebx + 8]
  === BLOCK LINK ===
    0x4443
=== CODE BLOCK END ===

=== CODE BLOCK ADDRESS 0x4443 ===
  0x4443	dec    	eax
  0x4444	test   	edi, edi
  0x4446	jne    	0x445d
  === BLOCK LINK ===
    0x4448
=== CODE BLOCK END ===

=== CODE BLOCK ADDRESS 0x4448 ===
  0x4448	dec    	eax
  0x4449	mov    	ecx, esi
  0x444b	dec    	eax
  0x444c	call   	dword ptr [0x580e]
  === BLOCK LINK ===
    0x4452
=== CODE BLOCK END ===

=== CODE BLOCK ADDRESS 0x4452 ===
  0x4452	nop    	dword ptr [eax + eax]
  0x4457	dec    	eax
  0x4458	mov    	dword ptr [ebx + 8], eax
  0x445b	jmp    	0x44c3
  === BLOCK LINK ===
    0x445d
=== CODE BLOCK END ===

=== CODE BLOCK ADDRESS 0x445d ===
  0x445d	dec    	eax
  0x445e	or     	eax, 0xffffffff
  0x4461	dec    	eax
  0x4462	mov    	ebp, eax
  0x4464	dec    	eax
  === BLOCK LINK ===
    0x4465
=== CODE BLOCK END ===

=== CODE BLOCK ADDRESS 0x4465 ===
  0x4465	inc    	ebp
  0x4467	cmp    	byte ptr [edi + ebp], 0
  0x446b	jne    	0x4464
  === BLOCK LINK ===
    0x446d
=== CODE BLOCK END ===

=== CODE BLOCK ADDRESS 0x446d ===
  0x446d	dec    	eax
  0x446e	inc    	eax
  0x4470	cmp    	byte ptr [esi + eax], 0
  0x4474	jne    	0x446d
  === BLOCK LINK ===
    0x4476
=== CODE BLOCK END ===

=== CODE BLOCK ADDRESS 0x4476 ===
  0x4476	dec    	eax
  0x4477	lea    	ecx, [eax + 2]
  0x447a	dec    	eax
  0x447b	add    	ecx, ebp
  0x447d	dec    	eax
  === BLOCK LINK ===
    0x447e
=== CODE BLOCK END ===

=== CODE BLOCK ADDRESS 0x447e ===
  0x447e	call   	dword ptr [0x585c]
  === BLOCK LINK ===
    0x4484
=== CODE BLOCK END ===

=== CODE BLOCK ADDRESS 0x4484 ===
  0x4484	nop    	dword ptr [eax + eax]
  0x4489	dec    	eax
  0x448a	mov    	dword ptr [ebx + 8], eax
  0x448d	cmp    	byte ptr [edi + ebp - 1], 0x2f
  0x4492	jne    	0x4499
  === BLOCK LINK ===
    0x4494
=== CODE BLOCK END ===

=== CODE BLOCK ADDRESS 0x4494 ===
  0x4494	mov    	byte ptr [edi + ebp - 1], 0
  0x4499	dec    	eax
  0x449a	mov    	ecx, dword ptr [ebx + 8]
  0x449d	dec    	eax
  0x449e	test   	ecx, ecx
  === BLOCK LINK ===
    0x44a0
=== CODE BLOCK END ===

=== CODE BLOCK ADDRESS 0x44a0 ===
  0x44a0	je     	0x44b4
  === BLOCK LINK ===
    0x44a2
=== CODE BLOCK END ===

=== CODE BLOCK ADDRESS 0x44a2 ===
  0x44a2	dec    	esp
  0x44a3	mov    	ecx, esi
  0x44a5	dec    	eax
  0x44a6	lea    	edx, [0x729c]
  0x44ac	dec    	esp
  === BLOCK LINK ===
    0x44ad
=== CODE BLOCK END ===

=== CODE BLOCK ADDRESS 0x44ad ===
  0x44ad	mov    	eax, edi
  0x44af	call   	0x81a0
  === BLOCK LINK ===
    0x44b4
=== CODE BLOCK END ===

=== CODE BLOCK ADDRESS 0x44b4 ===
  0x44b4	dec    	eax
  0x44b5	mov    	ecx, edi
  0x44b7	dec    	eax
  0x44b8	call   	dword ptr [0x57fa]
  === BLOCK LINK ===
    0x44be
=== CODE BLOCK END ===

=== CODE BLOCK ADDRESS 0x44be ===
  0x44be	nop    	dword ptr [eax + eax]
  0x44c3	dec    	eax
  0x44c4	cmp    	dword ptr [ebx + 8], 0
  0x44c8	je     	0x44e0
  === BLOCK LINK ===
    0x44ca
=== CODE BLOCK END ===

=== CODE BLOCK ADDRESS 0x44ca ===
  0x44ca	dec    	eax
  0x44cb	mov    	ebx, dword ptr [esp + 0x30]
  0x44cf	dec    	eax
  0x44d0	mov    	ebp, dword ptr [esp + 0x38]
  0x44d4	dec    	eax
  === BLOCK LINK ===
    0x44d5
=== CODE BLOCK END ===

=== CODE BLOCK ADDRESS 0x44d5 ===
  0x44d5	mov    	esi, dword ptr [esp + 0x40]
  0x44d9	dec    	eax
  0x44da	add    	esp, 0x20
  0x44dd	pop    	edi
  0x44de	ret    	
  === BLOCK LINK ===
    0x44df
=== CODE BLOCK END ===

=== CODE BLOCK ADDRESS 0x44df ===
  0x44df	int3   	
  0x44e0	dec    	eax
  0x44e1	call   	dword ptr [0x5701]
  === BLOCK LINK ===
    0x44e7
=== CODE BLOCK END ===

=== CODE BLOCK ADDRESS 0x44e7 ===
  0x44e7	nop    	dword ptr [eax + eax]
  0x44ec	dec    	esp
  0x44ed	lea    	eax, [0x7065]
  0x44f3	mov    	ecx, 1
  0x44f8	mov    	edx, dword ptr [eax]
  === BLOCK LINK ===
    0x44fa
=== CODE BLOCK END ===

=== CODE BLOCK ADDRESS 0x44fa ===
  0x44fa	call   	0x6c3c
  === BLOCK LINK ===
    0x44ff
=== CODE BLOCK END ===

=== CODE BLOCK ADDRESS 0x44ff ===
  0x44ff	int3   	
  0x4500	int3   	
  0x4501	int3   	
  0x4502	int3   	
  0x4503	int3   	
  === BLOCK LINK ===
    0x4504
=== CODE BLOCK END ===

=== CODE BLOCK ADDRESS 0x4504 ===
  0x4504	int3   	
  0x4505	int3   	
  0x4506	int3   	
  0x4507	int3   	
  0x4508	dec    	eax
  === BLOCK LINK ===
    0x4509
=== CODE BLOCK END ===

=== CODE BLOCK ADDRESS 0x4509 ===
  0x4509	mov    	dword ptr [esp + 8], ebx
  0x450d	dec    	eax
  0x450e	mov    	dword ptr [esp + 0x10], esi
  0x4512	push   	edi
  0x4513	dec    	eax
  === BLOCK LINK ===
    0x4514
=== CODE BLOCK END ===

=== CODE BLOCK ADDRESS 0x4514 ===
  0x4514	sub    	esp, 0x20
  0x4517	dec    	eax
  0x4518	mov    	ebx, dword ptr [ecx + 8]
  0x451b	dec    	eax
  0x451c	mov    	edi, ecx
  === BLOCK LINK ===
    0x451e
=== CODE BLOCK END ===

=== CODE BLOCK ADDRESS 0x451e ===
  0x451e	dec    	eax
  0x451f	test   	ebx, ebx
  0x4521	je     	0x45a8
  === BLOCK LINK ===
    0x4527
=== CODE BLOCK END ===

=== CODE BLOCK ADDRESS 0x4527 ===
  0x4527	dec    	eax
  0x4528	mov    	ecx, ebx
  0x452a	dec    	eax
  0x452b	call   	dword ptr [0x55d7]
  === BLOCK LINK ===
    0x4531
=== CODE BLOCK END ===

=== CODE BLOCK ADDRESS 0x4531 ===
  0x4531	nop    	dword ptr [eax + eax]
  0x4536	test   	eax, eax
  0x4538	jne    	0x4593
  === BLOCK LINK ===
    0x453a
=== CODE BLOCK END ===

=== CODE BLOCK ADDRESS 0x453a ===
  0x453a	dec    	eax
  0x453b	call   	dword ptr [0x5567]
  === BLOCK LINK ===
    0x4541
=== CODE BLOCK END ===

=== CODE BLOCK ADDRESS 0x4541 ===
  0x4541	nop    	dword ptr [eax + eax]
  0x4546	cmp    	eax, 2
  0x4549	jne    	0x45b9
  === BLOCK LINK ===
    0x454b
=== CODE BLOCK END ===

=== CODE BLOCK ADDRESS 0x454b ===
  0x454b	dec    	eax
  0x454c	mov    	ecx, ebx
  0x454e	call   	0x2af0
  === BLOCK LINK ===
    0x4553
=== CODE BLOCK END ===

=== CODE BLOCK ADDRESS 0x4553 ===
  0x4553	dec    	eax
  0x4554	mov    	esi, eax
  0x4556	dec    	eax
  0x4557	test   	eax, eax
  0x4559	jne    	0x456f
  === BLOCK LINK ===
    0x455b
=== CODE BLOCK END ===

=== CODE BLOCK ADDRESS 0x455b ===
  0x455b	dec    	eax
  0x455c	call   	dword ptr [0x5686]
  === BLOCK LINK ===
    0x4562
=== CODE BLOCK END ===

=== CODE BLOCK ADDRESS 0x4562 ===
  0x4562	nop    	dword ptr [eax + eax]
  0x4567	mov    	dword ptr [eax], 0x16
  0x456d	jmp    	0x45cc
  === BLOCK LINK ===
    0x456f
=== CODE BLOCK END ===

=== CODE BLOCK ADDRESS 0x456f ===
  0x456f	dec    	eax
  0x4570	mov    	ecx, esi
  0x4572	dec    	eax
  0x4573	call   	dword ptr [0x559f]
  === BLOCK LINK ===
    0x4579
=== CODE BLOCK END ===

=== CODE BLOCK ADDRESS 0x4579 ===
  0x4579	nop    	dword ptr [eax + eax]
  0x457e	dec    	eax
  0x457f	mov    	ecx, esi
  0x4581	mov    	ebx, eax
  0x4583	dec    	eax
  === BLOCK LINK ===
    0x4584
=== CODE BLOCK END ===

=== CODE BLOCK ADDRESS 0x4584 ===
  0x4584	call   	dword ptr [0x572e]
  === BLOCK LINK ===
    0x458a
=== CODE BLOCK END ===

=== CODE BLOCK ADDRESS 0x458a ===
  0x458a	nop    	dword ptr [eax + eax]
  0x458f	test   	ebx, ebx
  0x4591	je     	0x45b9
  === BLOCK LINK ===
    0x4593
=== CODE BLOCK END ===

=== CODE BLOCK ADDRESS 0x4593 ===
  0x4593	dec    	eax
  0x4594	mov    	ecx, dword ptr [edi + 8]
  0x4597	dec    	eax
  0x4598	call   	dword ptr [0x571a]
  === BLOCK LINK ===
    0x459e
=== CODE BLOCK END ===

=== CODE BLOCK ADDRESS 0x459e ===
  0x459e	nop    	dword ptr [eax + eax]
  0x45a3	dec    	eax
  0x45a4	and    	dword ptr [edi + 8], 0
  0x45a8	dec    	eax
  0x45a9	mov    	ebx, dword ptr [esp + 0x30]
  === BLOCK LINK ===
    0x45ad
=== CODE BLOCK END ===

=== CODE BLOCK ADDRESS 0x45ad ===
  0x45ad	dec    	eax
  0x45ae	mov    	esi, dword ptr [esp + 0x38]
  0x45b2	dec    	eax
  0x45b3	add    	esp, 0x20
  0x45b6	pop    	edi
  === BLOCK LINK ===
    0x45b7
=== CODE BLOCK END ===

=== CODE BLOCK ADDRESS 0x45b7 ===
  0x45b7	ret    	
  0x45b8	int3   	
  0x45b9	dec    	eax
  0x45ba	call   	dword ptr [0x54e8]
  === BLOCK LINK ===
    0x45c0
=== CODE BLOCK END ===

=== CODE BLOCK ADDRESS 0x45c0 ===
  0x45c0	nop    	dword ptr [eax + eax]
  0x45c5	mov    	ecx, eax
  0x45c7	call   	0x2da0
  === BLOCK LINK ===
    0x45cc
=== CODE BLOCK END ===

=== CODE BLOCK ADDRESS 0x45cc ===
  0x45cc	dec    	esp
  0x45cd	mov    	ecx, dword ptr [edi + 8]
  0x45d0	dec    	esp
  0x45d1	lea    	eax, [0x7179]
  0x45d7	xor    	edx, edx
  === BLOCK LINK ===
    0x45d9
=== CODE BLOCK END ===

=== CODE BLOCK ADDRESS 0x45d9 ===
  0x45d9	lea    	ecx, [edx + 1]
  0x45dc	call   	0x6c3c
  === BLOCK LINK ===
    0x45e1
=== CODE BLOCK END ===

=== CODE BLOCK ADDRESS 0x45e1 ===
  0x45e1	int3   	
  0x45e2	int3   	
  0x45e3	int3   	
  0x45e4	int3   	
  0x45e5	int3   	
  === BLOCK LINK ===
    0x45e6
=== CODE BLOCK END ===

=== CODE BLOCK ADDRESS 0x45e6 ===
  0x45e6	int3   	
  0x45e7	int3   	
  0x45e8	dec    	eax
  0x45e9	mov    	dword ptr [esp + 8], ebx
  0x45ed	dec    	eax
  === BLOCK LINK ===
    0x45ee
=== CODE BLOCK END ===

=== CODE BLOCK ADDRESS 0x45ee ===
  0x45ee	mov    	dword ptr [esp + 0x10], esi
  0x45f2	push   	edi
  0x45f3	dec    	eax
  0x45f4	sub    	esp, 0x20
  0x45f7	cmp    	byte ptr [edx], 0x2f
  === BLOCK LINK ===
    0x45fa
=== CODE BLOCK END ===

=== CODE BLOCK ADDRESS 0x45fa ===
  0x45fa	dec    	eax
  0x45fb	mov    	ebx, edx
  0x45fd	dec    	eax
  0x45fe	mov    	edi, ecx
  0x4600	je     	0x4607
  === BLOCK LINK ===
    0x4602
=== CODE BLOCK END ===

=== CODE BLOCK ADDRESS 0x4602 ===
  0x4602	cmp    	byte ptr [edx], 0x5c
  0x4605	jne    	0x4682
  === BLOCK LINK ===
    0x4607
=== CODE BLOCK END ===

=== CODE BLOCK ADDRESS 0x4607 ===
  0x4607	mov    	al, byte ptr [edx + 1]
  0x460a	cmp    	al, 0x2f
  0x460c	je     	0x4612
  === BLOCK LINK ===
    0x460e
=== CODE BLOCK END ===

=== CODE BLOCK ADDRESS 0x460e ===
  0x460e	cmp    	al, 0x5c
  0x4610	jne    	0x4682
  === BLOCK LINK ===
    0x4612
=== CODE BLOCK END ===

=== CODE BLOCK ADDRESS 0x4612 ===
  0x4612	mov    	al, byte ptr [edx + 2]
  0x4615	cmp    	al, 0x2e
  0x4617	je     	0x461d
  === BLOCK LINK ===
    0x4619
=== CODE BLOCK END ===

=== CODE BLOCK ADDRESS 0x4619 ===
  0x4619	cmp    	al, 0x3f
  0x461b	jne    	0x4682
  === BLOCK LINK ===
    0x461d
=== CODE BLOCK END ===

=== CODE BLOCK ADDRESS 0x461d ===
  0x461d	cmp    	byte ptr [edx + 3], 0x2f
  0x4621	je     	0x4629
  === BLOCK LINK ===
    0x4623
=== CODE BLOCK END ===

=== CODE BLOCK ADDRESS 0x4623 ===
  0x4623	cmp    	byte ptr [edx + 3], 0x5c
  0x4627	jne    	0x4682
  === BLOCK LINK ===
    0x4629
=== CODE BLOCK END ===

=== CODE BLOCK ADDRESS 0x4629 ===
  0x4629	cmp    	al, 0x3f
  0x462b	jne    	0x465c
  === BLOCK LINK ===
    0x462d
=== CODE BLOCK END ===

=== CODE BLOCK ADDRESS 0x462d ===
  0x462d	mov    	al, byte ptr [edx + 4]
  0x4630	mov    	cl, 0xdf
  0x4632	sub    	al, 0x55
  0x4634	test   	cl, al
  0x4636	jne    	0x465c
  === BLOCK LINK ===
    0x4638
=== CODE BLOCK END ===

=== CODE BLOCK ADDRESS 0x4638 ===
  0x4638	mov    	al, byte ptr [edx + 5]
  0x463b	sub    	al, 0x4e
  0x463d	test   	cl, al
  0x463f	jne    	0x465c
  === BLOCK LINK ===
    0x4641
=== CODE BLOCK END ===

=== CODE BLOCK ADDRESS 0x4641 ===
  0x4641	mov    	al, byte ptr [edx + 6]
  0x4644	sub    	al, 0x43
  0x4646	test   	cl, al
  0x4648	jne    	0x465c
  === BLOCK LINK ===
    0x464a
=== CODE BLOCK END ===

=== CODE BLOCK ADDRESS 0x464a ===
  0x464a	mov    	al, byte ptr [edx + 7]
  0x464d	cmp    	al, 0x2f
  0x464f	je     	0x4655
  === BLOCK LINK ===
    0x4651
=== CODE BLOCK END ===

=== CODE BLOCK ADDRESS 0x4651 ===
  0x4651	cmp    	al, 0x5c
  0x4653	jne    	0x465c
  === BLOCK LINK ===
    0x4655
=== CODE BLOCK END ===

=== CODE BLOCK ADDRESS 0x4655 ===
  0x4655	mov    	eax, 8
  0x465a	jmp    	0x4661
  === BLOCK LINK ===
    0x465c
=== CODE BLOCK END ===

=== CODE BLOCK ADDRESS 0x465c ===
  0x465c	mov    	eax, 4
  0x4661	dec    	eax
  0x4662	add    	ebx, eax
  0x4664	cmp    	byte ptr [edi + 0xb8], 0
  0x466b	jne    	0x4682
  === BLOCK LINK ===
    0x466d
=== CODE BLOCK END ===

=== CODE BLOCK ADDRESS 0x466d ===
  0x466d	dec    	eax
  0x466e	lea    	edx, [0x7124]
  0x4674	xor    	ecx, ecx
  0x4676	call   	0x6c14
  === BLOCK LINK ===
    0x467b
=== CODE BLOCK END ===

=== CODE BLOCK ADDRESS 0x467b ===
  0x467b	mov    	byte ptr [edi + 0xb8], 1
  0x4682	mov    	cl, byte ptr [ebx]
  0x4684	lea    	eax, [ecx - 0x61]
  0x4687	dec    	eax
  0x4688	mov    	esi, ebx
  === BLOCK LINK ===
    0x468a
=== CODE BLOCK END ===

=== CODE BLOCK ADDRESS 0x468a ===
  0x468a	cmp    	al, 0x19
  0x468c	jbe    	0x4696
  === BLOCK LINK ===
    0x468e
=== CODE BLOCK END ===

=== CODE BLOCK ADDRESS 0x468e ===
  0x468e	sub    	cl, 0x41
  0x4691	cmp    	cl, 0x19
  0x4694	ja     	0x46be
  === BLOCK LINK ===
    0x4696
=== CODE BLOCK END ===

=== CODE BLOCK ADDRESS 0x4696 ===
  0x4696	cmp    	byte ptr [ebx + 1], 0x3a
  0x469a	jne    	0x46be
  === BLOCK LINK ===
    0x469c
=== CODE BLOCK END ===

=== CODE BLOCK ADDRESS 0x469c ===
  0x469c	dec    	eax
  0x469d	add    	ebx, 2
  0x46a0	cmp    	byte ptr [edi + 0xb8], 0
  0x46a7	jne    	0x46be
  === BLOCK LINK ===
    0x46a9
=== CODE BLOCK END ===

=== CODE BLOCK ADDRESS 0x46a9 ===
  0x46a9	dec    	eax
  0x46aa	lea    	edx, [0x70e8]
  0x46b0	xor    	ecx, ecx
  0x46b2	call   	0x6c14
  === BLOCK LINK ===
    0x46b7
=== CODE BLOCK END ===

=== CODE BLOCK ADDRESS 0x46b7 ===
  0x46b7	mov    	byte ptr [edi + 0xb8], 1
  0x46be	mov    	cl, byte ptr [ebx]
  0x46c0	cmp    	cl, 0x2f
  0x46c3	je     	0x46ca
  === BLOCK LINK ===
    0x46c5
=== CODE BLOCK END ===

=== CODE BLOCK ADDRESS 0x46c5 ===
  0x46c5	cmp    	cl, 0x5c
  0x46c8	jne    	0x471e
  === BLOCK LINK ===
    0x46ca
=== CODE BLOCK END ===

=== CODE BLOCK ADDRESS 0x46ca ===
  0x46ca	cmp    	byte ptr [ebx + 1], 0x2e
  0x46ce	jne    	0x46f9
  === BLOCK LINK ===
    0x46d0
=== CODE BLOCK END ===

=== CODE BLOCK ADDRESS 0x46d0 ===
  0x46d0	mov    	al, byte ptr [ebx + 2]
  0x46d3	cmp    	al, 0x2e
  0x46d5	jne    	0x46ea
  === BLOCK LINK ===
    0x46d7
=== CODE BLOCK END ===

=== CODE BLOCK ADDRESS 0x46d7 ===
  0x46d7	cmp    	byte ptr [ebx + 3], 0x2f
  0x46db	je     	0x46e3
  === BLOCK LINK ===
    0x46dd
=== CODE BLOCK END ===

=== CODE BLOCK ADDRESS 0x46dd ===
  0x46dd	cmp    	byte ptr [ebx + 3], 0x5c
  0x46e1	jne    	0x46ea
  === BLOCK LINK ===
    0x46e3
=== CODE BLOCK END ===

=== CODE BLOCK ADDRESS 0x46e3 ===
  0x46e3	mov    	eax, 3
  0x46e8	jmp    	0x46fe
  === BLOCK LINK ===
    0x46ea
=== CODE BLOCK END ===

=== CODE BLOCK ADDRESS 0x46ea ===
  0x46ea	cmp    	al, 0x2f
  0x46ec	je     	0x46f2
  === BLOCK LINK ===
    0x46ee
=== CODE BLOCK END ===

=== CODE BLOCK ADDRESS 0x46ee ===
  0x46ee	cmp    	al, 0x5c
  0x46f0	jne    	0x46f9
  === BLOCK LINK ===
    0x46f2
=== CODE BLOCK END ===

=== CODE BLOCK ADDRESS 0x46f2 ===
  0x46f2	mov    	eax, 2
  0x46f7	jmp    	0x46fe
  === BLOCK LINK ===
    0x46f9
=== CODE BLOCK END ===

=== CODE BLOCK ADDRESS 0x46f9 ===
  0x46f9	mov    	eax, 1
  0x46fe	dec    	eax
  0x46ff	add    	ebx, eax
  0x4701	cmp    	byte ptr [edi + 0xb8], 0
  0x4708	jne    	0x46be
  === BLOCK LINK ===
    0x470a
=== CODE BLOCK END ===

=== CODE BLOCK ADDRESS 0x470a ===
  0x470a	inc    	esp
  0x470b	movsx  	eax, byte ptr [esi]
  0x470e	dec    	eax
  0x470f	lea    	edx, [0x705b]
  0x4715	xor    	ecx, ecx
  === BLOCK LINK ===
    0x4717
=== CODE BLOCK END ===

=== CODE BLOCK ADDRESS 0x4717 ===
  0x4717	call   	0x6c14
  === BLOCK LINK ===
    0x471c
=== CODE BLOCK END ===

=== CODE BLOCK ADDRESS 0x471c ===
  0x471c	jmp    	0x46b7
  === BLOCK LINK ===
    0x471e
=== CODE BLOCK END ===

=== CODE BLOCK ADDRESS 0x471e ===
  0x471e	dec    	eax
  0x471f	cmp    	esi, ebx
  0x4721	jne    	0x4684
  === BLOCK LINK ===
    0x4727
=== CODE BLOCK END ===

=== CODE BLOCK ADDRESS 0x4727 ===
  0x4727	dec    	eax
  0x4728	mov    	esi, dword ptr [esp + 0x38]
  0x472c	dec    	eax
  0x472d	mov    	eax, ebx
  0x472f	dec    	eax
  === BLOCK LINK ===
    0x4730
=== CODE BLOCK END ===

=== CODE BLOCK ADDRESS 0x4730 ===
  0x4730	mov    	ebx, dword ptr [esp + 0x30]
  0x4734	dec    	eax
  0x4735	add    	esp, 0x20
  0x4738	pop    	edi
  0x4739	ret    	
  === BLOCK LINK ===
    0x473a
=== CODE BLOCK END ===

=== CODE BLOCK ADDRESS 0x2271 ===
  0x2271	dec    	esp
  0x2272	mov    	ecx, dword ptr [ebp - 0x28]
  0x2275	dec    	esp
  0x2276	lea    	eax, [0x8154]
  === BLOCK LINK ===
    0x227c
=== CODE BLOCK END ===

=== CODE BLOCK ADDRESS 0x473a ===
  0x473a	int3   	
  0x473b	int3   	
  0x473c	int3   	
  0x473d	int3   	
  0x473e	int3   	
  === BLOCK LINK ===
    0x473f
=== CODE BLOCK END ===

=== CODE BLOCK ADDRESS 0x473f ===
  0x473f	int3   	
  0x4740	int3   	
  0x4741	int3   	
  0x4742	int3   	
  0x4743	int3   	
  === BLOCK LINK ===
    0x4744
=== CODE BLOCK END ===

=== CODE BLOCK ADDRESS 0x4744 ===
  0x4744	dec    	eax
  0x4745	mov    	dword ptr [esp + 8], ebx
  0x4749	dec    	eax
  0x474a	mov    	dword ptr [esp + 0x10], ebp
  0x474e	dec    	eax
  === BLOCK LINK ===
    0x474f
=== CODE BLOCK END ===

=== CODE BLOCK ADDRESS 0x474f ===
  0x474f	mov    	dword ptr [esp + 0x18], esi
  0x4753	push   	edi
  0x4754	inc    	ecx
  0x4755	push   	esi
  0x4756	inc    	ecx
  === BLOCK LINK ===
    0x4757
=== CODE BLOCK END ===

=== CODE BLOCK ADDRESS 0x4757 ===
  0x4757	push   	edi
  0x4758	dec    	eax
  0x4759	sub    	esp, 0x20
  0x475c	dec    	eax
  0x475d	mov    	ebp, ecx
  === BLOCK LINK ===
    0x475f
=== CODE BLOCK END ===

=== CODE BLOCK ADDRESS 0x475f ===
  0x475f	dec    	eax
  0x4760	mov    	esi, edx
  0x4762	dec    	eax
  0x4763	mov    	ecx, edx
  0x4765	dec    	eax
  === BLOCK LINK ===
    0x4766
=== CODE BLOCK END ===

=== CODE BLOCK ADDRESS 0x4766 ===
  0x4766	call   	dword ptr [0x5774]
  === BLOCK LINK ===
    0x476c
=== CODE BLOCK END ===

=== CODE BLOCK ADDRESS 0x476c ===
  0x476c	nop    	dword ptr [eax + eax]
  0x4771	dec    	eax
  0x4772	mov    	ecx, esi
  0x4774	dec    	eax
  0x4775	mov    	ebx, eax
  === BLOCK LINK ===
    0x4777
=== CODE BLOCK END ===

=== CODE BLOCK ADDRESS 0x4777 ===
  0x4777	dec    	esp
  0x4778	mov    	edi, eax
  0x477a	dec    	eax
  0x477b	call   	dword ptr [0x57bf]
  === BLOCK LINK ===
    0x4781
=== CODE BLOCK END ===

=== CODE BLOCK ADDRESS 0x4781 ===
  0x4781	nop    	dword ptr [eax + eax]
  0x4786	inc    	esp
  0x4787	mov    	eax, dword ptr [ebp + 0x30]
  0x478a	mov    	dl, 0x2f
  0x478c	dec    	eax
  === BLOCK LINK ===
    0x478d
=== CODE BLOCK END ===

=== CODE BLOCK ADDRESS 0x478d ===
  0x478d	mov    	edi, eax
  0x478f	dec    	esp
  0x4790	mov    	esi, eax
  0x4792	inc    	ebp
  0x4793	test   	eax, eax
  === BLOCK LINK ===
    0x4795
=== CODE BLOCK END ===

=== CODE BLOCK ADDRESS 0x4795 ===
  0x4795	jle    	0x480e
  === BLOCK LINK ===
    0x4797
=== CODE BLOCK END ===

=== CODE BLOCK ADDRESS 0x4797 ===
  0x4797	inc    	ecx
  0x4798	mov    	eax, eax
  0x479a	inc    	ecx
  0x479b	mov    	cl, 0x5c
  0x479d	mov    	cl, byte ptr [ebx]
  === BLOCK LINK ===
    0x479f
=== CODE BLOCK END ===

=== CODE BLOCK ADDRESS 0x479f ===
  0x479f	dec    	eax
  0x47a0	inc    	ebx
  0x47a2	test   	cl, cl
  0x47a4	je     	0x4845
  === BLOCK LINK ===
    0x47aa
=== CODE BLOCK END ===

=== CODE BLOCK ADDRESS 0x47aa ===
  0x47aa	cmp    	cl, dl
  0x47ac	je     	0x47b3
  === BLOCK LINK ===
    0x47ae
=== CODE BLOCK END ===

=== CODE BLOCK ADDRESS 0x47ae ===
  0x47ae	inc    	ecx
  0x47af	cmp    	cl, cl
  0x47b1	jne    	0x47b5
  === BLOCK LINK ===
    0x47b3
=== CODE BLOCK END ===

=== CODE BLOCK ADDRESS 0x47b3 ===
  0x47b3	dec    	eax
  0x47b5	test   	eax, eax
  0x47b7	jg     	0x479d
  === BLOCK LINK ===
    0x47b9
=== CODE BLOCK END ===

=== CODE BLOCK ADDRESS 0x47b9 ===
  0x47b9	jmp    	0x47c7
  === BLOCK LINK ===
    0x47bb
=== CODE BLOCK END ===

=== CODE BLOCK ADDRESS 0x47bb ===
  0x47bb	cmp    	al, dl
  0x47bd	je     	0x47c4
  === BLOCK LINK ===
    0x47bf
=== CODE BLOCK END ===

=== CODE BLOCK ADDRESS 0x47bf ===
  0x47bf	inc    	ecx
  0x47c0	cmp    	al, cl
  0x47c2	jne    	0x47cf
  === BLOCK LINK ===
    0x47c4
=== CODE BLOCK END ===

=== CODE BLOCK ADDRESS 0x47c4 ===
  0x47c4	dec    	eax
  0x47c5	inc    	ebx
  0x47c7	mov    	al, byte ptr [ebx]
  0x47c9	test   	al, al
  0x47cb	jne    	0x47bb
  === BLOCK LINK ===
    0x47cd
=== CODE BLOCK END ===

=== CODE BLOCK ADDRESS 0x47cd ===
  0x47cd	xor    	ebx, ebx
  0x47cf	dec    	eax
  0x47d0	test   	ebx, ebx
  0x47d2	je     	0x4845
  === BLOCK LINK ===
    0x47d4
=== CODE BLOCK END ===

=== CODE BLOCK ADDRESS 0x47d4 ===
  0x47d4	dec    	eax
  0x47d5	test   	edi, edi
  0x47d7	je     	0x480e
  === BLOCK LINK ===
    0x47d9
=== CODE BLOCK END ===

=== CODE BLOCK ADDRESS 0x47d9 ===
  0x47d9	mov    	al, byte ptr [edi]
  0x47db	dec    	eax
  0x47dc	inc    	edi
  0x47de	test   	al, al
  0x47e0	je     	0x4845
  === BLOCK LINK ===
    0x47e2
=== CODE BLOCK END ===

=== CODE BLOCK ADDRESS 0x47e2 ===
  0x47e2	cmp    	al, dl
  0x47e4	je     	0x47eb
  === BLOCK LINK ===
    0x47e6
=== CODE BLOCK END ===

=== CODE BLOCK ADDRESS 0x47e6 ===
  0x47e6	inc    	ecx
  0x47e7	cmp    	al, cl
  0x47e9	jne    	0x47ee
  === BLOCK LINK ===
    0x47eb
=== CODE BLOCK END ===

=== CODE BLOCK ADDRESS 0x47eb ===
  0x47eb	inc    	ecx
  0x47ec	dec    	eax
  0x47ee	inc    	ebp
  0x47ef	test   	eax, eax
  0x47f1	jg     	0x47d9
  === BLOCK LINK ===
    0x47f3
=== CODE BLOCK END ===

=== CODE BLOCK ADDRESS 0x47f3 ===
  0x47f3	jmp    	0x4801
  === BLOCK LINK ===
    0x47f5
=== CODE BLOCK END ===

=== CODE BLOCK ADDRESS 0x47f5 ===
  0x47f5	cmp    	al, dl
  0x47f7	je     	0x47fe
  === BLOCK LINK ===
    0x47f9
=== CODE BLOCK END ===

=== CODE BLOCK ADDRESS 0x47f9 ===
  0x47f9	inc    	ecx
  0x47fa	cmp    	al, cl
  0x47fc	jne    	0x4809
  === BLOCK LINK ===
    0x47fe
=== CODE BLOCK END ===

=== CODE BLOCK ADDRESS 0x47fe ===
  0x47fe	dec    	eax
  0x47ff	inc    	edi
  0x4801	mov    	al, byte ptr [edi]
  0x4803	test   	al, al
  0x4805	jne    	0x47f5
  === BLOCK LINK ===
    0x4807
=== CODE BLOCK END ===

=== CODE BLOCK ADDRESS 0x4807 ===
  0x4807	xor    	edi, edi
  0x4809	dec    	eax
  0x480a	test   	edi, edi
  0x480c	je     	0x4845
  === BLOCK LINK ===
    0x480e
=== CODE BLOCK END ===

=== CODE BLOCK ADDRESS 0x480e ===
  0x480e	test   	byte ptr [ebp + 0x24], 2
  0x4812	jne    	0x484c
  === BLOCK LINK ===
    0x4814
=== CODE BLOCK END ===

=== CODE BLOCK ADDRESS 0x4814 ===
  0x4814	dec    	eax
  0x4815	mov    	edx, ebx
  0x4817	dec    	eax
  0x4818	mov    	ecx, ebp
  0x481a	call   	0x45e8
  === BLOCK LINK ===
    0x481f
=== CODE BLOCK END ===

=== CODE BLOCK ADDRESS 0x481f ===
  0x481f	dec    	eax
  0x4820	lea    	ebx, [0x6fa2]
  0x4826	cmp    	byte ptr [eax], 0
  0x4829	dec    	eax
  0x482a	cmovne  	ebx, eax
  === BLOCK LINK ===
    0x482d
=== CODE BLOCK END ===

=== CODE BLOCK ADDRESS 0x482d ===
  0x482d	dec    	eax
  0x482e	test   	edi, edi
  0x4830	je     	0x485a
  === BLOCK LINK ===
    0x4832
=== CODE BLOCK END ===

=== CODE BLOCK ADDRESS 0x4832 ===
  0x4832	dec    	eax
  0x4833	mov    	edx, edi
  0x4835	dec    	eax
  0x4836	mov    	ecx, ebp
  0x4838	call   	0x45e8
  === BLOCK LINK ===
    0x483d
=== CODE BLOCK END ===

=== CODE BLOCK ADDRESS 0x483d ===
  0x483d	dec    	eax
  0x483e	mov    	edi, eax
  0x4840	cmp    	byte ptr [eax], 0
  0x4843	jne    	0x485a
  === BLOCK LINK ===
    0x4845
=== CODE BLOCK END ===

=== CODE BLOCK ADDRESS 0x4845 ===
  0x4845	mov    	eax, 1
  0x484a	jmp    	0x488a
  === BLOCK LINK ===
    0x484c
=== CODE BLOCK END ===

=== CODE BLOCK ADDRESS 0x484c ===
  0x484c	cmp    	byte ptr [ebx], dl
  0x484e	jne    	0x485a
  === BLOCK LINK ===
    0x4850
=== CODE BLOCK END ===

=== CODE BLOCK ADDRESS 0x4850 ===
  0x4850	cmp    	byte ptr [ebx + 1], dl
  0x4853	jne    	0x485a
  === BLOCK LINK ===
    0x4855
=== CODE BLOCK END ===

=== CODE BLOCK ADDRESS 0x4855 ===
  0x4855	dec    	eax
  0x4856	inc    	ebx
  0x4858	jmp    	0x4850
  === BLOCK LINK ===
    0x485a
=== CODE BLOCK END ===

=== CODE BLOCK ADDRESS 0x485a ===
  0x485a	dec    	ecx
  0x485b	cmp    	ebx, edi
  0x485d	je     	0x4871
  === BLOCK LINK ===
    0x485f
=== CODE BLOCK END ===

=== CODE BLOCK ADDRESS 0x485f ===
  0x485f	dec    	eax
  0x4860	mov    	edx, ebx
  0x4862	dec    	eax
  0x4863	mov    	ecx, esi
  0x4865	dec    	eax
  === BLOCK LINK ===
    0x4866
=== CODE BLOCK END ===

=== CODE BLOCK ADDRESS 0x4866 ===
  0x4866	call   	dword ptr [0x56ec]
  === BLOCK LINK ===
    0x486c
=== CODE BLOCK END ===

=== CODE BLOCK ADDRESS 0x486c ===
  0x486c	nop    	dword ptr [eax + eax]
  0x4871	dec    	ecx
  0x4872	cmp    	edi, esi
  0x4874	je     	0x4888
  === BLOCK LINK ===
    0x4876
=== CODE BLOCK END ===

=== CODE BLOCK ADDRESS 0x4876 ===
  0x4876	dec    	eax
  0x4877	mov    	edx, edi
  0x4879	dec    	eax
  0x487a	mov    	ecx, esi
  0x487c	dec    	eax
  === BLOCK LINK ===
    0x487d
=== CODE BLOCK END ===

=== CODE BLOCK ADDRESS 0x487d ===
  0x487d	call   	dword ptr [0x58a5]
  === BLOCK LINK ===
    0x4883
=== CODE BLOCK END ===

=== CODE BLOCK ADDRESS 0x4883 ===
  0x4883	nop    	dword ptr [eax + eax]
  0x4888	xor    	eax, eax
  0x488a	dec    	eax
  0x488b	mov    	ebx, dword ptr [esp + 0x40]
  0x488f	dec    	eax
  === BLOCK LINK ===
    0x4890
=== CODE BLOCK END ===

=== CODE BLOCK ADDRESS 0x4890 ===
  0x4890	mov    	ebp, dword ptr [esp + 0x48]
  0x4894	dec    	eax
  0x4895	mov    	esi, dword ptr [esp + 0x50]
  0x4899	dec    	eax
  0x489a	add    	esp, 0x20
  === BLOCK LINK ===
    0x489d
=== CODE BLOCK END ===

=== CODE BLOCK ADDRESS 0x489d ===
  0x489d	inc    	ecx
  0x489e	pop    	edi
  0x489f	inc    	ecx
  0x48a0	pop    	esi
  0x48a1	pop    	edi
  === BLOCK LINK ===
    0x48a2
=== CODE BLOCK END ===

=== CODE BLOCK ADDRESS 0x48a2 ===
  0x48a2	ret    	
  0x48a3	int3   	
  0x48a4	int3   	
  0x48a5	int3   	
  0x48a6	int3   	
  === BLOCK LINK ===
    0x48a7
=== CODE BLOCK END ===

=== CODE BLOCK ADDRESS 0x48a7 ===
  0x48a7	int3   	
  0x48a8	int3   	
  0x48a9	int3   	
  0x48aa	int3   	
  0x48ab	int3   	
  === BLOCK LINK ===
    0x48ac
=== CODE BLOCK END ===

=== CODE BLOCK ADDRESS 0x48ac ===
  0x48ac	dec    	eax
  0x48ad	mov    	eax, ecx
  0x48af	mov    	byte ptr [0xad79], 0
  0x48b6	dec    	eax
  0x48b7	cdq    	
  === BLOCK LINK ===
    0x48b8
=== CODE BLOCK END ===

=== CODE BLOCK ADDRESS 0x48b8 ===
  0x48b8	dec    	esp
  0x48b9	lea    	eax, [0xad70]
  0x48bf	dec    	esp
  0x48c0	mov    	ecx, eax
  0x48c2	dec    	esp
  === BLOCK LINK ===
    0x48c3
=== CODE BLOCK END ===

=== CODE BLOCK ADDRESS 0x48c3 ===
  0x48c3	mov    	edx, ecx
  0x48c5	dec    	esp
  0x48c6	xor    	ecx, edx
  0x48c8	dec    	esp
  0x48c9	sub    	ecx, edx
  === BLOCK LINK ===
    0x48cb
=== CODE BLOCK END ===

=== CODE BLOCK ADDRESS 0x48cb ===
  0x48cb	dec    	ecx
  0x48cc	dec    	eax
  0x48ce	dec    	eax
  0x48cf	mov    	eax, 0xcccccccd
  0x48d4	int3   	
  === BLOCK LINK ===
    0x48d5
=== CODE BLOCK END ===

=== CODE BLOCK ADDRESS 0x48d5 ===
  0x48d5	int3   	
  0x48d6	int3   	
  0x48d7	int3   	
  0x48d8	dec    	ecx
  0x48d9	mul    	ecx
  === BLOCK LINK ===
    0x48db
=== CODE BLOCK END ===

=== CODE BLOCK ADDRESS 0x48db ===
  0x48db	dec    	eax
  0x48dc	shr    	edx, 3
  0x48df	mov    	al, dl
  0x48e1	shl    	al, 2
  0x48e4	lea    	ecx, [eax + edx]
  === BLOCK LINK ===
    0x48e7
=== CODE BLOCK END ===

=== CODE BLOCK ADDRESS 0x48e7 ===
  0x48e7	add    	cl, cl
  0x48e9	inc    	esp
  0x48ea	sub    	cl, cl
  0x48ec	inc    	ecx
  0x48ed	add    	cl, 0x30
  === BLOCK LINK ===
    0x48f0
=== CODE BLOCK END ===

=== CODE BLOCK ADDRESS 0x48f0 ===
  0x48f0	inc    	ebp
  0x48f1	mov    	byte ptr [eax], cl
  0x48f3	dec    	esp
  0x48f4	mov    	ecx, edx
  0x48f6	dec    	eax
  === BLOCK LINK ===
    0x48f7
=== CODE BLOCK END ===

=== CODE BLOCK ADDRESS 0x48f7 ===
  0x48f7	test   	edx, edx
  0x48f9	jne    	0x48cb
  === BLOCK LINK ===
    0x48fb
=== CODE BLOCK END ===

=== CODE BLOCK ADDRESS 0x48fb ===
  0x48fb	dec    	ebp
  0x48fc	test   	edx, edx
  0x48fe	jns    	0x4907
  === BLOCK LINK ===
    0x4900
=== CODE BLOCK END ===

=== CODE BLOCK ADDRESS 0x4900 ===
  0x4900	dec    	ecx
  0x4901	dec    	eax
  0x4903	inc    	ecx
  0x4904	mov    	byte ptr [eax], 0x2d
  0x4907	dec    	ecx
  === BLOCK LINK ===
    0x4908
=== CODE BLOCK END ===

=== CODE BLOCK ADDRESS 0x4908 ===
  0x4908	mov    	eax, eax
  0x490a	ret    	
  0x490b	int3   	
  0x490c	int3   	
  0x490d	int3   	
  === BLOCK LINK ===
    0x490e
=== CODE BLOCK END ===

=== CODE BLOCK ADDRESS 0x490e ===
  0x490e	int3   	
  0x490f	int3   	
  0x4910	int3   	
  0x4911	int3   	
  0x4912	int3   	
  === BLOCK LINK ===
    0x4913
=== CODE BLOCK END ===

=== CODE BLOCK ADDRESS 0x4913 ===
  0x4913	int3   	
  0x4914	int3   	
  0x4915	int3   	
  0x4916	int3   	
  0x4917	int3   	
  === BLOCK LINK ===
    0x4918
=== CODE BLOCK END ===

=== CODE BLOCK ADDRESS 0x4918 ===
  0x4918	int3   	
  0x4919	int3   	
  0x491a	int3   	
  0x491b	int3   	
  0x491c	int3   	
  === BLOCK LINK ===
    0x491d
=== CODE BLOCK END ===

=== CODE BLOCK ADDRESS 0x491d ===
  0x491d	int3   	
  0x491e	int3   	
  0x491f	int3   	
  0x4920	inc    	eax
  0x4921	push   	ebx
  === BLOCK LINK ===
    0x4922
=== CODE BLOCK END ===

=== CODE BLOCK ADDRESS 0x4922 ===
  0x4922	dec    	eax
  0x4923	sub    	esp, 0x20
  0x4926	dec    	eax
  0x4927	mov    	eax, dword ptr [edx + 0x120]
  0x492d	dec    	eax
  === BLOCK LINK ===
    0x492e
=== CODE BLOCK END ===

=== CODE BLOCK ADDRESS 0x492e ===
  0x492e	mov    	ebx, edx
  0x4930	dec    	eax
  0x4931	test   	eax, eax
  0x4933	jne    	0x4952
  === BLOCK LINK ===
    0x4935
=== CODE BLOCK END ===

=== CODE BLOCK ADDRESS 0x4935 ===
  0x4935	mov    	ecx, 0x400
  0x493a	dec    	eax
  0x493b	call   	dword ptr [0x539f]
  === BLOCK LINK ===
    0x4941
=== CODE BLOCK END ===

=== CODE BLOCK ADDRESS 0x4941 ===
  0x4941	nop    	dword ptr [eax + eax]
  0x4946	dec    	eax
  0x4947	mov    	dword ptr [ebx + 0x120], eax
  0x494d	dec    	eax
  0x494e	test   	eax, eax
  === BLOCK LINK ===
    0x4950
=== CODE BLOCK END ===

=== CODE BLOCK ADDRESS 0x4950 ===
  0x4950	je     	0x495f
  === BLOCK LINK ===
    0x4952
=== CODE BLOCK END ===

=== CODE BLOCK ADDRESS 0x4952 ===
  0x4952	dec    	eax
  0x4953	mov    	edx, eax
  0x4955	dec    	eax
  0x4956	add    	esp, 0x20
  0x4959	pop    	ebx
  === BLOCK LINK ===
    0x495a
=== CODE BLOCK END ===

=== CODE BLOCK ADDRESS 0x495a ===
  0x495a	jmp    	0x6ebc
  === BLOCK LINK ===
    0x495f
=== CODE BLOCK END ===

=== CODE BLOCK ADDRESS 0x495f ===
  0x495f	dec    	eax
  0x4960	call   	dword ptr [0x5282]
  === BLOCK LINK ===
    0x4966
=== CODE BLOCK END ===

=== CODE BLOCK ADDRESS 0x4966 ===
  0x4966	nop    	dword ptr [eax + eax]
  0x496b	dec    	esp
  0x496c	lea    	eax, [0x59b6]
  0x4972	mov    	ecx, 1
  0x4977	mov    	edx, dword ptr [eax]
  === BLOCK LINK ===
    0x4979
=== CODE BLOCK END ===

=== CODE BLOCK ADDRESS 0x4979 ===
  0x4979	call   	0x6c3c
  === BLOCK LINK ===
    0x497e
=== CODE BLOCK END ===

=== CODE BLOCK ADDRESS 0x497e ===
  0x497e	int3   	
  0x497f	int3   	
  0x4980	int3   	
  0x4981	int3   	
  0x4982	int3   	
  === BLOCK LINK ===
    0x4983
=== CODE BLOCK END ===

=== CODE BLOCK ADDRESS 0x4983 ===
  0x4983	int3   	
  0x4984	int3   	
  0x4985	int3   	
  0x4986	int3   	
  0x4987	int3   	
  === BLOCK LINK ===
    0x4988
=== CODE BLOCK END ===

=== CODE BLOCK ADDRESS 0x4988 ===
  0x4988	dec    	eax
  0x4989	mov    	dword ptr [esp + 0x20], ebx
  0x498d	push   	ebp
  0x498e	push   	esi
  0x498f	push   	edi
  === BLOCK LINK ===
    0x4990
=== CODE BLOCK END ===

=== CODE BLOCK ADDRESS 0x4990 ===
  0x4990	inc    	ecx
  0x4991	push   	esp
  0x4992	inc    	ecx
  0x4993	push   	ebp
  0x4994	inc    	ecx
  === BLOCK LINK ===
    0x4995
=== CODE BLOCK END ===

=== CODE BLOCK ADDRESS 0x4995 ===
  0x4995	push   	esi
  0x4996	inc    	ecx
  0x4997	push   	edi
  0x4998	dec    	eax
  0x4999	lea    	ebp, [esp - 0x27]
  === BLOCK LINK ===
    0x499d
=== CODE BLOCK END ===

=== CODE BLOCK ADDRESS 0x499d ===
  0x499d	dec    	eax
  0x499e	sub    	esp, 0xd0
  0x49a4	dec    	eax
  0x49a5	mov    	eax, dword ptr [0xa655]
  0x49ab	dec    	eax
  === BLOCK LINK ===
    0x49ac
=== CODE BLOCK END ===

=== CODE BLOCK ADDRESS 0x49ac ===
  0x49ac	xor    	eax, esp
  0x49ae	dec    	eax
  0x49af	mov    	dword ptr [ebp + 0x17], eax
  0x49b2	inc    	ebp
  0x49b3	xor    	ebp, ebp
  === BLOCK LINK ===
    0x49b5
=== CODE BLOCK END ===

=== CODE BLOCK ADDRESS 0x49b5 ===
  0x49b5	dec    	ecx
  0x49b6	mov    	edi, eax
  0x49b8	dec    	esp
  0x49b9	mov    	esp, edx
  0x49bb	dec    	eax
  === BLOCK LINK ===
    0x49bc
=== CODE BLOCK END ===

=== CODE BLOCK ADDRESS 0x49bc ===
  0x49bc	mov    	esi, ecx
  0x49be	dec    	esp
  0x49bf	cmp    	dword ptr [ecx + 0xa8], ebp
  0x49c5	jne    	0x49dd
  === BLOCK LINK ===
    0x49c7
=== CODE BLOCK END ===

=== CODE BLOCK ADDRESS 0x49c7 ===
  0x49c7	dec    	eax
  0x49c8	mov    	dword ptr [ecx + 0xa8], 6
  0x49d2	dec    	eax
  0x49d3	mov    	dword ptr [ecx + 0xa0], 0xd
  0x49dd	dec    	esp
  === BLOCK LINK ===
    0x49de
=== CODE BLOCK END ===

=== CODE BLOCK ADDRESS 0x49de ===
  0x49de	cmp    	dword ptr [0xac4c], ebp
  0x49e4	jne    	0x49f9
  === BLOCK LINK ===
    0x49e6
=== CODE BLOCK END ===

=== CODE BLOCK ADDRESS 0x49e6 ===
  0x49e6	dec    	eax
  0x49e7	lea    	ecx, [0xac43]
  0x49ed	dec    	eax
  0x49ee	call   	dword ptr [0x53e4]
  === BLOCK LINK ===
    0x49f4
=== CODE BLOCK END ===

=== CODE BLOCK ADDRESS 0x49f4 ===
  0x49f4	nop    	dword ptr [eax + eax]
  0x49f9	dec    	eax
  0x49fa	mov    	ecx, edi
  0x49fc	dec    	eax
  0x49fd	call   	dword ptr [0x5575]
  === BLOCK LINK ===
    0x4a03
=== CODE BLOCK END ===

=== CODE BLOCK ADDRESS 0x4a03 ===
  0x4a03	nop    	dword ptr [eax + eax]
  0x4a08	dec    	eax
  0x4a09	mov    	ecx, edi
  0x4a0b	mov    	ebx, eax
  0x4a0d	dec    	eax
  === BLOCK LINK ===
    0x4a0e
=== CODE BLOCK END ===

=== CODE BLOCK ADDRESS 0x4a0e ===
  0x4a0e	call   	dword ptr [0x553c]
  === BLOCK LINK ===
    0x4a14
=== CODE BLOCK END ===

=== CODE BLOCK ADDRESS 0x4a14 ===
  0x4a14	nop    	dword ptr [eax + eax]
  0x4a19	inc    	esp
  0x4a1a	mov    	ecx, ebx
  0x4a1c	dec    	eax
  0x4a1d	lea    	edx, [0x6dc1]
  === BLOCK LINK ===
    0x4a23
=== CODE BLOCK END ===

=== CODE BLOCK ADDRESS 0x4a23 ===
  0x4a23	dec    	esp
  0x4a24	mov    	eax, eax
  0x4a26	dec    	ecx
  0x4a27	mov    	ecx, esp
  0x4a29	call   	0x8098
  === BLOCK LINK ===
    0x4a2e
=== CODE BLOCK END ===

=== CODE BLOCK ADDRESS 0x4a2e ===
  0x4a2e	dec    	eax
  0x4a2f	mov    	ecx, edi
  0x4a31	dec    	eax
  0x4a32	call   	dword ptr [0x5550]
  === BLOCK LINK ===
    0x4a38
=== CODE BLOCK END ===

=== CODE BLOCK ADDRESS 0x4a38 ===
  0x4a38	nop    	dword ptr [eax + eax]
  0x4a3d	dec    	esp
  0x4a3e	mov    	ecx, eax
  0x4a40	dec    	eax
  0x4a41	test   	eax, eax
  === BLOCK LINK ===
    0x4a43
=== CODE BLOCK END ===

=== CODE BLOCK ADDRESS 0x4a43 ===
  0x4a43	je     	0x4a4a
  === BLOCK LINK ===
    0x4a45
=== CODE BLOCK END ===

=== CODE BLOCK ADDRESS 0x4a45 ===
  0x4a45	inc    	esp
  0x4a46	cmp    	byte ptr [eax], ch
  0x4a48	jne    	0x4a70
  === BLOCK LINK ===
    0x4a4a
=== CODE BLOCK END ===

=== CODE BLOCK ADDRESS 0x4a4a ===
  0x4a4a	dec    	eax
  0x4a4b	mov    	ecx, edi
  0x4a4d	dec    	eax
  0x4a4e	call   	dword ptr [0x5544]
  === BLOCK LINK ===
    0x4a54
=== CODE BLOCK END ===

=== CODE BLOCK ADDRESS 0x4a54 ===
  0x4a54	nop    	dword ptr [eax + eax]
  0x4a59	dec    	esp
  0x4a5a	mov    	eax, eax
  0x4a5c	dec    	eax
  0x4a5d	lea    	edx, [0x6d89]
  === BLOCK LINK ===
    0x4a63
=== CODE BLOCK END ===

=== CODE BLOCK ADDRESS 0x4a63 ===
  0x4a63	dec    	eax
  0x4a64	lea    	ecx, [ebp - 0x59]
  0x4a67	call   	0x81a0
  === BLOCK LINK ===
    0x4a6c
=== CODE BLOCK END ===

=== CODE BLOCK ADDRESS 0x4a6c ===
  0x4a6c	dec    	esp
  0x4a6d	lea    	ecx, [ebp - 0x59]
  0x4a70	dec    	ecx
  0x4a71	or     	edi, 0xffffffff
  0x4a74	dec    	ecx
  === BLOCK LINK ===
    0x4a75
=== CODE BLOCK END ===

=== CODE BLOCK ADDRESS 0x4a75 ===
  0x4a75	mov    	eax, edi
  0x4a77	dec    	eax
  0x4a78	inc    	eax
  0x4a7a	inc    	ebp
  0x4a7b	cmp    	byte ptr [ecx + eax], ch
  === BLOCK LINK ===
    0x4a7e
=== CODE BLOCK END ===

=== CODE BLOCK ADDRESS 0x4a7e ===
  0x4a7e	jne    	0x4a77
  === BLOCK LINK ===
    0x4a80
=== CODE BLOCK END ===

=== CODE BLOCK ADDRESS 0x4a80 ===
  0x4a80	dec    	eax
  0x4a81	cmp    	eax, dword ptr [esi + 0xa8]
  0x4a87	jbe    	0x4a90
  === BLOCK LINK ===
    0x4a89
=== CODE BLOCK END ===

=== CODE BLOCK ADDRESS 0x4a89 ===
  0x4a89	dec    	eax
  0x4a8a	mov    	dword ptr [esi + 0xa8], eax
  0x4a90	inc    	esp
  0x4a91	mov    	eax, dword ptr [esi + 0xa8]
  0x4a97	dec    	eax
  === BLOCK LINK ===
    0x4a98
=== CODE BLOCK END ===

=== CODE BLOCK ADDRESS 0x4a98 ===
  0x4a98	lea    	edx, [0x6d56]
  0x4a9e	dec    	ecx
  0x4a9f	mov    	ecx, esp
  0x4aa1	call   	0x8098
  === BLOCK LINK ===
    0x4aa6
=== CODE BLOCK END ===

=== CODE BLOCK ADDRESS 0x4aa6 ===
  0x4aa6	dec    	eax
  0x4aa7	mov    	ecx, edi
  0x4aa9	dec    	eax
  0x4aaa	call   	dword ptr [0x54f0]
  === BLOCK LINK ===
    0x4ab0
=== CODE BLOCK END ===

=== CODE BLOCK ADDRESS 0x4ab0 ===
  0x4ab0	nop    	dword ptr [eax + eax]
  0x4ab5	dec    	eax
  0x4ab6	mov    	ebx, eax
  0x4ab8	dec    	eax
  0x4ab9	test   	eax, eax
  === BLOCK LINK ===
    0x4abb
=== CODE BLOCK END ===

=== CODE BLOCK ADDRESS 0x4abb ===
  0x4abb	je     	0x4ae2
  === BLOCK LINK ===
    0x4abd
=== CODE BLOCK END ===

=== CODE BLOCK ADDRESS 0x4abd ===
  0x4abd	inc    	esp
  0x4abe	cmp    	byte ptr [eax], ch
  0x4ac0	je     	0x4ae2
  === BLOCK LINK ===
    0x4ac2
=== CODE BLOCK END ===

=== CODE BLOCK ADDRESS 0x4ac2 ===
  0x4ac2	dec    	esp
  0x4ac3	mov    	eax, eax
  0x4ac5	dec    	eax
  0x4ac6	lea    	edx, [0x6b34]
  0x4acc	dec    	ecx
  === BLOCK LINK ===
    0x4acd
=== CODE BLOCK END ===

=== CODE BLOCK ADDRESS 0x4acd ===
  0x4acd	mov    	ecx, esp
  0x4acf	call   	0x8098
  === BLOCK LINK ===
    0x4ad4
=== CODE BLOCK END ===

=== CODE BLOCK ADDRESS 0x4ad4 ===
  0x4ad4	dec    	ebp
  0x4ad5	mov    	esi, edi
  0x4ad7	dec    	ecx
  0x4ad8	inc    	esi
  0x4ada	inc    	esi
  === BLOCK LINK ===
    0x4adb
=== CODE BLOCK END ===

=== CODE BLOCK ADDRESS 0x4adb ===
  0x4adb	cmp    	byte ptr [ebx + esi], ch
  0x4ade	jne    	0x4ad7
  === BLOCK LINK ===
    0x4ae0
=== CODE BLOCK END ===

=== CODE BLOCK ADDRESS 0x4ae0 ===
  0x4ae0	jmp    	0x4b27
  === BLOCK LINK ===
    0x4ae2
=== CODE BLOCK END ===

=== CODE BLOCK ADDRESS 0x4ae2 ===
  0x4ae2	dec    	eax
  0x4ae3	mov    	ecx, edi
  0x4ae5	dec    	eax
  0x4ae6	call   	dword ptr [0x5494]
  === BLOCK LINK ===
    0x4aec
=== CODE BLOCK END ===

=== CODE BLOCK ADDRESS 0x4aec ===
  0x4aec	nop    	dword ptr [eax + eax]
  0x4af1	dec    	esp
  0x4af2	mov    	eax, eax
  0x4af4	dec    	eax
  0x4af5	lea    	edx, [0x6d01]
  === BLOCK LINK ===
    0x4afb
=== CODE BLOCK END ===

=== CODE BLOCK ADDRESS 0x4afb ===
  0x4afb	dec    	eax
  0x4afc	lea    	ecx, [ebp - 0x59]
  0x4aff	call   	0x81a0
  === BLOCK LINK ===
    0x4b04
=== CODE BLOCK END ===

=== CODE BLOCK ADDRESS 0x4b04 ===
  0x4b04	dec    	eax
  0x4b05	lea    	eax, [ebp - 0x59]
  0x4b08	dec    	ebp
  0x4b09	mov    	esi, edi
  0x4b0b	dec    	ecx
  === BLOCK LINK ===
    0x4b0c
=== CODE BLOCK END ===

=== CODE BLOCK ADDRESS 0x4b0c ===
  0x4b0c	inc    	esi
  0x4b0e	inc    	esi
  0x4b0f	cmp    	byte ptr [eax + esi], ch
  0x4b12	jne    	0x4b0b
  === BLOCK LINK ===
    0x4b14
=== CODE BLOCK END ===

=== CODE BLOCK ADDRESS 0x4b14 ===
  0x4b14	dec    	esp
  0x4b15	lea    	eax, [ebp - 0x59]
  0x4b18	dec    	ecx
  0x4b19	mov    	ecx, esp
  0x4b1b	dec    	eax
  === BLOCK LINK ===
    0x4b1c
=== CODE BLOCK END ===

=== CODE BLOCK ADDRESS 0x4b1c ===
  0x4b1c	lea    	edx, [0x6ade]
  0x4b22	call   	0x8098
  === BLOCK LINK ===
    0x4b27
=== CODE BLOCK END ===

=== CODE BLOCK ADDRESS 0x4b27 ===
  0x4b27	dec    	eax
  0x4b28	mov    	ecx, edi
  0x4b2a	dec    	eax
  0x4b2b	call   	dword ptr [0x55e7]
  === BLOCK LINK ===
    0x4b31
=== CODE BLOCK END ===

=== CODE BLOCK ADDRESS 0x4b31 ===
  0x4b31	nop    	dword ptr [eax + eax]
  0x4b36	mov    	ecx, 0x2000
  0x4b3b	cmp    	ax, cx
  0x4b3e	je     	0x4b85
  === BLOCK LINK ===
    0x4b40
=== CODE BLOCK END ===

=== CODE BLOCK ADDRESS 0x4b40 ===
  0x4b40	dec    	eax
  0x4b41	mov    	ecx, edi
  0x4b43	dec    	eax
  0x4b44	call   	dword ptr [0x55ce]
  === BLOCK LINK ===
    0x4b4a
=== CODE BLOCK END ===

=== CODE BLOCK ADDRESS 0x4b4a ===
  0x4b4a	nop    	dword ptr [eax + eax]
  0x4b4f	mov    	ecx, 0x6000
  0x4b54	cmp    	ax, cx
  0x4b57	je     	0x4b85
  === BLOCK LINK ===
    0x4b59
=== CODE BLOCK END ===

=== CODE BLOCK ADDRESS 0x4b59 ===
  0x4b59	dec    	eax
  0x4b5a	mov    	ecx, edi
  0x4b5c	dec    	eax
  0x4b5d	call   	dword ptr [0x533d]
  === BLOCK LINK ===
    0x4b63
=== CODE BLOCK END ===

=== CODE BLOCK ADDRESS 0x4b63 ===
  0x4b63	nop    	dword ptr [eax + eax]
  0x4b68	dec    	eax
  0x4b69	mov    	ecx, eax
  0x4b6b	call   	0x48ac
  === BLOCK LINK ===
    0x4b70
=== CODE BLOCK END ===

=== CODE BLOCK ADDRESS 0x4b70 ===
  0x4b70	dec    	eax
  0x4b71	lea    	edx, [ebp - 0x59]
  0x4b74	dec    	eax
  0x4b75	sub    	edx, eax
  0x4b77	mov    	cl, byte ptr [eax]
  === BLOCK LINK ===
    0x4b79
=== CODE BLOCK END ===

=== CODE BLOCK ADDRESS 0x4b79 ===
  0x4b79	mov    	byte ptr [edx + eax], cl
  0x4b7c	dec    	eax
  0x4b7d	inc    	eax
  0x4b7f	test   	cl, cl
  0x4b81	jne    	0x4b77
  === BLOCK LINK ===
    0x4b83
=== CODE BLOCK END ===

=== CODE BLOCK ADDRESS 0x4b83 ===
  0x4b83	jmp    	0x4bbb
  === BLOCK LINK ===
    0x4b85
=== CODE BLOCK END ===

=== CODE BLOCK ADDRESS 0x4b85 ===
  0x4b85	dec    	eax
  0x4b86	mov    	ecx, edi
  0x4b88	dec    	eax
  0x4b89	call   	dword ptr [0x5401]
  === BLOCK LINK ===
    0x4b8f
=== CODE BLOCK END ===

=== CODE BLOCK ADDRESS 0x4b8f ===
  0x4b8f	nop    	dword ptr [eax + eax]
  0x4b94	dec    	eax
  0x4b95	mov    	ecx, edi
  0x4b97	mov    	ebx, eax
  0x4b99	dec    	eax
  === BLOCK LINK ===
    0x4b9a
=== CODE BLOCK END ===

=== CODE BLOCK ADDRESS 0x4b9a ===
  0x4b9a	call   	dword ptr [0x5398]
  === BLOCK LINK ===
    0x4ba0
=== CODE BLOCK END ===

=== CODE BLOCK ADDRESS 0x4ba0 ===
  0x4ba0	nop    	dword ptr [eax + eax]
  0x4ba5	inc    	esp
  0x4ba6	mov    	ecx, ebx
  0x4ba8	dec    	eax
  0x4ba9	lea    	edx, [0x6c51]
  === BLOCK LINK ===
    0x4baf
=== CODE BLOCK END ===

=== CODE BLOCK ADDRESS 0x4baf ===
  0x4baf	inc    	esp
  0x4bb0	mov    	eax, eax
  0x4bb2	dec    	eax
  0x4bb3	lea    	ecx, [ebp - 0x59]
  0x4bb6	call   	0x81a0
  === BLOCK LINK ===
    0x4bbb
=== CODE BLOCK END ===

=== CODE BLOCK ADDRESS 0x4bbb ===
  0x4bbb	dec    	eax
  0x4bbc	lea    	eax, [ebp - 0x59]
  0x4bbf	dec    	ecx
  0x4bc0	inc    	edi
  0x4bc2	inc    	esi
  === BLOCK LINK ===
    0x4bc3
=== CODE BLOCK END ===

=== CODE BLOCK ADDRESS 0x4bc3 ===
  0x4bc3	cmp    	byte ptr [eax + edi], ch
  0x4bc6	jne    	0x4bbf
  === BLOCK LINK ===
    0x4bc8
=== CODE BLOCK END ===

=== CODE BLOCK ADDRESS 0x4bc8 ===
  0x4bc8	dec    	ebx
  0x4bc9	lea    	eax, [edi + esi]
  0x4bcc	dec    	eax
  0x4bcd	cmp    	eax, dword ptr [esi + 0xa0]
  0x4bd3	jb     	0x4bdf
  === BLOCK LINK ===
    0x4bd5
=== CODE BLOCK END ===

=== CODE BLOCK ADDRESS 0x4bd5 ===
  0x4bd5	dec    	eax
  0x4bd6	inc    	eax
  0x4bd8	dec    	eax
  0x4bd9	mov    	dword ptr [esi + 0xa0], eax
  0x4bdf	inc    	esp
  === BLOCK LINK ===
    0x4be0
=== CODE BLOCK END ===

=== CODE BLOCK ADDRESS 0x4be0 ===
  0x4be0	mov    	eax, dword ptr [esi + 0xa0]
  0x4be6	dec    	esp
  0x4be7	lea    	ecx, [ebp - 0x59]
  0x4bea	inc    	ebp
  0x4beb	sub    	eax, esi
  === BLOCK LINK ===
    0x4bed
=== CODE BLOCK END ===

=== CODE BLOCK ADDRESS 0x4bed ===
  0x4bed	dec    	eax
  0x4bee	lea    	edx, [0x6c14]
  0x4bf4	dec    	ecx
  0x4bf5	mov    	ecx, esp
  0x4bf7	call   	0x8098
  === BLOCK LINK ===
    0x4bfc
=== CODE BLOCK END ===

=== CODE BLOCK ADDRESS 0x4bfc ===
  0x4bfc	dec    	eax
  0x4bfd	mov    	ecx, edi
  0x4bff	dec    	eax
  0x4c00	call   	dword ptr [0x535a]
  === BLOCK LINK ===
    0x4c06
=== CODE BLOCK END ===

=== CODE BLOCK ADDRESS 0x4c06 ===
  0x4c06	nop    	dword ptr [eax + eax]
  0x4c0b	dec    	eax
  0x4c0c	mov    	edx, dword ptr [0xaa1e]
  0x4c12	dec    	eax
  0x4c13	lea    	ecx, [edx - 0xf099c0]
  === BLOCK LINK ===
    0x4c19
=== CODE BLOCK END ===

=== CODE BLOCK ADDRESS 0x4c19 ===
  0x4c19	dec    	eax
  0x4c1a	cmp    	eax, ecx
  0x4c1c	jl     	0x4c3a
  === BLOCK LINK ===
    0x4c1e
=== CODE BLOCK END ===

=== CODE BLOCK ADDRESS 0x4c1e ===
  0x4c1e	dec    	eax
  0x4c1f	lea    	ecx, [edx + 0xf099c0]
  0x4c25	dec    	eax
  0x4c26	cmp    	eax, ecx
  0x4c28	jg     	0x4c3a
  === BLOCK LINK ===
    0x4c2a
=== CODE BLOCK END ===

=== CODE BLOCK ADDRESS 0x4c2a ===
  0x4c2a	dec    	eax
  0x4c2b	lea    	ecx, [0x6bff]
  0x4c31	dec    	eax
  0x4c32	lea    	ebx, [0x6c08]
  0x4c38	jmp    	0x4c48
  === BLOCK LINK ===
    0x4c3a
=== CODE BLOCK END ===

=== CODE BLOCK ADDRESS 0x4c3a ===
  0x4c3a	dec    	eax
  0x4c3b	lea    	ecx, [0x6bcf]
  0x4c41	dec    	eax
  0x4c42	lea    	ebx, [0x6bd8]
  0x4c48	inc    	esp
  === BLOCK LINK ===
    0x4c49
=== CODE BLOCK END ===

=== CODE BLOCK ADDRESS 0x4c49 ===
  0x4c49	cmp    	byte ptr [esi + 0x68], ch
  0x4c4c	dec    	eax
  0x4c4d	lea    	edx, [esp + 0x20]
  0x4c51	dec    	eax
  0x4c52	mov    	dword ptr [esp + 0x20], eax
  === BLOCK LINK ===
    0x4c56
=== CODE BLOCK END ===

=== CODE BLOCK ADDRESS 0x4c56 ===
  0x4c56	dec    	eax
  0x4c57	cmovne  	ebx, ecx
  0x4c5a	dec    	eax
  0x4c5b	lea    	ecx, [esp + 0x28]
  0x4c5f	dec    	eax
  === BLOCK LINK ===
    0x4c60
=== CODE BLOCK END ===

=== CODE BLOCK ADDRESS 0x4c60 ===
  0x4c60	call   	dword ptr [0x4fb2]
  === BLOCK LINK ===
    0x4c66
=== CODE BLOCK END ===

=== CODE BLOCK ADDRESS 0x4c66 ===
  0x4c66	nop    	dword ptr [eax + eax]
  0x4c6b	dec    	esp
  0x4c6c	lea    	ecx, [esp + 0x28]
  0x4c70	dec    	esp
  0x4c71	mov    	eax, ebx
  === BLOCK LINK ===
    0x4c73
=== CODE BLOCK END ===

=== CODE BLOCK ADDRESS 0x4c73 ===
  0x4c73	test   	eax, eax
  0x4c75	dec    	eax
  0x4c76	lea    	ecx, [ebp - 0x59]
  0x4c79	mov    	edx, 0x64
  0x4c7e	dec    	ebp
  === BLOCK LINK ===
    0x4c7f
=== CODE BLOCK END ===

=== CODE BLOCK ADDRESS 0x4c7f ===
  0x4c7f	cmovne  	ecx, ebp
  0x4c82	dec    	eax
  0x4c83	call   	dword ptr [0x5087]
  === BLOCK LINK ===
    0x4c89
=== CODE BLOCK END ===

=== CODE BLOCK ADDRESS 0x4c89 ===
  0x4c89	nop    	dword ptr [eax + eax]
  0x4c8e	dec    	esp
  0x4c8f	lea    	eax, [ebp - 0x59]
  0x4c92	dec    	ecx
  0x4c93	mov    	ecx, esp
  === BLOCK LINK ===
    0x4c95
=== CODE BLOCK END ===

=== CODE BLOCK ADDRESS 0x4c95 ===
  0x4c95	dec    	eax
  0x4c96	lea    	edx, [0x6bb0]
  0x4c9c	call   	0x8098
  === BLOCK LINK ===
    0x4ca1
=== CODE BLOCK END ===

=== CODE BLOCK ADDRESS 0x4ca1 ===
  0x4ca1	dec    	eax
  0x4ca2	mov    	ecx, edi
  0x4ca4	dec    	eax
  0x4ca5	call   	dword ptr [0x5235]
  === BLOCK LINK ===
    0x4cab
=== CODE BLOCK END ===

=== CODE BLOCK ADDRESS 0x4cab ===
  0x4cab	nop    	dword ptr [eax + eax]
  0x4cb0	dec    	eax
  0x4cb1	lea    	edx, [0x6949]
  0x4cb7	dec    	ecx
  0x4cb8	mov    	ecx, esp
  === BLOCK LINK ===
    0x4cba
=== CODE BLOCK END ===

=== CODE BLOCK ADDRESS 0x4cba ===
  0x4cba	dec    	esp
  0x4cbb	mov    	eax, eax
  0x4cbd	call   	0x3f88
  === BLOCK LINK ===
    0x4cc2
=== CODE BLOCK END ===

=== CODE BLOCK ADDRESS 0x4cc2 ===
  0x4cc2	dec    	eax
  0x4cc3	mov    	ecx, edi
  0x4cc5	dec    	eax
  0x4cc6	call   	dword ptr [0x5274]
  === BLOCK LINK ===
    0x4ccc
=== CODE BLOCK END ===

=== CODE BLOCK ADDRESS 0x4ccc ===
  0x4ccc	nop    	dword ptr [eax + eax]
  0x4cd1	dec    	eax
  0x4cd2	mov    	ecx, edi
  0x4cd4	dec    	eax
  0x4cd5	test   	eax, eax
  === BLOCK LINK ===
    0x4cd7
=== CODE BLOCK END ===

=== CODE BLOCK ADDRESS 0x4cd7 ===
  0x4cd7	je     	0x4cee
  === BLOCK LINK ===
    0x4cd9
=== CODE BLOCK END ===

=== CODE BLOCK ADDRESS 0x4cd9 ===
  0x4cd9	dec    	eax
  0x4cda	call   	dword ptr [0x5260]
  === BLOCK LINK ===
    0x4ce0
=== CODE BLOCK END ===

=== CODE BLOCK ADDRESS 0x4ce0 ===
  0x4ce0	nop    	dword ptr [eax + eax]
  0x4ce5	dec    	eax
  0x4ce6	lea    	edx, [0x6b6c]
  0x4cec	jmp    	0x4d15
  === BLOCK LINK ===
    0x4cee
=== CODE BLOCK END ===

=== CODE BLOCK ADDRESS 0x4cee ===
  0x4cee	dec    	eax
  0x4cef	call   	dword ptr [0x5273]
  === BLOCK LINK ===
    0x4cf5
=== CODE BLOCK END ===

=== CODE BLOCK ADDRESS 0x4cf5 ===
  0x4cf5	nop    	dword ptr [eax + eax]
  0x4cfa	dec    	eax
  0x4cfb	test   	eax, eax
  0x4cfd	je     	0x4d20
  === BLOCK LINK ===
    0x4cff
=== CODE BLOCK END ===

=== CODE BLOCK ADDRESS 0x4cff ===
  0x4cff	dec    	eax
  0x4d00	mov    	ecx, edi
  0x4d02	dec    	eax
  0x4d03	call   	dword ptr [0x525f]
  === BLOCK LINK ===
    0x4d09
=== CODE BLOCK END ===

=== CODE BLOCK ADDRESS 0x4d09 ===
  0x4d09	nop    	dword ptr [eax + eax]
  0x4d0e	dec    	eax
  0x4d0f	lea    	edx, [0x6b4f]
  0x4d15	dec    	esp
  0x4d16	mov    	eax, eax
  === BLOCK LINK ===
    0x4d18
=== CODE BLOCK END ===

=== CODE BLOCK ADDRESS 0x4d18 ===
  0x4d18	dec    	ecx
  0x4d19	mov    	ecx, esp
  0x4d1b	call   	0x3f88
  === BLOCK LINK ===
    0x4d20
=== CODE BLOCK END ===

=== CODE BLOCK ADDRESS 0x4d20 ===
  0x4d20	dec    	eax
  0x4d21	mov    	ecx, dword ptr [ebp + 0x17]
  0x4d24	dec    	eax
  0x4d25	xor    	ecx, esp
  0x4d27	call   	0x7390
  === BLOCK LINK ===
    0x4d2c
=== CODE BLOCK END ===

=== CODE BLOCK ADDRESS 0x4d2c ===
  0x4d2c	dec    	eax
  0x4d2d	mov    	ebx, dword ptr [esp + 0x128]
  0x4d34	dec    	eax
  0x4d35	add    	esp, 0xd0
  0x4d3b	inc    	ecx
  === BLOCK LINK ===
    0x4d3c
=== CODE BLOCK END ===

=== CODE BLOCK ADDRESS 0x4d3c ===
  0x4d3c	pop    	edi
  0x4d3d	inc    	ecx
  0x4d3e	pop    	esi
  0x4d3f	inc    	ecx
  0x4d40	pop    	ebp
  === BLOCK LINK ===
    0x4d41
=== CODE BLOCK END ===

=== CODE BLOCK ADDRESS 0x4d41 ===
  0x4d41	inc    	ecx
  0x4d42	pop    	esp
  0x4d43	pop    	edi
  0x4d44	pop    	esi
  0x4d45	pop    	ebp
  === BLOCK LINK ===
    0x4d46
=== CODE BLOCK END ===

=== CODE BLOCK ADDRESS 0x4d46 ===
  0x4d46	ret    	
  0x4d47	int3   	
  0x4d48	int3   	
  0x4d49	int3   	
  0x4d4a	int3   	
  === BLOCK LINK ===
    0x4d4b
=== CODE BLOCK END ===

=== CODE BLOCK ADDRESS 0x23df ===
  0x23df	dec    	esp
  0x23e0	arpl   	di, cx
  0x23e2	dec    	esp
  0x23e3	lea    	eax, [0x7fe7]
  === BLOCK LINK ===
    0x23e9
=== CODE BLOCK END ===

=== CODE BLOCK ADDRESS 0x4d4b ===
  0x4d4b	int3   	
  0x4d4c	int3   	
  0x4d4d	int3   	
  0x4d4e	int3   	
  0x4d4f	int3   	
  === BLOCK LINK ===
    0x4d50
=== CODE BLOCK END ===

=== CODE BLOCK ADDRESS 0x4d50 ===
  0x4d50	dec    	eax
  0x4d51	mov    	eax, esp
  0x4d53	dec    	eax
  0x4d54	mov    	dword ptr [eax + 8], ebx
  0x4d57	dec    	eax
  === BLOCK LINK ===
    0x4d58
=== CODE BLOCK END ===

=== CODE BLOCK ADDRESS 0x4d58 ===
  0x4d58	mov    	dword ptr [eax + 0x10], ebp
  0x4d5b	dec    	eax
  0x4d5c	mov    	dword ptr [eax + 0x18], esi
  0x4d5f	dec    	eax
  0x4d60	mov    	dword ptr [eax + 0x20], edi
  === BLOCK LINK ===
    0x4d63
=== CODE BLOCK END ===

=== CODE BLOCK ADDRESS 0x4d63 ===
  0x4d63	inc    	ecx
  0x4d64	push   	esi
  0x4d65	dec    	eax
  0x4d66	sub    	esp, 0x20
  0x4d69	dec    	esp
  === BLOCK LINK ===
    0x4d6a
=== CODE BLOCK END ===

=== CODE BLOCK ADDRESS 0x4d6a ===
  0x4d6a	mov    	esi, ecx
  0x4d6c	dec    	eax
  0x4d6d	mov    	edi, edx
  0x4d6f	dec    	eax
  0x4d70	lea    	ecx, [0x6afa]
  === BLOCK LINK ===
    0x4d76
=== CODE BLOCK END ===

=== CODE BLOCK ADDRESS 0x4d76 ===
  0x4d76	dec    	eax
  0x4d77	call   	dword ptr [0x4f43]
  === BLOCK LINK ===
    0x4d7d
=== CODE BLOCK END ===

=== CODE BLOCK ADDRESS 0x4d7d ===
  0x4d7d	nop    	dword ptr [eax + eax]
  0x4d82	dec    	eax
  0x4d83	mov    	ebp, eax
  0x4d85	dec    	eax
  0x4d86	test   	eax, eax
  === BLOCK LINK ===
    0x4d88
=== CODE BLOCK END ===

=== CODE BLOCK ADDRESS 0x4d88 ===
  0x4d88	je     	0x4e26
  === BLOCK LINK ===
    0x4d8e
=== CODE BLOCK END ===

=== CODE BLOCK ADDRESS 0x4d8e ===
  0x4d8e	dec    	eax
  0x4d8f	or     	ebx, 0xffffffff
  0x4d92	dec    	eax
  0x4d93	inc    	ebx
  0x4d95	cmp    	byte ptr [ebx + eax], 0
  === BLOCK LINK ===
    0x4d99
=== CODE BLOCK END ===

=== CODE BLOCK ADDRESS 0x4d99 ===
  0x4d99	jne    	0x4d92
  === BLOCK LINK ===
    0x4d9b
=== CODE BLOCK END ===

=== CODE BLOCK ADDRESS 0x4d9b ===
  0x4d9b	dec    	eax
  0x4d9c	lea    	ecx, [ebx + 0x1e]
  0x4d9f	dec    	eax
  0x4da0	call   	dword ptr [0x4f3a]
  === BLOCK LINK ===
    0x4da6
=== CODE BLOCK END ===

=== CODE BLOCK ADDRESS 0x4da6 ===
  0x4da6	nop    	dword ptr [eax + eax]
  0x4dab	dec    	eax
  0x4dac	mov    	esi, eax
  0x4dae	dec    	eax
  0x4daf	test   	eax, eax
  === BLOCK LINK ===
    0x4db1
=== CODE BLOCK END ===

=== CODE BLOCK ADDRESS 0x4db1 ===
  0x4db1	je     	0x4e59
  === BLOCK LINK ===
    0x4db7
=== CODE BLOCK END ===

=== CODE BLOCK ADDRESS 0x4db7 ===
  0x4db7	movups  	xmm0, xmmword ptr [0x6822]
  0x4dbe	dec    	esp
  0x4dbf	lea    	eax, [ebx + 1]
  0x4dc2	dec    	eax
  0x4dc3	mov    	edx, ebp
  === BLOCK LINK ===
    0x4dc5
=== CODE BLOCK END ===

=== CODE BLOCK ADDRESS 0x4dc5 ===
  0x4dc5	dec    	eax
  0x4dc6	mov    	ecx, esi
  0x4dc8	movups  	xmmword ptr [eax], xmm0
  0x4dcb	movsd  	xmm1, qword ptr [0x681d]
  0x4dd3	movsd  	qword ptr [eax + 0x10], xmm1
  === BLOCK LINK ===
    0x4dd8
=== CODE BLOCK END ===

=== CODE BLOCK ADDRESS 0x4dd8 ===
  0x4dd8	mov    	eax, dword ptr [0x681a]
  0x4dde	mov    	dword ptr [esi + 0x18], eax
  0x4de1	mov    	al, byte ptr [0x6815]
  0x4de7	mov    	byte ptr [esi + 0x1c], al
  0x4dea	call   	0x828d
  === BLOCK LINK ===
    0x4def
=== CODE BLOCK END ===

=== CODE BLOCK ADDRESS 0x4def ===
  0x4def	dec    	eax
  0x4df0	mov    	edx, esi
  0x4df2	dec    	eax
  0x4df3	mov    	ecx, edi
  0x4df5	dec    	eax
  === BLOCK LINK ===
    0x4df6
=== CODE BLOCK END ===

=== CODE BLOCK ADDRESS 0x4df6 ===
  0x4df6	call   	dword ptr [0x51fc]
  === BLOCK LINK ===
    0x4dfc
=== CODE BLOCK END ===

=== CODE BLOCK ADDRESS 0x4dfc ===
  0x4dfc	nop    	dword ptr [eax + eax]
  0x4e01	dec    	eax
  0x4e02	mov    	ecx, esi
  0x4e04	mov    	ebx, eax
  0x4e06	dec    	eax
  === BLOCK LINK ===
    0x4e07
=== CODE BLOCK END ===

=== CODE BLOCK ADDRESS 0x4e07 ===
  0x4e07	call   	dword ptr [0x4eab]
  === BLOCK LINK ===
    0x4e0d
=== CODE BLOCK END ===

=== CODE BLOCK ADDRESS 0x4e0d ===
  0x4e0d	nop    	dword ptr [eax + eax]
  0x4e12	dec    	eax
  0x4e13	mov    	ecx, edi
  0x4e15	cmp    	ebx, -0x14
  0x4e18	jl     	0x4e79
  === BLOCK LINK ===
    0x4e1a
=== CODE BLOCK END ===

=== CODE BLOCK ADDRESS 0x4e1a ===
  0x4e1a	dec    	eax
  0x4e1b	call   	dword ptr [0x50c7]
  === BLOCK LINK ===
    0x4e21
=== CODE BLOCK END ===

=== CODE BLOCK ADDRESS 0x4e21 ===
  0x4e21	nop    	dword ptr [eax + eax]
  0x4e26	dec    	ecx
  0x4e27	mov    	edx, dword ptr [esi + 0x60]
  0x4e2a	dec    	eax
  0x4e2b	mov    	ecx, edi
  === BLOCK LINK ===
    0x4e2d
=== CODE BLOCK END ===

=== CODE BLOCK ADDRESS 0x4e2d ===
  0x4e2d	dec    	eax
  0x4e2e	call   	dword ptr [0x51c4]
  === BLOCK LINK ===
    0x4e34
=== CODE BLOCK END ===

=== CODE BLOCK ADDRESS 0x4e34 ===
  0x4e34	nop    	dword ptr [eax + eax]
  0x4e39	test   	eax, eax
  0x4e3b	jne    	0x4e9a
  === BLOCK LINK ===
    0x4e3d
=== CODE BLOCK END ===

=== CODE BLOCK ADDRESS 0x4e3d ===
  0x4e3d	dec    	eax
  0x4e3e	mov    	ebx, dword ptr [esp + 0x30]
  0x4e42	dec    	eax
  0x4e43	mov    	ebp, dword ptr [esp + 0x38]
  0x4e47	dec    	eax
  === BLOCK LINK ===
    0x4e48
=== CODE BLOCK END ===

=== CODE BLOCK ADDRESS 0x4e48 ===
  0x4e48	mov    	esi, dword ptr [esp + 0x40]
  0x4e4c	dec    	eax
  0x4e4d	mov    	edi, dword ptr [esp + 0x48]
  0x4e51	dec    	eax
  0x4e52	add    	esp, 0x20
  === BLOCK LINK ===
    0x4e55
=== CODE BLOCK END ===

=== CODE BLOCK ADDRESS 0x4e55 ===
  0x4e55	inc    	ecx
  0x4e56	pop    	esi
  0x4e57	ret    	
  0x4e58	int3   	
  0x4e59	dec    	eax
  === BLOCK LINK ===
    0x4e5a
=== CODE BLOCK END ===

=== CODE BLOCK ADDRESS 0x4e5a ===
  0x4e5a	call   	dword ptr [0x4d88]
  === BLOCK LINK ===
    0x4e60
=== CODE BLOCK END ===

=== CODE BLOCK ADDRESS 0x4e60 ===
  0x4e60	nop    	dword ptr [eax + eax]
  0x4e65	dec    	esp
  0x4e66	lea    	eax, [0x54bc]
  0x4e6c	mov    	ecx, 1
  0x4e71	mov    	edx, dword ptr [eax]
  === BLOCK LINK ===
    0x4e73
=== CODE BLOCK END ===

=== CODE BLOCK ADDRESS 0x4e73 ===
  0x4e73	call   	0x6c3c
  === BLOCK LINK ===
    0x4e78
=== CODE BLOCK END ===

=== CODE BLOCK ADDRESS 0x4e78 ===
  0x4e78	int3   	
  0x4e79	dec    	eax
  0x4e7a	call   	dword ptr [0x50c8]
  === BLOCK LINK ===
    0x4e80
=== CODE BLOCK END ===

=== CODE BLOCK ADDRESS 0x4e80 ===
  0x4e80	nop    	dword ptr [eax + eax]
  0x4e85	xor    	edx, edx
  0x4e87	dec    	esp
  0x4e88	lea    	eax, [0x6772]
  0x4e8e	dec    	esp
  === BLOCK LINK ===
    0x4e8f
=== CODE BLOCK END ===

=== CODE BLOCK ADDRESS 0x4e8f ===
  0x4e8f	mov    	ecx, eax
  0x4e91	lea    	ecx, [edx + 1]
  0x4e94	call   	0x6c3c
  === BLOCK LINK ===
    0x4e99
=== CODE BLOCK END ===

=== CODE BLOCK ADDRESS 0x4e99 ===
  0x4e99	int3   	
  0x4e9a	dec    	eax
  0x4e9b	mov    	ecx, edi
  0x4e9d	dec    	eax
  0x4e9e	call   	dword ptr [0x50a4]
  === BLOCK LINK ===
    0x4ea4
=== CODE BLOCK END ===

=== CODE BLOCK ADDRESS 0x4ea4 ===
  0x4ea4	nop    	dword ptr [eax + eax]
  0x4ea9	xor    	edx, edx
  0x4eab	dec    	esp
  0x4eac	lea    	eax, [0x674e]
  0x4eb2	dec    	esp
  === BLOCK LINK ===
    0x4eb3
=== CODE BLOCK END ===

=== CODE BLOCK ADDRESS 0x4eb3 ===
  0x4eb3	mov    	ecx, eax
  0x4eb5	lea    	ecx, [edx + 1]
  0x4eb8	call   	0x6c3c
  === BLOCK LINK ===
    0x4ebd
=== CODE BLOCK END ===

=== CODE BLOCK ADDRESS 0x4ebd ===
  0x4ebd	int3   	
  0x4ebe	int3   	
  0x4ebf	int3   	
  0x4ec0	int3   	
  0x4ec1	int3   	
  === BLOCK LINK ===
    0x4ec2
=== CODE BLOCK END ===

=== CODE BLOCK ADDRESS 0x4ec2 ===
  0x4ec2	int3   	
  0x4ec3	int3   	
  0x4ec4	dec    	eax
  0x4ec5	mov    	dword ptr [esp + 8], ebx
  0x4ec9	dec    	eax
  === BLOCK LINK ===
    0x4eca
=== CODE BLOCK END ===

=== CODE BLOCK ADDRESS 0x4eca ===
  0x4eca	mov    	dword ptr [esp + 0x10], ebp
  0x4ece	dec    	eax
  0x4ecf	mov    	dword ptr [esp + 0x18], esi
  0x4ed3	push   	edi
  0x4ed4	dec    	eax
  === BLOCK LINK ===
    0x4ed5
=== CODE BLOCK END ===

=== CODE BLOCK ADDRESS 0x4ed5 ===
  0x4ed5	sub    	esp, 0x20
  0x4ed8	dec    	eax
  0x4ed9	lea    	ecx, [0x66e9]
  0x4edf	dec    	eax
  0x4ee0	mov    	edi, edx
  === BLOCK LINK ===
    0x4ee2
=== CODE BLOCK END ===

=== CODE BLOCK ADDRESS 0x4ee2 ===
  0x4ee2	dec    	eax
  0x4ee3	call   	dword ptr [0x4dd7]
  === BLOCK LINK ===
    0x4ee9
=== CODE BLOCK END ===

=== CODE BLOCK ADDRESS 0x4ee9 ===
  0x4ee9	nop    	dword ptr [eax + eax]
  0x4eee	dec    	eax
  0x4eef	mov    	ebp, eax
  0x4ef1	dec    	eax
  0x4ef2	test   	eax, eax
  === BLOCK LINK ===
    0x4ef4
=== CODE BLOCK END ===

=== CODE BLOCK ADDRESS 0x4ef4 ===
  0x4ef4	je     	0x4f92
  === BLOCK LINK ===
    0x4efa
=== CODE BLOCK END ===

=== CODE BLOCK ADDRESS 0x4efa ===
  0x4efa	dec    	eax
  0x4efb	or     	ebx, 0xffffffff
  0x4efe	dec    	eax
  0x4eff	inc    	ebx
  0x4f01	cmp    	byte ptr [ebx + eax], 0
  === BLOCK LINK ===
    0x4f05
=== CODE BLOCK END ===

=== CODE BLOCK ADDRESS 0x4f05 ===
  0x4f05	jne    	0x4efe
  === BLOCK LINK ===
    0x4f07
=== CODE BLOCK END ===

=== CODE BLOCK ADDRESS 0x4f07 ===
  0x4f07	dec    	eax
  0x4f08	lea    	ecx, [ebx + 0x1e]
  0x4f0b	dec    	eax
  0x4f0c	call   	dword ptr [0x4dce]
  === BLOCK LINK ===
    0x4f12
=== CODE BLOCK END ===

=== CODE BLOCK ADDRESS 0x4f12 ===
  0x4f12	nop    	dword ptr [eax + eax]
  0x4f17	dec    	eax
  0x4f18	mov    	esi, eax
  0x4f1a	dec    	eax
  0x4f1b	test   	eax, eax
  === BLOCK LINK ===
    0x4f1d
=== CODE BLOCK END ===

=== CODE BLOCK ADDRESS 0x4f1d ===
  0x4f1d	je     	0x4fa8
  === BLOCK LINK ===
    0x4f23
=== CODE BLOCK END ===

=== CODE BLOCK ADDRESS 0x4f23 ===
  0x4f23	movups  	xmm0, xmmword ptr [0x66b6]
  0x4f2a	dec    	esp
  0x4f2b	lea    	eax, [ebx + 1]
  0x4f2e	dec    	eax
  0x4f2f	mov    	edx, ebp
  === BLOCK LINK ===
    0x4f31
=== CODE BLOCK END ===

=== CODE BLOCK ADDRESS 0x4f31 ===
  0x4f31	dec    	eax
  0x4f32	mov    	ecx, esi
  0x4f34	movups  	xmmword ptr [eax], xmm0
  0x4f37	movsd  	xmm1, qword ptr [0x66b1]
  0x4f3f	movsd  	qword ptr [eax + 0x10], xmm1
  === BLOCK LINK ===
    0x4f44
=== CODE BLOCK END ===

=== CODE BLOCK ADDRESS 0x4f44 ===
  0x4f44	mov    	eax, dword ptr [0x66ae]
  0x4f4a	mov    	dword ptr [esi + 0x18], eax
  0x4f4d	mov    	al, byte ptr [0x66a9]
  0x4f53	mov    	byte ptr [esi + 0x1c], al
  0x4f56	call   	0x828d
  === BLOCK LINK ===
    0x4f5b
=== CODE BLOCK END ===

=== CODE BLOCK ADDRESS 0x4f5b ===
  0x4f5b	dec    	eax
  0x4f5c	mov    	edx, esi
  0x4f5e	dec    	eax
  0x4f5f	mov    	ecx, edi
  0x4f61	dec    	eax
  === BLOCK LINK ===
    0x4f62
=== CODE BLOCK END ===

=== CODE BLOCK ADDRESS 0x4f62 ===
  0x4f62	call   	dword ptr [0x4ed8]
  === BLOCK LINK ===
    0x4f68
=== CODE BLOCK END ===

=== CODE BLOCK ADDRESS 0x4f68 ===
  0x4f68	nop    	dword ptr [eax + eax]
  0x4f6d	dec    	eax
  0x4f6e	mov    	ecx, esi
  0x4f70	mov    	ebx, eax
  0x4f72	dec    	eax
  === BLOCK LINK ===
    0x4f73
=== CODE BLOCK END ===

=== CODE BLOCK ADDRESS 0x4f73 ===
  0x4f73	call   	dword ptr [0x4d3f]
  === BLOCK LINK ===
    0x4f79
=== CODE BLOCK END ===

=== CODE BLOCK ADDRESS 0x4f79 ===
  0x4f79	nop    	dword ptr [eax + eax]
  0x4f7e	dec    	eax
  0x4f7f	mov    	ecx, edi
  0x4f81	cmp    	ebx, -0x14
  0x4f84	jl     	0x4fc8
  === BLOCK LINK ===
    0x4f86
=== CODE BLOCK END ===

=== CODE BLOCK ADDRESS 0x4f86 ===
  0x4f86	dec    	eax
  0x4f87	call   	dword ptr [0x4f5b]
  === BLOCK LINK ===
    0x4f8d
=== CODE BLOCK END ===

=== CODE BLOCK ADDRESS 0x4f8d ===
  0x4f8d	nop    	dword ptr [eax + eax]
  0x4f92	dec    	eax
  0x4f93	mov    	ebx, dword ptr [esp + 0x30]
  0x4f97	dec    	eax
  0x4f98	mov    	ebp, dword ptr [esp + 0x38]
  === BLOCK LINK ===
    0x4f9c
=== CODE BLOCK END ===

=== CODE BLOCK ADDRESS 0x4f9c ===
  0x4f9c	dec    	eax
  0x4f9d	mov    	esi, dword ptr [esp + 0x40]
  0x4fa1	dec    	eax
  0x4fa2	add    	esp, 0x20
  0x4fa5	pop    	edi
  === BLOCK LINK ===
    0x4fa6
=== CODE BLOCK END ===

=== CODE BLOCK ADDRESS 0x4fa6 ===
  0x4fa6	ret    	
  0x4fa7	int3   	
  0x4fa8	dec    	eax
  0x4fa9	call   	dword ptr [0x4c39]
  === BLOCK LINK ===
    0x4faf
=== CODE BLOCK END ===

=== CODE BLOCK ADDRESS 0x4faf ===
  0x4faf	nop    	dword ptr [eax + eax]
  0x4fb4	dec    	esp
  0x4fb5	lea    	eax, [0x536d]
  0x4fbb	mov    	ecx, 1
  0x4fc0	mov    	edx, dword ptr [eax]
  === BLOCK LINK ===
    0x4fc2
=== CODE BLOCK END ===

=== CODE BLOCK ADDRESS 0x4fc2 ===
  0x4fc2	call   	0x6c3c
  === BLOCK LINK ===
    0x4fc7
=== CODE BLOCK END ===

=== CODE BLOCK ADDRESS 0x4fc7 ===
  0x4fc7	int3   	
  0x4fc8	dec    	eax
  0x4fc9	call   	dword ptr [0x4f79]
  === BLOCK LINK ===
    0x4fcf
=== CODE BLOCK END ===

=== CODE BLOCK ADDRESS 0x4fcf ===
  0x4fcf	nop    	dword ptr [eax + eax]
  0x4fd4	xor    	edx, edx
  0x4fd6	dec    	esp
  0x4fd7	lea    	eax, [0x6623]
  0x4fdd	dec    	esp
  === BLOCK LINK ===
    0x4fde
=== CODE BLOCK END ===

=== CODE BLOCK ADDRESS 0x4fde ===
  0x4fde	mov    	ecx, eax
  0x4fe0	lea    	ecx, [edx + 1]
  0x4fe3	call   	0x6c3c
  === BLOCK LINK ===
    0x4fe8
=== CODE BLOCK END ===

=== CODE BLOCK ADDRESS 0x4fe8 ===
  0x4fe8	int3   	
  0x4fe9	int3   	
  0x4fea	int3   	
  0x4feb	int3   	
  0x4fec	int3   	
  === BLOCK LINK ===
    0x4fed
=== CODE BLOCK END ===

=== CODE BLOCK ADDRESS 0x4fed ===
  0x4fed	int3   	
  0x4fee	int3   	
  0x4fef	int3   	
  0x4ff0	dec    	eax
  0x4ff1	mov    	dword ptr [esp + 0x10], ebx
  === BLOCK LINK ===
    0x4ff5
=== CODE BLOCK END ===

=== CODE BLOCK ADDRESS 0x4ff5 ===
  0x4ff5	dec    	eax
  0x4ff6	mov    	dword ptr [esp + 0x18], ebp
  0x4ffa	push   	esi
  0x4ffb	push   	edi
  0x4ffc	inc    	ecx
  === BLOCK LINK ===
    0x4ffd
=== CODE BLOCK END ===

=== CODE BLOCK ADDRESS 0x4ffd ===
  0x4ffd	push   	esp
  0x4ffe	inc    	ecx
  0x4fff	push   	esi
  0x5000	inc    	ecx
  0x5001	push   	edi
  === BLOCK LINK ===
    0x5002
=== CODE BLOCK END ===

=== CODE BLOCK ADDRESS 0x5002 ===
  0x5002	dec    	eax
  0x5003	sub    	esp, 0x20
  0x5006	dec    	eax
  0x5007	mov    	eax, dword ptr [ecx + 0x90]
  0x500d	dec    	eax
  === BLOCK LINK ===
    0x500e
=== CODE BLOCK END ===

=== CODE BLOCK ADDRESS 0x500e ===
  0x500e	mov    	ebx, ecx
  0x5010	dec    	eax
  0x5011	cmp    	dword ptr [eax], 0
  0x5014	jne    	0x5021
  === BLOCK LINK ===
    0x5016
=== CODE BLOCK END ===

=== CODE BLOCK ADDRESS 0x5016 ===
  0x5016	dec    	eax
  0x5017	cmp    	dword ptr [ecx + 0x10], 0
  0x501b	je     	0x5195
  === BLOCK LINK ===
    0x5021
=== CODE BLOCK END ===

=== CODE BLOCK ADDRESS 0x5021 ===
  0x5021	dec    	eax
  0x5022	call   	dword ptr [0x5010]
  === BLOCK LINK ===
    0x5028
=== CODE BLOCK END ===

=== CODE BLOCK ADDRESS 0x5028 ===
  0x5028	nop    	dword ptr [eax + eax]
  0x502d	dec    	eax
  0x502e	mov    	ecx, dword ptr [ebx + 0x70]
  0x5031	dec    	eax
  0x5032	mov    	edi, eax
  === BLOCK LINK ===
    0x5034
=== CODE BLOCK END ===

=== CODE BLOCK ADDRESS 0x5034 ===
  0x5034	dec    	eax
  0x5035	mov    	edx, dword ptr [ecx]
  0x5037	dec    	eax
  0x5038	mov    	ecx, eax
  0x503a	dec    	eax
  === BLOCK LINK ===
    0x503b
=== CODE BLOCK END ===

=== CODE BLOCK ADDRESS 0x503b ===
  0x503b	test   	edx, edx
  0x503d	jne    	0x505f
  === BLOCK LINK ===
    0x503f
=== CODE BLOCK END ===

=== CODE BLOCK ADDRESS 0x503f ===
  0x503f	dec    	eax
  0x5040	call   	dword ptr [0x506a]
  === BLOCK LINK ===
    0x5046
=== CODE BLOCK END ===

=== CODE BLOCK ADDRESS 0x5046 ===
  0x5046	nop    	dword ptr [eax + eax]
  0x504b	dec    	eax
  0x504c	mov    	ecx, dword ptr [ebx + 0x70]
  0x504f	dec    	eax
  0x5050	lea    	edx, [0x685a]
  === BLOCK LINK ===
    0x5056
=== CODE BLOCK END ===

=== CODE BLOCK ADDRESS 0x5056 ===
  0x5056	mov    	esi, eax
  0x5058	call   	0x3330
  === BLOCK LINK ===
    0x505d
=== CODE BLOCK END ===

=== CODE BLOCK ADDRESS 0x505d ===
  0x505d	jmp    	0x506d
  === BLOCK LINK ===
    0x505f
=== CODE BLOCK END ===

=== CODE BLOCK ADDRESS 0x505f ===
  0x505f	dec    	eax
  0x5060	call   	dword ptr [0x4f8a]
  === BLOCK LINK ===
    0x5066
=== CODE BLOCK END ===

=== CODE BLOCK ADDRESS 0x5066 ===
  0x5066	nop    	dword ptr [eax + eax]
  0x506b	mov    	esi, eax
  0x506d	dec    	eax
  0x506e	mov    	ecx, edi
  0x5070	test   	esi, esi
  === BLOCK LINK ===
    0x5072
=== CODE BLOCK END ===

=== CODE BLOCK ADDRESS 0x5072 ===
  0x5072	jne    	0x51a7
  === BLOCK LINK ===
    0x5078
=== CODE BLOCK END ===

=== CODE BLOCK ADDRESS 0x5078 ===
  0x5078	mov    	edx, dword ptr [ebx + 0x18]
  0x507b	dec    	eax
  0x507c	call   	dword ptr [0x501e]
  === BLOCK LINK ===
    0x5082
=== CODE BLOCK END ===

=== CODE BLOCK ADDRESS 0x5082 ===
  0x5082	nop    	dword ptr [eax + eax]
  0x5087	mov    	edx, dword ptr [ebx + 0x1c]
  0x508a	dec    	eax
  0x508b	mov    	ecx, edi
  0x508d	dec    	eax
  === BLOCK LINK ===
    0x508e
=== CODE BLOCK END ===

=== CODE BLOCK ADDRESS 0x508e ===
  0x508e	call   	dword ptr [0x4f9c]
  === BLOCK LINK ===
    0x5094
=== CODE BLOCK END ===

=== CODE BLOCK ADDRESS 0x5094 ===
  0x5094	nop    	dword ptr [eax + eax]
  0x5099	dec    	esp
  0x509a	mov    	edi, dword ptr [ebx + 0x70]
  0x509d	inc    	ebp
  0x509e	xor    	esp, esp
  === BLOCK LINK ===
    0x50a0
=== CODE BLOCK END ===

=== CODE BLOCK ADDRESS 0x50a0 ===
  0x50a0	inc    	ebp
  0x50a1	xor    	esi, esi
  0x50a3	inc    	ecx
  0x50a4	lea    	esi, [esp + 1]
  0x50a8	inc    	ebp
  === BLOCK LINK ===
    0x50a9
=== CODE BLOCK END ===

=== CODE BLOCK ADDRESS 0x50a9 ===
  0x50a9	cmp    	dword ptr [edi + 0x10], esp
  0x50ac	jle    	0x50f3
  === BLOCK LINK ===
    0x50ae
=== CODE BLOCK END ===

=== CODE BLOCK ADDRESS 0x50ae ===
  0x50ae	xor    	ebp, ebp
  0x50b0	dec    	ecx
  0x50b1	mov    	eax, dword ptr [edi + 8]
  0x50b4	dec    	eax
  0x50b5	mov    	ecx, edi
  === BLOCK LINK ===
    0x50b7
=== CODE BLOCK END ===

=== CODE BLOCK ADDRESS 0x50b7 ===
  0x50b7	cmp    	dword ptr [eax + ebp], 0
  0x50bb	dec    	eax
  0x50bc	mov    	edx, dword ptr [eax + ebp + 8]
  0x50c0	je     	0x50d0
  === BLOCK LINK ===
    0x50c2
=== CODE BLOCK END ===

=== CODE BLOCK ADDRESS 0x50c2 ===
  0x50c2	dec    	eax
  0x50c3	call   	dword ptr [0x4d67]
  === BLOCK LINK ===
    0x50c9
=== CODE BLOCK END ===

=== CODE BLOCK ADDRESS 0x50c9 ===
  0x50c9	nop    	dword ptr [eax + eax]
  0x50ce	jmp    	0x50dc
  === BLOCK LINK ===
    0x50d0
=== CODE BLOCK END ===

=== CODE BLOCK ADDRESS 0x50d0 ===
  0x50d0	dec    	eax
  0x50d1	call   	dword ptr [0x4d51]
  === BLOCK LINK ===
    0x50d7
=== CODE BLOCK END ===

=== CODE BLOCK ADDRESS 0x50d7 ===
  0x50d7	nop    	dword ptr [eax + eax]
  0x50dc	mov    	edx, eax
  0x50de	cmp    	eax, -0x14
  0x50e1	jl     	0x5106
  === BLOCK LINK ===
    0x50e3
=== CODE BLOCK END ===

=== CODE BLOCK ADDRESS 0x50e3 ===
  0x50e3	inc    	esp
  0x50e4	add    	esp, esi
  0x50e6	inc    	esp
  0x50e7	add    	esi, esi
  0x50e9	dec    	eax
  === BLOCK LINK ===
    0x50ea
=== CODE BLOCK END ===

=== CODE BLOCK ADDRESS 0x50ea ===
  0x50ea	add    	ebp, 0x10
  0x50ed	inc    	ebp
  0x50ee	cmp    	esi, dword ptr [edi + 0x10]
  0x50f1	jl     	0x50b0
  === BLOCK LINK ===
    0x50f3
=== CODE BLOCK END ===

=== CODE BLOCK ADDRESS 0x50f3 ===
  0x50f3	dec    	esp
  0x50f4	mov    	ecx, dword ptr [esp + 0x50]
  0x50f8	inc    	ecx
  0x50f9	mov    	edx, esp
  0x50fb	cmp    	edx, -0x14
  === BLOCK LINK ===
    0x50fe
=== CODE BLOCK END ===

=== CODE BLOCK ADDRESS 0x50fe ===
  0x50fe	jl     	0x51e7
  === BLOCK LINK ===
    0x5104
=== CODE BLOCK END ===

=== CODE BLOCK ADDRESS 0x5104 ===
  0x5104	jmp    	0x5117
  === BLOCK LINK ===
    0x5106
=== CODE BLOCK END ===

=== CODE BLOCK ADDRESS 0x5106 ===
  0x5106	dec    	ecx
  0x5107	mov    	eax, dword ptr [edi + 8]
  0x510a	dec    	ecx
  0x510b	arpl   	si, cx
  0x510d	dec    	eax
  === BLOCK LINK ===
    0x510e
=== CODE BLOCK END ===

=== CODE BLOCK ADDRESS 0x510e ===
  0x510e	add    	ecx, ecx
  0x5110	dec    	esp
  0x5111	mov    	ecx, dword ptr [eax + ecx*8 + 8]
  0x5115	jmp    	0x50fb
  === BLOCK LINK ===
    0x5117
=== CODE BLOCK END ===

=== CODE BLOCK ADDRESS 0x5117 ===
  0x5117	dec    	eax
  0x5118	mov    	edx, edi
  0x511a	dec    	eax
  0x511b	mov    	ecx, ebx
  0x511d	call   	0x4d50
  === BLOCK LINK ===
    0x5122
=== CODE BLOCK END ===

=== CODE BLOCK ADDRESS 0x5122 ===
  0x5122	dec    	eax
  0x5123	mov    	edx, dword ptr [ebx + 0x50]
  0x5126	dec    	eax
  0x5127	mov    	ecx, edi
  0x5129	dec    	eax
  === BLOCK LINK ===
    0x512a
=== CODE BLOCK END ===

=== CODE BLOCK ADDRESS 0x512a ===
  0x512a	test   	edx, edx
  0x512c	je     	0x513c
  === BLOCK LINK ===
    0x512e
=== CODE BLOCK END ===

=== CODE BLOCK ADDRESS 0x512e ===
  0x512e	dec    	eax
  0x512f	call   	dword ptr [0x4f63]
  === BLOCK LINK ===
    0x5135
=== CODE BLOCK END ===

=== CODE BLOCK ADDRESS 0x5135 ===
  0x5135	nop    	dword ptr [eax + eax]
  0x513a	jmp    	0x5152
  === BLOCK LINK ===
    0x513c
=== CODE BLOCK END ===

=== CODE BLOCK ADDRESS 0x513c ===
  0x513c	dec    	esp
  0x513d	lea    	eax, [0xfffff7dd]
  0x5143	dec    	eax
  0x5144	mov    	edx, ebx
  0x5146	dec    	eax
  === BLOCK LINK ===
    0x5147
=== CODE BLOCK END ===

=== CODE BLOCK ADDRESS 0x5147 ===
  0x5147	call   	dword ptr [0x4e7b]
  === BLOCK LINK ===
    0x514d
=== CODE BLOCK END ===

=== CODE BLOCK ADDRESS 0x514d ===
  0x514d	nop    	dword ptr [eax + eax]
  0x5152	dec    	eax
  0x5153	mov    	ecx, edi
  0x5155	test   	eax, eax
  0x5157	jne    	0x51f8
  === BLOCK LINK ===
    0x515d
=== CODE BLOCK END ===

=== CODE BLOCK ADDRESS 0x515d ===
  0x515d	dec    	eax
  0x515e	mov    	edx, dword ptr [ebx]
  0x5160	dec    	eax
  0x5161	call   	dword ptr [0x4fa9]
  === BLOCK LINK ===
    0x5167
=== CODE BLOCK END ===

=== CODE BLOCK ADDRESS 0x5167 ===
  0x5167	nop    	dword ptr [eax + eax]
  0x516c	dec    	eax
  0x516d	mov    	ecx, edi
  0x516f	test   	eax, eax
  0x5171	jne    	0x5218
  === BLOCK LINK ===
    0x5177
=== CODE BLOCK END ===

=== CODE BLOCK ADDRESS 0x5177 ===
  0x5177	dec    	eax
  0x5178	mov    	edx, ebx
  0x517a	dec    	eax
  0x517b	mov    	ebx, dword ptr [esp + 0x58]
  0x517f	dec    	eax
  === BLOCK LINK ===
    0x5180
=== CODE BLOCK END ===

=== CODE BLOCK ADDRESS 0x5180 ===
  0x5180	mov    	ebp, dword ptr [esp + 0x60]
  0x5184	dec    	eax
  0x5185	add    	esp, 0x20
  0x5188	inc    	ecx
  0x5189	pop    	edi
  === BLOCK LINK ===
    0x518a
=== CODE BLOCK END ===

=== CODE BLOCK ADDRESS 0x518a ===
  0x518a	inc    	ecx
  0x518b	pop    	esi
  0x518c	inc    	ecx
  0x518d	pop    	esp
  0x518e	pop    	edi
  === BLOCK LINK ===
    0x518f
=== CODE BLOCK END ===

=== CODE BLOCK ADDRESS 0x518f ===
  0x518f	pop    	esi
  0x5190	jmp    	0x58c8
  === BLOCK LINK ===
    0x5195
=== CODE BLOCK END ===

=== CODE BLOCK ADDRESS 0x5195 ===
  0x5195	xor    	edx, edx
  0x5197	dec    	esp
  0x5198	lea    	eax, [0x66ea]
  0x519e	lea    	ecx, [edx + 1]
  0x51a1	call   	0x6c3c
  === BLOCK LINK ===
    0x51a6
=== CODE BLOCK END ===

=== CODE BLOCK ADDRESS 0x51a6 ===
  0x51a6	int3   	
  0x51a7	dec    	eax
  0x51a8	call   	dword ptr [0x4d9a]
  === BLOCK LINK ===
    0x51ae
=== CODE BLOCK END ===

=== CODE BLOCK ADDRESS 0x51ae ===
  0x51ae	nop    	dword ptr [eax + eax]
  0x51b3	dec    	eax
  0x51b4	mov    	ecx, dword ptr [ebx + 0x70]
  0x51b7	dec    	eax
  0x51b8	mov    	edi, eax
  === BLOCK LINK ===
    0x51ba
=== CODE BLOCK END ===

=== CODE BLOCK ADDRESS 0x51ba ===
  0x51ba	call   	0x338c
  === BLOCK LINK ===
    0x51bf
=== CODE BLOCK END ===

=== CODE BLOCK ADDRESS 0x51bf ===
  0x51bf	mov    	ecx, 2
  0x51c4	dec    	eax
  0x51c5	mov    	ebx, eax
  0x51c7	call   	0x7f36
  === BLOCK LINK ===
    0x51cc
=== CODE BLOCK END ===

=== CODE BLOCK ADDRESS 0x51cc ===
  0x51cc	dec    	eax
  0x51cd	mov    	ecx, eax
  0x51cf	dec    	eax
  0x51d0	lea    	edx, [0x66ea]
  0x51d6	dec    	esp
  === BLOCK LINK ===
    0x51d7
=== CODE BLOCK END ===

=== CODE BLOCK ADDRESS 0x51d7 ===
  0x51d7	mov    	ecx, edi
  0x51d9	dec    	esp
  0x51da	mov    	eax, ebx
  0x51dc	call   	0x8098
  === BLOCK LINK ===
    0x51e1
=== CODE BLOCK END ===

=== CODE BLOCK ADDRESS 0x51e1 ===
  0x51e1	call   	0x2944
  === BLOCK LINK ===
    0x51e6
=== CODE BLOCK END ===

=== CODE BLOCK ADDRESS 0x51e6 ===
  0x51e6	int3   	
  0x51e7	dec    	esp
  0x51e8	lea    	eax, [0x66f2]
  0x51ee	xor    	edx, edx
  0x51f0	mov    	ecx, esi
  === BLOCK LINK ===
    0x51f2
=== CODE BLOCK END ===

=== CODE BLOCK ADDRESS 0x51f2 ===
  0x51f2	call   	0x6c3c
  === BLOCK LINK ===
    0x51f7
=== CODE BLOCK END ===

=== CODE BLOCK ADDRESS 0x51f7 ===
  0x51f7	int3   	
  0x51f8	dec    	eax
  0x51f9	call   	dword ptr [0x4d49]
  === BLOCK LINK ===
    0x51ff
=== CODE BLOCK END ===

=== CODE BLOCK ADDRESS 0x51ff ===
  0x51ff	nop    	dword ptr [eax + eax]
  0x5204	dec    	esp
  0x5205	lea    	eax, [0x63f5]
  0x520b	xor    	edx, edx
  0x520d	dec    	esp
  === BLOCK LINK ===
    0x520e
=== CODE BLOCK END ===

=== CODE BLOCK ADDRESS 0x520e ===
  0x520e	mov    	ecx, eax
  0x5210	mov    	ecx, esi
  0x5212	call   	0x6c3c
  === BLOCK LINK ===
    0x5217
=== CODE BLOCK END ===

=== CODE BLOCK ADDRESS 0x5217 ===
  0x5217	int3   	
  0x5218	dec    	eax
  0x5219	call   	dword ptr [0x4d29]
  === BLOCK LINK ===
    0x521f
=== CODE BLOCK END ===

=== CODE BLOCK ADDRESS 0x521f ===
  0x521f	nop    	dword ptr [eax + eax]
  0x5224	dec    	esp
  0x5225	lea    	eax, [0x63d5]
  0x522b	xor    	edx, edx
  0x522d	dec    	esp
  === BLOCK LINK ===
    0x522e
=== CODE BLOCK END ===

=== CODE BLOCK ADDRESS 0x522e ===
  0x522e	mov    	ecx, eax
  0x5230	mov    	ecx, esi
  0x5232	call   	0x6c3c
  === BLOCK LINK ===
    0x5237
=== CODE BLOCK END ===

=== CODE BLOCK ADDRESS 0x5237 ===
  0x5237	int3   	
  0x5238	int3   	
  0x5239	int3   	
  0x523a	int3   	
  0x523b	int3   	
  === BLOCK LINK ===
    0x523c
=== CODE BLOCK END ===

=== CODE BLOCK ADDRESS 0x523c ===
  0x523c	int3   	
  0x523d	int3   	
  0x523e	int3   	
  0x523f	int3   	
  0x5240	dec    	eax
  === BLOCK LINK ===
    0x5241
=== CODE BLOCK END ===

=== CODE BLOCK ADDRESS 0x5241 ===
  0x5241	mov    	dword ptr [esp + 0x10], ebx
  0x5245	dec    	eax
  0x5246	mov    	dword ptr [esp + 0x18], ebp
  0x524a	push   	esi
  0x524b	push   	edi
  === BLOCK LINK ===
    0x524c
=== CODE BLOCK END ===

=== CODE BLOCK ADDRESS 0x524c ===
  0x524c	inc    	ecx
  0x524d	push   	esi
  0x524e	dec    	eax
  0x524f	sub    	esp, 0x30
  0x5252	dec    	eax
  === BLOCK LINK ===
    0x5253
=== CODE BLOCK END ===

=== CODE BLOCK ADDRESS 0x5253 ===
  0x5253	mov    	edi, ecx
  0x5255	call   	0x6aac
  === BLOCK LINK ===
    0x525a
=== CODE BLOCK END ===

=== CODE BLOCK ADDRESS 0x525a ===
  0x525a	dec    	eax
  0x525b	mov    	ecx, dword ptr [edi]
  0x525d	inc    	ecx
  0x525e	mov    	esi, 0x30003
  0x5263	mov    	edx, 0x8102
  === BLOCK LINK ===
    0x5268
=== CODE BLOCK END ===

=== CODE BLOCK ADDRESS 0x5268 ===
  0x5268	inc    	ecx
  0x5269	mov    	eax, 0x1b6
  0x526e	inc    	ecx
  0x526f	mov    	ebx, esi
  0x5271	dec    	eax
  === BLOCK LINK ===
    0x5272
=== CODE BLOCK END ===

=== CODE BLOCK ADDRESS 0x5272 ===
  0x5272	call   	dword ptr [0x4b20]
  === BLOCK LINK ===
    0x5278
=== CODE BLOCK END ===

=== CODE BLOCK ADDRESS 0x5278 ===
  0x5278	nop    	dword ptr [eax + eax]
  0x527d	mov    	dword ptr [edi + 0x88], eax
  0x5283	test   	eax, eax
  0x5285	js     	0x546a
  === BLOCK LINK ===
    0x528b
=== CODE BLOCK END ===

=== CODE BLOCK ADDRESS 0x528b ===
  0x528b	dec    	eax
  0x528c	call   	dword ptr [0x4bee]
  === BLOCK LINK ===
    0x5292
=== CODE BLOCK END ===

=== CODE BLOCK ADDRESS 0x5292 ===
  0x5292	nop    	dword ptr [eax + eax]
  0x5297	dec    	eax
  0x5298	mov    	ecx, eax
  0x529a	dec    	eax
  0x529b	mov    	esi, eax
  === BLOCK LINK ===
    0x529d
=== CODE BLOCK END ===

=== CODE BLOCK ADDRESS 0x529d ===
  0x529d	dec    	eax
  0x529e	call   	dword ptr [0x4bec]
  === BLOCK LINK ===
    0x52a4
=== CODE BLOCK END ===

=== CODE BLOCK ADDRESS 0x52a4 ===
  0x52a4	nop    	dword ptr [eax + eax]
  0x52a9	dec    	eax
  0x52aa	mov    	ecx, esi
  0x52ac	dec    	eax
  0x52ad	call   	dword ptr [0x4e15]
  === BLOCK LINK ===
    0x52b3
=== CODE BLOCK END ===

=== CODE BLOCK ADDRESS 0x52b3 ===
  0x52b3	nop    	dword ptr [eax + eax]
  0x52b8	dec    	eax
  0x52b9	mov    	ecx, esi
  0x52bb	dec    	eax
  0x52bc	call   	dword ptr [0x4d0e]
  === BLOCK LINK ===
    0x52c2
=== CODE BLOCK END ===

=== CODE BLOCK ADDRESS 0x52c2 ===
  0x52c2	nop    	dword ptr [eax + eax]
  0x52c7	dec    	eax
  0x52c8	mov    	ecx, esi
  0x52ca	dec    	eax
  0x52cb	call   	dword ptr [0x4d3f]
  === BLOCK LINK ===
    0x52d1
=== CODE BLOCK END ===

=== CODE BLOCK ADDRESS 0x52d1 ===
  0x52d1	nop    	dword ptr [eax + eax]
  0x52d6	dec    	eax
  0x52d7	mov    	edx, esi
  0x52d9	call   	0x4ec4
  === BLOCK LINK ===
    0x52de
=== CODE BLOCK END ===

=== CODE BLOCK ADDRESS 0x52de ===
  0x52de	mov    	edx, dword ptr [edi + 0x88]
  0x52e4	inc    	ecx
  0x52e5	mov    	eax, 0x2800
  0x52ea	dec    	eax
  0x52eb	mov    	ecx, esi
  === BLOCK LINK ===
    0x52ed
=== CODE BLOCK END ===

=== CODE BLOCK ADDRESS 0x52ed ===
  0x52ed	dec    	eax
  0x52ee	call   	dword ptr [0x4d74]
  === BLOCK LINK ===
    0x52f4
=== CODE BLOCK END ===

=== CODE BLOCK ADDRESS 0x52f4 ===
  0x52f4	nop    	dword ptr [eax + eax]
  0x52f9	dec    	eax
  0x52fa	mov    	ecx, esi
  0x52fc	test   	eax, eax
  0x52fe	jne    	0x5490
  === BLOCK LINK ===
    0x5304
=== CODE BLOCK END ===

=== CODE BLOCK ADDRESS 0x5304 ===
  0x5304	jmp    	0x5333
  === BLOCK LINK ===
    0x5306
=== CODE BLOCK END ===

=== CODE BLOCK ADDRESS 0x5306 ===
  0x5306	xor    	edx, edx
  0x5308	dec    	eax
  0x5309	mov    	ecx, esi
  0x530b	dec    	eax
  0x530c	call   	dword ptr [0x4d3e]
  === BLOCK LINK ===
    0x5312
=== CODE BLOCK END ===

=== CODE BLOCK ADDRESS 0x5312 ===
  0x5312	nop    	dword ptr [eax + eax]
  0x5317	dec    	eax
  0x5318	mov    	ecx, esi
  0x531a	test   	eax, eax
  0x531c	jne    	0x54f0
  === BLOCK LINK ===
    0x5322
=== CODE BLOCK END ===

=== CODE BLOCK ADDRESS 0x5322 ===
  0x5322	dec    	eax
  0x5323	call   	dword ptr [0x4d47]
  === BLOCK LINK ===
    0x5329
=== CODE BLOCK END ===

=== CODE BLOCK ADDRESS 0x5329 ===
  0x5329	nop    	dword ptr [eax + eax]
  0x532e	mov    	ebx, eax
  0x5330	dec    	eax
  0x5331	mov    	ecx, esi
  0x5333	dec    	eax
  === BLOCK LINK ===
    0x5334
=== CODE BLOCK END ===

=== CODE BLOCK ADDRESS 0x5334 ===
  0x5334	lea    	edx, [esp + 0x50]
  0x5338	dec    	eax
  0x5339	call   	dword ptr [0x4bb1]
  === BLOCK LINK ===
    0x533f
=== CODE BLOCK END ===

=== CODE BLOCK ADDRESS 0x533f ===
  0x533f	nop    	dword ptr [eax + eax]
  0x5344	test   	eax, eax
  0x5346	je     	0x5306
  === BLOCK LINK ===
    0x5348
=== CODE BLOCK END ===

=== CODE BLOCK ADDRESS 0x5348 ===
  0x5348	dec    	eax
  0x5349	mov    	ecx, esi
  0x534b	dec    	eax
  0x534c	call   	dword ptr [0x4d9e]
  === BLOCK LINK ===
    0x5352
=== CODE BLOCK END ===

=== CODE BLOCK ADDRESS 0x5352 ===
  0x5352	nop    	dword ptr [eax + eax]
  0x5357	dec    	eax
  0x5358	mov    	ecx, esi
  0x535a	dec    	eax
  0x535b	mov    	ebp, eax
  === BLOCK LINK ===
    0x535d
=== CODE BLOCK END ===

=== CODE BLOCK ADDRESS 0x535d ===
  0x535d	dec    	eax
  0x535e	call   	dword ptr [0x4b44]
  === BLOCK LINK ===
    0x5364
=== CODE BLOCK END ===

=== CODE BLOCK ADDRESS 0x5364 ===
  0x5364	nop    	dword ptr [eax + eax]
  0x5369	dec    	eax
  0x536a	call   	dword ptr [0x4cc8]
  === BLOCK LINK ===
    0x5370
=== CODE BLOCK END ===

=== CODE BLOCK ADDRESS 0x5370 ===
  0x5370	nop    	dword ptr [eax + eax]
  0x5375	dec    	eax
  0x5376	mov    	ecx, dword ptr [edi + 0x70]
  0x5379	dec    	eax
  0x537a	mov    	esi, eax
  === BLOCK LINK ===
    0x537c
=== CODE BLOCK END ===

=== CODE BLOCK ADDRESS 0x537c ===
  0x537c	dec    	eax
  0x537d	mov    	edx, dword ptr [ecx]
  0x537f	dec    	eax
  0x5380	mov    	ecx, eax
  0x5382	dec    	eax
  === BLOCK LINK ===
    0x5383
=== CODE BLOCK END ===

=== CODE BLOCK ADDRESS 0x5383 ===
  0x5383	test   	edx, edx
  0x5385	je     	0x53c0
  === BLOCK LINK ===
    0x5387
=== CODE BLOCK END ===

=== CODE BLOCK ADDRESS 0x5387 ===
  0x5387	dec    	eax
  0x5388	call   	dword ptr [0x4c62]
  === BLOCK LINK ===
    0x538e
=== CODE BLOCK END ===

=== CODE BLOCK ADDRESS 0x538e ===
  0x538e	nop    	dword ptr [eax + eax]
  0x5393	inc    	ecx
  0x5394	mov    	esi, 0xff0000
  0x5399	dec    	eax
  0x539a	mov    	ecx, esi
  === BLOCK LINK ===
    0x539c
=== CODE BLOCK END ===

=== CODE BLOCK ADDRESS 0x539c ===
  0x539c	inc    	ecx
  0x539d	and    	ebx, esi
  0x539f	dec    	eax
  0x53a0	call   	dword ptr [0x4cca]
  === BLOCK LINK ===
    0x53a6
=== CODE BLOCK END ===

=== CODE BLOCK ADDRESS 0x53a6 ===
  0x53a6	nop    	dword ptr [eax + eax]
  0x53ab	inc    	ecx
  0x53ac	and    	eax, esi
  0x53ae	cmp    	ebx, eax
  0x53b0	je     	0x53d8
  === BLOCK LINK ===
    0x53b2
=== CODE BLOCK END ===

=== CODE BLOCK ADDRESS 0x53b2 ===
  0x53b2	cmp    	ebx, 0x60000
  0x53b8	jne    	0x54ca
  === BLOCK LINK ===
    0x53be
=== CODE BLOCK END ===

=== CODE BLOCK ADDRESS 0x53be ===
  0x53be	jmp    	0x53d8
  === BLOCK LINK ===
    0x53c0
=== CODE BLOCK END ===

=== CODE BLOCK ADDRESS 0x53c0 ===
  0x53c0	cmp    	ebx, 0x60000
  0x53c6	inc    	ecx
  0x53c7	cmove  	ebx, esi
  0x53ca	mov    	edx, ebx
  0x53cc	dec    	eax
  === BLOCK LINK ===
    0x53cd
=== CODE BLOCK END ===

=== CODE BLOCK ADDRESS 0x53cd ===
  0x53cd	call   	dword ptr [0x4c55]
  === BLOCK LINK ===
    0x53d3
=== CODE BLOCK END ===

=== CODE BLOCK ADDRESS 0x53d3 ===
  0x53d3	nop    	dword ptr [eax + eax]
  0x53d8	mov    	ecx, dword ptr [edi + 0x88]
  0x53de	dec    	eax
  0x53df	call   	dword ptr [0x481b]
  === BLOCK LINK ===
    0x53e5
=== CODE BLOCK END ===

=== CODE BLOCK ADDRESS 0x53e5 ===
  0x53e5	nop    	dword ptr [eax + eax]
  0x53ea	inc    	ebp
  0x53eb	xor    	ecx, ecx
  0x53ed	inc    	ebp
  0x53ee	xor    	eax, eax
  === BLOCK LINK ===
    0x53f0
=== CODE BLOCK END ===

=== CODE BLOCK ADDRESS 0x53f0 ===
  0x53f0	dec    	eax
  0x53f1	mov    	ecx, eax
  0x53f3	dec    	eax
  0x53f4	mov    	edx, ebp
  0x53f6	dec    	eax
  === BLOCK LINK ===
    0x53f7
=== CODE BLOCK END ===

=== CODE BLOCK ADDRESS 0x53f7 ===
  0x53f7	call   	dword ptr [0x46c3]
  === BLOCK LINK ===
    0x53fd
=== CODE BLOCK END ===

=== CODE BLOCK ADDRESS 0x53fd ===
  0x53fd	nop    	dword ptr [eax + eax]
  0x5402	test   	eax, eax
  0x5404	je     	0x5520
  === BLOCK LINK ===
    0x540a
=== CODE BLOCK END ===

=== CODE BLOCK ADDRESS 0x540a ===
  0x540a	dec    	eax
  0x540b	mov    	edx, esi
  0x540d	dec    	eax
  0x540e	mov    	ecx, edi
  0x5410	call   	0x4d50
  === BLOCK LINK ===
    0x5415
=== CODE BLOCK END ===

=== CODE BLOCK ADDRESS 0x5415 ===
  0x5415	mov    	edx, dword ptr [edi + 0x88]
  0x541b	dec    	eax
  0x541c	mov    	ecx, esi
  0x541e	dec    	eax
  0x541f	call   	dword ptr [0x4b93]
  === BLOCK LINK ===
    0x5425
=== CODE BLOCK END ===

=== CODE BLOCK ADDRESS 0x5425 ===
  0x5425	nop    	dword ptr [eax + eax]
  0x542a	dec    	eax
  0x542b	mov    	ecx, esi
  0x542d	test   	eax, eax
  0x542f	jne    	0x5540
  === BLOCK LINK ===
    0x5435
=== CODE BLOCK END ===

=== CODE BLOCK ADDRESS 0x5435 ===
  0x5435	dec    	eax
  0x5436	mov    	edx, edi
  0x5438	call   	0x58c8
  === BLOCK LINK ===
    0x543d
=== CODE BLOCK END ===

=== CODE BLOCK ADDRESS 0x543d ===
  0x543d	mov    	ecx, dword ptr [edi + 0x88]
  0x5443	dec    	eax
  0x5444	call   	dword ptr [0x477e]
  === BLOCK LINK ===
    0x544a
=== CODE BLOCK END ===

=== CODE BLOCK ADDRESS 0x544a ===
  0x544a	nop    	dword ptr [eax + eax]
  0x544f	or     	dword ptr [edi + 0x88], 0xffffffff
  0x5456	dec    	eax
  0x5457	mov    	ebx, dword ptr [esp + 0x58]
  0x545b	dec    	eax
  === BLOCK LINK ===
    0x545c
=== CODE BLOCK END ===

=== CODE BLOCK ADDRESS 0x545c ===
  0x545c	mov    	ebp, dword ptr [esp + 0x60]
  0x5460	dec    	eax
  0x5461	add    	esp, 0x30
  0x5464	inc    	ecx
  0x5465	pop    	esi
  === BLOCK LINK ===
    0x5466
=== CODE BLOCK END ===

=== CODE BLOCK ADDRESS 0x5466 ===
  0x5466	pop    	edi
  0x5467	pop    	esi
  0x5468	ret    	
  0x5469	int3   	
  0x546a	dec    	eax
  === BLOCK LINK ===
    0x546b
=== CODE BLOCK END ===

=== CODE BLOCK ADDRESS 0x546b ===
  0x546b	mov    	ebx, dword ptr [edi]
  0x546d	dec    	eax
  0x546e	call   	dword ptr [0x4774]
  === BLOCK LINK ===
    0x5474
=== CODE BLOCK END ===

=== CODE BLOCK ADDRESS 0x5474 ===
  0x5474	nop    	dword ptr [eax + eax]
  0x5479	dec    	esp
  0x547a	mov    	ecx, ebx
  0x547c	dec    	esp
  0x547d	lea    	eax, [0x6485]
  === BLOCK LINK ===
    0x5483
=== CODE BLOCK END ===

=== CODE BLOCK ADDRESS 0x5483 ===
  0x5483	mov    	ecx, 1
  0x5488	mov    	edx, dword ptr [eax]
  0x548a	call   	0x6c3c
  === BLOCK LINK ===
    0x548f
=== CODE BLOCK END ===

=== CODE BLOCK ADDRESS 0x548f ===
  0x548f	int3   	
  0x5490	dec    	eax
  0x5491	call   	dword ptr [0x4ab1]
  === BLOCK LINK ===
    0x5497
=== CODE BLOCK END ===

=== CODE BLOCK ADDRESS 0x5497 ===
  0x5497	nop    	dword ptr [eax + eax]
  0x549c	dec    	eax
  0x549d	mov    	ecx, esi
  0x549f	dec    	eax
  0x54a0	mov    	ebx, eax
  === BLOCK LINK ===
    0x54a2
=== CODE BLOCK END ===

=== CODE BLOCK ADDRESS 0x54a2 ===
  0x54a2	dec    	eax
  0x54a3	call   	dword ptr [0x4b37]
  === BLOCK LINK ===
    0x54a9
=== CODE BLOCK END ===

=== CODE BLOCK ADDRESS 0x54a9 ===
  0x54a9	nop    	dword ptr [eax + eax]
  0x54ae	dec    	esp
  0x54af	mov    	ecx, dword ptr [edi]
  0x54b1	dec    	esp
  0x54b2	lea    	eax, [0x6460]
  === BLOCK LINK ===
    0x54b8
=== CODE BLOCK END ===

=== CODE BLOCK ADDRESS 0x54b8 ===
  0x54b8	mov    	edx, eax
  0x54ba	dec    	eax
  0x54bb	mov    	dword ptr [esp + 0x20], ebx
  0x54bf	mov    	ecx, 1
  0x54c4	call   	0x6c3c
  === BLOCK LINK ===
    0x54c9
=== CODE BLOCK END ===

=== CODE BLOCK ADDRESS 0x54c9 ===
  0x54c9	int3   	
  0x54ca	dec    	eax
  0x54cb	mov    	ecx, dword ptr [edi + 0x70]
  0x54ce	call   	0x338c
  === BLOCK LINK ===
    0x54d3
=== CODE BLOCK END ===

=== CODE BLOCK ADDRESS 0x54d3 ===
  0x54d3	xor    	edx, edx
  0x54d5	dec    	esp
  0x54d6	lea    	eax, [0x6484]
  0x54dc	dec    	esp
  0x54dd	mov    	ecx, eax
  === BLOCK LINK ===
    0x54df
=== CODE BLOCK END ===

=== CODE BLOCK ADDRESS 0x54df ===
  0x54df	dec    	eax
  0x54e0	mov    	eax, dword ptr [edi]
  0x54e2	dec    	eax
  0x54e3	mov    	dword ptr [esp + 0x20], eax
  0x54e7	lea    	ecx, [edx + 1]
  === BLOCK LINK ===
    0x54ea
=== CODE BLOCK END ===

=== CODE BLOCK ADDRESS 0x54ea ===
  0x54ea	call   	0x6c3c
  === BLOCK LINK ===
    0x54ef
=== CODE BLOCK END ===

=== CODE BLOCK ADDRESS 0x54ef ===
  0x54ef	int3   	
  0x54f0	dec    	eax
  0x54f1	call   	dword ptr [0x49b1]
  === BLOCK LINK ===
    0x54f7
=== CODE BLOCK END ===

=== CODE BLOCK ADDRESS 0x54f7 ===
  0x54f7	nop    	dword ptr [eax + eax]
  0x54fc	mov    	ecx, dword ptr [edi + 0x88]
  0x5502	dec    	eax
  0x5503	call   	dword ptr [0x46bf]
  === BLOCK LINK ===
    0x5509
=== CODE BLOCK END ===

=== CODE BLOCK ADDRESS 0x5509 ===
  0x5509	nop    	dword ptr [eax + eax]
  0x550e	xor    	edx, edx
  0x5510	dec    	esp
  0x5511	lea    	eax, [0x6421]
  0x5517	lea    	ecx, [edx + 1]
  === BLOCK LINK ===
    0x551a
=== CODE BLOCK END ===

=== CODE BLOCK ADDRESS 0x551a ===
  0x551a	call   	0x6c3c
  === BLOCK LINK ===
    0x551f
=== CODE BLOCK END ===

=== CODE BLOCK ADDRESS 0x551f ===
  0x551f	int3   	
  0x5520	dec    	eax
  0x5521	call   	dword ptr [0x46c1]
  === BLOCK LINK ===
    0x5527
=== CODE BLOCK END ===

=== CODE BLOCK ADDRESS 0x5527 ===
  0x5527	nop    	dword ptr [eax + eax]
  0x552c	dec    	esp
  0x552d	lea    	eax, [0x645d]
  0x5533	mov    	ecx, 1
  0x5538	mov    	edx, dword ptr [eax]
  === BLOCK LINK ===
    0x553a
=== CODE BLOCK END ===

=== CODE BLOCK ADDRESS 0x553a ===
  0x553a	call   	0x6c3c
  === BLOCK LINK ===
    0x553f
=== CODE BLOCK END ===

=== CODE BLOCK ADDRESS 0x553f ===
  0x553f	int3   	
  0x5540	dec    	eax
  0x5541	call   	dword ptr [0x4a01]
  === BLOCK LINK ===
    0x5547
=== CODE BLOCK END ===

=== CODE BLOCK ADDRESS 0x5547 ===
  0x5547	nop    	dword ptr [eax + eax]
  0x554c	xor    	edx, edx
  0x554e	dec    	esp
  0x554f	lea    	eax, [0x60ab]
  0x5555	dec    	esp
  === BLOCK LINK ===
    0x5556
=== CODE BLOCK END ===

=== CODE BLOCK ADDRESS 0x5556 ===
  0x5556	mov    	ecx, eax
  0x5558	lea    	ecx, [edx + 1]
  0x555b	call   	0x6c3c
  === BLOCK LINK ===
    0x5560
=== CODE BLOCK END ===

=== CODE BLOCK ADDRESS 0x5560 ===
  0x5560	int3   	
  0x5561	int3   	
  0x5562	int3   	
  0x5563	int3   	
  0x5564	int3   	
  === BLOCK LINK ===
    0x5565
=== CODE BLOCK END ===

=== CODE BLOCK ADDRESS 0x5565 ===
  0x5565	int3   	
  0x5566	int3   	
  0x5567	int3   	
  0x5568	dec    	eax
  0x5569	mov    	eax, esp
  === BLOCK LINK ===
    0x556b
=== CODE BLOCK END ===

=== CODE BLOCK ADDRESS 0x556b ===
  0x556b	dec    	eax
  0x556c	mov    	dword ptr [eax + 0x10], ebx
  0x556f	dec    	eax
  0x5570	mov    	dword ptr [eax + 0x18], ebp
  0x5573	dec    	eax
  === BLOCK LINK ===
    0x5574
=== CODE BLOCK END ===

=== CODE BLOCK ADDRESS 0x5574 ===
  0x5574	mov    	dword ptr [eax + 0x20], esi
  0x5577	push   	edi
  0x5578	dec    	eax
  0x5579	sub    	esp, 0x40
  0x557c	dec    	eax
  === BLOCK LINK ===
    0x557d
=== CODE BLOCK END ===

=== CODE BLOCK ADDRESS 0x557d ===
  0x557d	lea    	eax, [eax - 0x18]
  0x5580	xorps  	xmm0, xmm0
  0x5583	dec    	eax
  0x5584	mov    	dword ptr [ecx + 0xd0], eax
  0x558a	dec    	eax
  === BLOCK LINK ===
    0x558b
=== CODE BLOCK END ===

=== CODE BLOCK ADDRESS 0x558b ===
  0x558b	mov    	edi, ecx
  0x558d	movups  	xmmword ptr [esp + 0x30], xmm0
  0x5592	mov    	ebp, 0x30003
  0x5597	call   	0x6aac
  === BLOCK LINK ===
    0x559c
=== CODE BLOCK END ===

=== CODE BLOCK ADDRESS 0x559c ===
  0x559c	dec    	eax
  0x559d	mov    	ecx, dword ptr [edi]
  0x559f	mov    	edx, 0x8002
  0x55a4	dec    	eax
  0x55a5	call   	dword ptr [0x47ed]
  === BLOCK LINK ===
    0x55ab
=== CODE BLOCK END ===

=== CODE BLOCK ADDRESS 0x55ab ===
  0x55ab	nop    	dword ptr [eax + eax]
  0x55b0	mov    	dword ptr [edi + 0x88], eax
  0x55b6	test   	eax, eax
  0x55b8	js     	0x57d9
  === BLOCK LINK ===
    0x55be
=== CODE BLOCK END ===

=== CODE BLOCK ADDRESS 0x55be ===
  0x55be	dec    	eax
  0x55bf	call   	dword ptr [0x48bb]
  === BLOCK LINK ===
    0x55c5
=== CODE BLOCK END ===

=== CODE BLOCK ADDRESS 0x55c5 ===
  0x55c5	nop    	dword ptr [eax + eax]
  0x55ca	dec    	eax
  0x55cb	mov    	ecx, eax
  0x55cd	dec    	eax
  0x55ce	mov    	esi, eax
  === BLOCK LINK ===
    0x55d0
=== CODE BLOCK END ===

=== CODE BLOCK ADDRESS 0x55d0 ===
  0x55d0	dec    	eax
  0x55d1	call   	dword ptr [0x48b9]
  === BLOCK LINK ===
    0x55d7
=== CODE BLOCK END ===

=== CODE BLOCK ADDRESS 0x55d7 ===
  0x55d7	nop    	dword ptr [eax + eax]
  0x55dc	dec    	eax
  0x55dd	mov    	ecx, esi
  0x55df	dec    	eax
  0x55e0	call   	dword ptr [0x49ea]
  === BLOCK LINK ===
    0x55e6
=== CODE BLOCK END ===

=== CODE BLOCK ADDRESS 0x55e6 ===
  0x55e6	nop    	dword ptr [eax + eax]
  0x55eb	dec    	eax
  0x55ec	mov    	ecx, esi
  0x55ee	dec    	eax
  0x55ef	call   	dword ptr [0x4a1b]
  === BLOCK LINK ===
    0x55f5
=== CODE BLOCK END ===

=== CODE BLOCK ADDRESS 0x55f5 ===
  0x55f5	nop    	dword ptr [eax + eax]
  0x55fa	dec    	eax
  0x55fb	mov    	edx, esi
  0x55fd	call   	0x4ec4
  === BLOCK LINK ===
    0x5602
=== CODE BLOCK END ===

=== CODE BLOCK ADDRESS 0x5602 ===
  0x5602	dec    	esp
  0x5603	arpl   	word ptr [edi + 0x18], ax
  0x5606	dec    	eax
  0x5607	mov    	ecx, esi
  0x5609	mov    	edx, dword ptr [edi + 0x88]
  === BLOCK LINK ===
    0x560f
=== CODE BLOCK END ===

=== CODE BLOCK ADDRESS 0x560f ===
  0x560f	dec    	eax
  0x5610	call   	dword ptr [0x4a52]
  === BLOCK LINK ===
    0x5616
=== CODE BLOCK END ===

=== CODE BLOCK ADDRESS 0x5616 ===
  0x5616	nop    	dword ptr [eax + eax]
  0x561b	dec    	eax
  0x561c	mov    	ecx, esi
  0x561e	test   	eax, eax
  0x5620	jne    	0x57ff
  === BLOCK LINK ===
    0x5626
=== CODE BLOCK END ===

=== CODE BLOCK ADDRESS 0x5626 ===
  0x5626	jmp    	0x567a
  === BLOCK LINK ===
    0x5628
=== CODE BLOCK END ===

=== CODE BLOCK ADDRESS 0x5628 ===
  0x5628	xor    	edx, edx
  0x562a	dec    	eax
  0x562b	mov    	ecx, esi
  0x562d	dec    	eax
  0x562e	call   	dword ptr [0x4a1c]
  === BLOCK LINK ===
    0x5634
=== CODE BLOCK END ===

=== CODE BLOCK ADDRESS 0x5634 ===
  0x5634	nop    	dword ptr [eax + eax]
  0x5639	test   	eax, eax
  0x563b	jne    	0x586d
  === BLOCK LINK ===
    0x5641
=== CODE BLOCK END ===

=== CODE BLOCK ADDRESS 0x5641 ===
  0x5641	dec    	esp
  0x5642	mov    	eax, dword ptr [esp + 0x50]
  0x5646	mov    	edx, 0x112
  0x564b	dec    	eax
  0x564c	mov    	ecx, dword ptr [edi + 0xf8]
  === BLOCK LINK ===
    0x5652
=== CODE BLOCK END ===

=== CODE BLOCK ADDRESS 0x5652 ===
  0x5652	dec    	eax
  0x5653	call   	dword ptr [0x4a37]
  === BLOCK LINK ===
    0x5659
=== CODE BLOCK END ===

=== CODE BLOCK ADDRESS 0x5659 ===
  0x5659	nop    	dword ptr [eax + eax]
  0x565e	test   	eax, eax
  0x5660	jne    	0x5845
  === BLOCK LINK ===
    0x5666
=== CODE BLOCK END ===

=== CODE BLOCK ADDRESS 0x5666 ===
  0x5666	dec    	eax
  0x5667	mov    	ecx, esi
  0x5669	dec    	eax
  0x566a	call   	dword ptr [0x4a00]
  === BLOCK LINK ===
    0x5670
=== CODE BLOCK END ===

=== CODE BLOCK ADDRESS 0x5670 ===
  0x5670	nop    	dword ptr [eax + eax]
  0x5675	mov    	ebp, eax
  0x5677	dec    	eax
  0x5678	mov    	ecx, esi
  0x567a	dec    	eax
  === BLOCK LINK ===
    0x567b
=== CODE BLOCK END ===

=== CODE BLOCK ADDRESS 0x567b ===
  0x567b	lea    	edx, [esp + 0x50]
  0x567f	dec    	eax
  0x5680	call   	dword ptr [0x486a]
  === BLOCK LINK ===
    0x5686
=== CODE BLOCK END ===

=== CODE BLOCK ADDRESS 0x5686 ===
  0x5686	nop    	dword ptr [eax + eax]
  0x568b	test   	eax, eax
  0x568d	je     	0x5628
  === BLOCK LINK ===
    0x568f
=== CODE BLOCK END ===

=== CODE BLOCK ADDRESS 0x568f ===
  0x568f	dec    	eax
  0x5690	mov    	ecx, esi
  0x5692	dec    	eax
  0x5693	call   	dword ptr [0x4a57]
  === BLOCK LINK ===
    0x5699
=== CODE BLOCK END ===

=== CODE BLOCK ADDRESS 0x5699 ===
  0x5699	nop    	dword ptr [eax + eax]
  0x569e	dec    	eax
  0x569f	mov    	ecx, esi
  0x56a1	dec    	eax
  0x56a2	mov    	ebx, eax
  === BLOCK LINK ===
    0x56a4
=== CODE BLOCK END ===

=== CODE BLOCK ADDRESS 0x56a4 ===
  0x56a4	dec    	eax
  0x56a5	call   	dword ptr [0x47fd]
  === BLOCK LINK ===
    0x56ab
=== CODE BLOCK END ===

=== CODE BLOCK ADDRESS 0x56ab ===
  0x56ab	nop    	dword ptr [eax + eax]
  0x56b0	dec    	eax
  0x56b1	call   	dword ptr [0x4981]
  === BLOCK LINK ===
    0x56b7
=== CODE BLOCK END ===

=== CODE BLOCK ADDRESS 0x56b7 ===
  0x56b7	nop    	dword ptr [eax + eax]
  0x56bc	dec    	eax
  0x56bd	mov    	ecx, eax
  0x56bf	mov    	edx, ebp
  0x56c1	dec    	eax
  === BLOCK LINK ===
    0x56c2
=== CODE BLOCK END ===

=== CODE BLOCK ADDRESS 0x56c2 ===
  0x56c2	mov    	esi, eax
  0x56c4	dec    	eax
  0x56c5	call   	dword ptr [0x495d]
  === BLOCK LINK ===
    0x56cb
=== CODE BLOCK END ===

=== CODE BLOCK ADDRESS 0x56cb ===
  0x56cb	nop    	dword ptr [eax + eax]
  0x56d0	mov    	edx, dword ptr [edi + 0x18]
  0x56d3	dec    	eax
  0x56d4	mov    	ecx, esi
  0x56d6	dec    	eax
  === BLOCK LINK ===
    0x56d7
=== CODE BLOCK END ===

=== CODE BLOCK ADDRESS 0x56d7 ===
  0x56d7	call   	dword ptr [0x49c3]
  === BLOCK LINK ===
    0x56dd
=== CODE BLOCK END ===

=== CODE BLOCK ADDRESS 0x56dd ===
  0x56dd	nop    	dword ptr [eax + eax]
  0x56e2	mov    	edx, dword ptr [edi + 0x1c]
  0x56e5	dec    	eax
  0x56e6	mov    	ecx, esi
  0x56e8	dec    	eax
  === BLOCK LINK ===
    0x56e9
=== CODE BLOCK END ===

=== CODE BLOCK ADDRESS 0x56e9 ===
  0x56e9	call   	dword ptr [0x4941]
  === BLOCK LINK ===
    0x56ef
=== CODE BLOCK END ===

=== CODE BLOCK ADDRESS 0x56ef ===
  0x56ef	nop    	dword ptr [eax + eax]
  0x56f4	mov    	ecx, dword ptr [edi + 0x88]
  0x56fa	dec    	eax
  0x56fb	call   	dword ptr [0x44ff]
  === BLOCK LINK ===
    0x5701
=== CODE BLOCK END ===

=== CODE BLOCK ADDRESS 0x5701 ===
  0x5701	nop    	dword ptr [eax + eax]
  0x5706	inc    	ebp
  0x5707	xor    	ecx, ecx
  0x5709	inc    	ebp
  0x570a	xor    	eax, eax
  === BLOCK LINK ===
    0x570c
=== CODE BLOCK END ===

=== CODE BLOCK ADDRESS 0x570c ===
  0x570c	dec    	eax
  0x570d	mov    	ecx, eax
  0x570f	dec    	eax
  0x5710	mov    	edx, ebx
  0x5712	dec    	eax
  === BLOCK LINK ===
    0x5713
=== CODE BLOCK END ===

=== CODE BLOCK ADDRESS 0x5713 ===
  0x5713	call   	dword ptr [0x43a7]
  === BLOCK LINK ===
    0x5719
=== CODE BLOCK END ===

=== CODE BLOCK ADDRESS 0x5719 ===
  0x5719	nop    	dword ptr [eax + eax]
  0x571e	test   	eax, eax
  0x5720	je     	0x5825
  === BLOCK LINK ===
    0x5726
=== CODE BLOCK END ===

=== CODE BLOCK ADDRESS 0x5726 ===
  0x5726	dec    	eax
  0x5727	mov    	edx, esi
  0x5729	dec    	eax
  0x572a	mov    	ecx, edi
  0x572c	call   	0x4d50
  === BLOCK LINK ===
    0x5731
=== CODE BLOCK END ===

=== CODE BLOCK ADDRESS 0x5731 ===
  0x5731	mov    	edx, dword ptr [edi + 0x88]
  0x5737	dec    	eax
  0x5738	mov    	ecx, esi
  0x573a	dec    	eax
  0x573b	call   	dword ptr [0x4877]
  === BLOCK LINK ===
    0x5741
=== CODE BLOCK END ===

=== CODE BLOCK ADDRESS 0x5741 ===
  0x5741	nop    	dword ptr [eax + eax]
  0x5746	dec    	eax
  0x5747	mov    	ecx, esi
  0x5749	test   	eax, eax
  0x574b	jne    	0x58a0
  === BLOCK LINK ===
    0x5751
=== CODE BLOCK END ===

=== CODE BLOCK ADDRESS 0x5751 ===
  0x5751	dec    	eax
  0x5752	mov    	edx, edi
  0x5754	call   	0x58c8
  === BLOCK LINK ===
    0x5759
=== CODE BLOCK END ===

=== CODE BLOCK ADDRESS 0x5759 ===
  0x5759	mov    	ecx, dword ptr [edi + 0x88]
  0x575f	dec    	eax
  0x5760	call   	dword ptr [0x4462]
  === BLOCK LINK ===
    0x5766
=== CODE BLOCK END ===

=== CODE BLOCK ADDRESS 0x5766 ===
  0x5766	nop    	dword ptr [eax + eax]
  0x576b	or     	dword ptr [edi + 0x88], 0xffffffff
  0x5772	jmp    	0x57b1
  === BLOCK LINK ===
    0x5774
=== CODE BLOCK END ===

=== CODE BLOCK ADDRESS 0x5774 ===
  0x5774	dec    	eax
  0x5775	mov    	eax, dword ptr [edi + 0xd0]
  0x577b	dec    	eax
  0x577c	mov    	ecx, dword ptr [eax]
  0x577e	dec    	eax
  === BLOCK LINK ===
    0x577f
=== CODE BLOCK END ===

=== CODE BLOCK ADDRESS 0x577f ===
  0x577f	mov    	ebx, dword ptr [ecx]
  0x5781	dec    	eax
  0x5782	mov    	ecx, dword ptr [ecx + 0x18]
  0x5785	dec    	eax
  0x5786	call   	dword ptr [0x452c]
  === BLOCK LINK ===
    0x578c
=== CODE BLOCK END ===

=== CODE BLOCK ADDRESS 0x578c ===
  0x578c	nop    	dword ptr [eax + eax]
  0x5791	dec    	eax
  0x5792	mov    	ecx, dword ptr [edi + 0xd0]
  0x5798	dec    	eax
  0x5799	mov    	ecx, dword ptr [ecx]
  === BLOCK LINK ===
    0x579b
=== CODE BLOCK END ===

=== CODE BLOCK ADDRESS 0x579b ===
  0x579b	dec    	eax
  0x579c	call   	dword ptr [0x4516]
  === BLOCK LINK ===
    0x57a2
=== CODE BLOCK END ===

=== CODE BLOCK ADDRESS 0x57a2 ===
  0x57a2	nop    	dword ptr [eax + eax]
  0x57a7	dec    	eax
  0x57a8	mov    	eax, dword ptr [edi + 0xd0]
  0x57ae	dec    	eax
  0x57af	mov    	dword ptr [eax], ebx
  === BLOCK LINK ===
    0x57b1
=== CODE BLOCK END ===

=== CODE BLOCK ADDRESS 0x57b1 ===
  0x57b1	dec    	eax
  0x57b2	mov    	eax, dword ptr [edi + 0xd0]
  0x57b8	dec    	eax
  0x57b9	cmp    	dword ptr [eax], 0
  0x57bc	jne    	0x5774
  === BLOCK LINK ===
    0x57be
=== CODE BLOCK END ===

=== CODE BLOCK ADDRESS 0x57be ===
  0x57be	dec    	eax
  0x57bf	and    	dword ptr [eax + 8], 0
  0x57c3	dec    	eax
  0x57c4	mov    	ebx, dword ptr [esp + 0x58]
  0x57c8	dec    	eax
  === BLOCK LINK ===
    0x57c9
=== CODE BLOCK END ===

=== CODE BLOCK ADDRESS 0x57c9 ===
  0x57c9	mov    	ebp, dword ptr [esp + 0x60]
  0x57cd	dec    	eax
  0x57ce	mov    	esi, dword ptr [esp + 0x68]
  0x57d2	dec    	eax
  0x57d3	add    	esp, 0x40
  === BLOCK LINK ===
    0x57d6
=== CODE BLOCK END ===

=== CODE BLOCK ADDRESS 0x57d6 ===
  0x57d6	pop    	edi
  0x57d7	ret    	
  0x57d8	int3   	
  0x57d9	dec    	eax
  0x57da	mov    	ebx, dword ptr [edi]
  === BLOCK LINK ===
    0x57dc
=== CODE BLOCK END ===

=== CODE BLOCK ADDRESS 0x3330 ===
=== CODE BLOCK END ===

=== CODE BLOCK ADDRESS 0x57dc ===
  0x57dc	dec    	eax
  0x57dd	call   	dword ptr [0x4405]
  === BLOCK LINK ===
    0x57e3
=== CODE BLOCK END ===

=== CODE BLOCK ADDRESS 0x57e3 ===
  0x57e3	nop    	dword ptr [eax + eax]
  0x57e8	dec    	esp
  0x57e9	mov    	ecx, ebx
  0x57eb	dec    	esp
  0x57ec	lea    	eax, [0x6116]
  === BLOCK LINK ===
    0x57f2
=== CODE BLOCK END ===

=== CODE BLOCK ADDRESS 0x57f2 ===
  0x57f2	mov    	ecx, 1
  0x57f7	mov    	edx, dword ptr [eax]
  0x57f9	call   	0x6c3c
  === BLOCK LINK ===
    0x57fe
=== CODE BLOCK END ===

=== CODE BLOCK ADDRESS 0x57fe ===
  0x57fe	int3   	
  0x57ff	dec    	eax
  0x5800	call   	dword ptr [0x4742]
  === BLOCK LINK ===
    0x5806
=== CODE BLOCK END ===

=== CODE BLOCK ADDRESS 0x5806 ===
  0x5806	nop    	dword ptr [eax + eax]
  0x580b	dec    	esp
  0x580c	mov    	ecx, dword ptr [edi]
  0x580e	dec    	esp
  0x580f	lea    	eax, [0x619b]
  === BLOCK LINK ===
    0x5815
=== CODE BLOCK END ===

=== CODE BLOCK ADDRESS 0x5815 ===
  0x5815	xor    	edx, edx
  0x5817	dec    	eax
  0x5818	mov    	dword ptr [esp + 0x20], eax
  0x581c	lea    	ecx, [edx + 1]
  0x581f	call   	0x6c3c
  === BLOCK LINK ===
    0x5824
=== CODE BLOCK END ===

=== CODE BLOCK ADDRESS 0x5824 ===
  0x5824	int3   	
  0x5825	dec    	eax
  0x5826	call   	dword ptr [0x43bc]
  === BLOCK LINK ===
    0x582c
=== CODE BLOCK END ===

=== CODE BLOCK ADDRESS 0x582c ===
  0x582c	nop    	dword ptr [eax + eax]
  0x5831	dec    	esp
  0x5832	lea    	eax, [0x6158]
  0x5838	mov    	ecx, 1
  0x583d	mov    	edx, dword ptr [eax]
  === BLOCK LINK ===
    0x583f
=== CODE BLOCK END ===

=== CODE BLOCK ADDRESS 0x583f ===
  0x583f	call   	0x6c3c
  === BLOCK LINK ===
    0x5844
=== CODE BLOCK END ===

=== CODE BLOCK ADDRESS 0x5844 ===
  0x5844	int3   	
  0x5845	dec    	eax
  0x5846	mov    	ecx, dword ptr [edi + 0xf8]
  0x584c	dec    	eax
  0x584d	call   	dword ptr [0x46f5]
  === BLOCK LINK ===
    0x5853
=== CODE BLOCK END ===

=== CODE BLOCK ADDRESS 0x5853 ===
  0x5853	nop    	dword ptr [eax + eax]
  0x5858	xor    	edx, edx
  0x585a	dec    	esp
  0x585b	lea    	eax, [0x4c2f]
  0x5861	dec    	esp
  === BLOCK LINK ===
    0x5862
=== CODE BLOCK END ===

=== CODE BLOCK ADDRESS 0x5862 ===
  0x5862	mov    	ecx, eax
  0x5864	lea    	ecx, [edx + 1]
  0x5867	call   	0x6c3c
  === BLOCK LINK ===
    0x586c
=== CODE BLOCK END ===

=== CODE BLOCK ADDRESS 0x586c ===
  0x586c	int3   	
  0x586d	dec    	eax
  0x586e	mov    	ecx, esi
  0x5870	dec    	eax
  0x5871	call   	dword ptr [0x4631]
  === BLOCK LINK ===
    0x5877
=== CODE BLOCK END ===

=== CODE BLOCK ADDRESS 0x5877 ===
  0x5877	nop    	dword ptr [eax + eax]
  0x587c	mov    	ecx, dword ptr [edi + 0x88]
  0x5882	dec    	eax
  0x5883	call   	dword ptr [0x433f]
  === BLOCK LINK ===
    0x5889
=== CODE BLOCK END ===

=== CODE BLOCK ADDRESS 0x5889 ===
  0x5889	nop    	dword ptr [eax + eax]
  0x588e	xor    	edx, edx
  0x5890	dec    	esp
  0x5891	lea    	eax, [0x60a1]
  0x5897	lea    	ecx, [edx + 1]
  === BLOCK LINK ===
    0x589a
=== CODE BLOCK END ===

=== CODE BLOCK ADDRESS 0x589a ===
  0x589a	call   	0x6c3c
  === BLOCK LINK ===
    0x589f
=== CODE BLOCK END ===

=== CODE BLOCK ADDRESS 0x589f ===
  0x589f	int3   	
  0x58a0	dec    	eax
  0x58a1	call   	dword ptr [0x46a1]
  === BLOCK LINK ===
    0x58a7
=== CODE BLOCK END ===

=== CODE BLOCK ADDRESS 0x58a7 ===
  0x58a7	nop    	dword ptr [eax + eax]
  0x58ac	xor    	edx, edx
  0x58ae	dec    	esp
  0x58af	lea    	eax, [0x5d4b]
  0x58b5	dec    	esp
  === BLOCK LINK ===
    0x58b6
=== CODE BLOCK END ===

=== CODE BLOCK ADDRESS 0x58b6 ===
  0x58b6	mov    	ecx, eax
  0x58b8	lea    	ecx, [edx + 1]
  0x58bb	call   	0x6c3c
  === BLOCK LINK ===
    0x58c0
=== CODE BLOCK END ===

=== CODE BLOCK ADDRESS 0x58c0 ===
  0x58c0	int3   	
  0x58c1	int3   	
  0x58c2	int3   	
  0x58c3	int3   	
  0x58c4	int3   	
  === BLOCK LINK ===
    0x58c5
=== CODE BLOCK END ===

=== CODE BLOCK ADDRESS 0x58c5 ===
  0x58c5	int3   	
  0x58c6	int3   	
  0x58c7	int3   	
  0x58c8	dec    	eax
  0x58c9	mov    	dword ptr [esp + 8], ebx
  === BLOCK LINK ===
    0x58cd
=== CODE BLOCK END ===

=== CODE BLOCK ADDRESS 0x58cd ===
  0x58cd	dec    	eax
  0x58ce	mov    	dword ptr [esp + 0x20], ebp
  0x58d2	push   	esi
  0x58d3	push   	edi
  0x58d4	inc    	ecx
  === BLOCK LINK ===
    0x58d5
=== CODE BLOCK END ===

=== CODE BLOCK ADDRESS 0x58d5 ===
  0x58d5	push   	esi
  0x58d6	dec    	eax
  0x58d7	sub    	esp, 0x20
  0x58da	dec    	eax
  0x58db	arpl   	word ptr [edx + 0x18], ax
  === BLOCK LINK ===
    0x58de
=== CODE BLOCK END ===

=== CODE BLOCK ADDRESS 0x58de ===
  0x58de	dec    	eax
  0x58df	mov    	esi, ecx
  0x58e1	mov    	ecx, 0x10000
  0x58e6	dec    	eax
  0x58e7	mov    	edi, edx
  === BLOCK LINK ===
    0x58e9
=== CODE BLOCK END ===

=== CODE BLOCK ADDRESS 0x58e9 ===
  0x58e9	dec    	eax
  0x58ea	cmp    	eax, ecx
  0x58ec	jbe    	0x58f6
  === BLOCK LINK ===
    0x58ee
=== CODE BLOCK END ===

=== CODE BLOCK ADDRESS 0x58ee ===
  0x58ee	dec    	eax
  0x58ef	add    	ecx, ecx
  0x58f1	dec    	eax
  0x58f2	cmp    	ecx, eax
  0x58f4	jb     	0x58ee
  === BLOCK LINK ===
    0x58f6
=== CODE BLOCK END ===

=== CODE BLOCK ADDRESS 0x58f6 ===
  0x58f6	dec    	eax
  0x58f7	add    	ecx, 0x4000
  0x58fd	dec    	eax
  0x58fe	mov    	dword ptr [edx + 0xe8], ecx
  0x5904	dec    	eax
  === BLOCK LINK ===
    0x5905
=== CODE BLOCK END ===

=== CODE BLOCK ADDRESS 0x5905 ===
  0x5905	call   	dword ptr [0x43d5]
  === BLOCK LINK ===
    0x590b
=== CODE BLOCK END ===

=== CODE BLOCK ADDRESS 0x590b ===
  0x590b	nop    	dword ptr [eax + eax]
  0x5910	dec    	eax
  0x5911	mov    	dword ptr [edi + 0xe0], eax
  0x5917	dec    	eax
  0x5918	test   	eax, eax
  === BLOCK LINK ===
    0x591a
=== CODE BLOCK END ===

=== CODE BLOCK ADDRESS 0x591a ===
  0x591a	je     	0x5d50
  === BLOCK LINK ===
    0x5920
=== CODE BLOCK END ===

=== CODE BLOCK ADDRESS 0x5920 ===
  0x5920	dec    	eax
  0x5921	call   	dword ptr [0x4761]
  === BLOCK LINK ===
    0x5927
=== CODE BLOCK END ===

=== CODE BLOCK ADDRESS 0x5927 ===
  0x5927	nop    	dword ptr [eax + eax]
  0x592c	dec    	eax
  0x592d	mov    	dword ptr [edi + 0xc8], eax
  0x5933	dec    	eax
  0x5934	test   	eax, eax
  === BLOCK LINK ===
    0x5936
=== CODE BLOCK END ===

=== CODE BLOCK ADDRESS 0x5936 ===
  0x5936	je     	0x5d62
  === BLOCK LINK ===
    0x593c
=== CODE BLOCK END ===

=== CODE BLOCK ADDRESS 0x593c ===
  0x593c	dec    	eax
  0x593d	mov    	ecx, esi
  0x593f	dec    	eax
  0x5940	call   	dword ptr [0x472a]
  === BLOCK LINK ===
    0x5946
=== CODE BLOCK END ===

=== CODE BLOCK ADDRESS 0x5946 ===
  0x5946	nop    	dword ptr [eax + eax]
  0x594b	dec    	eax
  0x594c	mov    	ecx, dword ptr [edi + 0xc8]
  0x5952	mov    	edx, eax
  0x5954	dec    	eax
  === BLOCK LINK ===
    0x5955
=== CODE BLOCK END ===

=== CODE BLOCK ADDRESS 0x5955 ===
  0x5955	call   	dword ptr [0x464d]
  === BLOCK LINK ===
    0x595b
=== CODE BLOCK END ===

=== CODE BLOCK ADDRESS 0x595b ===
  0x595b	nop    	dword ptr [eax + eax]
  0x5960	dec    	eax
  0x5961	call   	dword ptr [0x46a1]
  === BLOCK LINK ===
    0x5967
=== CODE BLOCK END ===

=== CODE BLOCK ADDRESS 0x5967 ===
  0x5967	nop    	dword ptr [eax + eax]
  0x596c	dec    	eax
  0x596d	mov    	dword ptr [edi + 0xc0], eax
  0x5973	dec    	eax
  0x5974	test   	eax, eax
  === BLOCK LINK ===
    0x5976
=== CODE BLOCK END ===

=== CODE BLOCK ADDRESS 0x5976 ===
  0x5976	je     	0x5d74
  === BLOCK LINK ===
    0x597c
=== CODE BLOCK END ===

=== CODE BLOCK ADDRESS 0x597c ===
  0x597c	cmp    	byte ptr [edi + 0x59], 0x48
  0x5980	dec    	eax
  0x5981	mov    	ecx, eax
  0x5983	je     	0x59a7
  === BLOCK LINK ===
    0x5985
=== CODE BLOCK END ===

=== CODE BLOCK ADDRESS 0x5985 ===
  0x5985	cmp    	byte ptr [edi + 0x59], 0x4c
  0x5989	je     	0x5999
  === BLOCK LINK ===
    0x598b
=== CODE BLOCK END ===

=== CODE BLOCK ADDRESS 0x598b ===
  0x598b	dec    	eax
  0x598c	call   	dword ptr [0x4746]
  === BLOCK LINK ===
    0x5992
=== CODE BLOCK END ===

=== CODE BLOCK ADDRESS 0x5992 ===
  0x5992	nop    	dword ptr [eax + eax]
  0x5997	jmp    	0x59b3
  === BLOCK LINK ===
    0x5999
=== CODE BLOCK END ===

=== CODE BLOCK ADDRESS 0x5999 ===
  0x5999	dec    	eax
  0x599a	call   	dword ptr [0x4740]
  === BLOCK LINK ===
    0x59a0
=== CODE BLOCK END ===

=== CODE BLOCK ADDRESS 0x59a0 ===
  0x59a0	nop    	dword ptr [eax + eax]
  0x59a5	jmp    	0x59b3
  === BLOCK LINK ===
    0x59a7
=== CODE BLOCK END ===

=== CODE BLOCK ADDRESS 0x59a7 ===
  0x59a7	dec    	eax
  0x59a8	call   	dword ptr [0x46b2]
  === BLOCK LINK ===
    0x59ae
=== CODE BLOCK END ===

=== CODE BLOCK ADDRESS 0x59ae ===
  0x59ae	nop    	dword ptr [eax + eax]
  0x59b3	dec    	eax
  0x59b4	mov    	edx, dword ptr [edi + 0xf8]
  0x59ba	dec    	esp
  0x59bb	lea    	eax, [0xb3f]
  === BLOCK LINK ===
    0x59c1
=== CODE BLOCK END ===

=== CODE BLOCK ADDRESS 0x59c1 ===
  0x59c1	dec    	eax
  0x59c2	mov    	ecx, dword ptr [edi + 0xc0]
  0x59c8	dec    	esp
  0x59c9	mov    	ecx, edi
  0x59cb	dec    	eax
  === BLOCK LINK ===
    0x59cc
=== CODE BLOCK END ===

=== CODE BLOCK ADDRESS 0x59cc ===
  0x59cc	call   	dword ptr [0x4606]
  === BLOCK LINK ===
    0x59d2
=== CODE BLOCK END ===

=== CODE BLOCK ADDRESS 0x59d2 ===
  0x59d2	nop    	dword ptr [eax + eax]
  0x59d7	dec    	eax
  0x59d8	mov    	ecx, dword ptr [edi + 0xc0]
  0x59de	dec    	eax
  0x59df	lea    	edx, [0xb9b]
  === BLOCK LINK ===
    0x59e5
=== CODE BLOCK END ===

=== CODE BLOCK ADDRESS 0x59e5 ===
  0x59e5	dec    	esp
  0x59e6	mov    	eax, edi
  0x59e8	dec    	eax
  0x59e9	call   	dword ptr [0x46f9]
  === BLOCK LINK ===
    0x59ef
=== CODE BLOCK END ===

=== CODE BLOCK ADDRESS 0x59ef ===
  0x59ef	nop    	dword ptr [eax + eax]
  0x59f4	mov    	edx, dword ptr [edi + 0x2c]
  0x59f7	dec    	eax
  0x59f8	mov    	ecx, dword ptr [edi + 0xc0]
  0x59fe	dec    	eax
  === BLOCK LINK ===
    0x59ff
=== CODE BLOCK END ===

=== CODE BLOCK ADDRESS 0x59ff ===
  0x59ff	call   	dword ptr [0x46cb]
  === BLOCK LINK ===
    0x5a05
=== CODE BLOCK END ===

=== CODE BLOCK ADDRESS 0x5a05 ===
  0x5a05	nop    	dword ptr [eax + eax]
  0x5a0a	dec    	eax
  0x5a0b	mov    	ecx, dword ptr [edi + 0xc0]
  0x5a11	dec    	eax
  0x5a12	call   	dword ptr [0x46e0]
  === BLOCK LINK ===
    0x5a18
=== CODE BLOCK END ===

=== CODE BLOCK ADDRESS 0x5a18 ===
  0x5a18	nop    	dword ptr [eax + eax]
  0x5a1d	dec    	eax
  0x5a1e	cmp    	dword ptr [edi + 0x10], 0
  0x5a22	je     	0x5a2f
  === BLOCK LINK ===
    0x5a24
=== CODE BLOCK END ===

=== CODE BLOCK ADDRESS 0x5a24 ===
  0x5a24	dec    	eax
  0x5a25	mov    	edx, esi
  0x5a27	dec    	eax
  0x5a28	mov    	ecx, edi
  0x5a2a	call   	0x5d8c
  === BLOCK LINK ===
    0x5a2f
=== CODE BLOCK END ===

=== CODE BLOCK ADDRESS 0x5a2f ===
  0x5a2f	dec    	eax
  0x5a30	mov    	ecx, dword ptr [edi + 0x90]
  0x5a36	dec    	eax
  0x5a37	mov    	ebx, dword ptr [ecx]
  0x5a39	dec    	eax
  === BLOCK LINK ===
    0x5a3a
=== CODE BLOCK END ===

=== CODE BLOCK ADDRESS 0x5a3a ===
  0x5a3a	test   	ebx, ebx
  0x5a3c	je     	0x5aa5
  === BLOCK LINK ===
    0x5a3e
=== CODE BLOCK END ===

=== CODE BLOCK ADDRESS 0x5a3e ===
  0x5a3e	mov    	al, byte ptr [ebx]
  0x5a40	cmp    	al, 0x2d
  0x5a42	jne    	0x5a80
  === BLOCK LINK ===
    0x5a44
=== CODE BLOCK END ===

=== CODE BLOCK ADDRESS 0x5a44 ===
  0x5a44	cmp    	byte ptr [ebx + 1], 0x43
  0x5a48	jne    	0x5a80
  === BLOCK LINK ===
    0x5a4a
=== CODE BLOCK END ===

=== CODE BLOCK ADDRESS 0x5a4a ===
  0x5a4a	dec    	eax
  0x5a4b	add    	ebx, 2
  0x5a4e	cmp    	byte ptr [ebx], 0
  0x5a51	jne    	0x5a73
  === BLOCK LINK ===
    0x5a53
=== CODE BLOCK END ===

=== CODE BLOCK ADDRESS 0x5a53 ===
  0x5a53	dec    	eax
  0x5a54	lea    	eax, [ecx + 8]
  0x5a57	dec    	eax
  0x5a58	mov    	dword ptr [edi + 0x90], eax
  0x5a5e	dec    	eax
  === BLOCK LINK ===
    0x5a5f
=== CODE BLOCK END ===

=== CODE BLOCK ADDRESS 0x5a5f ===
  0x5a5f	mov    	ebx, dword ptr [eax]
  0x5a61	dec    	eax
  0x5a62	test   	ebx, ebx
  0x5a64	je     	0x5b0f
  === BLOCK LINK ===
    0x5a6a
=== CODE BLOCK END ===

=== CODE BLOCK ADDRESS 0x5a6a ===
  0x5a6a	cmp    	byte ptr [ebx], 0
  0x5a6d	je     	0x5afc
  === BLOCK LINK ===
    0x5a73
=== CODE BLOCK END ===

=== CODE BLOCK ADDRESS 0x5a73 ===
  0x5a73	dec    	eax
  0x5a74	mov    	edx, ebx
  0x5a76	dec    	eax
  0x5a77	mov    	ecx, edi
  0x5a79	call   	0x43e4
  === BLOCK LINK ===
    0x5a7e
=== CODE BLOCK END ===

=== CODE BLOCK ADDRESS 0x5a7e ===
  0x5a7e	jmp    	0x5ae5
  === BLOCK LINK ===
    0x5a80
=== CODE BLOCK END ===

=== CODE BLOCK ADDRESS 0x5a80 ===
  0x5a80	cmp    	al, 0x2f
  0x5a82	je     	0x5a8e
  === BLOCK LINK ===
    0x5a84
=== CODE BLOCK END ===

=== CODE BLOCK ADDRESS 0x5a84 ===
  0x5a84	dec    	eax
  0x5a85	mov    	ecx, edi
  0x5a87	call   	0x4508
  === BLOCK LINK ===
    0x5a8c
=== CODE BLOCK END ===

=== CODE BLOCK ADDRESS 0x5a8c ===
  0x5a8c	mov    	al, byte ptr [ebx]
  0x5a8e	dec    	eax
  0x5a8f	mov    	edx, esi
  0x5a91	dec    	eax
  0x5a92	mov    	ecx, edi
  === BLOCK LINK ===
    0x5a94
=== CODE BLOCK END ===

=== CODE BLOCK ADDRESS 0x5a94 ===
  0x5a94	cmp    	al, 0x40
  0x5a96	jne    	0x5add
  === BLOCK LINK ===
    0x5a98
=== CODE BLOCK END ===

=== CODE BLOCK ADDRESS 0x5a98 ===
  0x5a98	dec    	esp
  0x5a99	lea    	eax, [ebx + 1]
  0x5a9c	call   	0x5f88
  === BLOCK LINK ===
    0x5aa1
=== CODE BLOCK END ===

=== CODE BLOCK ADDRESS 0x5aa1 ===
  0x5aa1	test   	eax, eax
  0x5aa3	je     	0x5ae5
  === BLOCK LINK ===
    0x5aa5
=== CODE BLOCK END ===

=== CODE BLOCK ADDRESS 0x5aa5 ===
  0x5aa5	dec    	eax
  0x5aa6	mov    	ecx, dword ptr [edi + 0xc0]
  0x5aac	inc    	ebp
  0x5aad	xor    	ecx, ecx
  0x5aaf	inc    	ebp
  === BLOCK LINK ===
    0x5ab0
=== CODE BLOCK END ===

=== CODE BLOCK ADDRESS 0x5ab0 ===
  0x5ab0	xor    	eax, eax
  0x5ab2	xor    	edx, edx
  0x5ab4	dec    	eax
  0x5ab5	call   	dword ptr [0x451d]
  === BLOCK LINK ===
    0x5abb
=== CODE BLOCK END ===

=== CODE BLOCK ADDRESS 0x5abb ===
  0x5abb	nop    	dword ptr [eax + eax]
  0x5ac0	dec    	eax
  0x5ac1	mov    	ecx, dword ptr [edi + 0xc0]
  0x5ac7	inc    	ebp
  0x5ac8	xor    	eax, eax
  === BLOCK LINK ===
    0x5aca
=== CODE BLOCK END ===

=== CODE BLOCK ADDRESS 0x5aca ===
  0x5aca	xor    	edx, edx
  0x5acc	dec    	eax
  0x5acd	call   	dword ptr [0x4615]
  === BLOCK LINK ===
    0x5ad3
=== CODE BLOCK END ===

=== CODE BLOCK ADDRESS 0x5ad3 ===
  0x5ad3	nop    	dword ptr [eax + eax]
  0x5ad8	jmp    	0x5c34
  === BLOCK LINK ===
    0x5add
=== CODE BLOCK END ===

=== CODE BLOCK ADDRESS 0x5add ===
  0x5add	dec    	esp
  0x5ade	mov    	eax, ebx
  0x5ae0	call   	0x65f8
  === BLOCK LINK ===
    0x5ae5
=== CODE BLOCK END ===

=== CODE BLOCK ADDRESS 0x5ae5 ===
  0x5ae5	dec    	eax
  0x5ae6	mov    	ecx, dword ptr [edi + 0x90]
  0x5aec	dec    	eax
  0x5aed	add    	ecx, 8
  0x5af0	dec    	eax
  === BLOCK LINK ===
    0x5af1
=== CODE BLOCK END ===

=== CODE BLOCK ADDRESS 0x5af1 ===
  0x5af1	mov    	dword ptr [edi + 0x90], ecx
  0x5af7	jmp    	0x5a36
  === BLOCK LINK ===
    0x5afc
=== CODE BLOCK END ===

=== CODE BLOCK ADDRESS 0x5afc ===
  0x5afc	dec    	eax
  0x5afd	lea    	edx, [0x5f35]
  0x5b03	xor    	ecx, ecx
  0x5b05	call   	0x6c14
  === BLOCK LINK ===
    0x5b0a
=== CODE BLOCK END ===

=== CODE BLOCK ADDRESS 0x5b0a ===
  0x5b0a	jmp    	0x5c98
  === BLOCK LINK ===
    0x5b0f
=== CODE BLOCK END ===

=== CODE BLOCK ADDRESS 0x5b0f ===
  0x5b0f	dec    	esp
  0x5b10	lea    	eax, [0x5f0a]
  0x5b16	jmp    	0x5c8a
  === BLOCK LINK ===
    0x5b1b
=== CODE BLOCK END ===

=== CODE BLOCK ADDRESS 0x5b1b ===
  0x5b1b	dec    	eax
  0x5b1c	mov    	ebp, dword ptr [edi + 0xc0]
  0x5b22	dec    	eax
  0x5b23	mov    	ecx, eax
  0x5b25	dec    	eax
  === BLOCK LINK ===
    0x5b26
=== CODE BLOCK END ===

=== CODE BLOCK ADDRESS 0x5b26 ===
  0x5b26	call   	dword ptr [0x457c]
  === BLOCK LINK ===
    0x5b2c
=== CODE BLOCK END ===

=== CODE BLOCK ADDRESS 0x5b2c ===
  0x5b2c	nop    	dword ptr [eax + eax]
  0x5b31	dec    	eax
  0x5b32	mov    	edx, eax
  0x5b34	dec    	eax
  0x5b35	mov    	ecx, ebp
  === BLOCK LINK ===
    0x5b37
=== CODE BLOCK END ===

=== CODE BLOCK ADDRESS 0x5b37 ===
  0x5b37	dec    	eax
  0x5b38	call   	dword ptr [0x453a]
  === BLOCK LINK ===
    0x5b3e
=== CODE BLOCK END ===

=== CODE BLOCK ADDRESS 0x5b3e ===
  0x5b3e	nop    	dword ptr [eax + eax]
  0x5b43	test   	eax, eax
  0x5b45	je     	0x5b88
  === BLOCK LINK ===
    0x5b47
=== CODE BLOCK END ===

=== CODE BLOCK ADDRESS 0x5b47 ===
  0x5b47	dec    	eax
  0x5b48	mov    	ecx, ebp
  0x5b4a	dec    	eax
  0x5b4b	call   	dword ptr [0x43f7]
  === BLOCK LINK ===
    0x5b51
=== CODE BLOCK END ===

=== CODE BLOCK ADDRESS 0x5b51 ===
  0x5b51	nop    	dword ptr [eax + eax]
  0x5b56	dec    	eax
  0x5b57	mov    	ecx, ebp
  0x5b59	dec    	eax
  0x5b5a	mov    	ebx, eax
  === BLOCK LINK ===
    0x5b5c
=== CODE BLOCK END ===

=== CODE BLOCK ADDRESS 0x5b5c ===
  0x5b5c	dec    	eax
  0x5b5d	call   	dword ptr [0x447d]
  === BLOCK LINK ===
    0x5b63
=== CODE BLOCK END ===

=== CODE BLOCK ADDRESS 0x5b63 ===
  0x5b63	nop    	dword ptr [eax + eax]
  0x5b68	dec    	esp
  0x5b69	mov    	eax, ebx
  0x5b6b	dec    	eax
  0x5b6c	lea    	edx, [0x5a8e]
  === BLOCK LINK ===
    0x5b72
=== CODE BLOCK END ===

=== CODE BLOCK ADDRESS 0x5b72 ===
  0x5b72	mov    	ecx, eax
  0x5b74	call   	0x6c14
  === BLOCK LINK ===
    0x5b79
=== CODE BLOCK END ===

=== CODE BLOCK ADDRESS 0x5b79 ===
  0x5b79	mov    	dword ptr [edi + 0xb4], 1
  0x5b83	jmp    	0x5c23
  === BLOCK LINK ===
    0x5b88
=== CODE BLOCK END ===

=== CODE BLOCK ADDRESS 0x5b88 ===
  0x5b88	dec    	eax
  0x5b89	call   	dword ptr [0x4529]
  === BLOCK LINK ===
    0x5b8f
=== CODE BLOCK END ===

=== CODE BLOCK ADDRESS 0x5b8f ===
  0x5b8f	nop    	dword ptr [eax + eax]
  0x5b94	dec    	eax
  0x5b95	mov    	edx, eax
  0x5b97	dec    	eax
  0x5b98	mov    	ecx, ebp
  === BLOCK LINK ===
    0x5b9a
=== CODE BLOCK END ===

=== CODE BLOCK ADDRESS 0x5b9a ===
  0x5b9a	dec    	eax
  0x5b9b	mov    	ebx, eax
  0x5b9d	dec    	eax
  0x5b9e	call   	dword ptr [0x449c]
  === BLOCK LINK ===
    0x5ba4
=== CODE BLOCK END ===

=== CODE BLOCK ADDRESS 0x5ba4 ===
  0x5ba4	nop    	dword ptr [eax + eax]
  0x5ba9	dec    	eax
  0x5baa	mov    	ecx, ebx
  0x5bac	inc    	esp
  0x5bad	mov    	esi, eax
  === BLOCK LINK ===
    0x5baf
=== CODE BLOCK END ===

=== CODE BLOCK ADDRESS 0x5baf ===
  0x5baf	dec    	eax
  0x5bb0	call   	dword ptr [0x4432]
  === BLOCK LINK ===
    0x5bb6
=== CODE BLOCK END ===

=== CODE BLOCK ADDRESS 0x5bb6 ===
  0x5bb6	nop    	dword ptr [eax + eax]
  0x5bbb	inc    	ebp
  0x5bbc	test   	esi, esi
  0x5bbe	je     	0x5c04
  === BLOCK LINK ===
    0x5bc0
=== CODE BLOCK END ===

=== CODE BLOCK ADDRESS 0x5bc0 ===
  0x5bc0	dec    	eax
  0x5bc1	mov    	ecx, ebp
  0x5bc3	dec    	eax
  0x5bc4	call   	dword ptr [0x437e]
  === BLOCK LINK ===
    0x5bca
=== CODE BLOCK END ===

=== CODE BLOCK ADDRESS 0x5bca ===
  0x5bca	nop    	dword ptr [eax + eax]
  0x5bcf	dec    	eax
  0x5bd0	mov    	ecx, ebp
  0x5bd2	dec    	eax
  0x5bd3	mov    	ebx, eax
  === BLOCK LINK ===
    0x5bd5
=== CODE BLOCK END ===

=== CODE BLOCK ADDRESS 0x5bd5 ===
  0x5bd5	dec    	eax
  0x5bd6	call   	dword ptr [0x4404]
  === BLOCK LINK ===
    0x5bdc
=== CODE BLOCK END ===

=== CODE BLOCK ADDRESS 0x5bdc ===
  0x5bdc	nop    	dword ptr [eax + eax]
  0x5be1	dec    	esp
  0x5be2	mov    	eax, ebx
  0x5be4	dec    	eax
  0x5be5	lea    	edx, [0x5a15]
  === BLOCK LINK ===
    0x5beb
=== CODE BLOCK END ===

=== CODE BLOCK ADDRESS 0x5beb ===
  0x5beb	mov    	ecx, eax
  0x5bed	call   	0x6c14
  === BLOCK LINK ===
    0x5bf2
=== CODE BLOCK END ===

=== CODE BLOCK ADDRESS 0x5bf2 ===
  0x5bf2	inc    	ecx
  0x5bf3	cmp    	esi, -0x1e
  0x5bf6	jne    	0x5c14
  === BLOCK LINK ===
    0x5bf8
=== CODE BLOCK END ===

=== CODE BLOCK ADDRESS 0x5bf8 ===
  0x5bf8	mov    	dword ptr [edi + 0xb4], 1
  0x5c02	jmp    	0x5c14
  === BLOCK LINK ===
    0x5c04
=== CODE BLOCK END ===

=== CODE BLOCK ADDRESS 0x5c04 ===
  0x5c04	dec    	esp
  0x5c05	mov    	eax, dword ptr [esp + 0x48]
  0x5c09	dec    	eax
  0x5c0a	mov    	edx, esi
  0x5c0c	dec    	eax
  === BLOCK LINK ===
    0x5c0d
=== CODE BLOCK END ===

=== CODE BLOCK ADDRESS 0x5c0d ===
  0x5c0d	mov    	ecx, edi
  0x5c0f	call   	0x693c
  === BLOCK LINK ===
    0x5c14
=== CODE BLOCK END ===

=== CODE BLOCK ADDRESS 0x5c14 ===
  0x5c14	dec    	eax
  0x5c15	mov    	ecx, ebp
  0x5c17	dec    	eax
  0x5c18	call   	dword ptr [0x42fa]
  === BLOCK LINK ===
    0x5c1e
=== CODE BLOCK END ===

=== CODE BLOCK ADDRESS 0x5c1e ===
  0x5c1e	nop    	dword ptr [eax + eax]
  0x5c23	dec    	eax
  0x5c24	mov    	ecx, dword ptr [esp + 0x48]
  0x5c28	dec    	eax
  0x5c29	call   	dword ptr [0x43b9]
  === BLOCK LINK ===
    0x5c2f
=== CODE BLOCK END ===

=== CODE BLOCK ADDRESS 0x5c2f ===
  0x5c2f	nop    	dword ptr [eax + eax]
  0x5c34	dec    	eax
  0x5c35	mov    	ecx, dword ptr [edi + 0xc8]
  0x5c3b	dec    	esp
  0x5c3c	lea    	eax, [esp + 0x50]
  === BLOCK LINK ===
    0x5c40
=== CODE BLOCK END ===

=== CODE BLOCK ADDRESS 0x5c40 ===
  0x5c40	dec    	eax
  0x5c41	and    	dword ptr [esp + 0x48], 0
  0x5c46	dec    	eax
  0x5c47	lea    	edx, [esp + 0x48]
  0x5c4b	dec    	eax
  === BLOCK LINK ===
    0x5c4c
=== CODE BLOCK END ===

=== CODE BLOCK ADDRESS 0x5c4c ===
  0x5c4c	call   	dword ptr [0x43ce]
  === BLOCK LINK ===
    0x5c52
=== CODE BLOCK END ===

=== CODE BLOCK ADDRESS 0x5c52 ===
  0x5c52	nop    	dword ptr [eax + eax]
  0x5c57	dec    	eax
  0x5c58	mov    	eax, dword ptr [esp + 0x48]
  0x5c5c	dec    	eax
  0x5c5d	test   	eax, eax
  === BLOCK LINK ===
    0x5c5f
=== CODE BLOCK END ===

=== CODE BLOCK ADDRESS 0x5c5f ===
  0x5c5f	jne    	0x5b1b
  === BLOCK LINK ===
    0x5c65
=== CODE BLOCK END ===

=== CODE BLOCK ADDRESS 0x5c65 ===
  0x5c65	dec    	eax
  0x5c66	mov    	ecx, esi
  0x5c68	dec    	eax
  0x5c69	call   	dword ptr [0x4491]
  === BLOCK LINK ===
    0x5c6f
=== CODE BLOCK END ===

=== CODE BLOCK ADDRESS 0x5c6f ===
  0x5c6f	nop    	dword ptr [eax + eax]
  0x5c74	test   	eax, eax
  0x5c76	je     	0x5ca2
  === BLOCK LINK ===
    0x5c78
=== CODE BLOCK END ===

=== CODE BLOCK ADDRESS 0x5c78 ===
  0x5c78	dec    	eax
  0x5c79	mov    	ecx, esi
  0x5c7b	dec    	eax
  0x5c7c	call   	dword ptr [0x42c6]
  === BLOCK LINK ===
    0x5c82
=== CODE BLOCK END ===

=== CODE BLOCK ADDRESS 0x5c82 ===
  0x5c82	nop    	dword ptr [eax + eax]
  0x5c87	dec    	esp
  0x5c88	mov    	eax, eax
  0x5c8a	dec    	eax
  0x5c8b	lea    	edx, [0x596f]
  === BLOCK LINK ===
    0x5c91
=== CODE BLOCK END ===

=== CODE BLOCK ADDRESS 0x5c91 ===
  0x5c91	xor    	ecx, ecx
  0x5c93	call   	0x6c14
  === BLOCK LINK ===
    0x5c98
=== CODE BLOCK END ===

=== CODE BLOCK ADDRESS 0x5c98 ===
  0x5c98	mov    	dword ptr [edi + 0xb4], 1
  0x5ca2	dec    	eax
  0x5ca3	mov    	ecx, dword ptr [edi + 0xe0]
  0x5ca9	dec    	eax
  0x5caa	call   	dword ptr [0x4008]
  === BLOCK LINK ===
    0x5cb0
=== CODE BLOCK END ===

=== CODE BLOCK ADDRESS 0x5cb0 ===
  0x5cb0	nop    	dword ptr [eax + eax]
  0x5cb5	dec    	eax
  0x5cb6	mov    	ecx, dword ptr [edi + 0xc8]
  0x5cbc	dec    	eax
  0x5cbd	call   	dword ptr [0x4355]
  === BLOCK LINK ===
    0x5cc3
=== CODE BLOCK END ===

=== CODE BLOCK ADDRESS 0x5cc3 ===
  0x5cc3	nop    	dword ptr [eax + eax]
  0x5cc8	dec    	eax
  0x5cc9	mov    	ecx, dword ptr [edi + 0xc0]
  0x5ccf	dec    	eax
  0x5cd0	and    	dword ptr [edi + 0xc8], 0
  === BLOCK LINK ===
    0x5cd7
=== CODE BLOCK END ===

=== CODE BLOCK ADDRESS 0x5cd7 ===
  0x5cd7	dec    	eax
  0x5cd8	call   	dword ptr [0x41ca]
  === BLOCK LINK ===
    0x5cde
=== CODE BLOCK END ===

=== CODE BLOCK ADDRESS 0x5cde ===
  0x5cde	nop    	dword ptr [eax + eax]
  0x5ce3	dec    	eax
  0x5ce4	and    	dword ptr [edi + 0xc0], 0
  0x5ceb	test   	dword ptr [edi + 0x24], 0x1000
  0x5cf2	je     	0x5d2d
  === BLOCK LINK ===
    0x5cf4
=== CODE BLOCK END ===

=== CODE BLOCK ADDRESS 0x5cf4 ===
  0x5cf4	or     	edx, 0xffffffff
  0x5cf7	dec    	eax
  0x5cf8	mov    	ecx, esi
  0x5cfa	dec    	eax
  0x5cfb	call   	dword ptr [0x41b7]
  === BLOCK LINK ===
    0x5d01
=== CODE BLOCK END ===

=== CODE BLOCK ADDRESS 0x5d01 ===
  0x5d01	nop    	dword ptr [eax + eax]
  0x5d06	dec    	eax
  0x5d07	mov    	ecx, eax
  0x5d09	call   	0x48ac
  === BLOCK LINK ===
    0x5d0e
=== CODE BLOCK END ===

=== CODE BLOCK ADDRESS 0x5d0e ===
  0x5d0e	mov    	ecx, 2
  0x5d13	dec    	eax
  0x5d14	mov    	ebx, eax
  0x5d16	call   	0x7f36
  === BLOCK LINK ===
    0x5d1b
=== CODE BLOCK END ===

=== CODE BLOCK ADDRESS 0x5d1b ===
  0x5d1b	dec    	eax
  0x5d1c	mov    	ecx, eax
  0x5d1e	dec    	eax
  0x5d1f	lea    	edx, [0x5d33]
  0x5d25	dec    	esp
  === BLOCK LINK ===
    0x5d26
=== CODE BLOCK END ===

=== CODE BLOCK ADDRESS 0x5d26 ===
  0x5d26	mov    	eax, ebx
  0x5d28	call   	0x8098
  === BLOCK LINK ===
    0x5d2d
=== CODE BLOCK END ===

=== CODE BLOCK ADDRESS 0x5d2d ===
  0x5d2d	dec    	eax
  0x5d2e	mov    	ecx, esi
  0x5d30	dec    	eax
  0x5d31	call   	dword ptr [0x41a1]
  === BLOCK LINK ===
    0x5d37
=== CODE BLOCK END ===

=== CODE BLOCK ADDRESS 0x5d37 ===
  0x5d37	nop    	dword ptr [eax + eax]
  0x5d3c	dec    	eax
  0x5d3d	mov    	ebx, dword ptr [esp + 0x40]
  0x5d41	dec    	eax
  0x5d42	mov    	ebp, dword ptr [esp + 0x58]
  === BLOCK LINK ===
    0x5d46
=== CODE BLOCK END ===

=== CODE BLOCK ADDRESS 0x5d46 ===
  0x5d46	dec    	eax
  0x5d47	add    	esp, 0x20
  0x5d4a	inc    	ecx
  0x5d4b	pop    	esi
  0x5d4c	pop    	edi
  === BLOCK LINK ===
    0x5d4d
=== CODE BLOCK END ===

=== CODE BLOCK ADDRESS 0x5d4d ===
  0x5d4d	pop    	esi
  0x5d4e	ret    	
  0x5d4f	int3   	
  0x5d50	xor    	edx, edx
  0x5d52	dec    	esp
  === BLOCK LINK ===
    0x5d53
=== CODE BLOCK END ===

=== CODE BLOCK ADDRESS 0x5d53 ===
  0x5d53	lea    	eax, [0x5c6f]
  0x5d59	lea    	ecx, [edx + 1]
  0x5d5c	call   	0x6c3c
  === BLOCK LINK ===
    0x5d61
=== CODE BLOCK END ===

=== CODE BLOCK ADDRESS 0x5d61 ===
  0x5d61	int3   	
  0x5d62	xor    	edx, edx
  0x5d64	dec    	esp
  0x5d65	lea    	eax, [0x5c75]
  0x5d6b	lea    	ecx, [edx + 1]
  === BLOCK LINK ===
    0x5d6e
=== CODE BLOCK END ===

=== CODE BLOCK ADDRESS 0x5d6e ===
  0x5d6e	call   	0x6c3c
  === BLOCK LINK ===
    0x5d73
=== CODE BLOCK END ===

=== CODE BLOCK ADDRESS 0x5d73 ===
  0x5d73	int3   	
  0x5d74	xor    	edx, edx
  0x5d76	dec    	esp
  0x5d77	lea    	eax, [0x5c83]
  0x5d7d	lea    	ecx, [edx + 1]
  === BLOCK LINK ===
    0x5d80
=== CODE BLOCK END ===

=== CODE BLOCK ADDRESS 0x5d80 ===
  0x5d80	call   	0x6c3c
  === BLOCK LINK ===
    0x5d85
=== CODE BLOCK END ===

=== CODE BLOCK ADDRESS 0x5d85 ===
  0x5d85	int3   	
  0x5d86	int3   	
  0x5d87	int3   	
  0x5d88	int3   	
  0x5d89	int3   	
  === BLOCK LINK ===
    0x5d8a
=== CODE BLOCK END ===

=== CODE BLOCK ADDRESS 0x5d8a ===
  0x5d8a	int3   	
  0x5d8b	int3   	
  0x5d8c	dec    	eax
  0x5d8d	mov    	dword ptr [esp + 8], ebx
  0x5d91	dec    	eax
  === BLOCK LINK ===
    0x5d92
=== CODE BLOCK END ===

=== CODE BLOCK ADDRESS 0x5d92 ===
  0x5d92	mov    	dword ptr [esp + 0x10], ebp
  0x5d96	dec    	eax
  0x5d97	mov    	dword ptr [esp + 0x18], esi
  0x5d9b	push   	edi
  0x5d9c	inc    	ecx
  === BLOCK LINK ===
    0x5d9d
=== CODE BLOCK END ===

=== CODE BLOCK ADDRESS 0x5d9d ===
  0x5d9d	push   	esp
  0x5d9e	inc    	ecx
  0x5d9f	push   	esi
  0x5da0	dec    	eax
  0x5da1	sub    	esp, 0x20
  === BLOCK LINK ===
    0x5da4
=== CODE BLOCK END ===

=== CODE BLOCK ADDRESS 0x5da4 ===
  0x5da4	mov    	ebp, dword ptr [ecx + 0x24]
  0x5da7	dec    	esp
  0x5da8	mov    	esi, edx
  0x5daa	dec    	eax
  0x5dab	mov    	esi, dword ptr [ecx + 0x10]
  === BLOCK LINK ===
    0x5dae
=== CODE BLOCK END ===

=== CODE BLOCK ADDRESS 0x5dae ===
  0x5dae	mov    	edx, 0x40
  0x5db3	dec    	eax
  0x5db4	mov    	edi, ecx
  0x5db6	mov    	byte ptr [ecx + 0xb9], 0
  0x5dbd	and    	ebp, 0x100
  === BLOCK LINK ===
    0x5dc3
=== CODE BLOCK END ===

=== CODE BLOCK ADDRESS 0x5dc3 ===
  0x5dc3	inc    	esp
  0x5dc4	lea    	esp, [edx - 0x3f]
  0x5dc7	inc    	ecx
  0x5dc8	mov    	ecx, esp
  0x5dca	dec    	eax
  === BLOCK LINK ===
    0x5dcb
=== CODE BLOCK END ===

=== CODE BLOCK ADDRESS 0x5dcb ===
  0x5dcb	call   	dword ptr [0x3e9f]
  === BLOCK LINK ===
    0x5dd1
=== CODE BLOCK END ===

=== CODE BLOCK ADDRESS 0x5dd1 ===
  0x5dd1	nop    	dword ptr [eax + eax]
  0x5dd6	dec    	eax
  0x5dd7	mov    	ebx, eax
  0x5dd9	dec    	eax
  0x5dda	test   	eax, eax
  === BLOCK LINK ===
    0x5ddc
=== CODE BLOCK END ===

=== CODE BLOCK ADDRESS 0x5ddc ===
  0x5ddc	je     	0x5f29
  === BLOCK LINK ===
    0x5de2
=== CODE BLOCK END ===

=== CODE BLOCK ADDRESS 0x5de2 ===
  0x5de2	dec    	eax
  0x5de3	mov    	ecx, esi
  0x5de5	mov    	dword ptr [eax + 0x38], ebp
  0x5de8	dec    	eax
  0x5de9	call   	dword ptr [0x3e71]
  === BLOCK LINK ===
    0x5def
=== CODE BLOCK END ===

=== CODE BLOCK ADDRESS 0x5def ===
  0x5def	nop    	dword ptr [eax + eax]
  0x5df4	dec    	eax
  0x5df5	mov    	dword ptr [ebx + 0x28], eax
  0x5df8	cmp    	byte ptr [esi], 0x2d
  0x5dfb	jne    	0x5e0c
  === BLOCK LINK ===
    0x5dfd
=== CODE BLOCK END ===

=== CODE BLOCK ADDRESS 0x5dfd ===
  0x5dfd	cmp    	byte ptr [esi + 1], 0
  0x5e01	jne    	0x5e0c
  === BLOCK LINK ===
    0x5e03
=== CODE BLOCK END ===

=== CODE BLOCK ADDRESS 0x5e03 ===
  0x5e03	xor    	ecx, ecx
  0x5e05	call   	0x7f36
  === BLOCK LINK ===
    0x5e0a
=== CODE BLOCK END ===

=== CODE BLOCK ADDRESS 0x5e0a ===
  0x5e0a	jmp    	0x5e22
  === BLOCK LINK ===
    0x5e0c
=== CODE BLOCK END ===

=== CODE BLOCK ADDRESS 0x5e0c ===
  0x5e0c	dec    	eax
  0x5e0d	lea    	edx, [0x5da5]
  0x5e13	dec    	eax
  0x5e14	mov    	ecx, esi
  0x5e16	dec    	eax
  === BLOCK LINK ===
    0x5e17
=== CODE BLOCK END ===

=== CODE BLOCK ADDRESS 0x5e17 ===
  0x5e17	call   	dword ptr [0x3e83]
  === BLOCK LINK ===
    0x5e1d
=== CODE BLOCK END ===

=== CODE BLOCK ADDRESS 0x5e1d ===
  0x5e1d	nop    	dword ptr [eax + eax]
  0x5e22	dec    	eax
  0x5e23	mov    	dword ptr [ebx], eax
  0x5e25	dec    	eax
  0x5e26	test   	eax, eax
  === BLOCK LINK ===
    0x5e28
=== CODE BLOCK END ===

=== CODE BLOCK ADDRESS 0x5e28 ===
  0x5e28	je     	0x5f41
  === BLOCK LINK ===
    0x5e2e
=== CODE BLOCK END ===

=== CODE BLOCK ADDRESS 0x5e2e ===
  0x5e2e	dec    	eax
  0x5e2f	and    	dword ptr [ebx + 8], 0
  0x5e33	dec    	eax
  0x5e34	and    	dword ptr [ebx + 0x10], 0
  0x5e38	dec    	eax
  === BLOCK LINK ===
    0x5e39
=== CODE BLOCK END ===

=== CODE BLOCK ADDRESS 0x5e39 ===
  0x5e39	and    	dword ptr [ebx + 0x20], 0
  0x5e3d	dec    	eax
  0x5e3e	and    	dword ptr [ebx + 0x18], 0
  0x5e42	dec    	eax
  0x5e43	mov    	dword ptr [ebx + 0x30], 0x2000
  === BLOCK LINK ===
    0x5e4a
=== CODE BLOCK END ===

=== CODE BLOCK ADDRESS 0x5e4a ===
  0x5e4a	jmp    	0x5ec3
  === BLOCK LINK ===
    0x5e4c
=== CODE BLOCK END ===

=== CODE BLOCK ADDRESS 0x5e4c ===
  0x5e4c	cmp    	byte ptr [edi + 0xb9], 0
  0x5e53	je     	0x5e85
  === BLOCK LINK ===
    0x5e55
=== CODE BLOCK END ===

=== CODE BLOCK ADDRESS 0x5e55 ===
  0x5e55	cmp    	byte ptr [esi], 0
  0x5e58	je     	0x5e67
  === BLOCK LINK ===
    0x5e5a
=== CODE BLOCK END ===

=== CODE BLOCK ADDRESS 0x5e5a ===
  0x5e5a	dec    	eax
  0x5e5b	mov    	edx, esi
  0x5e5d	dec    	eax
  0x5e5e	mov    	ecx, edi
  0x5e60	call   	0x43e4
  === BLOCK LINK ===
    0x5e65
=== CODE BLOCK END ===

=== CODE BLOCK ADDRESS 0x5e65 ===
  0x5e65	jmp    	0x5e7c
  === BLOCK LINK ===
    0x5e67
=== CODE BLOCK END ===

=== CODE BLOCK ADDRESS 0x5e67 ===
  0x5e67	dec    	eax
  0x5e68	lea    	edx, [0x5bca]
  0x5e6e	xor    	ecx, ecx
  0x5e70	call   	0x6c14
  === BLOCK LINK ===
    0x5e75
=== CODE BLOCK END ===

=== CODE BLOCK ADDRESS 0x5e75 ===
  0x5e75	inc    	esp
  0x5e76	mov    	dword ptr [edi + 0xb4], esp
  0x5e7c	mov    	byte ptr [edi + 0xb9], 0
  0x5e83	jmp    	0x5ec3
  === BLOCK LINK ===
    0x5e85
=== CODE BLOCK END ===

=== CODE BLOCK ADDRESS 0x5e85 ===
  0x5e85	test   	dword ptr [edi + 0x24], 0x100
  0x5e8c	jne    	0x5ea8
  === BLOCK LINK ===
    0x5e8e
=== CODE BLOCK END ===

=== CODE BLOCK ADDRESS 0x5e8e ===
  0x5e8e	cmp    	byte ptr [esi], 0x2d
  0x5e91	jne    	0x5ea8
  === BLOCK LINK ===
    0x5e93
=== CODE BLOCK END ===

=== CODE BLOCK ADDRESS 0x5e93 ===
  0x5e93	cmp    	byte ptr [esi + 1], 0x43
  0x5e97	jne    	0x5ea8
  === BLOCK LINK ===
    0x5e99
=== CODE BLOCK END ===

=== CODE BLOCK ADDRESS 0x5e99 ===
  0x5e99	cmp    	byte ptr [esi + 2], 0
  0x5e9d	jne    	0x5ea8
  === BLOCK LINK ===
    0x5e9f
=== CODE BLOCK END ===

=== CODE BLOCK ADDRESS 0x5e9f ===
  0x5e9f	inc    	esp
  0x5ea0	mov    	byte ptr [edi + 0xb9], ah
  0x5ea6	jmp    	0x5ec3
  === BLOCK LINK ===
    0x5ea8
=== CODE BLOCK END ===

=== CODE BLOCK ADDRESS 0x5ea8 ===
  0x5ea8	cmp    	byte ptr [esi], 0x2f
  0x5eab	je     	0x5eb5
  === BLOCK LINK ===
    0x5ead
=== CODE BLOCK END ===

=== CODE BLOCK ADDRESS 0x5ead ===
  0x5ead	dec    	eax
  0x5eae	mov    	ecx, edi
  0x5eb0	call   	0x4508
  === BLOCK LINK ===
    0x5eb5
=== CODE BLOCK END ===

=== CODE BLOCK ADDRESS 0x5eb5 ===
  0x5eb5	dec    	esp
  0x5eb6	mov    	eax, esi
  0x5eb8	dec    	ecx
  0x5eb9	mov    	edx, esi
  0x5ebb	dec    	eax
  === BLOCK LINK ===
    0x5ebc
=== CODE BLOCK END ===

=== CODE BLOCK ADDRESS 0x5ebc ===
  0x5ebc	mov    	ecx, edi
  0x5ebe	call   	0x65f8
  === BLOCK LINK ===
    0x5ec3
=== CODE BLOCK END ===

=== CODE BLOCK ADDRESS 0x5ec3 ===
  0x5ec3	dec    	eax
  0x5ec4	mov    	ecx, ebx
  0x5ec6	call   	0x6c78
  === BLOCK LINK ===
    0x5ecb
=== CODE BLOCK END ===

=== CODE BLOCK ADDRESS 0x5ecb ===
  0x5ecb	dec    	eax
  0x5ecc	mov    	esi, eax
  0x5ece	dec    	eax
  0x5ecf	test   	eax, eax
  0x5ed1	jne    	0x5e4c
  === BLOCK LINK ===
    0x5ed7
=== CODE BLOCK END ===

=== CODE BLOCK ADDRESS 0x5ed7 ===
  0x5ed7	dec    	eax
  0x5ed8	mov    	ecx, dword ptr [ebx + 8]
  0x5edb	dec    	eax
  0x5edc	call   	dword ptr [0x3dd6]
  === BLOCK LINK ===
    0x5ee2
=== CODE BLOCK END ===

=== CODE BLOCK ADDRESS 0x5ee2 ===
  0x5ee2	nop    	dword ptr [eax + eax]
  0x5ee7	dec    	eax
  0x5ee8	mov    	ecx, dword ptr [ebx + 0x28]
  0x5eeb	dec    	eax
  0x5eec	call   	dword ptr [0x3dc6]
  === BLOCK LINK ===
    0x5ef2
=== CODE BLOCK END ===

=== CODE BLOCK ADDRESS 0x5ef2 ===
  0x5ef2	nop    	dword ptr [eax + eax]
  0x5ef7	dec    	eax
  0x5ef8	mov    	ecx, ebx
  0x5efa	dec    	eax
  0x5efb	call   	dword ptr [0x3db7]
  === BLOCK LINK ===
    0x5f01
=== CODE BLOCK END ===

=== CODE BLOCK ADDRESS 0x5f01 ===
  0x5f01	nop    	dword ptr [eax + eax]
  0x5f06	cmp    	byte ptr [edi + 0xb9], 0
  0x5f0d	jne    	0x5f62
  === BLOCK LINK ===
    0x5f0f
=== CODE BLOCK END ===

=== CODE BLOCK ADDRESS 0x5f0f ===
  0x5f0f	dec    	eax
  0x5f10	mov    	ebx, dword ptr [esp + 0x40]
  0x5f14	dec    	eax
  0x5f15	mov    	ebp, dword ptr [esp + 0x48]
  0x5f19	dec    	eax
  === BLOCK LINK ===
    0x5f1a
=== CODE BLOCK END ===

=== CODE BLOCK ADDRESS 0x5f1a ===
  0x5f1a	mov    	esi, dword ptr [esp + 0x50]
  0x5f1e	dec    	eax
  0x5f1f	add    	esp, 0x20
  0x5f22	inc    	ecx
  0x5f23	pop    	esi
  === BLOCK LINK ===
    0x5f24
=== CODE BLOCK END ===

=== CODE BLOCK ADDRESS 0x5f24 ===
  0x5f24	inc    	ecx
  0x5f25	pop    	esp
  0x5f26	pop    	edi
  0x5f27	ret    	
  0x5f28	int3   	
  === BLOCK LINK ===
    0x5f29
=== CODE BLOCK END ===

=== CODE BLOCK ADDRESS 0x23fb ===
  0x23fb	dec    	esp
  0x23fc	lea    	eax, [0x7fe6]
  0x2402	xor    	edx, edx
  0x2404	mov    	ecx, ebx
  === BLOCK LINK ===
    0x2406
=== CODE BLOCK END ===

=== CODE BLOCK ADDRESS 0x5f29 ===
  0x5f29	dec    	esp
  0x5f2a	mov    	ecx, esi
  0x5f2c	dec    	esp
  0x5f2d	lea    	eax, [0x5c75]
  0x5f33	mov    	edx, 0xc
  === BLOCK LINK ===
    0x5f38
=== CODE BLOCK END ===

=== CODE BLOCK ADDRESS 0x5f38 ===
  0x5f38	inc    	ecx
  0x5f39	mov    	ecx, esp
  0x5f3b	call   	0x6c3c
  === BLOCK LINK ===
    0x5f40
=== CODE BLOCK END ===

=== CODE BLOCK ADDRESS 0x5f40 ===
  0x5f40	int3   	
  0x5f41	dec    	eax
  0x5f42	call   	dword ptr [0x3ca0]
  === BLOCK LINK ===
    0x5f48
=== CODE BLOCK END ===

=== CODE BLOCK ADDRESS 0x5f48 ===
  0x5f48	nop    	dword ptr [eax + eax]
  0x5f4d	dec    	esp
  0x5f4e	mov    	ecx, esi
  0x5f50	dec    	esp
  0x5f51	lea    	eax, [0x5c69]
  === BLOCK LINK ===
    0x5f57
=== CODE BLOCK END ===

=== CODE BLOCK ADDRESS 0x5f57 ===
  0x5f57	inc    	ecx
  0x5f58	mov    	ecx, esp
  0x5f5a	mov    	edx, dword ptr [eax]
  0x5f5c	call   	0x6c3c
  === BLOCK LINK ===
    0x5f61
=== CODE BLOCK END ===

=== CODE BLOCK ADDRESS 0x5f61 ===
  0x5f61	int3   	
  0x5f62	dec    	eax
  0x5f63	call   	dword ptr [0x3c7f]
  === BLOCK LINK ===
    0x5f69
=== CODE BLOCK END ===

=== CODE BLOCK ADDRESS 0x5f69 ===
  0x5f69	nop    	dword ptr [eax + eax]
  0x5f6e	dec    	esp
  0x5f6f	lea    	eax, [0x5b03]
  0x5f75	inc    	ecx
  0x5f76	mov    	ecx, esp
  === BLOCK LINK ===
    0x5f78
=== CODE BLOCK END ===

=== CODE BLOCK ADDRESS 0x5f78 ===
  0x5f78	mov    	edx, dword ptr [eax]
  0x5f7a	call   	0x6c3c
  === BLOCK LINK ===
    0x5f7f
=== CODE BLOCK END ===

=== CODE BLOCK ADDRESS 0x5f7f ===
  0x5f7f	int3   	
  0x5f80	int3   	
  0x5f81	int3   	
  0x5f82	int3   	
  0x5f83	int3   	
  === BLOCK LINK ===
    0x5f84
=== CODE BLOCK END ===

=== CODE BLOCK ADDRESS 0x5f84 ===
  0x5f84	int3   	
  0x5f85	int3   	
  0x5f86	int3   	
  0x5f87	int3   	
  0x5f88	dec    	eax
  === BLOCK LINK ===
    0x5f89
=== CODE BLOCK END ===

=== CODE BLOCK ADDRESS 0x5f89 ===
  0x5f89	mov    	eax, esp
  0x5f8b	dec    	eax
  0x5f8c	mov    	dword ptr [eax + 8], ebx
  0x5f8f	dec    	eax
  0x5f90	mov    	dword ptr [eax + 0x10], ebp
  === BLOCK LINK ===
    0x5f93
=== CODE BLOCK END ===

=== CODE BLOCK ADDRESS 0x5f93 ===
  0x5f93	dec    	eax
  0x5f94	mov    	dword ptr [eax + 0x18], esi
  0x5f97	dec    	eax
  0x5f98	mov    	dword ptr [eax + 0x20], edi
  0x5f9b	inc    	ecx
  === BLOCK LINK ===
    0x5f9c
=== CODE BLOCK END ===

=== CODE BLOCK ADDRESS 0x5f9c ===
  0x5f9c	push   	esi
  0x5f9d	dec    	eax
  0x5f9e	sub    	esp, 0x20
  0x5fa1	inc    	ecx
  0x5fa2	cmp    	byte ptr [eax], 0x2d
  === BLOCK LINK ===
    0x5fa5
=== CODE BLOCK END ===

=== CODE BLOCK ADDRESS 0x5fa5 ===
  0x5fa5	dec    	ecx
  0x5fa6	mov    	esi, eax
  0x5fa8	dec    	eax
  0x5fa9	mov    	ebp, edx
  0x5fab	dec    	eax
  === BLOCK LINK ===
    0x5fac
=== CODE BLOCK END ===

=== CODE BLOCK ADDRESS 0x5fac ===
  0x5fac	mov    	edi, ecx
  0x5fae	jne    	0x5fbb
  === BLOCK LINK ===
    0x5fb0
=== CODE BLOCK END ===

=== CODE BLOCK ADDRESS 0x5fb0 ===
  0x5fb0	inc    	ecx
  0x5fb1	cmp    	byte ptr [eax + 1], 0
  0x5fb5	jne    	0x5fbb
  === BLOCK LINK ===
    0x5fb7
=== CODE BLOCK END ===

=== CODE BLOCK ADDRESS 0x5fb7 ===
  0x5fb7	xor    	eax, eax
  0x5fb9	jmp    	0x5fc0
  === BLOCK LINK ===
    0x5fbb
=== CODE BLOCK END ===

=== CODE BLOCK ADDRESS 0x5fbb ===
  0x5fbb	sbb    	eax, eax
  0x5fbd	or     	eax, 1
  0x5fc0	neg    	eax
  0x5fc2	dec    	ebp
  0x5fc3	sbb    	esi, esi
  === BLOCK LINK ===
    0x5fc5
=== CODE BLOCK END ===

=== CODE BLOCK ADDRESS 0x5fc5 ===
  0x5fc5	dec    	esp
  0x5fc6	and    	esi, esi
  0x5fc8	dec    	eax
  0x5fc9	call   	dword ptr [0x3eb1]
  === BLOCK LINK ===
    0x5fcf
=== CODE BLOCK END ===

=== CODE BLOCK ADDRESS 0x5fcf ===
  0x5fcf	nop    	dword ptr [eax + eax]
  0x5fd4	dec    	eax
  0x5fd5	mov    	ecx, eax
  0x5fd7	dec    	eax
  0x5fd8	mov    	ebx, eax
  === BLOCK LINK ===
    0x5fda
=== CODE BLOCK END ===

=== CODE BLOCK ADDRESS 0x5fda ===
  0x5fda	dec    	eax
  0x5fdb	call   	dword ptr [0x3e97]
  === BLOCK LINK ===
    0x5fe1
=== CODE BLOCK END ===

=== CODE BLOCK ADDRESS 0x5fe1 ===
  0x5fe1	nop    	dword ptr [eax + eax]
  0x5fe6	dec    	eax
  0x5fe7	mov    	ecx, ebx
  0x5fe9	dec    	eax
  0x5fea	call   	dword ptr [0x3ea0]
  === BLOCK LINK ===
    0x5ff0
=== CODE BLOCK END ===

=== CODE BLOCK ADDRESS 0x5ff0 ===
  0x5ff0	nop    	dword ptr [eax + eax]
  0x5ff5	dec    	eax
  0x5ff6	mov    	edx, ebx
  0x5ff8	call   	0x4ec4
  === BLOCK LINK ===
    0x5ffd
=== CODE BLOCK END ===

=== CODE BLOCK ADDRESS 0x5ffd ===
  0x5ffd	dec    	eax
  0x5ffe	lea    	edx, [0x5ab4]
  0x6004	dec    	eax
  0x6005	mov    	ecx, ebx
  0x6007	dec    	eax
  === BLOCK LINK ===
    0x6008
=== CODE BLOCK END ===

=== CODE BLOCK ADDRESS 0x6008 ===
  0x6008	call   	dword ptr [0x3e32]
  === BLOCK LINK ===
    0x600e
=== CODE BLOCK END ===

=== CODE BLOCK ADDRESS 0x600e ===
  0x600e	nop    	dword ptr [eax + eax]
  0x6013	dec    	eax
  0x6014	mov    	edx, dword ptr [edi + 0x50]
  0x6017	dec    	eax
  0x6018	test   	edx, edx
  === BLOCK LINK ===
    0x601a
=== CODE BLOCK END ===

=== CODE BLOCK ADDRESS 0x601a ===
  0x601a	je     	0x602d
  === BLOCK LINK ===
    0x601c
=== CODE BLOCK END ===

=== CODE BLOCK ADDRESS 0x601c ===
  0x601c	dec    	eax
  0x601d	mov    	ecx, ebp
  0x601f	dec    	eax
  0x6020	call   	dword ptr [0x3e4a]
  === BLOCK LINK ===
    0x6026
=== CODE BLOCK END ===

=== CODE BLOCK ADDRESS 0x6026 ===
  0x6026	nop    	dword ptr [eax + eax]
  0x602b	jmp    	0x6046
  === BLOCK LINK ===
    0x602d
=== CODE BLOCK END ===

=== CODE BLOCK ADDRESS 0x602d ===
  0x602d	dec    	esp
  0x602e	lea    	eax, [0xffffe8ec]
  0x6034	dec    	eax
  0x6035	mov    	edx, edi
  0x6037	dec    	eax
  === BLOCK LINK ===
    0x6038
=== CODE BLOCK END ===

=== CODE BLOCK ADDRESS 0x6038 ===
  0x6038	mov    	ecx, ebx
  0x603a	dec    	eax
  0x603b	call   	dword ptr [0x3eef]
  === BLOCK LINK ===
    0x6041
=== CODE BLOCK END ===

=== CODE BLOCK ADDRESS 0x6041 ===
  0x6041	nop    	dword ptr [eax + eax]
  0x6046	test   	eax, eax
  0x6048	jne    	0x6104
  === BLOCK LINK ===
    0x604e
=== CODE BLOCK END ===

=== CODE BLOCK ADDRESS 0x604e ===
  0x604e	dec    	esp
  0x604f	arpl   	word ptr [edi + 0x18], ax
  0x6052	dec    	ecx
  0x6053	mov    	edx, esi
  0x6055	dec    	eax
  === BLOCK LINK ===
    0x6056
=== CODE BLOCK END ===

=== CODE BLOCK ADDRESS 0x6056 ===
  0x6056	mov    	ecx, ebx
  0x6058	dec    	eax
  0x6059	call   	dword ptr [0x3ea9]
  === BLOCK LINK ===
    0x605f
=== CODE BLOCK END ===

=== CODE BLOCK ADDRESS 0x605f ===
  0x605f	nop    	dword ptr [eax + eax]
  0x6064	test   	eax, eax
  0x6066	je     	0x6096
  === BLOCK LINK ===
    0x6068
=== CODE BLOCK END ===

=== CODE BLOCK ADDRESS 0x6068 ===
  0x6068	dec    	eax
  0x6069	mov    	ecx, ebx
  0x606b	dec    	eax
  0x606c	call   	dword ptr [0x3ed6]
  === BLOCK LINK ===
    0x6072
=== CODE BLOCK END ===

=== CODE BLOCK ADDRESS 0x6072 ===
  0x6072	nop    	dword ptr [eax + eax]
  0x6077	dec    	eax
  0x6078	lea    	edx, [0x5582]
  0x607e	xor    	ecx, ecx
  0x6080	dec    	esp
  === BLOCK LINK ===
    0x6081
=== CODE BLOCK END ===

=== CODE BLOCK ADDRESS 0x6081 ===
  0x6081	mov    	eax, eax
  0x6083	call   	0x6c14
  === BLOCK LINK ===
    0x6088
=== CODE BLOCK END ===

=== CODE BLOCK ADDRESS 0x6088 ===
  0x6088	xor    	eax, eax
  0x608a	mov    	dword ptr [edi + 0xb4], 1
  0x6094	jmp    	0x60e8
  === BLOCK LINK ===
    0x6096
=== CODE BLOCK END ===

=== CODE BLOCK ADDRESS 0x6096 ===
  0x6096	dec    	esp
  0x6097	mov    	eax, ebx
  0x6099	dec    	eax
  0x609a	mov    	edx, ebp
  0x609c	dec    	eax
  === BLOCK LINK ===
    0x609d
=== CODE BLOCK END ===

=== CODE BLOCK ADDRESS 0x609d ===
  0x609d	mov    	ecx, edi
  0x609f	call   	0x6130
  === BLOCK LINK ===
    0x60a4
=== CODE BLOCK END ===

=== CODE BLOCK ADDRESS 0x60a4 ===
  0x60a4	mov    	ebp, eax
  0x60a6	test   	eax, eax
  0x60a8	je     	0x60d7
  === BLOCK LINK ===
    0x60aa
=== CODE BLOCK END ===

=== CODE BLOCK ADDRESS 0x60aa ===
  0x60aa	dec    	eax
  0x60ab	mov    	ecx, ebx
  0x60ad	dec    	eax
  0x60ae	call   	dword ptr [0x3e94]
  === BLOCK LINK ===
    0x60b4
=== CODE BLOCK END ===

=== CODE BLOCK ADDRESS 0x60b4 ===
  0x60b4	nop    	dword ptr [eax + eax]
  0x60b9	dec    	esp
  0x60ba	mov    	eax, esi
  0x60bc	dec    	eax
  0x60bd	lea    	edx, [0x5a05]
  === BLOCK LINK ===
    0x60c3
=== CODE BLOCK END ===

=== CODE BLOCK ADDRESS 0x60c3 ===
  0x60c3	dec    	esp
  0x60c4	mov    	ecx, eax
  0x60c6	xor    	ecx, ecx
  0x60c8	call   	0x6c14
  === BLOCK LINK ===
    0x60cd
=== CODE BLOCK END ===

=== CODE BLOCK ADDRESS 0x60cd ===
  0x60cd	mov    	dword ptr [edi + 0xb4], 1
  0x60d7	dec    	eax
  0x60d8	mov    	ecx, ebx
  0x60da	dec    	eax
  0x60db	call   	dword ptr [0x3dc7]
  === BLOCK LINK ===
    0x60e1
=== CODE BLOCK END ===

=== CODE BLOCK ADDRESS 0x60e1 ===
  0x60e1	nop    	dword ptr [eax + eax]
  0x60e6	mov    	eax, ebp
  0x60e8	dec    	eax
  0x60e9	mov    	ebx, dword ptr [esp + 0x30]
  0x60ed	dec    	eax
  === BLOCK LINK ===
    0x60ee
=== CODE BLOCK END ===

=== CODE BLOCK ADDRESS 0x60ee ===
  0x60ee	mov    	ebp, dword ptr [esp + 0x38]
  0x60f2	dec    	eax
  0x60f3	mov    	esi, dword ptr [esp + 0x40]
  0x60f7	dec    	eax
  0x60f8	mov    	edi, dword ptr [esp + 0x48]
  === BLOCK LINK ===
    0x60fc
=== CODE BLOCK END ===

=== CODE BLOCK ADDRESS 0x60fc ===
  0x60fc	dec    	eax
  0x60fd	add    	esp, 0x20
  0x6100	inc    	ecx
  0x6101	pop    	esi
  0x6102	ret    	
  === BLOCK LINK ===
    0x6103
=== CODE BLOCK END ===

=== CODE BLOCK ADDRESS 0x6103 ===
  0x6103	int3   	
  0x6104	dec    	eax
  0x6105	mov    	ecx, ebp
  0x6107	dec    	eax
  0x6108	call   	dword ptr [0x3e3a]
  === BLOCK LINK ===
    0x610e
=== CODE BLOCK END ===

=== CODE BLOCK ADDRESS 0x610e ===
  0x610e	nop    	dword ptr [eax + eax]
  0x6113	xor    	edx, edx
  0x6115	dec    	esp
  0x6116	lea    	eax, [0x54e4]
  0x611c	dec    	esp
  === BLOCK LINK ===
    0x611d
=== CODE BLOCK END ===

=== CODE BLOCK ADDRESS 0x611d ===
  0x611d	mov    	ecx, eax
  0x611f	lea    	ecx, [edx + 1]
  0x6122	call   	0x6c3c
  === BLOCK LINK ===
    0x6127
=== CODE BLOCK END ===

=== CODE BLOCK ADDRESS 0x6127 ===
  0x6127	int3   	
  0x6128	int3   	
  0x6129	int3   	
  0x612a	int3   	
  0x612b	int3   	
  === BLOCK LINK ===
    0x612c
=== CODE BLOCK END ===

=== CODE BLOCK ADDRESS 0x612c ===
  0x612c	int3   	
  0x612d	int3   	
  0x612e	int3   	
  0x612f	int3   	
  0x6130	dec    	eax
  === BLOCK LINK ===
    0x6131
=== CODE BLOCK END ===

=== CODE BLOCK ADDRESS 0x6131 ===
  0x6131	mov    	dword ptr [esp + 8], ebx
  0x6135	dec    	eax
  0x6136	mov    	dword ptr [esp + 0x10], ebp
  0x613a	push   	esi
  0x613b	push   	edi
  === BLOCK LINK ===
    0x613c
=== CODE BLOCK END ===

=== CODE BLOCK ADDRESS 0x613c ===
  0x613c	inc    	ecx
  0x613d	push   	esp
  0x613e	inc    	ecx
  0x613f	push   	esi
  0x6140	inc    	ecx
  === BLOCK LINK ===
    0x6141
=== CODE BLOCK END ===

=== CODE BLOCK ADDRESS 0x6141 ===
  0x6141	push   	edi
  0x6142	dec    	eax
  0x6143	sub    	esp, 0x20
  0x6146	dec    	esp
  0x6147	mov    	esi, edx
  === BLOCK LINK ===
    0x6149
=== CODE BLOCK END ===

=== CODE BLOCK ADDRESS 0x6149 ===
  0x6149	dec    	eax
  0x614a	mov    	edi, ecx
  0x614c	dec    	eax
  0x614d	lea    	edx, [esp + 0x68]
  0x6151	dec    	ecx
  === BLOCK LINK ===
    0x6152
=== CODE BLOCK END ===

=== CODE BLOCK ADDRESS 0x6152 ===
  0x6152	mov    	ecx, eax
  0x6154	dec    	ecx
  0x6155	mov    	ebp, eax
  0x6157	dec    	eax
  0x6158	call   	dword ptr [0x3d92]
  === BLOCK LINK ===
    0x615e
=== CODE BLOCK END ===

=== CODE BLOCK ADDRESS 0x615e ===
  0x615e	nop    	dword ptr [eax + eax]
  0x6163	inc    	ebp
  0x6164	xor    	edi, edi
  0x6166	test   	eax, eax
  0x6168	jne    	0x6332
  === BLOCK LINK ===
    0x616e
=== CODE BLOCK END ===

=== CODE BLOCK ADDRESS 0x616e ===
  0x616e	inc    	ebp
  0x616f	lea    	esp, [edi + 2]
  0x6172	dec    	eax
  0x6173	mov    	edx, dword ptr [esp + 0x68]
  0x6177	dec    	eax
  === BLOCK LINK ===
    0x6178
=== CODE BLOCK END ===

=== CODE BLOCK ADDRESS 0x6178 ===
  0x6178	mov    	ecx, dword ptr [edi + 0xf8]
  0x617e	dec    	eax
  0x617f	call   	dword ptr [0x3d8b]
  === BLOCK LINK ===
    0x6185
=== CODE BLOCK END ===

=== CODE BLOCK ADDRESS 0x6185 ===
  0x6185	nop    	dword ptr [eax + eax]
  0x618a	test   	eax, eax
  0x618c	jne    	0x6316
  === BLOCK LINK ===
    0x6192
=== CODE BLOCK END ===

=== CODE BLOCK ADDRESS 0x6192 ===
  0x6192	test   	byte ptr [edi + 0x24], 0x20
  0x6196	je     	0x61c0
  === BLOCK LINK ===
    0x6198
=== CODE BLOCK END ===

=== CODE BLOCK ADDRESS 0x6198 ===
  0x6198	dec    	eax
  0x6199	mov    	ecx, dword ptr [esp + 0x68]
  0x619d	dec    	eax
  0x619e	call   	dword ptr [0x3d3c]
  === BLOCK LINK ===
    0x61a4
=== CODE BLOCK END ===

=== CODE BLOCK ADDRESS 0x61a4 ===
  0x61a4	nop    	dword ptr [eax + eax]
  0x61a9	dec    	eax
  0x61aa	mov    	edx, eax
  0x61ac	dec    	eax
  0x61ad	lea    	ecx, [0x5935]
  === BLOCK LINK ===
    0x61b3
=== CODE BLOCK END ===

=== CODE BLOCK ADDRESS 0x61b3 ===
  0x61b3	call   	0x42c4
  === BLOCK LINK ===
    0x61b8
=== CODE BLOCK END ===

=== CODE BLOCK ADDRESS 0x61b8 ===
  0x61b8	test   	eax, eax
  0x61ba	je     	0x6316
  === BLOCK LINK ===
    0x61c0
=== CODE BLOCK END ===

=== CODE BLOCK ADDRESS 0x61c0 ===
  0x61c0	cmp    	dword ptr [edi + 0x20], 1
  0x61c4	jle    	0x61f7
  === BLOCK LINK ===
    0x61c6
=== CODE BLOCK END ===

=== CODE BLOCK ADDRESS 0x61c6 ===
  0x61c6	inc    	ecx
  0x61c7	mov    	ecx, esp
  0x61c9	call   	0x7f36
  === BLOCK LINK ===
    0x61ce
=== CODE BLOCK END ===

=== CODE BLOCK ADDRESS 0x61ce ===
  0x61ce	dec    	eax
  0x61cf	mov    	ecx, eax
  0x61d1	dec    	eax
  0x61d2	lea    	edx, [0x591c]
  0x61d8	call   	0x3f88
  === BLOCK LINK ===
    0x61dd
=== CODE BLOCK END ===

=== CODE BLOCK ADDRESS 0x61dd ===
  0x61dd	inc    	ecx
  0x61de	mov    	ecx, esp
  0x61e0	call   	0x7f36
  === BLOCK LINK ===
    0x61e5
=== CODE BLOCK END ===

=== CODE BLOCK ADDRESS 0x61e5 ===
  0x61e5	dec    	esp
  0x61e6	mov    	eax, dword ptr [esp + 0x68]
  0x61ea	dec    	eax
  0x61eb	mov    	edx, eax
  0x61ed	dec    	eax
  === BLOCK LINK ===
    0x61ee
=== CODE BLOCK END ===

=== CODE BLOCK ADDRESS 0x61ee ===
  0x61ee	mov    	ecx, edi
  0x61f0	call   	0x4988
  === BLOCK LINK ===
    0x61f5
=== CODE BLOCK END ===

=== CODE BLOCK ADDRESS 0x61f5 ===
  0x61f5	jmp    	0x622b
  === BLOCK LINK ===
    0x61f7
=== CODE BLOCK END ===

=== CODE BLOCK ADDRESS 0x61f7 ===
  0x61f7	inc    	esp
  0x61f8	cmp    	dword ptr [edi + 0x20], edi
  0x61fb	jle    	0x622b
  === BLOCK LINK ===
    0x61fd
=== CODE BLOCK END ===

=== CODE BLOCK ADDRESS 0x61fd ===
  0x61fd	dec    	eax
  0x61fe	mov    	ecx, dword ptr [esp + 0x68]
  0x6202	dec    	eax
  0x6203	call   	dword ptr [0x3cd7]
  === BLOCK LINK ===
    0x6209
=== CODE BLOCK END ===

=== CODE BLOCK ADDRESS 0x6209 ===
  0x6209	nop    	dword ptr [eax + eax]
  0x620e	inc    	ecx
  0x620f	mov    	ecx, esp
  0x6211	dec    	eax
  0x6212	mov    	ebx, eax
  === BLOCK LINK ===
    0x6214
=== CODE BLOCK END ===

=== CODE BLOCK ADDRESS 0x6214 ===
  0x6214	call   	0x7f36
  === BLOCK LINK ===
    0x6219
=== CODE BLOCK END ===

=== CODE BLOCK ADDRESS 0x6219 ===
  0x6219	dec    	eax
  0x621a	mov    	ecx, eax
  0x621c	dec    	eax
  0x621d	lea    	edx, [0x58d5]
  0x6223	dec    	esp
  === BLOCK LINK ===
    0x6224
=== CODE BLOCK END ===

=== CODE BLOCK ADDRESS 0x6224 ===
  0x6224	mov    	eax, ebx
  0x6226	call   	0x3f88
  === BLOCK LINK ===
    0x622b
=== CODE BLOCK END ===

=== CODE BLOCK ADDRESS 0x622b ===
  0x622b	dec    	eax
  0x622c	mov    	edx, dword ptr [esp + 0x68]
  0x6230	dec    	ecx
  0x6231	mov    	ecx, esi
  0x6233	dec    	eax
  === BLOCK LINK ===
    0x6234
=== CODE BLOCK END ===

=== CODE BLOCK ADDRESS 0x6234 ===
  0x6234	call   	dword ptr [0x3d76]
  === BLOCK LINK ===
    0x623a
=== CODE BLOCK END ===

=== CODE BLOCK ADDRESS 0x623a ===
  0x623a	nop    	dword ptr [eax + eax]
  0x623f	mov    	esi, eax
  0x6241	test   	eax, eax
  0x6243	je     	0x62ad
  === BLOCK LINK ===
    0x6245
=== CODE BLOCK END ===

=== CODE BLOCK ADDRESS 0x6245 ===
  0x6245	dec    	ecx
  0x6246	mov    	ecx, esi
  0x6248	inc    	esp
  0x6249	cmp    	dword ptr [edi + 0x20], edi
  0x624c	jne    	0x6284
  === BLOCK LINK ===
    0x624e
=== CODE BLOCK END ===

=== CODE BLOCK ADDRESS 0x624e ===
  0x624e	dec    	eax
  0x624f	call   	dword ptr [0x3cf3]
  === BLOCK LINK ===
    0x6255
=== CODE BLOCK END ===

=== CODE BLOCK ADDRESS 0x6255 ===
  0x6255	nop    	dword ptr [eax + eax]
  0x625a	dec    	eax
  0x625b	mov    	ecx, dword ptr [esp + 0x68]
  0x625f	dec    	eax
  0x6260	mov    	ebx, eax
  === BLOCK LINK ===
    0x6262
=== CODE BLOCK END ===

=== CODE BLOCK ADDRESS 0x6262 ===
  0x6262	dec    	eax
  0x6263	call   	dword ptr [0x3c77]
  === BLOCK LINK ===
    0x6269
=== CODE BLOCK END ===

=== CODE BLOCK ADDRESS 0x6269 ===
  0x6269	nop    	dword ptr [eax + eax]
  0x626e	dec    	esp
  0x626f	mov    	ecx, ebx
  0x6271	dec    	eax
  0x6272	lea    	edx, [0x5498]
  === BLOCK LINK ===
    0x6278
=== CODE BLOCK END ===

=== CODE BLOCK ADDRESS 0x6278 ===
  0x6278	dec    	esp
  0x6279	mov    	eax, eax
  0x627b	xor    	ecx, ecx
  0x627d	call   	0x6c14
  === BLOCK LINK ===
    0x6282
=== CODE BLOCK END ===

=== CODE BLOCK ADDRESS 0x6282 ===
  0x6282	jmp    	0x62ad
  === BLOCK LINK ===
    0x6284
=== CODE BLOCK END ===

=== CODE BLOCK ADDRESS 0x6284 ===
  0x6284	dec    	eax
  0x6285	call   	dword ptr [0x3cbd]
  === BLOCK LINK ===
    0x628b
=== CODE BLOCK END ===

=== CODE BLOCK ADDRESS 0x628b ===
  0x628b	nop    	dword ptr [eax + eax]
  0x6290	inc    	ecx
  0x6291	mov    	ecx, esp
  0x6293	dec    	eax
  0x6294	mov    	ebx, eax
  === BLOCK LINK ===
    0x6296
=== CODE BLOCK END ===

=== CODE BLOCK ADDRESS 0x6296 ===
  0x6296	call   	0x7f36
  === BLOCK LINK ===
    0x629b
=== CODE BLOCK END ===

=== CODE BLOCK ADDRESS 0x629b ===
  0x629b	dec    	eax
  0x629c	mov    	ecx, eax
  0x629e	dec    	eax
  0x629f	lea    	edx, [0x5437]
  0x62a5	dec    	esp
  === BLOCK LINK ===
    0x62a6
=== CODE BLOCK END ===

=== CODE BLOCK ADDRESS 0x62a6 ===
  0x62a6	mov    	eax, ebx
  0x62a8	call   	0x8098
  === BLOCK LINK ===
    0x62ad
=== CODE BLOCK END ===

=== CODE BLOCK ADDRESS 0x62ad ===
  0x62ad	cmp    	esi, -0x1e
  0x62b0	je     	0x6351
  === BLOCK LINK ===
    0x62b6
=== CODE BLOCK END ===

=== CODE BLOCK ADDRESS 0x62b6 ===
  0x62b6	cmp    	esi, -0x14
  0x62b9	jl     	0x62f9
  === BLOCK LINK ===
    0x62bb
=== CODE BLOCK END ===

=== CODE BLOCK ADDRESS 0x62bb ===
  0x62bb	dec    	eax
  0x62bc	mov    	ecx, dword ptr [esp + 0x68]
  0x62c0	dec    	eax
  0x62c1	call   	dword ptr [0x3bd9]
  === BLOCK LINK ===
    0x62c7
=== CODE BLOCK END ===

=== CODE BLOCK ADDRESS 0x62c7 ===
  0x62c7	nop    	dword ptr [eax + eax]
  0x62cc	dec    	eax
  0x62cd	test   	eax, eax
  0x62cf	jne    	0x62e2
  === BLOCK LINK ===
    0x62d1
=== CODE BLOCK END ===

=== CODE BLOCK ADDRESS 0x62d1 ===
  0x62d1	dec    	eax
  0x62d2	mov    	ecx, ebp
  0x62d4	dec    	eax
  0x62d5	call   	dword ptr [0x3be5]
  === BLOCK LINK ===
    0x62db
=== CODE BLOCK END ===

=== CODE BLOCK ADDRESS 0x62db ===
  0x62db	nop    	dword ptr [eax + eax]
  0x62e0	jmp    	0x62f9
  === BLOCK LINK ===
    0x62e2
=== CODE BLOCK END ===

=== CODE BLOCK ADDRESS 0x62e2 ===
  0x62e2	dec    	esp
  0x62e3	mov    	ecx, dword ptr [esp + 0x68]
  0x62e7	dec    	esp
  0x62e8	mov    	eax, ebp
  0x62ea	dec    	ecx
  === BLOCK LINK ===
    0x62eb
=== CODE BLOCK END ===

=== CODE BLOCK ADDRESS 0x62eb ===
  0x62eb	mov    	edx, esi
  0x62ed	dec    	eax
  0x62ee	mov    	ecx, edi
  0x62f0	call   	0x636c
  === BLOCK LINK ===
    0x62f5
=== CODE BLOCK END ===

=== CODE BLOCK ADDRESS 0x62f5 ===
  0x62f5	test   	eax, eax
  0x62f7	jne    	0x6351
  === BLOCK LINK ===
    0x62f9
=== CODE BLOCK END ===

=== CODE BLOCK ADDRESS 0x62f9 ===
  0x62f9	inc    	esp
  0x62fa	cmp    	dword ptr [edi + 0x20], edi
  0x62fd	je     	0x6316
  === BLOCK LINK ===
    0x62ff
=== CODE BLOCK END ===

=== CODE BLOCK ADDRESS 0x62ff ===
  0x62ff	inc    	ecx
  0x6300	mov    	ecx, esp
  0x6302	call   	0x7f36
  === BLOCK LINK ===
    0x6307
=== CODE BLOCK END ===

=== CODE BLOCK ADDRESS 0x6307 ===
  0x6307	dec    	eax
  0x6308	mov    	ecx, eax
  0x630a	dec    	eax
  0x630b	lea    	edx, [0x5293]
  0x6311	call   	0x8098
  === BLOCK LINK ===
    0x6316
=== CODE BLOCK END ===

=== CODE BLOCK ADDRESS 0x6316 ===
  0x6316	dec    	eax
  0x6317	lea    	edx, [esp + 0x68]
  0x631b	dec    	eax
  0x631c	mov    	ecx, ebp
  0x631e	dec    	eax
  === BLOCK LINK ===
    0x631f
=== CODE BLOCK END ===

=== CODE BLOCK ADDRESS 0x631f ===
  0x631f	call   	dword ptr [0x3bcb]
  === BLOCK LINK ===
    0x6325
=== CODE BLOCK END ===

=== CODE BLOCK ADDRESS 0x6325 ===
  0x6325	nop    	dword ptr [eax + eax]
  0x632a	test   	eax, eax
  0x632c	je     	0x6172
  === BLOCK LINK ===
    0x6332
=== CODE BLOCK END ===

=== CODE BLOCK ADDRESS 0x6332 ===
  0x6332	dec    	eax
  0x6333	mov    	ebx, dword ptr [esp + 0x50]
  0x6337	cmp    	eax, 1
  0x633a	dec    	eax
  0x633b	mov    	ebp, dword ptr [esp + 0x58]
  === BLOCK LINK ===
    0x633f
=== CODE BLOCK END ===

=== CODE BLOCK ADDRESS 0x633f ===
  0x633f	inc    	ecx
  0x6340	cmove  	eax, edi
  0x6343	dec    	eax
  0x6344	add    	esp, 0x20
  0x6347	inc    	ecx
  === BLOCK LINK ===
    0x6348
=== CODE BLOCK END ===

=== CODE BLOCK ADDRESS 0x6348 ===
  0x6348	pop    	edi
  0x6349	inc    	ecx
  0x634a	pop    	esi
  0x634b	inc    	ecx
  0x634c	pop    	esp
  === BLOCK LINK ===
    0x634d
=== CODE BLOCK END ===

=== CODE BLOCK ADDRESS 0x634d ===
  0x634d	pop    	edi
  0x634e	pop    	esi
  0x634f	ret    	
  0x6350	int3   	
  0x6351	mov    	ecx, 1
  === BLOCK LINK ===
    0x6356
=== CODE BLOCK END ===

=== CODE BLOCK ADDRESS 0x6356 ===
  0x6356	dec    	eax
  0x6357	call   	dword ptr [0x391b]
  === BLOCK LINK ===
    0x635d
=== CODE BLOCK END ===

=== CODE BLOCK ADDRESS 0x635d ===
  0x635d	nop    	dword ptr [eax + eax]
  0x6362	int3   	
  0x6363	int3   	
  0x6364	int3   	
  0x6365	int3   	
  === BLOCK LINK ===
    0x6366
=== CODE BLOCK END ===

=== CODE BLOCK ADDRESS 0x6366 ===
  0x6366	int3   	
  0x6367	int3   	
  0x6368	int3   	
  0x6369	int3   	
  0x636a	int3   	
  === BLOCK LINK ===
    0x636b
=== CODE BLOCK END ===

=== CODE BLOCK ADDRESS 0x636b ===
  0x636b	int3   	
  0x636c	dec    	eax
  0x636d	mov    	dword ptr [esp + 8], ebx
  0x6371	dec    	eax
  0x6372	mov    	dword ptr [esp + 0x10], ebp
  === BLOCK LINK ===
    0x6376
=== CODE BLOCK END ===

=== CODE BLOCK ADDRESS 0x6376 ===
  0x6376	dec    	eax
  0x6377	mov    	dword ptr [esp + 0x18], esi
  0x637b	push   	edi
  0x637c	inc    	ecx
  0x637d	push   	esp
  === BLOCK LINK ===
    0x637e
=== CODE BLOCK END ===

=== CODE BLOCK ADDRESS 0x637e ===
  0x637e	inc    	ecx
  0x637f	push   	ebp
  0x6380	inc    	ecx
  0x6381	push   	esi
  0x6382	inc    	ecx
  === BLOCK LINK ===
    0x6383
=== CODE BLOCK END ===

=== CODE BLOCK ADDRESS 0x6383 ===
  0x6383	push   	edi
  0x6384	dec    	eax
  0x6385	sub    	esp, 0x40
  0x6388	xor    	edi, edi
  0x638a	dec    	ebp
  === BLOCK LINK ===
    0x638b
=== CODE BLOCK END ===

=== CODE BLOCK ADDRESS 0x638b ===
  0x638b	mov    	edi, ecx
  0x638d	xor    	ebp, ebp
  0x638f	dec    	ebp
  0x6390	mov    	esp, eax
  0x6392	dec    	eax
  === BLOCK LINK ===
    0x6393
=== CODE BLOCK END ===

=== CODE BLOCK ADDRESS 0x6393 ===
  0x6393	mov    	esi, edx
  0x6395	dec    	esp
  0x6396	mov    	ebp, ecx
  0x6398	dec    	esp
  0x6399	lea    	ecx, [esp + 0x28]
  === BLOCK LINK ===
    0x639d
=== CODE BLOCK END ===

=== CODE BLOCK ADDRESS 0x639d ===
  0x639d	dec    	ecx
  0x639e	mov    	ecx, esp
  0x63a0	dec    	esp
  0x63a1	lea    	eax, [esp + 0x20]
  0x63a5	dec    	eax
  === BLOCK LINK ===
    0x63a6
=== CODE BLOCK END ===

=== CODE BLOCK ADDRESS 0x63a6 ===
  0x63a6	lea    	edx, [esp + 0x30]
  0x63aa	dec    	eax
  0x63ab	call   	dword ptr [0x3c97]
  === BLOCK LINK ===
    0x63b1
=== CODE BLOCK END ===

=== CODE BLOCK ADDRESS 0x63b1 ===
  0x63b1	nop    	dword ptr [eax + eax]
  0x63b6	test   	eax, eax
  0x63b8	jne    	0x64b8
  === BLOCK LINK ===
    0x63be
=== CODE BLOCK END ===

=== CODE BLOCK ADDRESS 0x63be ===
  0x63be	dec    	eax
  0x63bf	mov    	ebx, dword ptr [esp + 0x28]
  0x63c3	dec    	eax
  0x63c4	cmp    	ebx, edi
  0x63c6	jle    	0x6425
  === BLOCK LINK ===
    0x63c8
=== CODE BLOCK END ===

=== CODE BLOCK ADDRESS 0x63c8 ===
  0x63c8	dec    	eax
  0x63c9	sub    	ebx, edi
  0x63cb	dec    	eax
  0x63cc	test   	ebp, ebp
  0x63ce	jne    	0x6420
  === BLOCK LINK ===
    0x63d0
=== CODE BLOCK END ===

=== CODE BLOCK ADDRESS 0x63d0 ===
  0x63d0	dec    	ecx
  0x63d1	mov    	ebp, dword ptr [ebp + 0xe0]
  0x63d7	xor    	edx, edx
  0x63d9	dec    	ebp
  0x63da	mov    	eax, dword ptr [ebp + 0xe8]
  === BLOCK LINK ===
    0x63e0
=== CODE BLOCK END ===

=== CODE BLOCK ADDRESS 0x63e0 ===
  0x63e0	dec    	eax
  0x63e1	mov    	ecx, ebp
  0x63e3	call   	0x803e
  === BLOCK LINK ===
    0x63e8
=== CODE BLOCK END ===

=== CODE BLOCK ADDRESS 0x63e8 ===
  0x63e8	jmp    	0x6420
  === BLOCK LINK ===
    0x63ea
=== CODE BLOCK END ===

=== CODE BLOCK ADDRESS 0x63ea ===
  0x63ea	dec    	ecx
  0x63eb	mov    	eax, dword ptr [ebp + 0xe8]
  0x63f1	dec    	esp
  0x63f2	mov    	esi, ebx
  0x63f4	dec    	eax
  === BLOCK LINK ===
    0x63f5
=== CODE BLOCK END ===

=== CODE BLOCK ADDRESS 0x63f5 ===
  0x63f5	cmp    	ebx, eax
  0x63f7	dec    	eax
  0x63f8	mov    	edx, ebp
  0x63fa	dec    	eax
  0x63fb	mov    	ecx, esi
  === BLOCK LINK ===
    0x63fd
=== CODE BLOCK END ===

=== CODE BLOCK ADDRESS 0x63fd ===
  0x63fd	dec    	esp
  0x63fe	cmovg  	esi, eax
  0x6401	dec    	ebp
  0x6402	mov    	eax, esi
  0x6404	dec    	eax
  === BLOCK LINK ===
    0x6405
=== CODE BLOCK END ===

=== CODE BLOCK ADDRESS 0x6405 ===
  0x6405	call   	dword ptr [0x3bf5]
  === BLOCK LINK ===
    0x640b
=== CODE BLOCK END ===

=== CODE BLOCK ADDRESS 0x640b ===
  0x640b	nop    	dword ptr [eax + eax]
  0x6410	dec    	eax
  0x6411	test   	eax, eax
  0x6413	js     	0x6493
  === BLOCK LINK ===
    0x6415
=== CODE BLOCK END ===

=== CODE BLOCK ADDRESS 0x6415 ===
  0x6415	dec    	ecx
  0x6416	cmp    	eax, esi
  0x6418	jb     	0x6452
  === BLOCK LINK ===
    0x641a
=== CODE BLOCK END ===

=== CODE BLOCK ADDRESS 0x641a ===
  0x641a	dec    	eax
  0x641b	add    	edi, eax
  0x641d	dec    	eax
  0x641e	sub    	ebx, eax
  0x6420	dec    	eax
  === BLOCK LINK ===
    0x6421
=== CODE BLOCK END ===

=== CODE BLOCK ADDRESS 0x6421 ===
  0x6421	test   	ebx, ebx
  0x6423	jg     	0x63ea
  === BLOCK LINK ===
    0x6425
=== CODE BLOCK END ===

=== CODE BLOCK ADDRESS 0x6425 ===
  0x6425	dec    	esp
  0x6426	mov    	eax, dword ptr [esp + 0x20]
  0x642a	dec    	eax
  0x642b	mov    	ecx, esi
  0x642d	dec    	eax
  === BLOCK LINK ===
    0x642e
=== CODE BLOCK END ===

=== CODE BLOCK ADDRESS 0x642e ===
  0x642e	mov    	edx, dword ptr [esp + 0x30]
  0x6432	dec    	eax
  0x6433	call   	dword ptr [0x3bc7]
  === BLOCK LINK ===
    0x6439
=== CODE BLOCK END ===

=== CODE BLOCK ADDRESS 0x6439 ===
  0x6439	nop    	dword ptr [eax + eax]
  0x643e	dec    	eax
  0x643f	test   	eax, eax
  0x6441	js     	0x6493
  === BLOCK LINK ===
    0x6443
=== CODE BLOCK END ===

=== CODE BLOCK ADDRESS 0x6443 ===
  0x6443	dec    	eax
  0x6444	cmp    	eax, dword ptr [esp + 0x20]
  0x6448	jb     	0x6452
  === BLOCK LINK ===
    0x644a
=== CODE BLOCK END ===

=== CODE BLOCK ADDRESS 0x644a ===
  0x644a	dec    	eax
  0x644b	add    	edi, eax
  0x644d	jmp    	0x6398
  === BLOCK LINK ===
    0x6452
=== CODE BLOCK END ===

=== CODE BLOCK ADDRESS 0x6452 ===
  0x6452	dec    	ecx
  0x6453	mov    	ecx, edi
  0x6455	dec    	eax
  0x6456	call   	dword ptr [0x3a84]
  === BLOCK LINK ===
    0x645c
=== CODE BLOCK END ===

=== CODE BLOCK ADDRESS 0x645c ===
  0x645c	nop    	dword ptr [eax + eax]
  0x6461	dec    	eax
  0x6462	lea    	edx, [0x5698]
  0x6468	xor    	ecx, ecx
  0x646a	dec    	esp
  === BLOCK LINK ===
    0x646b
=== CODE BLOCK END ===

=== CODE BLOCK ADDRESS 0x646b ===
  0x646b	mov    	eax, eax
  0x646d	call   	0x6c14
  === BLOCK LINK ===
    0x6472
=== CODE BLOCK END ===

=== CODE BLOCK ADDRESS 0x6472 ===
  0x6472	xor    	eax, eax
  0x6474	dec    	esp
  0x6475	lea    	ebx, [esp + 0x40]
  0x6479	dec    	ecx
  0x647a	mov    	ebx, dword ptr [ebx + 0x30]
  === BLOCK LINK ===
    0x647d
=== CODE BLOCK END ===

=== CODE BLOCK ADDRESS 0x647d ===
  0x647d	dec    	ecx
  0x647e	mov    	ebp, dword ptr [ebx + 0x38]
  0x6481	dec    	ecx
  0x6482	mov    	esi, dword ptr [ebx + 0x40]
  0x6485	dec    	ecx
  === BLOCK LINK ===
    0x6486
=== CODE BLOCK END ===

=== CODE BLOCK ADDRESS 0x6486 ===
  0x6486	mov    	esp, ebx
  0x6488	inc    	ecx
  0x6489	pop    	edi
  0x648a	inc    	ecx
  0x648b	pop    	esi
  === BLOCK LINK ===
    0x648c
=== CODE BLOCK END ===

=== CODE BLOCK ADDRESS 0x648c ===
  0x648c	inc    	ecx
  0x648d	pop    	ebp
  0x648e	inc    	ecx
  0x648f	pop    	esp
  0x6490	pop    	edi
  === BLOCK LINK ===
    0x6491
=== CODE BLOCK END ===

=== CODE BLOCK ADDRESS 0x6491 ===
  0x6491	ret    	
  0x6492	int3   	
  0x6493	dec    	eax
  0x6494	mov    	ecx, esi
  0x6496	dec    	eax
  === BLOCK LINK ===
    0x6497
=== CODE BLOCK END ===

=== CODE BLOCK ADDRESS 0x6497 ===
  0x6497	call   	dword ptr [0x3aab]
  === BLOCK LINK ===
    0x649d
=== CODE BLOCK END ===

=== CODE BLOCK ADDRESS 0x649d ===
  0x649d	nop    	dword ptr [eax + eax]
  0x64a2	dec    	eax
  0x64a3	lea    	edx, [0x5157]
  0x64a9	xor    	ecx, ecx
  0x64ab	dec    	esp
  === BLOCK LINK ===
    0x64ac
=== CODE BLOCK END ===

=== CODE BLOCK ADDRESS 0x64ac ===
  0x64ac	mov    	eax, eax
  0x64ae	call   	0x6c14
  === BLOCK LINK ===
    0x64b3
=== CODE BLOCK END ===

=== CODE BLOCK ADDRESS 0x64b3 ===
  0x64b3	or     	eax, 0xffffffff
  0x64b6	jmp    	0x6474
  === BLOCK LINK ===
    0x64b8
=== CODE BLOCK END ===

=== CODE BLOCK ADDRESS 0x64b8 ===
  0x64b8	cmp    	eax, -0x14
  0x64bb	jge    	0x6472
  === BLOCK LINK ===
    0x64bd
=== CODE BLOCK END ===

=== CODE BLOCK ADDRESS 0x64bd ===
  0x64bd	dec    	eax
  0x64be	mov    	ecx, esi
  0x64c0	dec    	eax
  0x64c1	call   	dword ptr [0x3a81]
  === BLOCK LINK ===
    0x64c7
=== CODE BLOCK END ===

=== CODE BLOCK ADDRESS 0x64c7 ===
  0x64c7	nop    	dword ptr [eax + eax]
  0x64cc	dec    	eax
  0x64cd	mov    	ecx, esi
  0x64cf	dec    	eax
  0x64d0	mov    	ebx, eax
  === BLOCK LINK ===
    0x64d2
=== CODE BLOCK END ===

=== CODE BLOCK ADDRESS 0x64d2 ===
  0x64d2	dec    	eax
  0x64d3	call   	dword ptr [0x3b07]
  === BLOCK LINK ===
    0x64d9
=== CODE BLOCK END ===

=== CODE BLOCK ADDRESS 0x64d9 ===
  0x64d9	nop    	dword ptr [eax + eax]
  0x64de	dec    	esp
  0x64df	mov    	eax, ebx
  0x64e1	dec    	eax
  0x64e2	lea    	edx, [0x5118]
  === BLOCK LINK ===
    0x64e8
=== CODE BLOCK END ===

=== CODE BLOCK ADDRESS 0x64e8 ===
  0x64e8	mov    	ecx, eax
  0x64ea	call   	0x6c14
  === BLOCK LINK ===
    0x64ef
=== CODE BLOCK END ===

=== CODE BLOCK ADDRESS 0x64ef ===
  0x64ef	jmp    	0x64b3
  === BLOCK LINK ===
    0x64f1
=== CODE BLOCK END ===

=== CODE BLOCK ADDRESS 0x64f1 ===
  0x64f1	int3   	
  0x64f2	int3   	
  0x64f3	int3   	
  0x64f4	int3   	
  0x64f5	int3   	
  === BLOCK LINK ===
    0x64f6
=== CODE BLOCK END ===

=== CODE BLOCK ADDRESS 0x64f6 ===
  0x64f6	int3   	
  0x64f7	int3   	
  0x64f8	int3   	
  0x64f9	int3   	
  0x64fa	int3   	
  === BLOCK LINK ===
    0x64fb
=== CODE BLOCK END ===

=== CODE BLOCK ADDRESS 0x64fb ===
  0x64fb	int3   	
  0x64fc	int3   	
  0x64fd	int3   	
  0x64fe	int3   	
  0x64ff	int3   	
  === BLOCK LINK ===
    0x6500
=== CODE BLOCK END ===

=== CODE BLOCK ADDRESS 0x6500 ===
  0x6500	dec    	eax
  0x6501	mov    	dword ptr [esp + 8], ebx
  0x6505	dec    	eax
  0x6506	mov    	dword ptr [esp + 0x10], esi
  0x650a	push   	edi
  === BLOCK LINK ===
    0x650b
=== CODE BLOCK END ===

=== CODE BLOCK ADDRESS 0x650b ===
  0x650b	dec    	eax
  0x650c	sub    	esp, 0x20
  0x650f	test   	byte ptr [edx + 0x24], 0x80
  0x6513	dec    	ecx
  0x6514	mov    	esi, eax
  === BLOCK LINK ===
    0x6516
=== CODE BLOCK END ===

=== CODE BLOCK ADDRESS 0x6516 ===
  0x6516	dec    	eax
  0x6517	mov    	edi, edx
  0x6519	dec    	eax
  0x651a	mov    	ebx, ecx
  0x651c	jne    	0x6565
  === BLOCK LINK ===
    0x651e
=== CODE BLOCK END ===

=== CODE BLOCK ADDRESS 0x651e ===
  0x651e	dec    	eax
  0x651f	call   	dword ptr [0x3b9b]
  === BLOCK LINK ===
    0x6525
=== CODE BLOCK END ===

=== CODE BLOCK ADDRESS 0x6525 ===
  0x6525	nop    	dword ptr [eax + eax]
  0x652a	test   	eax, eax
  0x652c	je     	0x6565
  === BLOCK LINK ===
    0x652e
=== CODE BLOCK END ===

=== CODE BLOCK ADDRESS 0x652e ===
  0x652e	test   	byte ptr [edi + 0x24], 0x20
  0x6532	je     	0x6556
  === BLOCK LINK ===
    0x6534
=== CODE BLOCK END ===

=== CODE BLOCK ADDRESS 0x6534 ===
  0x6534	dec    	eax
  0x6535	mov    	ecx, esi
  0x6537	dec    	eax
  0x6538	call   	dword ptr [0x39a2]
  === BLOCK LINK ===
    0x653e
=== CODE BLOCK END ===

=== CODE BLOCK ADDRESS 0x653e ===
  0x653e	nop    	dword ptr [eax + eax]
  0x6543	dec    	eax
  0x6544	mov    	edx, eax
  0x6546	dec    	eax
  0x6547	lea    	ecx, [0x55f3]
  === BLOCK LINK ===
    0x654d
=== CODE BLOCK END ===

=== CODE BLOCK ADDRESS 0x654d ===
  0x654d	call   	0x42c4
  === BLOCK LINK ===
    0x6552
=== CODE BLOCK END ===

=== CODE BLOCK ADDRESS 0x6552 ===
  0x6552	test   	eax, eax
  0x6554	je     	0x6565
  === BLOCK LINK ===
    0x6556
=== CODE BLOCK END ===

=== CODE BLOCK ADDRESS 0x6556 ===
  0x6556	dec    	eax
  0x6557	mov    	ecx, ebx
  0x6559	dec    	eax
  0x655a	call   	dword ptr [0x3b20]
  === BLOCK LINK ===
    0x6560
=== CODE BLOCK END ===

=== CODE BLOCK ADDRESS 0x6560 ===
  0x6560	nop    	dword ptr [eax + eax]
  0x6565	dec    	eax
  0x6566	mov    	ebx, dword ptr [esp + 0x30]
  0x656a	dec    	eax
  0x656b	mov    	esi, dword ptr [esp + 0x38]
  === BLOCK LINK ===
    0x656f
=== CODE BLOCK END ===

=== CODE BLOCK ADDRESS 0x656f ===
  0x656f	dec    	eax
  0x6570	add    	esp, 0x20
  0x6573	pop    	edi
  0x6574	ret    	
  0x6575	int3   	
  === BLOCK LINK ===
    0x6576
=== CODE BLOCK END ===

=== CODE BLOCK ADDRESS 0x6576 ===
  0x6576	int3   	
  0x6577	int3   	
  0x6578	int3   	
  0x6579	int3   	
  0x657a	int3   	
  === BLOCK LINK ===
    0x657b
=== CODE BLOCK END ===

=== CODE BLOCK ADDRESS 0x657b ===
  0x657b	int3   	
  0x657c	int3   	
  0x657d	int3   	
  0x657e	int3   	
  0x657f	int3   	
  === BLOCK LINK ===
    0x6580
=== CODE BLOCK END ===

=== CODE BLOCK ADDRESS 0x6580 ===
  0x6580	dec    	eax
  0x6581	mov    	dword ptr [esp + 8], ebx
  0x6585	push   	edi
  0x6586	dec    	eax
  0x6587	sub    	esp, 0x20
  === BLOCK LINK ===
    0x658a
=== CODE BLOCK END ===

=== CODE BLOCK ADDRESS 0x658a ===
  0x658a	test   	byte ptr [edx + 0x24], 0x20
  0x658e	dec    	eax
  0x658f	mov    	edi, edx
  0x6591	dec    	eax
  0x6592	mov    	ebx, ecx
  === BLOCK LINK ===
    0x6594
=== CODE BLOCK END ===

=== CODE BLOCK ADDRESS 0x6594 ===
  0x6594	je     	0x65b8
  === BLOCK LINK ===
    0x6596
=== CODE BLOCK END ===

=== CODE BLOCK ADDRESS 0x6596 ===
  0x6596	dec    	ecx
  0x6597	mov    	ecx, eax
  0x6599	dec    	eax
  0x659a	call   	dword ptr [0x3940]
  === BLOCK LINK ===
    0x65a0
=== CODE BLOCK END ===

=== CODE BLOCK ADDRESS 0x65a0 ===
  0x65a0	nop    	dword ptr [eax + eax]
  0x65a5	dec    	eax
  0x65a6	mov    	edx, eax
  0x65a8	dec    	eax
  0x65a9	lea    	ecx, [0x5591]
  === BLOCK LINK ===
    0x65af
=== CODE BLOCK END ===

=== CODE BLOCK ADDRESS 0x65af ===
  0x65af	call   	0x42c4
  === BLOCK LINK ===
    0x65b4
=== CODE BLOCK END ===

=== CODE BLOCK ADDRESS 0x65b4 ===
  0x65b4	test   	eax, eax
  0x65b6	je     	0x65e5
  === BLOCK LINK ===
    0x65b8
=== CODE BLOCK END ===

=== CODE BLOCK ADDRESS 0x65b8 ===
  0x65b8	test   	byte ptr [edi + 0x24], 0x80
  0x65bc	jne    	0x65e0
  === BLOCK LINK ===
    0x65be
=== CODE BLOCK END ===

=== CODE BLOCK ADDRESS 0x65be ===
  0x65be	dec    	eax
  0x65bf	mov    	ecx, ebx
  0x65c1	dec    	eax
  0x65c2	call   	dword ptr [0x3af8]
  === BLOCK LINK ===
    0x65c8
=== CODE BLOCK END ===

=== CODE BLOCK ADDRESS 0x65c8 ===
  0x65c8	nop    	dword ptr [eax + eax]
  0x65cd	test   	eax, eax
  0x65cf	je     	0x65e0
  === BLOCK LINK ===
    0x65d1
=== CODE BLOCK END ===

=== CODE BLOCK ADDRESS 0x65d1 ===
  0x65d1	dec    	eax
  0x65d2	mov    	ecx, ebx
  0x65d4	dec    	eax
  0x65d5	call   	dword ptr [0x3aa5]
  === BLOCK LINK ===
    0x65db
=== CODE BLOCK END ===

=== CODE BLOCK ADDRESS 0x65db ===
  0x65db	nop    	dword ptr [eax + eax]
  0x65e0	mov    	eax, 1
  0x65e5	dec    	eax
  0x65e6	mov    	ebx, dword ptr [esp + 0x30]
  0x65ea	dec    	eax
  === BLOCK LINK ===
    0x65eb
=== CODE BLOCK END ===

=== CODE BLOCK ADDRESS 0x65eb ===
  0x65eb	add    	esp, 0x20
  0x65ee	pop    	edi
  0x65ef	ret    	
  0x65f0	int3   	
  0x65f1	int3   	
  === BLOCK LINK ===
    0x65f2
=== CODE BLOCK END ===

=== CODE BLOCK ADDRESS 0x65f2 ===
  0x65f2	int3   	
  0x65f3	int3   	
  0x65f4	int3   	
  0x65f5	int3   	
  0x65f6	int3   	
  === BLOCK LINK ===
    0x65f7
=== CODE BLOCK END ===

=== CODE BLOCK ADDRESS 0x65f7 ===
  0x65f7	int3   	
  0x65f8	dec    	eax
  0x65f9	mov    	dword ptr [esp + 0x10], ebx
  0x65fd	push   	ebp
  0x65fe	push   	esi
  === BLOCK LINK ===
    0x65ff
=== CODE BLOCK END ===

=== CODE BLOCK ADDRESS 0x65ff ===
  0x65ff	push   	edi
  0x6600	inc    	ecx
  0x6601	push   	esi
  0x6602	inc    	ecx
  0x6603	push   	edi
  === BLOCK LINK ===
    0x6604
=== CODE BLOCK END ===

=== CODE BLOCK ADDRESS 0x6604 ===
  0x6604	dec    	eax
  0x6605	mov    	ebp, esp
  0x6607	dec    	eax
  0x6608	sub    	esp, 0x20
  0x660b	dec    	esp
  === BLOCK LINK ===
    0x660c
=== CODE BLOCK END ===

=== CODE BLOCK ADDRESS 0x660c ===
  0x660c	mov    	esi, dword ptr [ecx + 0xc0]
  0x6612	dec    	esp
  0x6613	mov    	edi, edx
  0x6615	dec    	eax
  0x6616	and    	dword ptr [ebp + 0x30], 0
  === BLOCK LINK ===
    0x661a
=== CODE BLOCK END ===

=== CODE BLOCK ADDRESS 0x661a ===
  0x661a	dec    	eax
  0x661b	mov    	edi, ecx
  0x661d	dec    	eax
  0x661e	and    	dword ptr [ebp + 0x48], 0
  0x6622	dec    	ecx
  === BLOCK LINK ===
    0x6623
=== CODE BLOCK END ===

=== CODE BLOCK ADDRESS 0x6623 ===
  0x6623	mov    	ecx, esi
  0x6625	dec    	ecx
  0x6626	mov    	edx, eax
  0x6628	dec    	eax
  0x6629	call   	dword ptr [0x3a49]
  === BLOCK LINK ===
    0x662f
=== CODE BLOCK END ===

=== CODE BLOCK ADDRESS 0x662f ===
  0x662f	nop    	dword ptr [eax + eax]
  0x6634	test   	eax, eax
  0x6636	je     	0x6679
  === BLOCK LINK ===
    0x6638
=== CODE BLOCK END ===

=== CODE BLOCK ADDRESS 0x6638 ===
  0x6638	dec    	ecx
  0x6639	mov    	ecx, esi
  0x663b	dec    	eax
  0x663c	call   	dword ptr [0x3906]
  === BLOCK LINK ===
    0x6642
=== CODE BLOCK END ===

=== CODE BLOCK ADDRESS 0x6642 ===
  0x6642	nop    	dword ptr [eax + eax]
  0x6647	dec    	ecx
  0x6648	mov    	ecx, esi
  0x664a	dec    	eax
  0x664b	mov    	ebx, eax
  === BLOCK LINK ===
    0x664d
=== CODE BLOCK END ===

=== CODE BLOCK ADDRESS 0x664d ===
  0x664d	dec    	eax
  0x664e	call   	dword ptr [0x398c]
  === BLOCK LINK ===
    0x6654
=== CODE BLOCK END ===

=== CODE BLOCK ADDRESS 0x6654 ===
  0x6654	nop    	dword ptr [eax + eax]
  0x6659	dec    	esp
  0x665a	mov    	eax, ebx
  0x665c	dec    	eax
  0x665d	lea    	edx, [0x4f9d]
  === BLOCK LINK ===
    0x6663
=== CODE BLOCK END ===

=== CODE BLOCK ADDRESS 0x6663 ===
  0x6663	mov    	ecx, eax
  0x6665	call   	0x6c14
  === BLOCK LINK ===
    0x666a
=== CODE BLOCK END ===

=== CODE BLOCK ADDRESS 0x666a ===
  0x666a	mov    	dword ptr [edi + 0xb4], 1
  0x6674	jmp    	0x6924
  === BLOCK LINK ===
    0x6679
=== CODE BLOCK END ===

=== CODE BLOCK ADDRESS 0x6679 ===
  0x6679	or     	dword ptr [edi + 0xf0], 0xffffffff
  0x6680	dec    	eax
  0x6681	mov    	ecx, dword ptr [ebp + 0x30]
  0x6684	dec    	eax
  0x6685	call   	dword ptr [0x395d]
  === BLOCK LINK ===
    0x668b
=== CODE BLOCK END ===

=== CODE BLOCK ADDRESS 0x668b ===
  0x668b	nop    	dword ptr [eax + eax]
  0x6690	dec    	eax
  0x6691	call   	dword ptr [0x3a21]
  === BLOCK LINK ===
    0x6697
=== CODE BLOCK END ===

=== CODE BLOCK ADDRESS 0x6697 ===
  0x6697	nop    	dword ptr [eax + eax]
  0x669c	dec    	eax
  0x669d	mov    	edx, eax
  0x669f	dec    	eax
  0x66a0	mov    	dword ptr [ebp + 0x30], eax
  === BLOCK LINK ===
    0x66a3
=== CODE BLOCK END ===

=== CODE BLOCK ADDRESS 0x66a3 ===
  0x66a3	dec    	ecx
  0x66a4	mov    	ecx, esi
  0x66a6	dec    	eax
  0x66a7	call   	dword ptr [0x3993]
  === BLOCK LINK ===
    0x66ad
=== CODE BLOCK END ===

=== CODE BLOCK ADDRESS 0x66ad ===
  0x66ad	nop    	dword ptr [eax + eax]
  0x66b2	mov    	esi, eax
  0x66b4	cmp    	eax, 1
  0x66b7	je     	0x6905
  === BLOCK LINK ===
    0x66bd
=== CODE BLOCK END ===

=== CODE BLOCK ADDRESS 0x66bd ===
  0x66bd	test   	eax, eax
  0x66bf	je     	0x670e
  === BLOCK LINK ===
    0x66c1
=== CODE BLOCK END ===

=== CODE BLOCK ADDRESS 0x66c1 ===
  0x66c1	dec    	ecx
  0x66c2	mov    	ecx, esi
  0x66c4	dec    	eax
  0x66c5	call   	dword ptr [0x387d]
  === BLOCK LINK ===
    0x66cb
=== CODE BLOCK END ===

=== CODE BLOCK ADDRESS 0x66cb ===
  0x66cb	nop    	dword ptr [eax + eax]
  0x66d0	dec    	ecx
  0x66d1	mov    	ecx, esi
  0x66d3	dec    	eax
  0x66d4	mov    	ebx, eax
  === BLOCK LINK ===
    0x66d6
=== CODE BLOCK END ===

=== CODE BLOCK ADDRESS 0x66d6 ===
  0x66d6	dec    	eax
  0x66d7	call   	dword ptr [0x3903]
  === BLOCK LINK ===
    0x66dd
=== CODE BLOCK END ===

=== CODE BLOCK ADDRESS 0x66dd ===
  0x66dd	nop    	dword ptr [eax + eax]
  0x66e2	dec    	esp
  0x66e3	mov    	eax, ebx
  0x66e5	dec    	eax
  0x66e6	lea    	edx, [0x4f14]
  === BLOCK LINK ===
    0x66ec
=== CODE BLOCK END ===

=== CODE BLOCK ADDRESS 0x66ec ===
  0x66ec	mov    	ecx, eax
  0x66ee	call   	0x6c14
  === BLOCK LINK ===
    0x66f3
=== CODE BLOCK END ===

=== CODE BLOCK ADDRESS 0x66f3 ===
  0x66f3	cmp    	esi, -0x1e
  0x66f6	je     	0x68fb
  === BLOCK LINK ===
    0x66fc
=== CODE BLOCK END ===

=== CODE BLOCK ADDRESS 0x66fc ===
  0x66fc	cmp    	esi, -0x19
  0x66ff	je     	0x68fb
  === BLOCK LINK ===
    0x6705
=== CODE BLOCK END ===

=== CODE BLOCK ADDRESS 0x6705 ===
  0x6705	cmp    	esi, -0x14
  0x6708	jl     	0x6680
  === BLOCK LINK ===
    0x670e
=== CODE BLOCK END ===

=== CODE BLOCK ADDRESS 0x670e ===
  0x670e	cmp    	dword ptr [edi + 0x40], 0
  0x6712	jl     	0x6759
  === BLOCK LINK ===
    0x6714
=== CODE BLOCK END ===

=== CODE BLOCK ADDRESS 0x6714 ===
  0x6714	dec    	eax
  0x6715	arpl   	word ptr [edi + 0x40], dx
  0x6718	dec    	eax
  0x6719	mov    	ecx, dword ptr [ebp + 0x30]
  0x671c	dec    	eax
  === BLOCK LINK ===
    0x671d
=== CODE BLOCK END ===

=== CODE BLOCK ADDRESS 0x671d ===
  0x671d	call   	dword ptr [0x3765]
  === BLOCK LINK ===
    0x6723
=== CODE BLOCK END ===

=== CODE BLOCK ADDRESS 0x6723 ===
  0x6723	nop    	dword ptr [eax + eax]
  0x6728	dec    	eax
  0x6729	cmp    	dword ptr [edi + 0x48], 0
  0x672d	jne    	0x6759
  === BLOCK LINK ===
    0x672f
=== CODE BLOCK END ===

=== CODE BLOCK ADDRESS 0x672f ===
  0x672f	dec    	eax
  0x6730	arpl   	word ptr [edi + 0x40], dx
  0x6733	dec    	eax
  0x6734	mov    	ecx, dword ptr [edi + 0xc0]
  0x673a	dec    	eax
  === BLOCK LINK ===
    0x673b
=== CODE BLOCK END ===

=== CODE BLOCK ADDRESS 0x673b ===
  0x673b	call   	dword ptr [0x39c7]
  === BLOCK LINK ===
    0x6741
=== CODE BLOCK END ===

=== CODE BLOCK ADDRESS 0x6741 ===
  0x6741	nop    	dword ptr [eax + eax]
  0x6746	dec    	eax
  0x6747	mov    	ecx, dword ptr [ebp + 0x30]
  0x674a	dec    	eax
  0x674b	mov    	edx, eax
  === BLOCK LINK ===
    0x674d
=== CODE BLOCK END ===

=== CODE BLOCK ADDRESS 0x674d ===
  0x674d	dec    	eax
  0x674e	call   	dword ptr [0x3704]
  === BLOCK LINK ===
    0x6754
=== CODE BLOCK END ===

=== CODE BLOCK ADDRESS 0x6754 ===
  0x6754	nop    	dword ptr [eax + eax]
  0x6759	cmp    	dword ptr [edi + 0x34], 0
  0x675d	jl     	0x67a4
  === BLOCK LINK ===
    0x675f
=== CODE BLOCK END ===

=== CODE BLOCK ADDRESS 0x675f ===
  0x675f	dec    	eax
  0x6760	arpl   	word ptr [edi + 0x34], dx
  0x6763	dec    	eax
  0x6764	mov    	ecx, dword ptr [ebp + 0x30]
  0x6767	dec    	eax
  === BLOCK LINK ===
    0x6768
=== CODE BLOCK END ===

=== CODE BLOCK ADDRESS 0x6768 ===
  0x6768	call   	dword ptr [0x36f2]
  === BLOCK LINK ===
    0x676e
=== CODE BLOCK END ===

=== CODE BLOCK ADDRESS 0x676e ===
  0x676e	nop    	dword ptr [eax + eax]
  0x6773	dec    	eax
  0x6774	cmp    	dword ptr [edi + 0x38], 0
  0x6778	jne    	0x67a4
  === BLOCK LINK ===
    0x677a
=== CODE BLOCK END ===

=== CODE BLOCK ADDRESS 0x677a ===
  0x677a	dec    	eax
  0x677b	arpl   	word ptr [edi + 0x34], dx
  0x677e	dec    	eax
  0x677f	mov    	ecx, dword ptr [edi + 0xc0]
  0x6785	dec    	eax
  === BLOCK LINK ===
    0x6786
=== CODE BLOCK END ===

=== CODE BLOCK ADDRESS 0x6786 ===
  0x6786	call   	dword ptr [0x3834]
  === BLOCK LINK ===
    0x678c
=== CODE BLOCK END ===

=== CODE BLOCK ADDRESS 0x678c ===
  0x678c	nop    	dword ptr [eax + eax]
  0x6791	dec    	eax
  0x6792	mov    	ecx, dword ptr [ebp + 0x30]
  0x6795	dec    	eax
  0x6796	mov    	edx, eax
  === BLOCK LINK ===
    0x6798
=== CODE BLOCK END ===

=== CODE BLOCK ADDRESS 0x6798 ===
  0x6798	dec    	eax
  0x6799	call   	dword ptr [0x3729]
  === BLOCK LINK ===
    0x679f
=== CODE BLOCK END ===

=== CODE BLOCK ADDRESS 0x679f ===
  0x679f	nop    	dword ptr [eax + eax]
  0x67a4	dec    	eax
  0x67a5	mov    	edx, dword ptr [edi + 0x48]
  0x67a8	dec    	eax
  0x67a9	test   	edx, edx
  === BLOCK LINK ===
    0x67ab
=== CODE BLOCK END ===

=== CODE BLOCK ADDRESS 0x67ab ===
  0x67ab	je     	0x67bd
  === BLOCK LINK ===
    0x67ad
=== CODE BLOCK END ===

=== CODE BLOCK ADDRESS 0x67ad ===
  0x67ad	dec    	eax
  0x67ae	mov    	ecx, dword ptr [ebp + 0x30]
  0x67b1	dec    	eax
  0x67b2	call   	dword ptr [0x36a0]
  === BLOCK LINK ===
    0x67b8
=== CODE BLOCK END ===

=== CODE BLOCK ADDRESS 0x67b8 ===
  0x67b8	nop    	dword ptr [eax + eax]
  0x67bd	dec    	eax
  0x67be	mov    	edx, dword ptr [edi + 0x38]
  0x67c1	dec    	eax
  0x67c2	test   	edx, edx
  === BLOCK LINK ===
    0x67c4
=== CODE BLOCK END ===

=== CODE BLOCK ADDRESS 0x67c4 ===
  0x67c4	je     	0x67d6
  === BLOCK LINK ===
    0x67c6
=== CODE BLOCK END ===

=== CODE BLOCK ADDRESS 0x67c6 ===
  0x67c6	dec    	eax
  0x67c7	mov    	ecx, dword ptr [ebp + 0x30]
  0x67ca	dec    	eax
  0x67cb	call   	dword ptr [0x36f7]
  === BLOCK LINK ===
    0x67d1
=== CODE BLOCK END ===

=== CODE BLOCK ADDRESS 0x67d1 ===
  0x67d1	nop    	dword ptr [eax + eax]
  0x67d6	dec    	eax
  0x67d7	mov    	edx, dword ptr [ebp + 0x30]
  0x67da	dec    	eax
  0x67db	mov    	ecx, edi
  === BLOCK LINK ===
    0x67dd
=== CODE BLOCK END ===

=== CODE BLOCK ADDRESS 0x67dd ===
  0x67dd	call   	0x4744
  === BLOCK LINK ===
    0x67e2
=== CODE BLOCK END ===

=== CODE BLOCK ADDRESS 0x67e2 ===
  0x67e2	test   	eax, eax
  0x67e4	jne    	0x6680
  === BLOCK LINK ===
    0x67ea
=== CODE BLOCK END ===

=== CODE BLOCK ADDRESS 0x67ea ===
  0x67ea	cmp    	dword ptr [edi + 0x20], 1
  0x67ee	jle    	0x6822
  === BLOCK LINK ===
    0x67f0
=== CODE BLOCK END ===

=== CODE BLOCK ADDRESS 0x67f0 ===
  0x67f0	lea    	ecx, [eax + 2]
  0x67f3	call   	0x7f36
  === BLOCK LINK ===
    0x67f8
=== CODE BLOCK END ===

=== CODE BLOCK ADDRESS 0x67f8 ===
  0x67f8	dec    	eax
  0x67f9	mov    	ecx, eax
  0x67fb	dec    	eax
  0x67fc	lea    	edx, [0x52f2]
  0x6802	call   	0x3f88
  === BLOCK LINK ===
    0x6807
=== CODE BLOCK END ===

=== CODE BLOCK ADDRESS 0x6807 ===
  0x6807	mov    	ecx, 2
  0x680c	call   	0x7f36
  === BLOCK LINK ===
    0x6811
=== CODE BLOCK END ===

=== CODE BLOCK ADDRESS 0x6811 ===
  0x6811	dec    	esp
  0x6812	mov    	eax, dword ptr [ebp + 0x30]
  0x6815	dec    	eax
  0x6816	mov    	edx, eax
  0x6818	dec    	eax
  === BLOCK LINK ===
    0x6819
=== CODE BLOCK END ===

=== CODE BLOCK ADDRESS 0x6819 ===
  0x6819	mov    	ecx, edi
  0x681b	call   	0x4988
  === BLOCK LINK ===
    0x6820
=== CODE BLOCK END ===

=== CODE BLOCK ADDRESS 0x6820 ===
  0x6820	jmp    	0x6857
  === BLOCK LINK ===
    0x6822
=== CODE BLOCK END ===

=== CODE BLOCK ADDRESS 0x6822 ===
  0x6822	cmp    	dword ptr [edi + 0x20], 0
  0x6826	jle    	0x6857
  === BLOCK LINK ===
    0x6828
=== CODE BLOCK END ===

=== CODE BLOCK ADDRESS 0x6828 ===
  0x6828	dec    	eax
  0x6829	mov    	ecx, dword ptr [ebp + 0x30]
  0x682c	dec    	eax
  0x682d	call   	dword ptr [0x36ad]
  === BLOCK LINK ===
    0x6833
=== CODE BLOCK END ===

=== CODE BLOCK ADDRESS 0x6833 ===
  0x6833	nop    	dword ptr [eax + eax]
  0x6838	mov    	ecx, 2
  0x683d	dec    	eax
  0x683e	mov    	ebx, eax
  0x6840	call   	0x7f36
  === BLOCK LINK ===
    0x6845
=== CODE BLOCK END ===

=== CODE BLOCK ADDRESS 0x6845 ===
  0x6845	dec    	eax
  0x6846	mov    	ecx, eax
  0x6848	dec    	eax
  0x6849	lea    	edx, [0x52a9]
  0x684f	dec    	esp
  === BLOCK LINK ===
    0x6850
=== CODE BLOCK END ===

=== CODE BLOCK ADDRESS 0x6850 ===
  0x6850	mov    	eax, ebx
  0x6852	call   	0x3f88
  === BLOCK LINK ===
    0x6857
=== CODE BLOCK END ===

=== CODE BLOCK ADDRESS 0x6857 ===
  0x6857	dec    	eax
  0x6858	mov    	ecx, dword ptr [ebp + 0x30]
  0x685b	dec    	eax
  0x685c	call   	dword ptr [0x38b6]
  === BLOCK LINK ===
    0x6862
=== CODE BLOCK END ===

=== CODE BLOCK ADDRESS 0x6862 ===
  0x6862	nop    	dword ptr [eax + eax]
  0x6867	mov    	ecx, 0x8000
  0x686c	cmp    	ax, cx
  0x686f	je     	0x6883
  === BLOCK LINK ===
    0x6871
=== CODE BLOCK END ===

=== CODE BLOCK ADDRESS 0x6871 ===
  0x6871	dec    	eax
  0x6872	mov    	ecx, dword ptr [ebp + 0x30]
  0x6875	xor    	edx, edx
  0x6877	dec    	eax
  0x6878	call   	dword ptr [0x37da]
  === BLOCK LINK ===
    0x687e
=== CODE BLOCK END ===

=== CODE BLOCK ADDRESS 0x687e ===
  0x687e	nop    	dword ptr [eax + eax]
  0x6883	dec    	eax
  0x6884	mov    	ecx, dword ptr [edi + 0xc8]
  0x688a	dec    	esp
  0x688b	lea    	eax, [ebp + 0x48]
  === BLOCK LINK ===
    0x688e
=== CODE BLOCK END ===

=== CODE BLOCK ADDRESS 0x688e ===
  0x688e	dec    	eax
  0x688f	lea    	edx, [ebp + 0x30]
  0x6892	dec    	eax
  0x6893	call   	dword ptr [0x3787]
  === BLOCK LINK ===
    0x6899
=== CODE BLOCK END ===

=== CODE BLOCK ADDRESS 0x6899 ===
  0x6899	nop    	dword ptr [eax + eax]
  0x689e	dec    	eax
  0x689f	mov    	ecx, dword ptr [ebp + 0x30]
  0x68a2	jmp    	0x68cf
  === BLOCK LINK ===
    0x68a4
=== CODE BLOCK END ===

=== CODE BLOCK ADDRESS 0x68a4 ===
  0x68a4	dec    	esp
  0x68a5	mov    	eax, ecx
  0x68a7	dec    	ecx
  0x68a8	mov    	edx, edi
  0x68aa	dec    	eax
  === BLOCK LINK ===
    0x68ab
=== CODE BLOCK END ===

=== CODE BLOCK ADDRESS 0x68ab ===
  0x68ab	mov    	ecx, edi
  0x68ad	call   	0x693c
  === BLOCK LINK ===
    0x68b2
=== CODE BLOCK END ===

=== CODE BLOCK ADDRESS 0x68b2 ===
  0x68b2	dec    	eax
  0x68b3	mov    	ecx, dword ptr [ebp + 0x30]
  0x68b6	dec    	eax
  0x68b7	call   	dword ptr [0x372b]
  === BLOCK LINK ===
    0x68bd
=== CODE BLOCK END ===

=== CODE BLOCK ADDRESS 0x68bd ===
  0x68bd	nop    	dword ptr [eax + eax]
  0x68c2	dec    	eax
  0x68c3	mov    	ecx, dword ptr [ebp + 0x48]
  0x68c6	dec    	eax
  0x68c7	and    	dword ptr [ebp + 0x48], 0
  === BLOCK LINK ===
    0x68cb
=== CODE BLOCK END ===

=== CODE BLOCK ADDRESS 0x68cb ===
  0x68cb	dec    	eax
  0x68cc	mov    	dword ptr [ebp + 0x30], ecx
  0x68cf	dec    	eax
  0x68d0	test   	ecx, ecx
  0x68d2	jne    	0x68a4
  === BLOCK LINK ===
    0x68d4
=== CODE BLOCK END ===

=== CODE BLOCK ADDRESS 0x68d4 ===
  0x68d4	cmp    	dword ptr [edi + 0x20], ecx
  0x68d7	je     	0x6684
  === BLOCK LINK ===
    0x68dd
=== CODE BLOCK END ===

=== CODE BLOCK ADDRESS 0x68dd ===
  0x68dd	mov    	ecx, 2
  0x68e2	call   	0x7f36
  === BLOCK LINK ===
    0x68e7
=== CODE BLOCK END ===

=== CODE BLOCK ADDRESS 0x68e7 ===
  0x68e7	dec    	eax
  0x68e8	mov    	ecx, eax
  0x68ea	dec    	eax
  0x68eb	lea    	edx, [0x4cb3]
  0x68f1	call   	0x8098
  === BLOCK LINK ===
    0x68f6
=== CODE BLOCK END ===

=== CODE BLOCK ADDRESS 0x68f6 ===
  0x68f6	jmp    	0x6680
  === BLOCK LINK ===
    0x68fb
=== CODE BLOCK END ===

=== CODE BLOCK ADDRESS 0x68fb ===
  0x68fb	mov    	dword ptr [edi + 0xb4], 1
  0x6905	dec    	eax
  0x6906	mov    	ecx, dword ptr [ebp + 0x30]
  0x6909	dec    	eax
  0x690a	call   	dword ptr [0x36d8]
  === BLOCK LINK ===
    0x6910
=== CODE BLOCK END ===

=== CODE BLOCK ADDRESS 0x6910 ===
  0x6910	nop    	dword ptr [eax + eax]
  0x6915	dec    	ecx
  0x6916	mov    	ecx, esi
  0x6918	dec    	eax
  0x6919	call   	dword ptr [0x35f9]
  === BLOCK LINK ===
    0x691f
=== CODE BLOCK END ===

=== CODE BLOCK ADDRESS 0x691f ===
  0x691f	nop    	dword ptr [eax + eax]
  0x6924	dec    	eax
  0x6925	mov    	ebx, dword ptr [esp + 0x58]
  0x6929	dec    	eax
  0x692a	add    	esp, 0x20
  === BLOCK LINK ===
    0x692d
=== CODE BLOCK END ===

=== CODE BLOCK ADDRESS 0x692d ===
  0x692d	inc    	ecx
  0x692e	pop    	edi
  0x692f	inc    	ecx
  0x6930	pop    	esi
  0x6931	pop    	edi
  === BLOCK LINK ===
    0x6932
=== CODE BLOCK END ===

=== CODE BLOCK ADDRESS 0x6932 ===
  0x6932	pop    	esi
  0x6933	pop    	ebp
  0x6934	ret    	
  0x6935	int3   	
  0x6936	int3   	
  === BLOCK LINK ===
    0x6937
=== CODE BLOCK END ===

=== CODE BLOCK ADDRESS 0x6937 ===
  0x6937	int3   	
  0x6938	int3   	
  0x6939	int3   	
  0x693a	int3   	
  0x693b	int3   	
  === BLOCK LINK ===
    0x693c
=== CODE BLOCK END ===

=== CODE BLOCK ADDRESS 0x693c ===
  0x693c	dec    	eax
  0x693d	mov    	eax, esp
  0x693f	dec    	eax
  0x6940	mov    	dword ptr [eax + 8], ebx
  0x6943	dec    	eax
  === BLOCK LINK ===
    0x6944
=== CODE BLOCK END ===

=== CODE BLOCK ADDRESS 0x6944 ===
  0x6944	mov    	dword ptr [eax + 0x10], ebp
  0x6947	dec    	eax
  0x6948	mov    	dword ptr [eax + 0x18], esi
  0x694b	dec    	eax
  0x694c	mov    	dword ptr [eax + 0x20], edi
  === BLOCK LINK ===
    0x694f
=== CODE BLOCK END ===

=== CODE BLOCK ADDRESS 0x694f ===
  0x694f	inc    	ecx
  0x6950	push   	esi
  0x6951	dec    	eax
  0x6952	sub    	esp, 0x20
  0x6955	dec    	eax
  === BLOCK LINK ===
    0x6956
=== CODE BLOCK END ===

=== CODE BLOCK ADDRESS 0x6956 ===
  0x6956	mov    	esi, edx
  0x6958	dec    	eax
  0x6959	mov    	ebp, ecx
  0x695b	dec    	eax
  0x695c	mov    	ecx, esi
  === BLOCK LINK ===
    0x695e
=== CODE BLOCK END ===

=== CODE BLOCK ADDRESS 0x695e ===
  0x695e	dec    	ecx
  0x695f	mov    	edx, eax
  0x6961	dec    	ecx
  0x6962	mov    	edi, eax
  0x6964	dec    	eax
  === BLOCK LINK ===
    0x6965
=== CODE BLOCK END ===

=== CODE BLOCK ADDRESS 0x6965 ===
  0x6965	call   	dword ptr [0x3645]
  === BLOCK LINK ===
    0x696b
=== CODE BLOCK END ===

=== CODE BLOCK ADDRESS 0x696b ===
  0x696b	nop    	dword ptr [eax + eax]
  0x6970	inc    	esp
  0x6971	mov    	esi, eax
  0x6973	test   	eax, eax
  0x6975	je     	0x6a3c
  === BLOCK LINK ===
    0x697b
=== CODE BLOCK END ===

=== CODE BLOCK ADDRESS 0x697b ===
  0x697b	cmp    	dword ptr [ebp + 0x20], 1
  0x697f	jle    	0x69d4
  === BLOCK LINK ===
    0x6981
=== CODE BLOCK END ===

=== CODE BLOCK ADDRESS 0x6981 ===
  0x6981	mov    	ecx, 2
  0x6986	call   	0x7f36
  === BLOCK LINK ===
    0x698b
=== CODE BLOCK END ===

=== CODE BLOCK ADDRESS 0x698b ===
  0x698b	dec    	eax
  0x698c	mov    	ecx, eax
  0x698e	dec    	eax
  0x698f	lea    	edx, [0x515f]
  0x6995	call   	0x3f88
  === BLOCK LINK ===
    0x699a
=== CODE BLOCK END ===

=== CODE BLOCK ADDRESS 0x699a ===
  0x699a	mov    	ecx, 2
  0x699f	call   	0x7f36
  === BLOCK LINK ===
    0x69a4
=== CODE BLOCK END ===

=== CODE BLOCK ADDRESS 0x69a4 ===
  0x69a4	dec    	eax
  0x69a5	mov    	edx, eax
  0x69a7	dec    	esp
  0x69a8	mov    	eax, edi
  0x69aa	dec    	eax
  === BLOCK LINK ===
    0x69ab
=== CODE BLOCK END ===

=== CODE BLOCK ADDRESS 0x69ab ===
  0x69ab	mov    	ecx, ebp
  0x69ad	call   	0x4988
  === BLOCK LINK ===
    0x69b2
=== CODE BLOCK END ===

=== CODE BLOCK ADDRESS 0x69b2 ===
  0x69b2	dec    	eax
  0x69b3	mov    	ecx, esi
  0x69b5	dec    	eax
  0x69b6	call   	dword ptr [0x358c]
  === BLOCK LINK ===
    0x69bc
=== CODE BLOCK END ===

=== CODE BLOCK ADDRESS 0x69bc ===
  0x69bc	nop    	dword ptr [eax + eax]
  0x69c1	dec    	eax
  0x69c2	lea    	edx, [0x4d14]
  0x69c8	xor    	ecx, ecx
  0x69ca	dec    	esp
  === BLOCK LINK ===
    0x69cb
=== CODE BLOCK END ===

=== CODE BLOCK ADDRESS 0x69cb ===
  0x69cb	mov    	eax, eax
  0x69cd	call   	0x6c14
  === BLOCK LINK ===
    0x69d2
=== CODE BLOCK END ===

=== CODE BLOCK ADDRESS 0x69d2 ===
  0x69d2	jmp    	0x6a3c
  === BLOCK LINK ===
    0x69d4
=== CODE BLOCK END ===

=== CODE BLOCK ADDRESS 0x69d4 ===
  0x69d4	cmp    	dword ptr [ebp + 0x20], 0
  0x69d8	dec    	eax
  0x69d9	mov    	ecx, esi
  0x69db	jle    	0x6a11
  === BLOCK LINK ===
    0x69dd
=== CODE BLOCK END ===

=== CODE BLOCK ADDRESS 0x69dd ===
  0x69dd	dec    	eax
  0x69de	call   	dword ptr [0x3564]
  === BLOCK LINK ===
    0x69e4
=== CODE BLOCK END ===

=== CODE BLOCK ADDRESS 0x69e4 ===
  0x69e4	nop    	dword ptr [eax + eax]
  0x69e9	dec    	eax
  0x69ea	mov    	ecx, edi
  0x69ec	dec    	eax
  0x69ed	mov    	ebx, eax
  === BLOCK LINK ===
    0x69ef
=== CODE BLOCK END ===

=== CODE BLOCK ADDRESS 0x69ef ===
  0x69ef	dec    	eax
  0x69f0	call   	dword ptr [0x34ea]
  === BLOCK LINK ===
    0x69f6
=== CODE BLOCK END ===

=== CODE BLOCK ADDRESS 0x69f6 ===
  0x69f6	nop    	dword ptr [eax + eax]
  0x69fb	dec    	esp
  0x69fc	mov    	ecx, ebx
  0x69fe	dec    	eax
  0x69ff	lea    	edx, [0x4d0b]
  === BLOCK LINK ===
    0x6a05
=== CODE BLOCK END ===

=== CODE BLOCK ADDRESS 0x6a05 ===
  0x6a05	dec    	esp
  0x6a06	mov    	eax, eax
  0x6a08	xor    	ecx, ecx
  0x6a0a	call   	0x6c14
  === BLOCK LINK ===
    0x6a0f
=== CODE BLOCK END ===

=== CODE BLOCK ADDRESS 0x6a0f ===
  0x6a0f	jmp    	0x6a3c
  === BLOCK LINK ===
    0x6a11
=== CODE BLOCK END ===

=== CODE BLOCK ADDRESS 0x6a11 ===
  0x6a11	dec    	eax
  0x6a12	call   	dword ptr [0x3530]
  === BLOCK LINK ===
    0x6a18
=== CODE BLOCK END ===

=== CODE BLOCK ADDRESS 0x6a18 ===
  0x6a18	nop    	dword ptr [eax + eax]
  0x6a1d	mov    	ecx, 2
  0x6a22	dec    	eax
  0x6a23	mov    	ebx, eax
  0x6a25	call   	0x7f36
  === BLOCK LINK ===
    0x6a2a
=== CODE BLOCK END ===

=== CODE BLOCK ADDRESS 0x6a2a ===
  0x6a2a	dec    	eax
  0x6a2b	mov    	ecx, eax
  0x6a2d	dec    	eax
  0x6a2e	lea    	edx, [0x4ca8]
  0x6a34	dec    	esp
  === BLOCK LINK ===
    0x6a35
=== CODE BLOCK END ===

=== CODE BLOCK ADDRESS 0x6a35 ===
  0x6a35	mov    	eax, ebx
  0x6a37	call   	0x8098
  === BLOCK LINK ===
    0x6a3c
=== CODE BLOCK END ===

=== CODE BLOCK ADDRESS 0x6a3c ===
  0x6a3c	inc    	ecx
  0x6a3d	cmp    	esi, -0x1e
  0x6a40	je     	0x6a75
  === BLOCK LINK ===
    0x6a42
=== CODE BLOCK END ===

=== CODE BLOCK ADDRESS 0x6a42 ===
  0x6a42	inc    	ecx
  0x6a43	cmp    	esi, -0x14
  0x6a46	jl     	0x6a87
  === BLOCK LINK ===
    0x6a48
=== CODE BLOCK END ===

=== CODE BLOCK ADDRESS 0x6a48 ===
  0x6a48	dec    	eax
  0x6a49	mov    	ecx, edi
  0x6a4b	dec    	eax
  0x6a4c	call   	dword ptr [0x344e]
  === BLOCK LINK ===
    0x6a52
=== CODE BLOCK END ===

=== CODE BLOCK ADDRESS 0x6a52 ===
  0x6a52	nop    	dword ptr [eax + eax]
  0x6a57	dec    	eax
  0x6a58	test   	eax, eax
  0x6a5a	jle    	0x6a87
  === BLOCK LINK ===
    0x6a5c
=== CODE BLOCK END ===

=== CODE BLOCK ADDRESS 0x6a5c ===
  0x6a5c	dec    	esp
  0x6a5d	mov    	eax, dword ptr [ebp + 0xc0]
  0x6a63	dec    	esp
  0x6a64	mov    	ecx, edi
  0x6a66	dec    	eax
  === BLOCK LINK ===
    0x6a67
=== CODE BLOCK END ===

=== CODE BLOCK ADDRESS 0x6a67 ===
  0x6a67	mov    	edx, esi
  0x6a69	dec    	eax
  0x6a6a	mov    	ecx, ebp
  0x6a6c	call   	0x636c
  === BLOCK LINK ===
    0x6a71
=== CODE BLOCK END ===

=== CODE BLOCK ADDRESS 0x6a71 ===
  0x6a71	test   	eax, eax
  0x6a73	je     	0x6a87
  === BLOCK LINK ===
    0x6a75
=== CODE BLOCK END ===

=== CODE BLOCK ADDRESS 0x6a75 ===
  0x6a75	mov    	ecx, 1
  0x6a7a	dec    	eax
  0x6a7b	call   	dword ptr [0x31f7]
  === BLOCK LINK ===
    0x6a81
=== CODE BLOCK END ===

=== CODE BLOCK ADDRESS 0x6a81 ===
  0x6a81	nop    	dword ptr [eax + eax]
  0x6a86	int3   	
  0x6a87	dec    	eax
  0x6a88	mov    	ebx, dword ptr [esp + 0x30]
  0x6a8c	dec    	eax
  === BLOCK LINK ===
    0x6a8d
=== CODE BLOCK END ===

=== CODE BLOCK ADDRESS 0x6a8d ===
  0x6a8d	mov    	ebp, dword ptr [esp + 0x38]
  0x6a91	dec    	eax
  0x6a92	mov    	esi, dword ptr [esp + 0x40]
  0x6a96	dec    	eax
  0x6a97	mov    	edi, dword ptr [esp + 0x48]
  === BLOCK LINK ===
    0x6a9b
=== CODE BLOCK END ===

=== CODE BLOCK ADDRESS 0x6a9b ===
  0x6a9b	dec    	eax
  0x6a9c	add    	esp, 0x20
  0x6a9f	inc    	ecx
  0x6aa0	pop    	esi
  0x6aa1	ret    	
  === BLOCK LINK ===
    0x6aa2
=== CODE BLOCK END ===

=== CODE BLOCK ADDRESS 0x2456 ===
  0x2456	inc    	ecx
  0x2457	movsx  	eax, dh
  0x245a	dec    	esp
  0x245b	lea    	eax, [0x7fa7]
  === BLOCK LINK ===
    0x2461
=== CODE BLOCK END ===

=== CODE BLOCK ADDRESS 0x6aa2 ===
  0x6aa2	int3   	
  0x6aa3	int3   	
  0x6aa4	int3   	
  0x6aa5	int3   	
  0x6aa6	int3   	
  === BLOCK LINK ===
    0x6aa7
=== CODE BLOCK END ===

=== CODE BLOCK ADDRESS 0x6aa7 ===
  0x6aa7	int3   	
  0x6aa8	int3   	
  0x6aa9	int3   	
  0x6aaa	int3   	
  0x6aab	int3   	
  === BLOCK LINK ===
    0x6aac
=== CODE BLOCK END ===

=== CODE BLOCK ADDRESS 0x6aac ===
  0x6aac	inc    	eax
  0x6aad	push   	ebx
  0x6aae	dec    	eax
  0x6aaf	sub    	esp, 0x60
  0x6ab2	dec    	eax
  === BLOCK LINK ===
    0x6ab3
=== CODE BLOCK END ===

=== CODE BLOCK ADDRESS 0x6ab3 ===
  0x6ab3	mov    	eax, dword ptr [0x8547]
  0x6ab9	dec    	eax
  0x6aba	xor    	eax, esp
  0x6abc	dec    	eax
  0x6abd	mov    	dword ptr [esp + 0x50], eax
  === BLOCK LINK ===
    0x6ac1
=== CODE BLOCK END ===

=== CODE BLOCK ADDRESS 0x6ac1 ===
  0x6ac1	dec    	eax
  0x6ac2	mov    	eax, dword ptr [ecx + 0x90]
  0x6ac8	dec    	eax
  0x6ac9	mov    	ebx, ecx
  0x6acb	dec    	eax
  === BLOCK LINK ===
    0x6acc
=== CODE BLOCK END ===

=== CODE BLOCK ADDRESS 0x6acc ===
  0x6acc	cmp    	dword ptr [eax], 0
  0x6acf	jne    	0x6ad8
  === BLOCK LINK ===
    0x6ad1
=== CODE BLOCK END ===

=== CODE BLOCK ADDRESS 0x6ad1 ===
  0x6ad1	dec    	eax
  0x6ad2	cmp    	dword ptr [ecx + 0x10], 0
  0x6ad6	je     	0x6b15
  === BLOCK LINK ===
    0x6ad8
=== CODE BLOCK END ===

=== CODE BLOCK ADDRESS 0x6ad8 ===
  0x6ad8	dec    	eax
  0x6ad9	mov    	ecx, dword ptr [ecx]
  0x6adb	dec    	eax
  0x6adc	test   	ecx, ecx
  0x6ade	je     	0x6b27
  === BLOCK LINK ===
    0x6ae0
=== CODE BLOCK END ===

=== CODE BLOCK ADDRESS 0x6ae0 ===
  0x6ae0	dec    	eax
  0x6ae1	lea    	edx, [esp + 0x20]
  0x6ae5	dec    	eax
  0x6ae6	call   	dword ptr [0x316c]
  === BLOCK LINK ===
    0x6aec
=== CODE BLOCK END ===

=== CODE BLOCK ADDRESS 0x6aec ===
  0x6aec	nop    	dword ptr [eax + eax]
  0x6af1	test   	eax, eax
  0x6af3	jne    	0x6b01
  === BLOCK LINK ===
    0x6af5
=== CODE BLOCK END ===

=== CODE BLOCK ADDRESS 0x6af5 ===
  0x6af5	mov    	eax, 0x8000
  0x6afa	test   	word ptr [esp + 0x26], ax
  0x6aff	je     	0x6b39
  === BLOCK LINK ===
    0x6b01
=== CODE BLOCK END ===

=== CODE BLOCK ADDRESS 0x6b01 ===
  0x6b01	dec    	eax
  0x6b02	mov    	ecx, dword ptr [esp + 0x50]
  0x6b06	dec    	eax
  0x6b07	xor    	ecx, esp
  0x6b09	call   	0x7390
  === BLOCK LINK ===
    0x6b0e
=== CODE BLOCK END ===

=== CODE BLOCK ADDRESS 0x6b0e ===
  0x6b0e	dec    	eax
  0x6b0f	add    	esp, 0x60
  0x6b12	pop    	ebx
  0x6b13	ret    	
  0x6b14	int3   	
  === BLOCK LINK ===
    0x6b15
=== CODE BLOCK END ===

=== CODE BLOCK ADDRESS 0x6b15 ===
  0x6b15	xor    	edx, edx
  0x6b17	dec    	esp
  0x6b18	lea    	eax, [0x4d6a]
  0x6b1e	lea    	ecx, [edx + 1]
  0x6b21	call   	0x6c3c
  === BLOCK LINK ===
    0x6b26
=== CODE BLOCK END ===

=== CODE BLOCK ADDRESS 0x6b26 ===
  0x6b26	int3   	
  0x6b27	xor    	edx, edx
  0x6b29	dec    	esp
  0x6b2a	lea    	eax, [0x5020]
  0x6b30	lea    	ecx, [edx + 1]
  === BLOCK LINK ===
    0x6b33
=== CODE BLOCK END ===

=== CODE BLOCK ADDRESS 0x6b33 ===
  0x6b33	call   	0x6c3c
  === BLOCK LINK ===
    0x6b38
=== CODE BLOCK END ===

=== CODE BLOCK ADDRESS 0x6b38 ===
  0x6b38	int3   	
  0x6b39	dec    	esp
  0x6b3a	mov    	ecx, dword ptr [ebx]
  0x6b3c	dec    	esp
  0x6b3d	lea    	eax, [0x502d]
  === BLOCK LINK ===
    0x6b43
=== CODE BLOCK END ===

=== CODE BLOCK ADDRESS 0x6b43 ===
  0x6b43	xor    	edx, edx
  0x6b45	lea    	ecx, [edx + 1]
  0x6b48	call   	0x6c3c
  === BLOCK LINK ===
    0x6b4d
=== CODE BLOCK END ===

=== CODE BLOCK ADDRESS 0x6b4d ===
  0x6b4d	int3   	
  0x6b4e	int3   	
  0x6b4f	int3   	
  0x6b50	int3   	
  0x6b51	int3   	
  === BLOCK LINK ===
    0x6b52
=== CODE BLOCK END ===

=== CODE BLOCK ADDRESS 0x6b52 ===
  0x6b52	int3   	
  0x6b53	int3   	
  0x6b54	dec    	eax
  0x6b55	mov    	eax, dword ptr [0x8add]
  0x6b5b	ret    	
  === BLOCK LINK ===
    0x6b5c
=== CODE BLOCK END ===

=== CODE BLOCK ADDRESS 0x6b5c ===
  0x6b5c	int3   	
  0x6b5d	int3   	
  0x6b5e	int3   	
  0x6b5f	int3   	
  0x6b60	int3   	
  === BLOCK LINK ===
    0x6b61
=== CODE BLOCK END ===

=== CODE BLOCK ADDRESS 0x6b61 ===
  0x6b61	int3   	
  0x6b62	int3   	
  0x6b63	int3   	
  0x6b64	dec    	eax
  0x6b65	mov    	dword ptr [esp + 8], ebx
  === BLOCK LINK ===
    0x6b69
=== CODE BLOCK END ===

=== CODE BLOCK ADDRESS 0x6b69 ===
  0x6b69	dec    	eax
  0x6b6a	mov    	dword ptr [esp + 0x10], esi
  0x6b6e	push   	edi
  0x6b6f	dec    	eax
  0x6b70	sub    	esp, 0x20
  === BLOCK LINK ===
    0x6b73
=== CODE BLOCK END ===

=== CODE BLOCK ADDRESS 0x6b73 ===
  0x6b73	mov    	esi, ecx
  0x6b75	dec    	ecx
  0x6b76	mov    	ebx, eax
  0x6b78	mov    	ecx, 2
  0x6b7d	dec    	eax
  === BLOCK LINK ===
    0x6b7e
=== CODE BLOCK END ===

=== CODE BLOCK ADDRESS 0x6b7e ===
  0x6b7e	mov    	edi, edx
  0x6b80	call   	0x7f36
  === BLOCK LINK ===
    0x6b85
=== CODE BLOCK END ===

=== CODE BLOCK ADDRESS 0x6b85 ===
  0x6b85	dec    	esp
  0x6b86	mov    	eax, dword ptr [0x8aac]
  0x6b8c	dec    	eax
  0x6b8d	lea    	edx, [0x5009]
  0x6b93	dec    	eax
  === BLOCK LINK ===
    0x6b94
=== CODE BLOCK END ===

=== CODE BLOCK ADDRESS 0x6b94 ===
  0x6b94	mov    	ecx, eax
  0x6b96	call   	0x8098
  === BLOCK LINK ===
    0x6b9b
=== CODE BLOCK END ===

=== CODE BLOCK ADDRESS 0x6b9b ===
  0x6b9b	mov    	ecx, 2
  0x6ba0	call   	0x7f36
  === BLOCK LINK ===
    0x6ba5
=== CODE BLOCK END ===

=== CODE BLOCK ADDRESS 0x6ba5 ===
  0x6ba5	dec    	eax
  0x6ba6	mov    	ecx, eax
  0x6ba8	dec    	esp
  0x6ba9	mov    	eax, ebx
  0x6bab	dec    	eax
  === BLOCK LINK ===
    0x6bac
=== CODE BLOCK END ===

=== CODE BLOCK ADDRESS 0x6bac ===
  0x6bac	mov    	edx, edi
  0x6bae	call   	0x804c
  === BLOCK LINK ===
    0x6bb3
=== CODE BLOCK END ===

=== CODE BLOCK ADDRESS 0x6bb3 ===
  0x6bb3	test   	esi, esi
  0x6bb5	je     	0x6be4
  === BLOCK LINK ===
    0x6bb7
=== CODE BLOCK END ===

=== CODE BLOCK ADDRESS 0x6bb7 ===
  0x6bb7	mov    	ecx, esi
  0x6bb9	dec    	eax
  0x6bba	call   	dword ptr [0x3148]
  === BLOCK LINK ===
    0x6bc0
=== CODE BLOCK END ===

=== CODE BLOCK ADDRESS 0x6bc0 ===
  0x6bc0	nop    	dword ptr [eax + eax]
  0x6bc5	mov    	ecx, 2
  0x6bca	dec    	eax
  0x6bcb	mov    	ebx, eax
  0x6bcd	call   	0x7f36
  === BLOCK LINK ===
    0x6bd2
=== CODE BLOCK END ===

=== CODE BLOCK ADDRESS 0x6bd2 ===
  0x6bd2	dec    	eax
  0x6bd3	mov    	ecx, eax
  0x6bd5	dec    	eax
  0x6bd6	lea    	edx, [0x4b00]
  0x6bdc	dec    	esp
  === BLOCK LINK ===
    0x6bdd
=== CODE BLOCK END ===

=== CODE BLOCK ADDRESS 0x6bdd ===
  0x6bdd	mov    	eax, ebx
  0x6bdf	call   	0x8098
  === BLOCK LINK ===
    0x6be4
=== CODE BLOCK END ===

=== CODE BLOCK ADDRESS 0x6be4 ===
  0x6be4	mov    	ecx, 2
  0x6be9	call   	0x7f36
  === BLOCK LINK ===
    0x6bee
=== CODE BLOCK END ===

=== CODE BLOCK ADDRESS 0x6bee ===
  0x6bee	dec    	eax
  0x6bef	mov    	ecx, eax
  0x6bf1	dec    	eax
  0x6bf2	lea    	edx, [0x49ac]
  0x6bf8	dec    	eax
  === BLOCK LINK ===
    0x6bf9
=== CODE BLOCK END ===

=== CODE BLOCK ADDRESS 0x6bf9 ===
  0x6bf9	mov    	ebx, dword ptr [esp + 0x30]
  0x6bfd	dec    	eax
  0x6bfe	mov    	esi, dword ptr [esp + 0x38]
  0x6c02	dec    	eax
  0x6c03	add    	esp, 0x20
  === BLOCK LINK ===
    0x6c06
=== CODE BLOCK END ===

=== CODE BLOCK ADDRESS 0x6c06 ===
  0x6c06	pop    	edi
  0x6c07	jmp    	0x8098
  === BLOCK LINK ===
    0x6c0c
=== CODE BLOCK END ===

=== CODE BLOCK ADDRESS 0x6c0c ===
  0x6c0c	int3   	
  0x6c0d	int3   	
  0x6c0e	int3   	
  0x6c0f	int3   	
  0x6c10	int3   	
  === BLOCK LINK ===
    0x6c11
=== CODE BLOCK END ===

=== CODE BLOCK ADDRESS 0x6c11 ===
  0x6c11	int3   	
  0x6c12	int3   	
  0x6c13	int3   	
  0x6c14	dec    	eax
  0x6c15	mov    	eax, esp
  === BLOCK LINK ===
    0x6c17
=== CODE BLOCK END ===

=== CODE BLOCK ADDRESS 0x6c17 ===
  0x6c17	dec    	eax
  0x6c18	mov    	dword ptr [eax + 0x10], edx
  0x6c1b	dec    	esp
  0x6c1c	mov    	dword ptr [eax + 0x18], eax
  0x6c1f	dec    	esp
  === BLOCK LINK ===
    0x6c20
=== CODE BLOCK END ===

=== CODE BLOCK ADDRESS 0x6c20 ===
  0x6c20	mov    	dword ptr [eax + 0x20], ecx
  0x6c23	dec    	eax
  0x6c24	sub    	esp, 0x28
  0x6c27	dec    	esp
  0x6c28	lea    	eax, [eax + 0x18]
  === BLOCK LINK ===
    0x6c2b
=== CODE BLOCK END ===

=== CODE BLOCK ADDRESS 0x6c2b ===
  0x6c2b	call   	0x6b64
  === BLOCK LINK ===
    0x6c30
=== CODE BLOCK END ===

=== CODE BLOCK ADDRESS 0x6c30 ===
  0x6c30	dec    	eax
  0x6c31	add    	esp, 0x28
  0x6c34	ret    	
  0x6c35	int3   	
  0x6c36	int3   	
  === BLOCK LINK ===
    0x6c37
=== CODE BLOCK END ===

=== CODE BLOCK ADDRESS 0x6c37 ===
  0x6c37	int3   	
  0x6c38	int3   	
  0x6c39	int3   	
  0x6c3a	int3   	
  0x6c3b	int3   	
  === BLOCK LINK ===
    0x6c3c
=== CODE BLOCK END ===

=== CODE BLOCK ADDRESS 0x6c3c ===
  0x6c3c	dec    	esp
  0x6c3d	mov    	dword ptr [esp + 0x18], eax
  0x6c41	dec    	esp
  0x6c42	mov    	dword ptr [esp + 0x20], ecx
  0x6c46	push   	ebx
  === BLOCK LINK ===
    0x6c47
=== CODE BLOCK END ===

=== CODE BLOCK ADDRESS 0x6c47 ===
  0x6c47	dec    	eax
  0x6c48	sub    	esp, 0x20
  0x6c4b	dec    	ebp
  0x6c4c	mov    	ecx, eax
  0x6c4e	mov    	eax, edx
  === BLOCK LINK ===
    0x6c50
=== CODE BLOCK END ===

=== CODE BLOCK ADDRESS 0x6c50 ===
  0x6c50	mov    	ebx, ecx
  0x6c52	dec    	esp
  0x6c53	lea    	eax, [esp + 0x48]
  0x6c57	dec    	ecx
  0x6c58	mov    	edx, ecx
  === BLOCK LINK ===
    0x6c5a
=== CODE BLOCK END ===

=== CODE BLOCK ADDRESS 0x6c5a ===
  0x6c5a	mov    	ecx, eax
  0x6c5c	call   	0x6b64
  === BLOCK LINK ===
    0x6c61
=== CODE BLOCK END ===

=== CODE BLOCK ADDRESS 0x6c61 ===
  0x6c61	mov    	ecx, ebx
  0x6c63	dec    	eax
  0x6c64	call   	dword ptr [0x300e]
  === BLOCK LINK ===
    0x6c6a
=== CODE BLOCK END ===

=== CODE BLOCK ADDRESS 0x6c6a ===
  0x6c6a	nop    	dword ptr [eax + eax]
  0x6c6f	int3   	
  0x6c70	int3   	
  0x6c71	int3   	
  0x6c72	int3   	
  === BLOCK LINK ===
    0x6c73
=== CODE BLOCK END ===

=== CODE BLOCK ADDRESS 0x6c73 ===
  0x6c73	int3   	
  0x6c74	int3   	
  0x6c75	int3   	
  0x6c76	int3   	
  0x6c77	int3   	
  === BLOCK LINK ===
    0x6c78
=== CODE BLOCK END ===

=== CODE BLOCK ADDRESS 0x6c78 ===
  0x6c78	dec    	eax
  0x6c79	mov    	dword ptr [esp + 8], ebx
  0x6c7d	dec    	eax
  0x6c7e	mov    	dword ptr [esp + 0x10], edi
  0x6c82	inc    	ecx
  === BLOCK LINK ===
    0x6c83
=== CODE BLOCK END ===

=== CODE BLOCK ADDRESS 0x6c83 ===
  0x6c83	push   	esi
  0x6c84	dec    	eax
  0x6c85	sub    	esp, 0x20
  0x6c88	dec    	eax
  0x6c89	mov    	ebx, ecx
  === BLOCK LINK ===
    0x6c8b
=== CODE BLOCK END ===

=== CODE BLOCK ADDRESS 0x6c8b ===
  0x6c8b	dec    	esp
  0x6c8c	lea    	esi, [0x365d]
  0x6c92	dec    	eax
  0x6c93	mov    	ecx, dword ptr [ebx + 0x20]
  0x6c96	dec    	eax
  === BLOCK LINK ===
    0x6c97
=== CODE BLOCK END ===

=== CODE BLOCK ADDRESS 0x6c97 ===
  0x6c97	mov    	eax, dword ptr [ebx + 0x10]
  0x6c9a	dec    	eax
  0x6c9b	cmp    	ecx, eax
  0x6c9d	jae    	0x6cfa
  === BLOCK LINK ===
    0x6c9f
=== CODE BLOCK END ===

=== CODE BLOCK ADDRESS 0x6c9f ===
  0x6c9f	inc    	esp
  0x6ca0	mov    	eax, dword ptr [ebx + 0x38]
  0x6ca3	dec    	eax
  0x6ca4	mov    	edi, dword ptr [ebx + 0x18]
  0x6ca7	dec    	eax
  === BLOCK LINK ===
    0x6ca8
=== CODE BLOCK END ===

=== CODE BLOCK ADDRESS 0x6ca8 ===
  0x6ca8	lea    	edx, [0x4f26]
  0x6cae	dec    	eax
  0x6caf	inc    	ecx
  0x6cb1	inc    	ebp
  0x6cb2	test   	eax, eax
  === BLOCK LINK ===
    0x6cb4
=== CODE BLOCK END ===

=== CODE BLOCK ADDRESS 0x6cb4 ===
  0x6cb4	dec    	eax
  0x6cb5	mov    	dword ptr [ebx + 0x20], ecx
  0x6cb8	dec    	eax
  0x6cb9	mov    	dword ptr [ebx + 0x18], ecx
  0x6cbc	dec    	ecx
  === BLOCK LINK ===
    0x6cbd
=== CODE BLOCK END ===

=== CODE BLOCK ADDRESS 0x6cbd ===
  0x6cbd	cmovne  	edx, esi
  0x6cc0	dec    	eax
  0x6cc1	call   	dword ptr [0x30e9]
  === BLOCK LINK ===
    0x6cc7
=== CODE BLOCK END ===

=== CODE BLOCK ADDRESS 0x6cc7 ===
  0x6cc7	nop    	dword ptr [eax + eax]
  0x6ccc	dec    	eax
  0x6ccd	add    	dword ptr [ebx + 0x20], eax
  0x6cd0	dec    	eax
  0x6cd1	mov    	eax, dword ptr [ebx + 0x20]
  === BLOCK LINK ===
    0x6cd4
=== CODE BLOCK END ===

=== CODE BLOCK ADDRESS 0x6cd4 ===
  0x6cd4	mov    	byte ptr [eax], 0
  0x6cd7	inc    	esp
  0x6cd8	mov    	eax, dword ptr [ebx + 0x38]
  0x6cdb	inc    	ebp
  0x6cdc	test   	eax, eax
  === BLOCK LINK ===
    0x6cde
=== CODE BLOCK END ===

=== CODE BLOCK ADDRESS 0x6cde ===
  0x6cde	jne    	0x6e36
  === BLOCK LINK ===
    0x6ce4
=== CODE BLOCK END ===

=== CODE BLOCK ADDRESS 0x6ce4 ===
  0x6ce4	inc    	esp
  0x6ce5	cmp    	byte ptr [edi], al
  0x6ce7	jne    	0x6e36
  === BLOCK LINK ===
    0x6ced
=== CODE BLOCK END ===

=== CODE BLOCK ADDRESS 0x6ced ===
  0x6ced	dec    	eax
  0x6cee	mov    	ecx, dword ptr [ebx + 0x20]
  0x6cf1	dec    	eax
  0x6cf2	mov    	eax, dword ptr [ebx + 0x10]
  0x6cf5	dec    	eax
  === BLOCK LINK ===
    0x6cf6
=== CODE BLOCK END ===

=== CODE BLOCK ADDRESS 0x6cf6 ===
  0x6cf6	cmp    	ecx, eax
  0x6cf8	jb     	0x6ca3
  === BLOCK LINK ===
    0x6cfa
=== CODE BLOCK END ===

=== CODE BLOCK ADDRESS 0x6cfa ===
  0x6cfa	dec    	eax
  0x6cfb	cmp    	dword ptr [ebx], 0
  0x6cfe	dec    	eax
  0x6cff	mov    	edx, dword ptr [ebx + 0x18]
  0x6d02	je     	0x6e3b
  === BLOCK LINK ===
    0x6d08
=== CODE BLOCK END ===

=== CODE BLOCK ADDRESS 0x6d08 ===
  0x6d08	dec    	eax
  0x6d09	mov    	ecx, dword ptr [ebx + 8]
  0x6d0c	dec    	eax
  0x6d0d	cmp    	edx, ecx
  0x6d0f	jbe    	0x6d38
  === BLOCK LINK ===
    0x6d11
=== CODE BLOCK END ===

=== CODE BLOCK ADDRESS 0x6d11 ===
  0x6d11	dec    	eax
  0x6d12	sub    	eax, edx
  0x6d14	dec    	esp
  0x6d15	mov    	eax, eax
  0x6d17	call   	0x8299
  === BLOCK LINK ===
    0x6d1c
=== CODE BLOCK END ===

=== CODE BLOCK ADDRESS 0x6d1c ===
  0x6d1c	dec    	esp
  0x6d1d	mov    	eax, dword ptr [ebx + 8]
  0x6d20	dec    	ecx
  0x6d21	mov    	eax, eax
  0x6d23	dec    	ecx
  === BLOCK LINK ===
    0x6d24
=== CODE BLOCK END ===

=== CODE BLOCK ADDRESS 0x6d24 ===
  0x6d24	mov    	edx, eax
  0x6d26	dec    	eax
  0x6d27	sub    	eax, dword ptr [ebx + 0x18]
  0x6d2a	dec    	eax
  0x6d2b	add    	eax, dword ptr [ebx + 0x20]
  === BLOCK LINK ===
    0x6d2e
=== CODE BLOCK END ===

=== CODE BLOCK ADDRESS 0x6d2e ===
  0x6d2e	dec    	eax
  0x6d2f	sub    	edx, dword ptr [ebx + 0x18]
  0x6d32	dec    	eax
  0x6d33	add    	edx, dword ptr [ebx + 0x10]
  0x6d36	jmp    	0x6d81
  === BLOCK LINK ===
    0x6d38
=== CODE BLOCK END ===

=== CODE BLOCK ADDRESS 0x6d38 ===
  0x6d38	dec    	eax
  0x6d39	mov    	eax, dword ptr [ebx + 0x30]
  0x6d3c	dec    	eax
  0x6d3d	lea    	edx, [eax + eax]
  0x6d40	dec    	eax
  === BLOCK LINK ===
    0x6d41
=== CODE BLOCK END ===

=== CODE BLOCK ADDRESS 0x6d41 ===
  0x6d41	cmp    	edx, eax
  0x6d43	jbe    	0x6e9d
  === BLOCK LINK ===
    0x6d49
=== CODE BLOCK END ===

=== CODE BLOCK ADDRESS 0x6d49 ===
  0x6d49	dec    	eax
  0x6d4a	mov    	dword ptr [ebx + 0x30], edx
  0x6d4d	dec    	eax
  0x6d4e	inc    	edx
  0x6d50	dec    	eax
  === BLOCK LINK ===
    0x6d51
=== CODE BLOCK END ===

=== CODE BLOCK ADDRESS 0x6d51 ===
  0x6d51	call   	dword ptr [0x2fa1]
  === BLOCK LINK ===
    0x6d57
=== CODE BLOCK END ===

=== CODE BLOCK ADDRESS 0x6d57 ===
  0x6d57	nop    	dword ptr [eax + eax]
  0x6d5c	dec    	esp
  0x6d5d	mov    	eax, eax
  0x6d5f	dec    	eax
  0x6d60	test   	eax, eax
  === BLOCK LINK ===
    0x6d62
=== CODE BLOCK END ===

=== CODE BLOCK ADDRESS 0x6d62 ===
  0x6d62	je     	0x6e84
  === BLOCK LINK ===
    0x6d68
=== CODE BLOCK END ===

=== CODE BLOCK ADDRESS 0x6d68 ===
  0x6d68	dec    	eax
  0x6d69	mov    	ecx, dword ptr [ebx + 8]
  0x6d6c	dec    	eax
  0x6d6d	mov    	edx, dword ptr [ebx + 0x10]
  0x6d70	dec    	eax
  === BLOCK LINK ===
    0x6d71
=== CODE BLOCK END ===

=== CODE BLOCK ADDRESS 0x6d71 ===
  0x6d71	mov    	dword ptr [ebx + 8], eax
  0x6d74	dec    	eax
  0x6d75	sub    	edx, ecx
  0x6d77	dec    	eax
  0x6d78	sub    	eax, ecx
  === BLOCK LINK ===
    0x6d7a
=== CODE BLOCK END ===

=== CODE BLOCK ADDRESS 0x6d7a ===
  0x6d7a	dec    	eax
  0x6d7b	add    	eax, dword ptr [ebx + 0x20]
  0x6d7e	dec    	ecx
  0x6d7f	add    	edx, eax
  0x6d81	dec    	eax
  === BLOCK LINK ===
    0x6d82
=== CODE BLOCK END ===

=== CODE BLOCK ADDRESS 0x6d82 ===
  0x6d82	mov    	dword ptr [ebx + 0x10], edx
  0x6d85	mov    	edx, 1
  0x6d8a	dec    	eax
  0x6d8b	mov    	dword ptr [ebx + 0x20], eax
  0x6d8e	dec    	esp
  === BLOCK LINK ===
    0x6d8f
=== CODE BLOCK END ===

=== CODE BLOCK ADDRESS 0x6d8f ===
  0x6d8f	mov    	dword ptr [ebx + 0x18], eax
  0x6d92	dec    	eax
  0x6d93	mov    	ecx, dword ptr [ebx + 0x10]
  0x6d96	dec    	esp
  0x6d97	mov    	eax, dword ptr [ebx + 0x30]
  === BLOCK LINK ===
    0x6d9a
=== CODE BLOCK END ===

=== CODE BLOCK ADDRESS 0x6d9a ===
  0x6d9a	dec    	esp
  0x6d9b	mov    	ecx, dword ptr [ebx]
  0x6d9d	dec    	esp
  0x6d9e	sub    	eax, ecx
  0x6da0	dec    	esp
  === BLOCK LINK ===
    0x6da1
=== CODE BLOCK END ===

=== CODE BLOCK ADDRESS 0x6da1 ===
  0x6da1	add    	eax, dword ptr [ebx + 8]
  0x6da4	dec    	eax
  0x6da5	call   	dword ptr [0x2f05]
  === BLOCK LINK ===
    0x6dab
=== CODE BLOCK END ===

=== CODE BLOCK ADDRESS 0x6dab ===
  0x6dab	nop    	dword ptr [eax + eax]
  0x6db0	dec    	eax
  0x6db1	add    	dword ptr [ebx + 0x10], eax
  0x6db4	dec    	eax
  0x6db5	lea    	edx, [0x4e19]
  === BLOCK LINK ===
    0x6dbb
=== CODE BLOCK END ===

=== CODE BLOCK ADDRESS 0x6dbb ===
  0x6dbb	dec    	eax
  0x6dbc	mov    	eax, dword ptr [ebx + 0x10]
  0x6dbf	mov    	byte ptr [eax], 0
  0x6dc2	cmp    	dword ptr [ebx + 0x38], 0
  0x6dc6	dec    	eax
  === BLOCK LINK ===
    0x6dc7
=== CODE BLOCK END ===

=== CODE BLOCK ADDRESS 0x6dc7 ===
  0x6dc7	mov    	ecx, dword ptr [ebx + 0x20]
  0x6dca	dec    	ecx
  0x6dcb	cmovne  	edx, esi
  0x6dce	dec    	eax
  0x6dcf	call   	dword ptr [0x2fdb]
  === BLOCK LINK ===
    0x6dd5
=== CODE BLOCK END ===

=== CODE BLOCK ADDRESS 0x6dd5 ===
  0x6dd5	nop    	dword ptr [eax + eax]
  0x6dda	dec    	eax
  0x6ddb	add    	dword ptr [ebx + 0x20], eax
  0x6dde	dec    	eax
  0x6ddf	mov    	eax, dword ptr [ebx + 0x20]
  === BLOCK LINK ===
    0x6de2
=== CODE BLOCK END ===

=== CODE BLOCK ADDRESS 0x6de2 ===
  0x6de2	mov    	byte ptr [eax], 0
  0x6de5	dec    	eax
  0x6de6	mov    	ecx, dword ptr [ebx]
  0x6de8	dec    	eax
  0x6de9	call   	dword ptr [0x2ea1]
  === BLOCK LINK ===
    0x6def
=== CODE BLOCK END ===

=== CODE BLOCK ADDRESS 0x6def ===
  0x6def	nop    	dword ptr [eax + eax]
  0x6df4	test   	eax, eax
  0x6df6	jne    	0x6e5d
  === BLOCK LINK ===
    0x6df8
=== CODE BLOCK END ===

=== CODE BLOCK ADDRESS 0x6df8 ===
  0x6df8	dec    	eax
  0x6df9	mov    	ecx, dword ptr [ebx]
  0x6dfb	dec    	eax
  0x6dfc	call   	dword ptr [0x2e86]
  === BLOCK LINK ===
    0x6e02
=== CODE BLOCK END ===

=== CODE BLOCK ADDRESS 0x6e02 ===
  0x6e02	nop    	dword ptr [eax + eax]
  0x6e07	test   	eax, eax
  0x6e09	je     	0x6c92
  === BLOCK LINK ===
    0x6e0f
=== CODE BLOCK END ===

=== CODE BLOCK ADDRESS 0x6e0f ===
  0x6e0f	dec    	eax
  0x6e10	mov    	edi, dword ptr [ebx]
  0x6e12	xor    	ecx, ecx
  0x6e14	call   	0x7f36
  === BLOCK LINK ===
    0x6e19
=== CODE BLOCK END ===

=== CODE BLOCK ADDRESS 0x6e19 ===
  0x6e19	dec    	eax
  0x6e1a	cmp    	edi, eax
  0x6e1c	je     	0x6e2d
  === BLOCK LINK ===
    0x6e1e
=== CODE BLOCK END ===

=== CODE BLOCK ADDRESS 0x6e1e ===
  0x6e1e	dec    	eax
  0x6e1f	mov    	ecx, edi
  0x6e21	dec    	eax
  0x6e22	call   	dword ptr [0x2e58]
  === BLOCK LINK ===
    0x6e28
=== CODE BLOCK END ===

=== CODE BLOCK ADDRESS 0x6e28 ===
  0x6e28	nop    	dword ptr [eax + eax]
  0x6e2d	dec    	eax
  0x6e2e	and    	dword ptr [ebx], 0
  0x6e31	jmp    	0x6c92
  === BLOCK LINK ===
    0x6e36
=== CODE BLOCK END ===

=== CODE BLOCK ADDRESS 0x6e36 ===
  0x6e36	dec    	eax
  0x6e37	mov    	eax, edi
  0x6e39	jmp    	0x6e4b
  === BLOCK LINK ===
    0x6e3b
=== CODE BLOCK END ===

=== CODE BLOCK ADDRESS 0x6e3b ===
  0x6e3b	dec    	eax
  0x6e3c	cmp    	edx, eax
  0x6e3e	jne    	0x6e44
  === BLOCK LINK ===
    0x6e40
=== CODE BLOCK END ===

=== CODE BLOCK ADDRESS 0x6e40 ===
  0x6e40	xor    	eax, eax
  0x6e42	jmp    	0x6e4b
  === BLOCK LINK ===
    0x6e44
=== CODE BLOCK END ===

=== CODE BLOCK ADDRESS 0x6e44 ===
  0x6e44	dec    	eax
  0x6e45	mov    	dword ptr [ebx + 0x18], eax
  0x6e48	dec    	eax
  0x6e49	mov    	eax, edx
  0x6e4b	dec    	eax
  === BLOCK LINK ===
    0x6e4c
=== CODE BLOCK END ===

=== CODE BLOCK ADDRESS 0x6e4c ===
  0x6e4c	mov    	ebx, dword ptr [esp + 0x30]
  0x6e50	dec    	eax
  0x6e51	mov    	edi, dword ptr [esp + 0x38]
  0x6e55	dec    	eax
  0x6e56	add    	esp, 0x20
  === BLOCK LINK ===
    0x6e59
=== CODE BLOCK END ===

=== CODE BLOCK ADDRESS 0x6e59 ===
  0x6e59	inc    	ecx
  0x6e5a	pop    	esi
  0x6e5b	ret    	
  0x6e5c	int3   	
  0x6e5d	dec    	eax
  === BLOCK LINK ===
    0x6e5e
=== CODE BLOCK END ===

=== CODE BLOCK ADDRESS 0x2286 ===
  0x2286	dec    	esp
  0x2287	mov    	ecx, dword ptr [ebp - 0x28]
  0x228a	dec    	esp
  0x228b	lea    	eax, [0x819f]
  === BLOCK LINK ===
    0x2291
=== CODE BLOCK END ===

=== CODE BLOCK ADDRESS 0x6e5e ===
  0x6e5e	mov    	ebx, dword ptr [ebx + 0x28]
  0x6e61	dec    	eax
  0x6e62	call   	dword ptr [0x2d80]
  === BLOCK LINK ===
    0x6e68
=== CODE BLOCK END ===

=== CODE BLOCK ADDRESS 0x6e68 ===
  0x6e68	nop    	dword ptr [eax + eax]
  0x6e6d	dec    	esp
  0x6e6e	mov    	ecx, ebx
  0x6e70	dec    	esp
  0x6e71	lea    	eax, [0x4d79]
  === BLOCK LINK ===
    0x6e77
=== CODE BLOCK END ===

=== CODE BLOCK ADDRESS 0x6e77 ===
  0x6e77	mov    	ecx, 1
  0x6e7c	mov    	edx, dword ptr [eax]
  0x6e7e	call   	0x6c3c
  === BLOCK LINK ===
    0x6e83
=== CODE BLOCK END ===

=== CODE BLOCK ADDRESS 0x6e83 ===
  0x6e83	int3   	
  0x6e84	dec    	esp
  0x6e85	mov    	ecx, dword ptr [ebx + 0x28]
  0x6e88	dec    	esp
  0x6e89	lea    	eax, [0x4d49]
  === BLOCK LINK ===
    0x6e8f
=== CODE BLOCK END ===

=== CODE BLOCK ADDRESS 0x6e8f ===
  0x6e8f	mov    	edx, 0xc
  0x6e94	lea    	ecx, [edx - 0xb]
  0x6e97	call   	0x6c3c
  === BLOCK LINK ===
    0x6e9c
=== CODE BLOCK END ===

=== CODE BLOCK ADDRESS 0x6e9c ===
  0x6e9c	int3   	
  0x6e9d	dec    	esp
  0x6e9e	mov    	ecx, dword ptr [ebx + 0x28]
  0x6ea1	dec    	esp
  0x6ea2	lea    	eax, [0x4d30]
  === BLOCK LINK ===
    0x6ea8
=== CODE BLOCK END ===

=== CODE BLOCK ADDRESS 0x6ea8 ===
  0x6ea8	mov    	edx, 0xc
  0x6ead	lea    	ecx, [edx - 0xb]
  0x6eb0	call   	0x6c3c
  === BLOCK LINK ===
    0x6eb5
=== CODE BLOCK END ===

=== CODE BLOCK ADDRESS 0x6eb5 ===
  0x6eb5	int3   	
  0x6eb6	int3   	
  0x6eb7	int3   	
  0x6eb8	int3   	
  0x6eb9	int3   	
  === BLOCK LINK ===
    0x6eba
=== CODE BLOCK END ===

=== CODE BLOCK ADDRESS 0x6eba ===
  0x6eba	int3   	
  0x6ebb	int3   	
  0x6ebc	dec    	eax
  0x6ebd	mov    	eax, esp
  0x6ebf	dec    	eax
  === BLOCK LINK ===
    0x6ec0
=== CODE BLOCK END ===

=== CODE BLOCK ADDRESS 0x6ec0 ===
  0x6ec0	mov    	dword ptr [eax + 0x10], ebx
  0x6ec3	dec    	eax
  0x6ec4	mov    	dword ptr [eax + 0x20], esi
  0x6ec7	dec    	esp
  0x6ec8	mov    	dword ptr [eax + 0x18], eax
  === BLOCK LINK ===
    0x6ecb
=== CODE BLOCK END ===

=== CODE BLOCK ADDRESS 0x6ecb ===
  0x6ecb	dec    	eax
  0x6ecc	mov    	dword ptr [eax + 8], ecx
  0x6ecf	push   	edi
  0x6ed0	dec    	eax
  0x6ed1	sub    	esp, 0x30
  === BLOCK LINK ===
    0x6ed4
=== CODE BLOCK END ===

=== CODE BLOCK ADDRESS 0x6ed4 ===
  0x6ed4	mov    	ecx, 0xfffffff6
  0x6ed9	dec    	eax
  0x6eda	mov    	ebx, edx
  0x6edc	dec    	eax
  0x6edd	call   	dword ptr [0x2c2d]
  === BLOCK LINK ===
    0x6ee3
=== CODE BLOCK END ===

=== CODE BLOCK ADDRESS 0x6ee3 ===
  0x6ee3	nop    	dword ptr [eax + eax]
  0x6ee8	dec    	eax
  0x6ee9	mov    	edi, eax
  0x6eeb	dec    	eax
  0x6eec	cmp    	eax, -1
  === BLOCK LINK ===
    0x6eef
=== CODE BLOCK END ===

=== CODE BLOCK ADDRESS 0x6eef ===
  0x6eef	jne    	0x6ef8
  === BLOCK LINK ===
    0x6ef1
=== CODE BLOCK END ===

=== CODE BLOCK ADDRESS 0x6ef1 ===
  0x6ef1	xor    	ebx, ebx
  0x6ef3	jmp    	0x6ff2
  === BLOCK LINK ===
    0x6ef8
=== CODE BLOCK END ===

=== CODE BLOCK ADDRESS 0x6ef8 ===
  0x6ef8	mov    	ecx, 0xfffffff5
  0x6efd	dec    	eax
  0x6efe	call   	dword ptr [0x2c0c]
  === BLOCK LINK ===
    0x6f04
=== CODE BLOCK END ===

=== CODE BLOCK ADDRESS 0x6f04 ===
  0x6f04	nop    	dword ptr [eax + eax]
  0x6f09	dec    	eax
  0x6f0a	mov    	esi, eax
  0x6f0c	dec    	eax
  0x6f0d	cmp    	eax, -1
  === BLOCK LINK ===
    0x6f10
=== CODE BLOCK END ===

=== CODE BLOCK ADDRESS 0x6f10 ===
  0x6f10	je     	0x6ef1
  === BLOCK LINK ===
    0x6f12
=== CODE BLOCK END ===

=== CODE BLOCK ADDRESS 0x6f12 ===
  0x6f12	dec    	eax
  0x6f13	lea    	edx, [esp + 0x50]
  0x6f17	dec    	eax
  0x6f18	mov    	ecx, edi
  0x6f1a	dec    	eax
  === BLOCK LINK ===
    0x6f1b
=== CODE BLOCK END ===

=== CODE BLOCK ADDRESS 0x6f1b ===
  0x6f1b	call   	dword ptr [0x2b5f]
  === BLOCK LINK ===
    0x6f21
=== CODE BLOCK END ===

=== CODE BLOCK ADDRESS 0x6f21 ===
  0x6f21	nop    	dword ptr [eax + eax]
  0x6f26	test   	eax, eax
  0x6f28	je     	0x6ef1
  === BLOCK LINK ===
    0x6f2a
=== CODE BLOCK END ===

=== CODE BLOCK ADDRESS 0x6f2a ===
  0x6f2a	mov    	edx, dword ptr [esp + 0x50]
  0x6f2e	dec    	eax
  0x6f2f	mov    	ecx, edi
  0x6f31	and    	edx, 0xfffffffb
  0x6f34	or     	edx, 3
  === BLOCK LINK ===
    0x6f37
=== CODE BLOCK END ===

=== CODE BLOCK ADDRESS 0x6f37 ===
  0x6f37	mov    	dword ptr [esp + 0x50], edx
  0x6f3b	dec    	eax
  0x6f3c	call   	dword ptr [0x2b36]
  === BLOCK LINK ===
    0x6f42
=== CODE BLOCK END ===

=== CODE BLOCK ADDRESS 0x6f42 ===
  0x6f42	nop    	dword ptr [eax + eax]
  0x6f47	test   	eax, eax
  0x6f49	je     	0x6ef1
  === BLOCK LINK ===
    0x6f4b
=== CODE BLOCK END ===

=== CODE BLOCK ADDRESS 0x6f4b ===
  0x6f4b	dec    	eax
  0x6f4c	and    	dword ptr [esp + 0x20], 0
  0x6f51	dec    	eax
  0x6f52	lea    	edx, [0x4878]
  0x6f58	inc    	ebp
  === BLOCK LINK ===
    0x6f59
=== CODE BLOCK END ===

=== CODE BLOCK ADDRESS 0x6f59 ===
  0x6f59	xor    	ecx, ecx
  0x6f5b	dec    	eax
  0x6f5c	mov    	ecx, esi
  0x6f5e	inc    	ebp
  0x6f5f	lea    	eax, [ecx + 0x11]
  === BLOCK LINK ===
    0x6f62
=== CODE BLOCK END ===

=== CODE BLOCK ADDRESS 0x6f62 ===
  0x6f62	dec    	eax
  0x6f63	call   	dword ptr [0x2b6f]
  === BLOCK LINK ===
    0x6f69
=== CODE BLOCK END ===

=== CODE BLOCK ADDRESS 0x6f69 ===
  0x6f69	nop    	dword ptr [eax + eax]
  0x6f6e	test   	eax, eax
  0x6f70	je     	0x6ef1
  === BLOCK LINK ===
    0x6f76
=== CODE BLOCK END ===

=== CODE BLOCK ADDRESS 0x6f76 ===
  0x6f76	dec    	eax
  0x6f77	and    	dword ptr [esp + 0x20], 0
  0x6f7c	dec    	esp
  0x6f7d	lea    	ecx, [esp + 0x40]
  0x6f81	inc    	ecx
  === BLOCK LINK ===
    0x6f82
=== CODE BLOCK END ===

=== CODE BLOCK ADDRESS 0x6f82 ===
  0x6f82	mov    	eax, 0x3ff
  0x6f87	dec    	eax
  0x6f88	mov    	edx, ebx
  0x6f8a	dec    	eax
  0x6f8b	mov    	ecx, edi
  === BLOCK LINK ===
    0x6f8d
=== CODE BLOCK END ===

=== CODE BLOCK ADDRESS 0x6f8d ===
  0x6f8d	dec    	eax
  0x6f8e	call   	dword ptr [0x2b34]
  === BLOCK LINK ===
    0x6f94
=== CODE BLOCK END ===

=== CODE BLOCK ADDRESS 0x6f94 ===
  0x6f94	nop    	dword ptr [eax + eax]
  0x6f99	test   	eax, eax
  0x6f9b	je     	0x6ef1
  === BLOCK LINK ===
    0x6fa1
=== CODE BLOCK END ===

=== CODE BLOCK ADDRESS 0x6fa1 ===
  0x6fa1	dec    	eax
  0x6fa2	and    	dword ptr [esp + 0x20], 0
  0x6fa7	dec    	eax
  0x6fa8	lea    	edx, [0x4c26]
  0x6fae	inc    	ebp
  === BLOCK LINK ===
    0x6faf
=== CODE BLOCK END ===

=== CODE BLOCK ADDRESS 0x6faf ===
  0x6faf	xor    	ecx, ecx
  0x6fb1	dec    	eax
  0x6fb2	mov    	ecx, esi
  0x6fb4	inc    	ebp
  0x6fb5	lea    	eax, [ecx + 2]
  === BLOCK LINK ===
    0x6fb8
=== CODE BLOCK END ===

=== CODE BLOCK ADDRESS 0x6fb8 ===
  0x6fb8	dec    	eax
  0x6fb9	call   	dword ptr [0x2b19]
  === BLOCK LINK ===
    0x6fbf
=== CODE BLOCK END ===

=== CODE BLOCK ADDRESS 0x6fbf ===
  0x6fbf	nop    	dword ptr [eax + eax]
  0x6fc4	mov    	eax, dword ptr [esp + 0x40]
  0x6fc8	mov    	byte ptr [eax + ebx], 0
  0x6fcc	mov    	ecx, dword ptr [esp + 0x40]
  0x6fd0	cmp    	ecx, 2
  === BLOCK LINK ===
    0x6fd3
=== CODE BLOCK END ===

=== CODE BLOCK ADDRESS 0x6fd3 ===
  0x6fd3	jbe    	0x6fed
  === BLOCK LINK ===
    0x6fd5
=== CODE BLOCK END ===

=== CODE BLOCK ADDRESS 0x6fd5 ===
  0x6fd5	lea    	eax, [ecx - 2]
  0x6fd8	cmp    	byte ptr [eax + ebx], 0xd
  0x6fdc	mov    	edx, eax
  0x6fde	jne    	0x6fed
  === BLOCK LINK ===
    0x6fe0
=== CODE BLOCK END ===

=== CODE BLOCK ADDRESS 0x6fe0 ===
  0x6fe0	lea    	eax, [ecx - 1]
  0x6fe3	cmp    	byte ptr [eax + ebx], 0xa
  0x6fe7	jne    	0x6fed
  === BLOCK LINK ===
    0x6fe9
=== CODE BLOCK END ===

=== CODE BLOCK ADDRESS 0x6fe9 ===
  0x6fe9	mov    	byte ptr [edx + ebx], 0
  0x6fed	dec    	eax
  0x6fee	test   	ebx, ebx
  0x6ff0	jne    	0x7003
  === BLOCK LINK ===
    0x6ff2
=== CODE BLOCK END ===

=== CODE BLOCK ADDRESS 0x6ff2 ===
  0x6ff2	dec    	eax
  0x6ff3	call   	dword ptr [0x2bef]
  === BLOCK LINK ===
    0x6ff9
=== CODE BLOCK END ===

=== CODE BLOCK ADDRESS 0x6ff9 ===
  0x6ff9	nop    	dword ptr [eax + eax]
  0x6ffe	cmp    	dword ptr [eax], 4
  0x7001	jne    	0x7017
  === BLOCK LINK ===
    0x7003
=== CODE BLOCK END ===

=== CODE BLOCK ADDRESS 0x7003 ===
  0x7003	dec    	eax
  0x7004	mov    	esi, dword ptr [esp + 0x58]
  0x7008	dec    	eax
  0x7009	mov    	eax, ebx
  0x700b	dec    	eax
  === BLOCK LINK ===
    0x700c
=== CODE BLOCK END ===

=== CODE BLOCK ADDRESS 0x700c ===
  0x700c	mov    	ebx, dword ptr [esp + 0x48]
  0x7010	dec    	eax
  0x7011	add    	esp, 0x30
  0x7014	pop    	edi
  0x7015	ret    	
  === BLOCK LINK ===
    0x7016
=== CODE BLOCK END ===

=== CODE BLOCK ADDRESS 0x7016 ===
  0x7016	int3   	
  0x7017	dec    	eax
  0x7018	call   	dword ptr [0x2bca]
  === BLOCK LINK ===
    0x701e
=== CODE BLOCK END ===

=== CODE BLOCK ADDRESS 0x701e ===
  0x701e	nop    	dword ptr [eax + eax]
  0x7023	dec    	esp
  0x7024	lea    	eax, [0x4bd6]
  0x702a	mov    	ecx, 1
  0x702f	mov    	edx, dword ptr [eax]
  === BLOCK LINK ===
    0x7031
=== CODE BLOCK END ===

=== CODE BLOCK ADDRESS 0x7031 ===
  0x7031	call   	0x6c3c
  === BLOCK LINK ===
    0x7036
=== CODE BLOCK END ===

=== CODE BLOCK ADDRESS 0x7036 ===
  0x7036	int3   	
  0x7037	int3   	
  0x7038	int3   	
  0x7039	int3   	
  0x703a	int3   	
  === BLOCK LINK ===
    0x703b
=== CODE BLOCK END ===

=== CODE BLOCK ADDRESS 0x703b ===
  0x703b	int3   	
  0x703c	int3   	
  0x703d	int3   	
  0x703e	int3   	
  0x703f	int3   	
  === BLOCK LINK ===
    0x7040
=== CODE BLOCK END ===

=== CODE BLOCK ADDRESS 0x7040 ===
  0x7040	dec    	eax
  0x7041	sub    	esp, 0x28
  0x7044	call   	0x705c
  === BLOCK LINK ===
    0x7049
=== CODE BLOCK END ===

=== CODE BLOCK ADDRESS 0x7049 ===
  0x7049	dec    	eax
  0x704a	or     	dword ptr [eax], 0x20
  0x704d	xor    	eax, eax
  0x704f	dec    	eax
  0x7050	add    	esp, 0x28
  === BLOCK LINK ===
    0x7053
=== CODE BLOCK END ===

=== CODE BLOCK ADDRESS 0x7053 ===
  0x7053	ret    	
  0x7054	int3   	
  0x7055	int3   	
  0x7056	int3   	
  0x7057	int3   	
  === BLOCK LINK ===
    0x7058
=== CODE BLOCK END ===

=== CODE BLOCK ADDRESS 0x7058 ===
  0x7058	int3   	
  0x7059	int3   	
  0x705a	int3   	
  0x705b	int3   	
  0x705c	dec    	eax
  === BLOCK LINK ===
    0x705d
=== CODE BLOCK END ===

=== CODE BLOCK ADDRESS 0x705d ===
  0x705d	lea    	eax, [0x7fcd]
  0x7063	ret    	
  0x7064	int3   	
  0x7065	int3   	
  0x7066	int3   	
  === BLOCK LINK ===
    0x7067
=== CODE BLOCK END ===

=== CODE BLOCK ADDRESS 0x7067 ===
  0x7067	int3   	
  0x7068	int3   	
  0x7069	int3   	
  0x706a	int3   	
  0x706b	int3   	
  === BLOCK LINK ===
    0x706c
=== CODE BLOCK END ===

=== CODE BLOCK ADDRESS 0x706c ===
  0x706c	int3   	
  0x706d	int3   	
  0x706e	int3   	
  0x706f	int3   	
  0x7070	dec    	eax
  === BLOCK LINK ===
    0x7071
=== CODE BLOCK END ===

=== CODE BLOCK ADDRESS 0x7071 ===
  0x7071	sub    	esp, 0x28
  0x7074	call   	0x705c
  === BLOCK LINK ===
    0x7079
=== CODE BLOCK END ===

=== CODE BLOCK ADDRESS 0x7079 ===
  0x7079	dec    	eax
  0x707a	or     	dword ptr [eax], 4
  0x707d	call   	0x7094
  === BLOCK LINK ===
    0x7082
=== CODE BLOCK END ===

=== CODE BLOCK ADDRESS 0x7082 ===
  0x7082	dec    	eax
  0x7083	or     	dword ptr [eax], 2
  0x7086	xor    	eax, eax
  0x7088	dec    	eax
  0x7089	add    	esp, 0x28
  === BLOCK LINK ===
    0x708c
=== CODE BLOCK END ===

=== CODE BLOCK ADDRESS 0x708c ===
  0x708c	ret    	
  0x708d	int3   	
  0x708e	int3   	
  0x708f	int3   	
  0x7090	int3   	
  === BLOCK LINK ===
    0x7091
=== CODE BLOCK END ===

=== CODE BLOCK ADDRESS 0x229b ===
  0x229b	dec    	eax
  0x229c	mov    	ecx, dword ptr [ebp + 0x38]
  0x229f	dec    	eax
  0x22a0	call   	dword ptr [0x7ca2]
  === BLOCK LINK ===
    0x22a6
=== CODE BLOCK END ===

=== CODE BLOCK ADDRESS 0x7091 ===
  0x7091	int3   	
  0x7092	int3   	
  0x7093	int3   	
  0x7094	dec    	eax
  0x7095	lea    	eax, [0x7f9d]
  === BLOCK LINK ===
    0x709b
=== CODE BLOCK END ===

=== CODE BLOCK ADDRESS 0x709b ===
  0x709b	ret    	
  0x709c	int3   	
  0x709d	int3   	
  0x709e	int3   	
  0x709f	int3   	
  === BLOCK LINK ===
    0x70a0
=== CODE BLOCK END ===

=== CODE BLOCK ADDRESS 0x70a0 ===
  0x70a0	int3   	
  0x70a1	int3   	
  0x70a2	int3   	
  0x70a3	int3   	
  0x70a4	int3   	
  === BLOCK LINK ===
    0x70a5
=== CODE BLOCK END ===

=== CODE BLOCK ADDRESS 0x70a5 ===
  0x70a5	int3   	
  0x70a6	int3   	
  0x70a7	int3   	
  0x70a8	int3   	
  0x70a9	int3   	
  === BLOCK LINK ===
    0x70aa
=== CODE BLOCK END ===

=== CODE BLOCK ADDRESS 0x70aa ===
  0x70aa	int3   	
  0x70ab	int3   	
  0x70ac	int3   	
  0x70ad	int3   	
  0x70ae	int3   	
  === BLOCK LINK ===
    0x70af
=== CODE BLOCK END ===

=== CODE BLOCK ADDRESS 0x70af ===
  0x70af	int3   	
  0x70b0	dec    	eax
  0x70b1	sub    	esp, 0x28
  0x70b4	call   	0x705c
  === BLOCK LINK ===
    0x70b9
=== CODE BLOCK END ===

=== CODE BLOCK ADDRESS 0x70b9 ===
  0x70b9	dec    	eax
  0x70ba	or     	dword ptr [eax], 0x18
  0x70bd	call   	0x7094
  === BLOCK LINK ===
    0x70c2
=== CODE BLOCK END ===

=== CODE BLOCK ADDRESS 0x70c2 ===
  0x70c2	dec    	eax
  0x70c3	or     	dword ptr [eax], 4
  0x70c6	xor    	eax, eax
  0x70c8	dec    	eax
  0x70c9	add    	esp, 0x28
  === BLOCK LINK ===
    0x70cc
=== CODE BLOCK END ===

=== CODE BLOCK ADDRESS 0x70cc ===
  0x70cc	ret    	
  0x70cd	int3   	
  0x70ce	int3   	
  0x70cf	int3   	
  0x70d0	int3   	
  === BLOCK LINK ===
    0x70d1
=== CODE BLOCK END ===

=== CODE BLOCK ADDRESS 0x22bf ===
  0x22bf	dec    	eax
  0x22c0	mov    	ecx, dword ptr [ebp + 0x38]
  0x22c3	dec    	eax
  0x22c4	call   	dword ptr [0x7c7e]
  === BLOCK LINK ===
    0x22ca
=== CODE BLOCK END ===

=== CODE BLOCK ADDRESS 0x70d1 ===
  0x70d1	int3   	
  0x70d2	int3   	
  0x70d3	int3   	
  0x70d4	int3   	
  0x70d5	int3   	
  === BLOCK LINK ===
    0x70d6
=== CODE BLOCK END ===

=== CODE BLOCK ADDRESS 0x70d6 ===
  0x70d6	int3   	
  0x70d7	int3   	
  0x70d8	int3   	
  0x70d9	int3   	
  0x70da	int3   	
  === BLOCK LINK ===
    0x70db
=== CODE BLOCK END ===

=== CODE BLOCK ADDRESS 0x70db ===
  0x70db	int3   	
  0x70dc	int3   	
  0x70dd	int3   	
  0x70de	int3   	
  0x70df	int3   	
  === BLOCK LINK ===
    0x70e0
=== CODE BLOCK END ===

=== CODE BLOCK ADDRESS 0x70e0 ===
  0x70e0	inc    	eax
  0x70e1	push   	ebx
  0x70e2	dec    	eax
  0x70e3	sub    	esp, 0x20
  0x70e6	mov    	ecx, 1
  === BLOCK LINK ===
    0x70eb
=== CODE BLOCK END ===

=== CODE BLOCK ADDRESS 0x70eb ===
  0x70eb	call   	0x7ff6
  === BLOCK LINK ===
    0x70f0
=== CODE BLOCK END ===

=== CODE BLOCK ADDRESS 0x70f0 ===
  0x70f0	call   	0x7a2c
  === BLOCK LINK ===
    0x70f5
=== CODE BLOCK END ===

=== CODE BLOCK ADDRESS 0x70f5 ===
  0x70f5	mov    	ecx, eax
  0x70f7	call   	0x8002
  === BLOCK LINK ===
    0x70fc
=== CODE BLOCK END ===

=== CODE BLOCK ADDRESS 0x70fc ===
  0x70fc	call   	0x7a20
  === BLOCK LINK ===
    0x7101
=== CODE BLOCK END ===

=== CODE BLOCK ADDRESS 0x7101 ===
  0x7101	mov    	ebx, eax
  0x7103	call   	0x7f5a
  === BLOCK LINK ===
    0x7108
=== CODE BLOCK END ===

=== CODE BLOCK ADDRESS 0x7108 ===
  0x7108	mov    	ecx, 1
  0x710d	mov    	dword ptr [eax], ebx
  0x710f	call   	0x7734
  === BLOCK LINK ===
    0x7114
=== CODE BLOCK END ===

=== CODE BLOCK ADDRESS 0x7114 ===
  0x7114	test   	al, al
  0x7116	je     	0x7176
  === BLOCK LINK ===
    0x7118
=== CODE BLOCK END ===

=== CODE BLOCK ADDRESS 0x7118 ===
  0x7118	call   	0x7cd0
  === BLOCK LINK ===
    0x711d
=== CODE BLOCK END ===

=== CODE BLOCK ADDRESS 0x711d ===
  0x711d	dec    	eax
  0x711e	lea    	ecx, [0xbfc]
  0x7124	call   	0x7940
  === BLOCK LINK ===
    0x7129
=== CODE BLOCK END ===

=== CODE BLOCK ADDRESS 0x7129 ===
  0x7129	call   	0x7a14
  === BLOCK LINK ===
    0x712e
=== CODE BLOCK END ===

=== CODE BLOCK ADDRESS 0x712e ===
  0x712e	mov    	ecx, eax
  0x7130	call   	0x7f96
  === BLOCK LINK ===
    0x7135
=== CODE BLOCK END ===

=== CODE BLOCK ADDRESS 0x7135 ===
  0x7135	test   	eax, eax
  0x7137	jne    	0x7176
  === BLOCK LINK ===
    0x7139
=== CODE BLOCK END ===

=== CODE BLOCK ADDRESS 0x7139 ===
  0x7139	call   	0x7a38
  === BLOCK LINK ===
    0x713e
=== CODE BLOCK END ===

=== CODE BLOCK ADDRESS 0x713e ===
  0x713e	call   	0x7a60
  === BLOCK LINK ===
    0x7143
=== CODE BLOCK END ===

=== CODE BLOCK ADDRESS 0x7143 ===
  0x7143	call   	0x7a60
  === BLOCK LINK ===
    0x7148
=== CODE BLOCK END ===

=== CODE BLOCK ADDRESS 0x7148 ===
  0x7148	call   	0x7a20
  === BLOCK LINK ===
    0x714d
=== CODE BLOCK END ===

=== CODE BLOCK ADDRESS 0x714d ===
  0x714d	mov    	ecx, eax
  0x714f	call   	0x7f8a
  === BLOCK LINK ===
    0x7154
=== CODE BLOCK END ===

=== CODE BLOCK ADDRESS 0x7154 ===
  0x7154	call   	0x7a4c
  === BLOCK LINK ===
    0x7159
=== CODE BLOCK END ===

=== CODE BLOCK ADDRESS 0x7159 ===
  0x7159	test   	al, al
  0x715b	je     	0x7162
  === BLOCK LINK ===
    0x715d
=== CODE BLOCK END ===

=== CODE BLOCK ADDRESS 0x715d ===
  0x715d	call   	0x7fc6
  === BLOCK LINK ===
    0x7162
=== CODE BLOCK END ===

=== CODE BLOCK ADDRESS 0x7162 ===
  0x7162	call   	0x7a20
  === BLOCK LINK ===
    0x7167
=== CODE BLOCK END ===

=== CODE BLOCK ADDRESS 0x7167 ===
  0x7167	call   	0x7c14
  === BLOCK LINK ===
    0x716c
=== CODE BLOCK END ===

=== CODE BLOCK ADDRESS 0x716c ===
  0x716c	test   	eax, eax
  0x716e	jne    	0x7176
  === BLOCK LINK ===
    0x7170
=== CODE BLOCK END ===

=== CODE BLOCK ADDRESS 0x7170 ===
  0x7170	dec    	eax
  0x7171	add    	esp, 0x20
  0x7174	pop    	ebx
  0x7175	ret    	
  0x7176	mov    	ecx, 7
  === BLOCK LINK ===
    0x717b
=== CODE BLOCK END ===

=== CODE BLOCK ADDRESS 0x717b ===
  0x717b	call   	0x7ac0
  === BLOCK LINK ===
    0x7180
=== CODE BLOCK END ===

=== CODE BLOCK ADDRESS 0x7180 ===
  0x7180	int3   	
  0x7181	int3   	
  0x7182	int3   	
  0x7183	int3   	
  0x7184	int3   	
  === BLOCK LINK ===
    0x7185
=== CODE BLOCK END ===

=== CODE BLOCK ADDRESS 0x7185 ===
  0x7185	int3   	
  0x7186	int3   	
  0x7187	int3   	
  0x7188	int3   	
  0x7189	int3   	
  === BLOCK LINK ===
    0x718a
=== CODE BLOCK END ===

=== CODE BLOCK ADDRESS 0x718a ===
  0x718a	int3   	
  0x718b	int3   	
  0x718c	int3   	
  0x718d	int3   	
  0x718e	int3   	
  === BLOCK LINK ===
    0x718f
=== CODE BLOCK END ===

=== CODE BLOCK ADDRESS 0x718f ===
  0x718f	int3   	
  0x7190	dec    	eax
  0x7191	sub    	esp, 0x28
  0x7194	call   	0x7a6c
  === BLOCK LINK ===
    0x7199
=== CODE BLOCK END ===

=== CODE BLOCK ADDRESS 0x7199 ===
  0x7199	xor    	eax, eax
  0x719b	dec    	eax
  0x719c	add    	esp, 0x28
  0x719f	ret    	
  0x71a0	int3   	
  === BLOCK LINK ===
    0x71a1
=== CODE BLOCK END ===

=== CODE BLOCK ADDRESS 0x22e3 ===
  0x22e3	dec    	eax
  0x22e4	mov    	ecx, dword ptr [ebp + 0x38]
  0x22e7	dec    	eax
  0x22e8	call   	dword ptr [0x7c5a]
  === BLOCK LINK ===
    0x22ee
=== CODE BLOCK END ===

=== CODE BLOCK ADDRESS 0x71a1 ===
  0x71a1	int3   	
  0x71a2	int3   	
  0x71a3	int3   	
  0x71a4	int3   	
  0x71a5	int3   	
  === BLOCK LINK ===
    0x71a6
=== CODE BLOCK END ===

=== CODE BLOCK ADDRESS 0x71a6 ===
  0x71a6	int3   	
  0x71a7	int3   	
  0x71a8	int3   	
  0x71a9	int3   	
  0x71aa	int3   	
  === BLOCK LINK ===
    0x71ab
=== CODE BLOCK END ===

=== CODE BLOCK ADDRESS 0x71ab ===
  0x71ab	int3   	
  0x71ac	int3   	
  0x71ad	int3   	
  0x71ae	int3   	
  0x71af	int3   	
  === BLOCK LINK ===
    0x71b0
=== CODE BLOCK END ===

=== CODE BLOCK ADDRESS 0x71b0 ===
  0x71b0	dec    	eax
  0x71b1	sub    	esp, 0x28
  0x71b4	call   	0x7c78
  === BLOCK LINK ===
    0x71b9
=== CODE BLOCK END ===

=== CODE BLOCK ADDRESS 0x71b9 ===
  0x71b9	call   	0x7a20
  === BLOCK LINK ===
    0x71be
=== CODE BLOCK END ===

=== CODE BLOCK ADDRESS 0x71be ===
  0x71be	mov    	ecx, eax
  0x71c0	dec    	eax
  0x71c1	add    	esp, 0x28
  0x71c4	jmp    	0x800e
  === BLOCK LINK ===
    0x71c9
=== CODE BLOCK END ===

=== CODE BLOCK ADDRESS 0x71c9 ===
  0x71c9	int3   	
  0x71ca	int3   	
  0x71cb	int3   	
  0x71cc	int3   	
  0x71cd	int3   	
  === BLOCK LINK ===
    0x71ce
=== CODE BLOCK END ===

=== CODE BLOCK ADDRESS 0x71ce ===
  0x71ce	int3   	
  0x71cf	int3   	
  0x71d0	dec    	eax
  0x71d1	mov    	dword ptr [esp + 8], ebx
  0x71d5	dec    	eax
  === BLOCK LINK ===
    0x71d6
=== CODE BLOCK END ===

=== CODE BLOCK ADDRESS 0x71d6 ===
  0x71d6	mov    	dword ptr [esp + 0x10], esi
  0x71da	push   	edi
  0x71db	dec    	eax
  0x71dc	sub    	esp, 0x30
  0x71df	mov    	ecx, 1
  === BLOCK LINK ===
    0x71e4
=== CODE BLOCK END ===

=== CODE BLOCK ADDRESS 0x71e4 ===
  0x71e4	call   	0x76e4
  === BLOCK LINK ===
    0x71e9
=== CODE BLOCK END ===

=== CODE BLOCK ADDRESS 0x71e9 ===
  0x71e9	test   	al, al
  0x71eb	je     	0x7327
  === BLOCK LINK ===
    0x71f1
=== CODE BLOCK END ===

=== CODE BLOCK ADDRESS 0x71f1 ===
  0x71f1	inc    	eax
  0x71f2	xor    	dh, dh
  0x71f4	inc    	eax
  0x71f5	mov    	byte ptr [esp + 0x20], dh
  0x71f9	call   	0x76a4
  === BLOCK LINK ===
    0x71fe
=== CODE BLOCK END ===

=== CODE BLOCK ADDRESS 0x71fe ===
  0x71fe	mov    	bl, al
  0x7200	mov    	ecx, dword ptr [0x83ae]
  0x7206	cmp    	ecx, 1
  0x7209	je     	0x7332
  === BLOCK LINK ===
    0x720f
=== CODE BLOCK END ===

=== CODE BLOCK ADDRESS 0x720f ===
  0x720f	test   	ecx, ecx
  0x7211	jne    	0x725d
  === BLOCK LINK ===
    0x7213
=== CODE BLOCK END ===

=== CODE BLOCK ADDRESS 0x7213 ===
  0x7213	mov    	dword ptr [0x8397], 1
  0x721d	dec    	eax
  0x721e	lea    	edx, [0x2f6c]
  0x7224	dec    	eax
  0x7225	lea    	ecx, [0x2f35]
  === BLOCK LINK ===
    0x722b
=== CODE BLOCK END ===

=== CODE BLOCK ADDRESS 0x722b ===
  0x722b	call   	0x7f12
  === BLOCK LINK ===
    0x7230
=== CODE BLOCK END ===

=== CODE BLOCK ADDRESS 0x7230 ===
  0x7230	test   	eax, eax
  0x7232	je     	0x723e
  === BLOCK LINK ===
    0x7234
=== CODE BLOCK END ===

=== CODE BLOCK ADDRESS 0x7234 ===
  0x7234	mov    	eax, 0xff
  0x7239	jmp    	0x7317
  === BLOCK LINK ===
    0x723e
=== CODE BLOCK END ===

=== CODE BLOCK ADDRESS 0x723e ===
  0x723e	dec    	eax
  0x723f	lea    	edx, [0x2f13]
  0x7245	dec    	eax
  0x7246	lea    	ecx, [0x2efc]
  0x724c	call   	0x7f06
  === BLOCK LINK ===
    0x7251
=== CODE BLOCK END ===

=== CODE BLOCK ADDRESS 0x7251 ===
  0x7251	mov    	dword ptr [0x8359], 2
  0x725b	jmp    	0x7265
  === BLOCK LINK ===
    0x725d
=== CODE BLOCK END ===

=== CODE BLOCK ADDRESS 0x725d ===
  0x725d	inc    	eax
  0x725e	mov    	dh, 1
  0x7260	inc    	eax
  0x7261	mov    	byte ptr [esp + 0x20], dh
  0x7265	mov    	cl, bl
  === BLOCK LINK ===
    0x7267
=== CODE BLOCK END ===

=== CODE BLOCK ADDRESS 0x7267 ===
  0x7267	call   	0x788c
  === BLOCK LINK ===
    0x726c
=== CODE BLOCK END ===

=== CODE BLOCK ADDRESS 0x726c ===
  0x726c	call   	0x7a90
  === BLOCK LINK ===
    0x7271
=== CODE BLOCK END ===

=== CODE BLOCK ADDRESS 0x7271 ===
  0x7271	dec    	eax
  0x7272	mov    	ebx, eax
  0x7274	dec    	eax
  0x7275	cmp    	dword ptr [eax], 0
  0x7278	je     	0x7298
  === BLOCK LINK ===
    0x727a
=== CODE BLOCK END ===

=== CODE BLOCK ADDRESS 0x727a ===
  0x727a	dec    	eax
  0x727b	mov    	ecx, eax
  0x727d	call   	0x77ec
  === BLOCK LINK ===
    0x7282
=== CODE BLOCK END ===

=== CODE BLOCK ADDRESS 0x7282 ===
  0x7282	test   	al, al
  0x7284	je     	0x7298
  === BLOCK LINK ===
    0x7286
=== CODE BLOCK END ===

=== CODE BLOCK ADDRESS 0x7286 ===
  0x7286	inc    	ebp
  0x7287	xor    	eax, eax
  0x7289	inc    	ecx
  0x728a	lea    	edx, [eax + 2]
  0x728d	xor    	ecx, ecx
  === BLOCK LINK ===
    0x728f
=== CODE BLOCK END ===

=== CODE BLOCK ADDRESS 0x728f ===
  0x728f	dec    	eax
  0x7290	mov    	eax, dword ptr [ebx]
  0x7292	call   	dword ptr [0x2ea8]
  === BLOCK LINK ===
    0x7298
=== CODE BLOCK END ===

=== CODE BLOCK ADDRESS 0x7298 ===
  0x7298	call   	0x7aa0
  === BLOCK LINK ===
    0x729d
=== CODE BLOCK END ===

=== CODE BLOCK ADDRESS 0x729d ===
  0x729d	dec    	eax
  0x729e	mov    	ebx, eax
  0x72a0	dec    	eax
  0x72a1	cmp    	dword ptr [eax], 0
  0x72a4	je     	0x72ba
  === BLOCK LINK ===
    0x72a6
=== CODE BLOCK END ===

=== CODE BLOCK ADDRESS 0x72a6 ===
  0x72a6	dec    	eax
  0x72a7	mov    	ecx, eax
  0x72a9	call   	0x77ec
  === BLOCK LINK ===
    0x72ae
=== CODE BLOCK END ===

=== CODE BLOCK ADDRESS 0x72ae ===
  0x72ae	test   	al, al
  0x72b0	je     	0x72ba
  === BLOCK LINK ===
    0x72b2
=== CODE BLOCK END ===

=== CODE BLOCK ADDRESS 0x72b2 ===
  0x72b2	dec    	eax
  0x72b3	mov    	ecx, dword ptr [ebx]
  0x72b5	call   	0x7f2a
  === BLOCK LINK ===
    0x72ba
=== CODE BLOCK END ===

=== CODE BLOCK ADDRESS 0x72ba ===
  0x72ba	call   	0x7fba
  === BLOCK LINK ===
    0x72bf
=== CODE BLOCK END ===

=== CODE BLOCK ADDRESS 0x72bf ===
  0x72bf	dec    	eax
  0x72c0	mov    	edi, eax
  0x72c2	call   	0x7f4e
  === BLOCK LINK ===
    0x72c7
=== CODE BLOCK END ===

=== CODE BLOCK ADDRESS 0x72c7 ===
  0x72c7	dec    	eax
  0x72c8	mov    	ebx, dword ptr [eax]
  0x72ca	call   	0x7f42
  === BLOCK LINK ===
    0x72cf
=== CODE BLOCK END ===

=== CODE BLOCK ADDRESS 0x72cf ===
  0x72cf	dec    	esp
  0x72d0	mov    	eax, edi
  0x72d2	dec    	eax
  0x72d3	mov    	edx, ebx
  0x72d5	mov    	ecx, dword ptr [eax]
  === BLOCK LINK ===
    0x72d7
=== CODE BLOCK END ===

=== CODE BLOCK ADDRESS 0x72d7 ===
  0x72d7	call   	0x1008
  === BLOCK LINK ===
    0x72dc
=== CODE BLOCK END ===

=== CODE BLOCK ADDRESS 0x72dc ===
  0x72dc	mov    	ebx, eax
  0x72de	call   	0x7c20
  === BLOCK LINK ===
    0x72e3
=== CODE BLOCK END ===

=== CODE BLOCK ADDRESS 0x72e3 ===
  0x72e3	test   	al, al
  0x72e5	je     	0x733c
  === BLOCK LINK ===
    0x72e7
=== CODE BLOCK END ===

=== CODE BLOCK ADDRESS 0x72e7 ===
  0x72e7	inc    	eax
  0x72e8	test   	dh, dh
  0x72ea	jne    	0x72f1
  === BLOCK LINK ===
    0x72ec
=== CODE BLOCK END ===

=== CODE BLOCK ADDRESS 0x72ec ===
  0x72ec	call   	0x7f7e
  === BLOCK LINK ===
    0x72f1
=== CODE BLOCK END ===

=== CODE BLOCK ADDRESS 0x72f1 ===
  0x72f1	xor    	edx, edx
  0x72f3	mov    	cl, 1
  0x72f5	call   	0x78b8
  === BLOCK LINK ===
    0x72fa
=== CODE BLOCK END ===

=== CODE BLOCK ADDRESS 0x72fa ===
  0x72fa	mov    	eax, ebx
  0x72fc	jmp    	0x7317
  === BLOCK LINK ===
    0x72fe
=== CODE BLOCK END ===

=== CODE BLOCK ADDRESS 0x72fe ===
  0x72fe	mov    	ebx, eax
  0x7300	call   	0x7c20
  === BLOCK LINK ===
    0x7305
=== CODE BLOCK END ===

=== CODE BLOCK ADDRESS 0x7305 ===
  0x7305	test   	al, al
  0x7307	je     	0x7344
  === BLOCK LINK ===
    0x7309
=== CODE BLOCK END ===

=== CODE BLOCK ADDRESS 0x7309 ===
  0x7309	cmp    	byte ptr [esp + 0x20], 0
  0x730e	jne    	0x7315
  === BLOCK LINK ===
    0x7310
=== CODE BLOCK END ===

=== CODE BLOCK ADDRESS 0x7310 ===
  0x7310	call   	0x7f1e
  === BLOCK LINK ===
    0x7315
=== CODE BLOCK END ===

=== CODE BLOCK ADDRESS 0x7315 ===
  0x7315	mov    	eax, ebx
  0x7317	dec    	eax
  0x7318	mov    	ebx, dword ptr [esp + 0x40]
  0x731c	dec    	eax
  0x731d	mov    	esi, dword ptr [esp + 0x48]
  === BLOCK LINK ===
    0x7321
=== CODE BLOCK END ===

=== CODE BLOCK ADDRESS 0x7321 ===
  0x7321	dec    	eax
  0x7322	add    	esp, 0x30
  0x7325	pop    	edi
  0x7326	ret    	
  0x7327	mov    	ecx, 7
  === BLOCK LINK ===
    0x732c
=== CODE BLOCK END ===

=== CODE BLOCK ADDRESS 0x732c ===
  0x732c	call   	0x7ac0
  === BLOCK LINK ===
    0x7331
=== CODE BLOCK END ===

=== CODE BLOCK ADDRESS 0x7331 ===
  0x7331	nop    	
  0x7332	mov    	ecx, 7
  0x7337	call   	0x7ac0
  === BLOCK LINK ===
    0x733c
=== CODE BLOCK END ===

=== CODE BLOCK ADDRESS 0x733c ===
  0x733c	mov    	ecx, ebx
  0x733e	call   	0x801a
  === BLOCK LINK ===
    0x7343
=== CODE BLOCK END ===

=== CODE BLOCK ADDRESS 0x7343 ===
  0x7343	nop    	
  0x7344	mov    	ecx, ebx
  0x7346	call   	0x7fae
  === BLOCK LINK ===
    0x734b
=== CODE BLOCK END ===

=== CODE BLOCK ADDRESS 0x734b ===
  0x734b	nop    	
  0x734c	int3   	
  0x734d	int3   	
  0x734e	int3   	
  0x734f	int3   	
  === BLOCK LINK ===
    0x7350
=== CODE BLOCK END ===

=== CODE BLOCK ADDRESS 0x7350 ===
  0x7350	int3   	
  0x7351	int3   	
  0x7352	int3   	
  0x7353	int3   	
  0x7354	int3   	
  === BLOCK LINK ===
    0x7355
=== CODE BLOCK END ===

=== CODE BLOCK ADDRESS 0x7355 ===
  0x7355	int3   	
  0x7356	int3   	
  0x7357	int3   	
  0x7358	int3   	
  0x7359	int3   	
  === BLOCK LINK ===
    0x735a
=== CODE BLOCK END ===

=== CODE BLOCK ADDRESS 0x735a ===
  0x735a	int3   	
  0x735b	int3   	
  0x735c	int3   	
  0x735d	int3   	
  0x735e	int3   	
  === BLOCK LINK ===
    0x735f
=== CODE BLOCK END ===

=== CODE BLOCK ADDRESS 0x735f ===
  0x735f	int3   	
  0x7360	dec    	eax
  0x7361	sub    	esp, 0x28
  0x7364	call   	0x7960
  === BLOCK LINK ===
    0x7369
=== CODE BLOCK END ===

=== CODE BLOCK ADDRESS 0x7369 ===
  0x7369	dec    	eax
  0x736a	add    	esp, 0x28
  0x736d	jmp    	0x71d0
  === BLOCK LINK ===
    0x7372
=== CODE BLOCK END ===

=== CODE BLOCK ADDRESS 0x7372 ===
  0x7372	int3   	
  0x7373	int3   	
  0x7374	int3   	
  0x7375	int3   	
  0x7376	int3   	
  === BLOCK LINK ===
    0x7377
=== CODE BLOCK END ===

=== CODE BLOCK ADDRESS 0x7377 ===
  0x7377	int3   	
  0x7378	int3   	
  0x7379	int3   	
  0x737a	int3   	
  0x737b	int3   	
  === BLOCK LINK ===
    0x737c
=== CODE BLOCK END ===

=== CODE BLOCK ADDRESS 0x737c ===
  0x737c	int3   	
  0x737d	int3   	
  0x737e	int3   	
  0x737f	int3   	
  0x7380	int3   	
  === BLOCK LINK ===
    0x7381
=== CODE BLOCK END ===

=== CODE BLOCK ADDRESS 0x7381 ===
  0x7381	int3   	
  0x7382	int3   	
  0x7383	int3   	
  0x7384	int3   	
  0x7385	int3   	
  === BLOCK LINK ===
    0x7386
=== CODE BLOCK END ===

=== CODE BLOCK ADDRESS 0x7386 ===
  0x7386	nop    	word ptr [eax + eax]
  0x7390	dec    	eax
  0x7391	cmp    	ecx, dword ptr [0x7c69]
  0x7397	bnd jne  	0x73ac
  0x739a	dec    	eax
  === BLOCK LINK ===
    0x739b
=== CODE BLOCK END ===

=== CODE BLOCK ADDRESS 0x739b ===
  0x739b	rol    	ecx, 0x10
  0x739e	test   	cx, 0xffff
  0x73a3	bnd jne  	0x73a8
  0x73a6	bnd ret  	
  0x73a8	dec    	eax
  === BLOCK LINK ===
    0x73a9
=== CODE BLOCK END ===

=== CODE BLOCK ADDRESS 0x73a9 ===
  0x73a9	ror    	ecx, 0x10
  0x73ac	jmp    	0x7420
  === BLOCK LINK ===
    0x73b1
=== CODE BLOCK END ===

=== CODE BLOCK ADDRESS 0x73b1 ===
  0x73b1	int3   	
  0x73b2	int3   	
  0x73b3	int3   	
  0x73b4	int3   	
  0x73b5	int3   	
  === BLOCK LINK ===
    0x73b6
=== CODE BLOCK END ===

=== CODE BLOCK ADDRESS 0x73b6 ===
  0x73b6	int3   	
  0x73b7	int3   	
  0x73b8	inc    	eax
  0x73b9	push   	ebx
  0x73ba	dec    	eax
  === BLOCK LINK ===
    0x73bb
=== CODE BLOCK END ===

=== CODE BLOCK ADDRESS 0x73bb ===
  0x73bb	sub    	esp, 0x20
  0x73be	dec    	eax
  0x73bf	mov    	ebx, ecx
  0x73c1	call   	dword ptr [0x26c9]
  === BLOCK LINK ===
    0x73c7
=== CODE BLOCK END ===

=== CODE BLOCK ADDRESS 0x73c7 ===
  0x73c7	mov    	ecx, 1
  0x73cc	mov    	dword ptr [0x81de], eax
  0x73d2	call   	0x7ab0
  === BLOCK LINK ===
    0x73d7
=== CODE BLOCK END ===

=== CODE BLOCK ADDRESS 0x73d7 ===
  0x73d7	xor    	ecx, ecx
  0x73d9	call   	dword ptr [0x26d1]
  === BLOCK LINK ===
    0x73df
=== CODE BLOCK END ===

=== CODE BLOCK ADDRESS 0x73df ===
  0x73df	dec    	eax
  0x73e0	mov    	ecx, ebx
  0x73e2	call   	dword ptr [0x26b8]
  === BLOCK LINK ===
    0x73e8
=== CODE BLOCK END ===

=== CODE BLOCK ADDRESS 0x73e8 ===
  0x73e8	cmp    	dword ptr [0x81c1], 0
  0x73ef	jne    	0x73fb
  === BLOCK LINK ===
    0x73f1
=== CODE BLOCK END ===

=== CODE BLOCK ADDRESS 0x73f1 ===
  0x73f1	mov    	ecx, 1
  0x73f6	call   	0x7ab0
  === BLOCK LINK ===
    0x73fb
=== CODE BLOCK END ===

=== CODE BLOCK ADDRESS 0x73fb ===
  0x73fb	call   	dword ptr [0x2737]
  === BLOCK LINK ===
    0x7401
=== CODE BLOCK END ===

=== CODE BLOCK ADDRESS 0x7401 ===
  0x7401	dec    	eax
  0x7402	mov    	ecx, eax
  0x7404	mov    	edx, 0xc0000409
  0x7409	dec    	eax
  0x740a	add    	esp, 0x20
  === BLOCK LINK ===
    0x740d
=== CODE BLOCK END ===

=== CODE BLOCK ADDRESS 0x740d ===
  0x740d	pop    	ebx
  0x740e	dec    	eax
  0x740f	jmp    	dword ptr [0x271b]
  === BLOCK LINK ===
    0x7415
=== CODE BLOCK END ===

=== CODE BLOCK ADDRESS 0x7415 ===
  0x7415	int3   	
  0x7416	int3   	
  0x7417	int3   	
  0x7418	int3   	
  0x7419	int3   	
  === BLOCK LINK ===
    0x741a
=== CODE BLOCK END ===

=== CODE BLOCK ADDRESS 0x741a ===
  0x741a	int3   	
  0x741b	int3   	
  0x741c	int3   	
  0x741d	int3   	
  0x741e	int3   	
  === BLOCK LINK ===
    0x741f
=== CODE BLOCK END ===

=== CODE BLOCK ADDRESS 0x741f ===
  0x741f	int3   	
  0x7420	dec    	eax
  0x7421	mov    	dword ptr [esp + 8], ecx
  0x7425	dec    	eax
  0x7426	sub    	esp, 0x38
  === BLOCK LINK ===
    0x7429
=== CODE BLOCK END ===

=== CODE BLOCK ADDRESS 0x7429 ===
  0x7429	mov    	ecx, 0x17
  0x742e	call   	dword ptr [0x271c]
  === BLOCK LINK ===
    0x7434
=== CODE BLOCK END ===

=== CODE BLOCK ADDRESS 0x7434 ===
  0x7434	test   	eax, eax
  0x7436	je     	0x743f
  === BLOCK LINK ===
    0x7438
=== CODE BLOCK END ===

=== CODE BLOCK ADDRESS 0x7438 ===
  0x7438	mov    	ecx, 2
  0x743d	int    	0x29
  0x743f	dec    	eax
  0x7440	lea    	ecx, [0x7c9a]
  0x7446	call   	0x762c
  === BLOCK LINK ===
    0x744b
=== CODE BLOCK END ===

=== CODE BLOCK ADDRESS 0x744b ===
  0x744b	dec    	eax
  0x744c	mov    	eax, dword ptr [esp + 0x38]
  0x7450	dec    	eax
  0x7451	mov    	dword ptr [0x7d81], eax
  0x7457	dec    	eax
  === BLOCK LINK ===
    0x7458
=== CODE BLOCK END ===

=== CODE BLOCK ADDRESS 0x7458 ===
  0x7458	lea    	eax, [esp + 0x38]
  0x745c	dec    	eax
  0x745d	add    	eax, 8
  0x7460	dec    	eax
  0x7461	mov    	dword ptr [0x7d11], eax
  === BLOCK LINK ===
    0x7467
=== CODE BLOCK END ===

=== CODE BLOCK ADDRESS 0x7467 ===
  0x7467	dec    	eax
  0x7468	mov    	eax, dword ptr [0x7d6a]
  0x746e	dec    	eax
  0x746f	mov    	dword ptr [0x7bdb], eax
  0x7475	dec    	eax
  === BLOCK LINK ===
    0x7476
=== CODE BLOCK END ===

=== CODE BLOCK ADDRESS 0x7476 ===
  0x7476	mov    	eax, dword ptr [esp + 0x40]
  0x747a	dec    	eax
  0x747b	mov    	dword ptr [0x7cdf], eax
  0x7481	mov    	dword ptr [0x7bb5], 0xc0000409
  0x748b	mov    	dword ptr [0x7baf], 1
  === BLOCK LINK ===
    0x7495
=== CODE BLOCK END ===

=== CODE BLOCK ADDRESS 0x7495 ===
  0x7495	mov    	dword ptr [0x7bb9], 1
  0x749f	mov    	eax, 8
  0x74a4	dec    	eax
  0x74a5	imul   	eax, eax, 0
  0x74a8	dec    	eax
  === BLOCK LINK ===
    0x74a9
=== CODE BLOCK END ===

=== CODE BLOCK ADDRESS 0x74a9 ===
  0x74a9	lea    	ecx, [0x7bb1]
  0x74af	dec    	eax
  0x74b0	mov    	dword ptr [ecx + eax], 2
  0x74b7	mov    	eax, 8
  0x74bc	dec    	eax
  === BLOCK LINK ===
    0x74bd
=== CODE BLOCK END ===

=== CODE BLOCK ADDRESS 0x74bd ===
  0x74bd	imul   	eax, eax, 0
  0x74c0	dec    	eax
  0x74c1	mov    	ecx, dword ptr [0x7b39]
  0x74c7	dec    	eax
  0x74c8	mov    	dword ptr [esp + eax + 0x20], ecx
  === BLOCK LINK ===
    0x74cc
=== CODE BLOCK END ===

=== CODE BLOCK ADDRESS 0x74cc ===
  0x74cc	mov    	eax, 8
  0x74d1	dec    	eax
  0x74d2	imul   	eax, eax, 1
  0x74d5	dec    	eax
  0x74d6	mov    	ecx, dword ptr [0x7b2c]
  === BLOCK LINK ===
    0x74dc
=== CODE BLOCK END ===

=== CODE BLOCK ADDRESS 0x74dc ===
  0x74dc	dec    	eax
  0x74dd	mov    	dword ptr [esp + eax + 0x20], ecx
  0x74e1	dec    	eax
  0x74e2	lea    	ecx, [0x1b18]
  0x74e8	call   	0x73b8
  === BLOCK LINK ===
    0x74ed
=== CODE BLOCK END ===

=== CODE BLOCK ADDRESS 0x74ed ===
  0x74ed	dec    	eax
  0x74ee	add    	esp, 0x38
  0x74f1	ret    	
  0x74f2	int3   	
  0x74f3	int3   	
  === BLOCK LINK ===
    0x74f4
=== CODE BLOCK END ===

=== CODE BLOCK ADDRESS 0x2307 ===
  0x2307	dec    	eax
  0x2308	mov    	ecx, dword ptr [ebp + 0x38]
  0x230b	dec    	eax
  0x230c	call   	dword ptr [0x7c36]
  === BLOCK LINK ===
    0x2312
=== CODE BLOCK END ===

=== CODE BLOCK ADDRESS 0x74f4 ===
  0x74f4	int3   	
  0x74f5	int3   	
  0x74f6	int3   	
  0x74f7	int3   	
  0x74f8	dec    	eax
  === BLOCK LINK ===
    0x74f9
=== CODE BLOCK END ===

=== CODE BLOCK ADDRESS 0x74f9 ===
  0x74f9	sub    	esp, 0x28
  0x74fc	mov    	ecx, 8
  0x7501	call   	0x7514
  === BLOCK LINK ===
    0x7506
=== CODE BLOCK END ===

=== CODE BLOCK ADDRESS 0x7506 ===
  0x7506	dec    	eax
  0x7507	add    	esp, 0x28
  0x750a	ret    	
  0x750b	int3   	
  0x750c	int3   	
  === BLOCK LINK ===
    0x750d
=== CODE BLOCK END ===

=== CODE BLOCK ADDRESS 0x750d ===
  0x750d	int3   	
  0x750e	int3   	
  0x750f	int3   	
  0x7510	int3   	
  0x7511	int3   	
  === BLOCK LINK ===
    0x7512
=== CODE BLOCK END ===

=== CODE BLOCK ADDRESS 0x7512 ===
  0x7512	int3   	
  0x7513	int3   	
  0x7514	mov    	dword ptr [esp + 8], ecx
  0x7518	dec    	eax
  0x7519	sub    	esp, 0x28
  === BLOCK LINK ===
    0x751c
=== CODE BLOCK END ===

=== CODE BLOCK ADDRESS 0x751c ===
  0x751c	mov    	ecx, 0x17
  0x7521	call   	dword ptr [0x2629]
  === BLOCK LINK ===
    0x7527
=== CODE BLOCK END ===

=== CODE BLOCK ADDRESS 0x7527 ===
  0x7527	test   	eax, eax
  0x7529	je     	0x7533
  === BLOCK LINK ===
    0x752b
=== CODE BLOCK END ===

=== CODE BLOCK ADDRESS 0x752b ===
  0x752b	mov    	eax, dword ptr [esp + 0x30]
  0x752f	mov    	ecx, eax
  0x7531	int    	0x29
  0x7533	dec    	eax
  0x7534	lea    	ecx, [0x7ba6]
  === BLOCK LINK ===
    0x753a
=== CODE BLOCK END ===

=== CODE BLOCK ADDRESS 0x753a ===
  0x753a	call   	0x75b8
  === BLOCK LINK ===
    0x753f
=== CODE BLOCK END ===

=== CODE BLOCK ADDRESS 0x753f ===
  0x753f	dec    	eax
  0x7540	mov    	eax, dword ptr [esp + 0x28]
  0x7544	dec    	eax
  0x7545	mov    	dword ptr [0x7c8d], eax
  0x754b	dec    	eax
  === BLOCK LINK ===
    0x754c
=== CODE BLOCK END ===

=== CODE BLOCK ADDRESS 0x754c ===
  0x754c	lea    	eax, [esp + 0x28]
  0x7550	dec    	eax
  0x7551	add    	eax, 8
  0x7554	dec    	eax
  0x7555	mov    	dword ptr [0x7c1d], eax
  === BLOCK LINK ===
    0x755b
=== CODE BLOCK END ===

=== CODE BLOCK ADDRESS 0x755b ===
  0x755b	dec    	eax
  0x755c	mov    	eax, dword ptr [0x7c76]
  0x7562	dec    	eax
  0x7563	mov    	dword ptr [0x7ae7], eax
  0x7569	mov    	dword ptr [0x7acd], 0xc0000409
  === BLOCK LINK ===
    0x7573
=== CODE BLOCK END ===

=== CODE BLOCK ADDRESS 0x7573 ===
  0x7573	mov    	dword ptr [0x7ac7], 1
  0x757d	mov    	dword ptr [0x7ad1], 1
  0x7587	mov    	eax, 8
  0x758c	dec    	eax
  0x758d	imul   	eax, eax, 0
  === BLOCK LINK ===
    0x7590
=== CODE BLOCK END ===

=== CODE BLOCK ADDRESS 0x7590 ===
  0x7590	dec    	eax
  0x7591	lea    	ecx, [0x7ac9]
  0x7597	mov    	edx, dword ptr [esp + 0x30]
  0x759b	dec    	eax
  0x759c	mov    	dword ptr [ecx + eax], edx
  === BLOCK LINK ===
    0x759f
=== CODE BLOCK END ===

=== CODE BLOCK ADDRESS 0x759f ===
  0x759f	dec    	eax
  0x75a0	lea    	ecx, [0x1a5a]
  0x75a6	call   	0x73b8
  === BLOCK LINK ===
    0x75ab
=== CODE BLOCK END ===

=== CODE BLOCK ADDRESS 0x75ab ===
  0x75ab	dec    	eax
  0x75ac	add    	esp, 0x28
  0x75af	ret    	
  0x75b0	int3   	
  0x75b1	int3   	
  === BLOCK LINK ===
    0x75b2
=== CODE BLOCK END ===

=== CODE BLOCK ADDRESS 0x75b2 ===
  0x75b2	int3   	
  0x75b3	int3   	
  0x75b4	int3   	
  0x75b5	int3   	
  0x75b6	int3   	
  === BLOCK LINK ===
    0x75b7
=== CODE BLOCK END ===

=== CODE BLOCK ADDRESS 0x75b7 ===
  0x75b7	int3   	
  0x75b8	dec    	eax
  0x75b9	mov    	dword ptr [esp + 0x20], ebx
  0x75bd	push   	edi
  0x75be	dec    	eax
  === BLOCK LINK ===
    0x75bf
=== CODE BLOCK END ===

=== CODE BLOCK ADDRESS 0x75bf ===
  0x75bf	sub    	esp, 0x40
  0x75c2	dec    	eax
  0x75c3	mov    	ebx, ecx
  0x75c5	call   	dword ptr [0x25b5]
  === BLOCK LINK ===
    0x75cb
=== CODE BLOCK END ===

=== CODE BLOCK ADDRESS 0x75cb ===
  0x75cb	dec    	eax
  0x75cc	mov    	edi, dword ptr [ebx + 0xf8]
  0x75d2	dec    	eax
  0x75d3	lea    	edx, [esp + 0x50]
  0x75d7	dec    	eax
  === BLOCK LINK ===
    0x75d8
=== CODE BLOCK END ===

=== CODE BLOCK ADDRESS 0x75d8 ===
  0x75d8	mov    	ecx, edi
  0x75da	inc    	ebp
  0x75db	xor    	eax, eax
  0x75dd	call   	dword ptr [0x258d]
  === BLOCK LINK ===
    0x75e3
=== CODE BLOCK END ===

=== CODE BLOCK ADDRESS 0x75e3 ===
  0x75e3	dec    	eax
  0x75e4	test   	eax, eax
  0x75e6	je     	0x761a
  === BLOCK LINK ===
    0x75e8
=== CODE BLOCK END ===

=== CODE BLOCK ADDRESS 0x75e8 ===
  0x75e8	dec    	eax
  0x75e9	and    	dword ptr [esp + 0x38], 0
  0x75ee	dec    	eax
  0x75ef	lea    	ecx, [esp + 0x58]
  0x75f3	dec    	eax
  === BLOCK LINK ===
    0x75f4
=== CODE BLOCK END ===

=== CODE BLOCK ADDRESS 0x75f4 ===
  0x75f4	mov    	edx, dword ptr [esp + 0x50]
  0x75f8	dec    	esp
  0x75f9	mov    	ecx, eax
  0x75fb	dec    	eax
  0x75fc	mov    	dword ptr [esp + 0x30], ecx
  === BLOCK LINK ===
    0x7600
=== CODE BLOCK END ===

=== CODE BLOCK ADDRESS 0x7600 ===
  0x7600	dec    	esp
  0x7601	mov    	eax, edi
  0x7603	dec    	eax
  0x7604	lea    	ecx, [esp + 0x60]
  0x7608	dec    	eax
  === BLOCK LINK ===
    0x7609
=== CODE BLOCK END ===

=== CODE BLOCK ADDRESS 0x7609 ===
  0x7609	mov    	dword ptr [esp + 0x28], ecx
  0x760d	xor    	ecx, ecx
  0x760f	dec    	eax
  0x7610	mov    	dword ptr [esp + 0x20], ebx
  0x7614	call   	dword ptr [0x255e]
  === BLOCK LINK ===
    0x761a
=== CODE BLOCK END ===

=== CODE BLOCK ADDRESS 0x761a ===
  0x761a	dec    	eax
  0x761b	mov    	ebx, dword ptr [esp + 0x68]
  0x761f	dec    	eax
  0x7620	add    	esp, 0x40
  0x7623	pop    	edi
  === BLOCK LINK ===
    0x7624
=== CODE BLOCK END ===

=== CODE BLOCK ADDRESS 0x7624 ===
  0x7624	ret    	
  0x7625	int3   	
  0x7626	int3   	
  0x7627	int3   	
  0x7628	int3   	
  === BLOCK LINK ===
    0x7629
=== CODE BLOCK END ===

=== CODE BLOCK ADDRESS 0x7629 ===
  0x7629	int3   	
  0x762a	int3   	
  0x762b	int3   	
  0x762c	inc    	eax
  0x762d	push   	ebx
  === BLOCK LINK ===
    0x762e
=== CODE BLOCK END ===

=== CODE BLOCK ADDRESS 0x762e ===
  0x762e	push   	esi
  0x762f	push   	edi
  0x7630	dec    	eax
  0x7631	sub    	esp, 0x40
  0x7634	dec    	eax
  === BLOCK LINK ===
    0x7635
=== CODE BLOCK END ===

=== CODE BLOCK ADDRESS 0x7635 ===
  0x7635	mov    	ebx, ecx
  0x7637	call   	dword ptr [0x2543]
  === BLOCK LINK ===
    0x763d
=== CODE BLOCK END ===

=== CODE BLOCK ADDRESS 0x763d ===
  0x763d	dec    	eax
  0x763e	mov    	esi, dword ptr [ebx + 0xf8]
  0x7644	xor    	edi, edi
  0x7646	inc    	ebp
  0x7647	xor    	eax, eax
  === BLOCK LINK ===
    0x7649
=== CODE BLOCK END ===

=== CODE BLOCK ADDRESS 0x7649 ===
  0x7649	dec    	eax
  0x764a	lea    	edx, [esp + 0x60]
  0x764e	dec    	eax
  0x764f	mov    	ecx, esi
  0x7651	call   	dword ptr [0x2519]
  === BLOCK LINK ===
    0x7657
=== CODE BLOCK END ===

=== CODE BLOCK ADDRESS 0x7657 ===
  0x7657	dec    	eax
  0x7658	test   	eax, eax
  0x765a	je     	0x7695
  === BLOCK LINK ===
    0x765c
=== CODE BLOCK END ===

=== CODE BLOCK ADDRESS 0x765c ===
  0x765c	dec    	eax
  0x765d	and    	dword ptr [esp + 0x38], 0
  0x7662	dec    	eax
  0x7663	lea    	ecx, [esp + 0x68]
  0x7667	dec    	eax
  === BLOCK LINK ===
    0x7668
=== CODE BLOCK END ===

=== CODE BLOCK ADDRESS 0x7668 ===
  0x7668	mov    	edx, dword ptr [esp + 0x60]
  0x766c	dec    	esp
  0x766d	mov    	ecx, eax
  0x766f	dec    	eax
  0x7670	mov    	dword ptr [esp + 0x30], ecx
  === BLOCK LINK ===
    0x7674
=== CODE BLOCK END ===

=== CODE BLOCK ADDRESS 0x7674 ===
  0x7674	dec    	esp
  0x7675	mov    	eax, esi
  0x7677	dec    	eax
  0x7678	lea    	ecx, [esp + 0x70]
  0x767c	dec    	eax
  === BLOCK LINK ===
    0x767d
=== CODE BLOCK END ===

=== CODE BLOCK ADDRESS 0x767d ===
  0x767d	mov    	dword ptr [esp + 0x28], ecx
  0x7681	xor    	ecx, ecx
  0x7683	dec    	eax
  0x7684	mov    	dword ptr [esp + 0x20], ebx
  0x7688	call   	dword ptr [0x24ea]
  === BLOCK LINK ===
    0x768e
=== CODE BLOCK END ===

=== CODE BLOCK ADDRESS 0x768e ===
  0x768e	inc    	edi
  0x7690	cmp    	edi, 2
  0x7693	jl     	0x7646
  === BLOCK LINK ===
    0x7695
=== CODE BLOCK END ===

=== CODE BLOCK ADDRESS 0x7695 ===
  0x7695	dec    	eax
  0x7696	add    	esp, 0x40
  0x7699	pop    	edi
  0x769a	pop    	esi
  0x769b	pop    	ebx
  === BLOCK LINK ===
    0x769c
=== CODE BLOCK END ===

=== CODE BLOCK ADDRESS 0x769c ===
  0x769c	ret    	
  0x769d	int3   	
  0x769e	int3   	
  0x769f	int3   	
  0x76a0	int3   	
  === BLOCK LINK ===
    0x76a1
=== CODE BLOCK END ===

=== CODE BLOCK ADDRESS 0x76a1 ===
  0x76a1	int3   	
  0x76a2	int3   	
  0x76a3	int3   	
  0x76a4	dec    	eax
  0x76a5	sub    	esp, 0x28
  === BLOCK LINK ===
    0x76a8
=== CODE BLOCK END ===

=== CODE BLOCK ADDRESS 0x76a8 ===
  0x76a8	call   	0x7ee8
  === BLOCK LINK ===
    0x76ad
=== CODE BLOCK END ===

=== CODE BLOCK ADDRESS 0x76ad ===
  0x76ad	test   	eax, eax
  0x76af	je     	0x76d2
  === BLOCK LINK ===
    0x76b1
=== CODE BLOCK END ===

=== CODE BLOCK ADDRESS 0x76b1 ===
  0x76b1	dec    	eax
  0x76b3	mov    	eax, dword ptr [0x30]
  0x76ba	dec    	eax
  0x76bb	mov    	ecx, dword ptr [eax + 8]
  0x76be	jmp    	0x76c5
  === BLOCK LINK ===
    0x76c0
=== CODE BLOCK END ===

=== CODE BLOCK ADDRESS 0x76c0 ===
  0x76c0	dec    	eax
  0x76c1	cmp    	ecx, eax
  0x76c3	je     	0x76d9
  === BLOCK LINK ===
    0x76c5
=== CODE BLOCK END ===

=== CODE BLOCK ADDRESS 0x76c5 ===
  0x76c5	xor    	eax, eax
  0x76c7	.byte  	0xf0
  0x76c8	dec    	eax
  0x76c9	cmpxchg  	dword ptr [0x7ee8], ecx
  0x76d0	jne    	0x76c0
  === BLOCK LINK ===
    0x76d2
=== CODE BLOCK END ===

=== CODE BLOCK ADDRESS 0x76d2 ===
  0x76d2	xor    	al, al
  0x76d4	dec    	eax
  0x76d5	add    	esp, 0x28
  0x76d8	ret    	
  0x76d9	mov    	al, 1
  === BLOCK LINK ===
    0x76db
=== CODE BLOCK END ===

=== CODE BLOCK ADDRESS 0x76db ===
  0x76db	jmp    	0x76d4
  === BLOCK LINK ===
    0x76dd
=== CODE BLOCK END ===

=== CODE BLOCK ADDRESS 0x76dd ===
  0x76dd	int3   	
  0x76de	int3   	
  0x76df	int3   	
  0x76e0	int3   	
  0x76e1	int3   	
  === BLOCK LINK ===
    0x76e2
=== CODE BLOCK END ===

=== CODE BLOCK ADDRESS 0x76e2 ===
  0x76e2	int3   	
  0x76e3	int3   	
  0x76e4	inc    	eax
  0x76e5	push   	ebx
  0x76e6	dec    	eax
  === BLOCK LINK ===
    0x76e7
=== CODE BLOCK END ===

=== CODE BLOCK ADDRESS 0x76e7 ===
  0x76e7	sub    	esp, 0x20
  0x76ea	movzx  	eax, byte ptr [0x7f00]
  0x76f1	test   	ecx, ecx
  0x76f3	mov    	ebx, 1
  0x76f8	cmove  	eax, ebx
  === BLOCK LINK ===
    0x76fb
=== CODE BLOCK END ===

=== CODE BLOCK ADDRESS 0x76fb ===
  0x76fb	mov    	byte ptr [0x7ef0], al
  0x7701	call   	0x7d64
  === BLOCK LINK ===
    0x7706
=== CODE BLOCK END ===

=== CODE BLOCK ADDRESS 0x7706 ===
  0x7706	call   	0x7a4c
  === BLOCK LINK ===
    0x770b
=== CODE BLOCK END ===

=== CODE BLOCK ADDRESS 0x770b ===
  0x770b	test   	al, al
  0x770d	jne    	0x7713
  === BLOCK LINK ===
    0x770f
=== CODE BLOCK END ===

=== CODE BLOCK ADDRESS 0x770f ===
  0x770f	xor    	al, al
  0x7711	jmp    	0x7727
  === BLOCK LINK ===
    0x7713
=== CODE BLOCK END ===

=== CODE BLOCK ADDRESS 0x7713 ===
  0x7713	call   	0x7a4c
  === BLOCK LINK ===
    0x7718
=== CODE BLOCK END ===

=== CODE BLOCK ADDRESS 0x7718 ===
  0x7718	test   	al, al
  0x771a	jne    	0x7725
  === BLOCK LINK ===
    0x771c
=== CODE BLOCK END ===

=== CODE BLOCK ADDRESS 0x771c ===
  0x771c	xor    	ecx, ecx
  0x771e	call   	0x7a4c
  === BLOCK LINK ===
    0x7723
=== CODE BLOCK END ===

=== CODE BLOCK ADDRESS 0x7723 ===
  0x7723	jmp    	0x770f
  === BLOCK LINK ===
    0x7725
=== CODE BLOCK END ===

=== CODE BLOCK ADDRESS 0x7725 ===
  0x7725	mov    	al, bl
  0x7727	dec    	eax
  0x7728	add    	esp, 0x20
  0x772b	pop    	ebx
  0x772c	ret    	
  === BLOCK LINK ===
    0x772d
=== CODE BLOCK END ===

=== CODE BLOCK ADDRESS 0x772d ===
  0x772d	int3   	
  0x772e	int3   	
  0x772f	int3   	
  0x7730	int3   	
  0x7731	int3   	
  === BLOCK LINK ===
    0x7732
=== CODE BLOCK END ===

=== CODE BLOCK ADDRESS 0x7732 ===
  0x7732	int3   	
  0x7733	int3   	
  0x7734	inc    	eax
  0x7735	push   	ebx
  0x7736	dec    	eax
  === BLOCK LINK ===
    0x7737
=== CODE BLOCK END ===

=== CODE BLOCK ADDRESS 0x7737 ===
  0x7737	sub    	esp, 0x20
  0x773a	cmp    	byte ptr [0x7eaf], 0
  0x7741	mov    	ebx, ecx
  0x7743	jne    	0x77d1
  === BLOCK LINK ===
    0x7749
=== CODE BLOCK END ===

=== CODE BLOCK ADDRESS 0x7749 ===
  0x7749	cmp    	ecx, 1
  0x774c	ja     	0x77d9
  === BLOCK LINK ===
    0x7752
=== CODE BLOCK END ===

=== CODE BLOCK ADDRESS 0x7752 ===
  0x7752	call   	0x7ee8
  === BLOCK LINK ===
    0x7757
=== CODE BLOCK END ===

=== CODE BLOCK ADDRESS 0x7757 ===
  0x7757	test   	eax, eax
  0x7759	je     	0x7783
  === BLOCK LINK ===
    0x775b
=== CODE BLOCK END ===

=== CODE BLOCK ADDRESS 0x775b ===
  0x775b	test   	ebx, ebx
  0x775d	jne    	0x7783
  === BLOCK LINK ===
    0x775f
=== CODE BLOCK END ===

=== CODE BLOCK ADDRESS 0x775f ===
  0x775f	dec    	eax
  0x7760	lea    	ecx, [0x7e5a]
  0x7766	call   	0x7fd2
  === BLOCK LINK ===
    0x776b
=== CODE BLOCK END ===

=== CODE BLOCK ADDRESS 0x776b ===
  0x776b	test   	eax, eax
  0x776d	jne    	0x777f
  === BLOCK LINK ===
    0x776f
=== CODE BLOCK END ===

=== CODE BLOCK ADDRESS 0x776f ===
  0x776f	dec    	eax
  0x7770	lea    	ecx, [0x7e62]
  0x7776	call   	0x7fd2
  === BLOCK LINK ===
    0x777b
=== CODE BLOCK END ===

=== CODE BLOCK ADDRESS 0x777b ===
  0x777b	test   	eax, eax
  0x777d	je     	0x77ca
  === BLOCK LINK ===
    0x777f
=== CODE BLOCK END ===

=== CODE BLOCK ADDRESS 0x777f ===
  0x777f	xor    	al, al
  0x7781	jmp    	0x77d3
  === BLOCK LINK ===
    0x7783
=== CODE BLOCK END ===

=== CODE BLOCK ADDRESS 0x7783 ===
  0x7783	dec    	eax
  0x7784	mov    	edx, dword ptr [0x7876]
  0x778a	mov    	ecx, 0x40
  0x778f	mov    	eax, edx
  0x7791	and    	eax, 0x3f
  === BLOCK LINK ===
    0x7794
=== CODE BLOCK END ===

=== CODE BLOCK ADDRESS 0x7794 ===
  0x7794	sub    	ecx, eax
  0x7796	dec    	eax
  0x7797	or     	eax, 0xffffffff
  0x779a	dec    	eax
  0x779b	ror    	eax, cl
  === BLOCK LINK ===
    0x779d
=== CODE BLOCK END ===

=== CODE BLOCK ADDRESS 0x779d ===
  0x779d	dec    	eax
  0x779e	xor    	eax, edx
  0x77a0	dec    	eax
  0x77a1	mov    	dword ptr [0x7e19], eax
  0x77a7	dec    	eax
  === BLOCK LINK ===
    0x77a8
=== CODE BLOCK END ===

=== CODE BLOCK ADDRESS 0x77a8 ===
  0x77a8	mov    	dword ptr [0x7e1a], eax
  0x77ae	dec    	eax
  0x77af	mov    	dword ptr [0x7e1b], eax
  0x77b5	dec    	eax
  0x77b6	mov    	dword ptr [0x7e1c], eax
  === BLOCK LINK ===
    0x77bc
=== CODE BLOCK END ===

=== CODE BLOCK ADDRESS 0x77bc ===
  0x77bc	dec    	eax
  0x77bd	mov    	dword ptr [0x7e1d], eax
  0x77c3	dec    	eax
  0x77c4	mov    	dword ptr [0x7e1e], eax
  0x77ca	mov    	byte ptr [0x7e1f], 1
  === BLOCK LINK ===
    0x77d1
=== CODE BLOCK END ===

=== CODE BLOCK ADDRESS 0x77d1 ===
  0x77d1	mov    	al, 1
  0x77d3	dec    	eax
  0x77d4	add    	esp, 0x20
  0x77d7	pop    	ebx
  0x77d8	ret    	
  === BLOCK LINK ===
    0x77d9
=== CODE BLOCK END ===

=== CODE BLOCK ADDRESS 0x77d9 ===
  0x77d9	mov    	ecx, 5
  0x77de	call   	0x7ac0
  === BLOCK LINK ===
    0x77e3
=== CODE BLOCK END ===

=== CODE BLOCK ADDRESS 0x77e3 ===
  0x77e3	int3   	
  0x77e4	int3   	
  0x77e5	int3   	
  0x77e6	int3   	
  0x77e7	int3   	
  === BLOCK LINK ===
    0x77e8
=== CODE BLOCK END ===

=== CODE BLOCK ADDRESS 0x77e8 ===
  0x77e8	int3   	
  0x77e9	int3   	
  0x77ea	int3   	
  0x77eb	int3   	
  0x77ec	dec    	eax
  === BLOCK LINK ===
    0x77ed
=== CODE BLOCK END ===

=== CODE BLOCK ADDRESS 0x77ed ===
  0x77ed	sub    	esp, 0x18
  0x77f0	dec    	esp
  0x77f1	mov    	eax, ecx
  0x77f3	mov    	eax, 0x5a4d
  0x77f8	cmp    	word ptr [0xffff8801], ax
  === BLOCK LINK ===
    0x77ff
=== CODE BLOCK END ===

=== CODE BLOCK ADDRESS 0x77ff ===
  0x77ff	jne    	0x7879
  === BLOCK LINK ===
    0x7801
=== CODE BLOCK END ===

=== CODE BLOCK ADDRESS 0x7801 ===
  0x7801	dec    	eax
  0x7802	arpl   	word ptr [0xffff8834], cx
  0x7808	dec    	eax
  0x7809	lea    	edx, [0xffff87f1]
  0x780f	dec    	eax
  === BLOCK LINK ===
    0x7810
=== CODE BLOCK END ===

=== CODE BLOCK ADDRESS 0x7810 ===
  0x7810	add    	ecx, edx
  0x7812	cmp    	dword ptr [ecx], 0x4550
  0x7818	jne    	0x7879
  === BLOCK LINK ===
    0x781a
=== CODE BLOCK END ===

=== CODE BLOCK ADDRESS 0x781a ===
  0x781a	mov    	eax, 0x20b
  0x781f	cmp    	word ptr [ecx + 0x18], ax
  0x7823	jne    	0x7879
  === BLOCK LINK ===
    0x7825
=== CODE BLOCK END ===

=== CODE BLOCK ADDRESS 0x7825 ===
  0x7825	dec    	esp
  0x7826	sub    	eax, edx
  0x7828	movzx  	eax, word ptr [ecx + 0x14]
  0x782c	dec    	eax
  0x782d	lea    	edx, [ecx + 0x18]
  === BLOCK LINK ===
    0x7830
=== CODE BLOCK END ===

=== CODE BLOCK ADDRESS 0x7830 ===
  0x7830	dec    	eax
  0x7831	add    	edx, eax
  0x7833	movzx  	eax, word ptr [ecx + 6]
  0x7837	dec    	eax
  0x7838	lea    	ecx, [eax + eax*4]
  === BLOCK LINK ===
    0x783b
=== CODE BLOCK END ===

=== CODE BLOCK ADDRESS 0x783b ===
  0x783b	dec    	esp
  0x783c	lea    	ecx, [edx + ecx*8]
  0x783f	dec    	eax
  0x7840	mov    	dword ptr [esp], edx
  0x7843	dec    	ecx
  === BLOCK LINK ===
    0x7844
=== CODE BLOCK END ===

=== CODE BLOCK ADDRESS 0x7844 ===
  0x7844	cmp    	edx, ecx
  0x7846	je     	0x7860
  === BLOCK LINK ===
    0x7848
=== CODE BLOCK END ===

=== CODE BLOCK ADDRESS 0x7848 ===
  0x7848	mov    	ecx, dword ptr [edx + 0xc]
  0x784b	dec    	esp
  0x784c	cmp    	eax, ecx
  0x784e	jb     	0x785a
  === BLOCK LINK ===
    0x7850
=== CODE BLOCK END ===

=== CODE BLOCK ADDRESS 0x7850 ===
  0x7850	mov    	eax, dword ptr [edx + 8]
  0x7853	add    	eax, ecx
  0x7855	dec    	esp
  0x7856	cmp    	eax, eax
  0x7858	jb     	0x7862
  === BLOCK LINK ===
    0x785a
=== CODE BLOCK END ===

=== CODE BLOCK ADDRESS 0x785a ===
  0x785a	dec    	eax
  0x785b	add    	edx, 0x28
  0x785e	jmp    	0x783f
  === BLOCK LINK ===
    0x7860
=== CODE BLOCK END ===

=== CODE BLOCK ADDRESS 0x7860 ===
  0x7860	xor    	edx, edx
  0x7862	dec    	eax
  0x7863	test   	edx, edx
  0x7865	jne    	0x786b
  === BLOCK LINK ===
    0x7867
=== CODE BLOCK END ===

=== CODE BLOCK ADDRESS 0x7867 ===
  0x7867	xor    	al, al
  0x7869	jmp    	0x787f
  === BLOCK LINK ===
    0x786b
=== CODE BLOCK END ===

=== CODE BLOCK ADDRESS 0x786b ===
  0x786b	cmp    	dword ptr [edx + 0x24], 0
  0x786f	jge    	0x7875
  === BLOCK LINK ===
    0x7871
=== CODE BLOCK END ===

=== CODE BLOCK ADDRESS 0x7871 ===
  0x7871	xor    	al, al
  0x7873	jmp    	0x787f
  === BLOCK LINK ===
    0x7875
=== CODE BLOCK END ===

=== CODE BLOCK ADDRESS 0x7875 ===
  0x7875	mov    	al, 1
  0x7877	jmp    	0x787f
  === BLOCK LINK ===
    0x7879
=== CODE BLOCK END ===

=== CODE BLOCK ADDRESS 0x7879 ===
  0x7879	xor    	al, al
  0x787b	jmp    	0x787f
  === BLOCK LINK ===
    0x787d
=== CODE BLOCK END ===

=== CODE BLOCK ADDRESS 0x787d ===
  0x787d	xor    	al, al
  0x787f	dec    	eax
  0x7880	add    	esp, 0x18
  0x7883	ret    	
  0x7884	int3   	
  === BLOCK LINK ===
    0x7885
=== CODE BLOCK END ===

=== CODE BLOCK ADDRESS 0x7885 ===
  0x7885	int3   	
  0x7886	int3   	
  0x7887	int3   	
  0x7888	int3   	
  0x7889	int3   	
  === BLOCK LINK ===
    0x788a
=== CODE BLOCK END ===

=== CODE BLOCK ADDRESS 0x788a ===
  0x788a	int3   	
  0x788b	int3   	
  0x788c	inc    	eax
  0x788d	push   	ebx
  0x788e	dec    	eax
  === BLOCK LINK ===
    0x788f
=== CODE BLOCK END ===

=== CODE BLOCK ADDRESS 0x788f ===
  0x788f	sub    	esp, 0x20
  0x7892	mov    	bl, cl
  0x7894	call   	0x7ee8
  === BLOCK LINK ===
    0x7899
=== CODE BLOCK END ===

=== CODE BLOCK ADDRESS 0x7899 ===
  0x7899	xor    	edx, edx
  0x789b	test   	eax, eax
  0x789d	je     	0x78aa
  === BLOCK LINK ===
    0x789f
=== CODE BLOCK END ===

=== CODE BLOCK ADDRESS 0x789f ===
  0x789f	test   	bl, bl
  0x78a1	jne    	0x78aa
  === BLOCK LINK ===
    0x78a3
=== CODE BLOCK END ===

=== CODE BLOCK ADDRESS 0x78a3 ===
  0x78a3	dec    	eax
  0x78a4	xchg   	dword ptr [0x7d0e], edx
  0x78aa	dec    	eax
  0x78ab	add    	esp, 0x20
  0x78ae	pop    	ebx
  === BLOCK LINK ===
    0x78af
=== CODE BLOCK END ===

=== CODE BLOCK ADDRESS 0x78af ===
  0x78af	ret    	
  0x78b0	int3   	
  0x78b1	int3   	
  0x78b2	int3   	
  0x78b3	int3   	
  === BLOCK LINK ===
    0x78b4
=== CODE BLOCK END ===

=== CODE BLOCK ADDRESS 0x78b4 ===
  0x78b4	int3   	
  0x78b5	int3   	
  0x78b6	int3   	
  0x78b7	int3   	
  0x78b8	inc    	eax
  === BLOCK LINK ===
    0x78b9
=== CODE BLOCK END ===

=== CODE BLOCK ADDRESS 0x78b9 ===
  0x78b9	push   	ebx
  0x78ba	dec    	eax
  0x78bb	sub    	esp, 0x20
  0x78be	cmp    	byte ptr [0x7d2c], 0
  0x78c5	mov    	bl, cl
  === BLOCK LINK ===
    0x78c7
=== CODE BLOCK END ===

=== CODE BLOCK ADDRESS 0x78c7 ===
  0x78c7	je     	0x78cd
  === BLOCK LINK ===
    0x78c9
=== CODE BLOCK END ===

=== CODE BLOCK ADDRESS 0x78c9 ===
  0x78c9	test   	dl, dl
  0x78cb	jne    	0x78d9
  === BLOCK LINK ===
    0x78cd
=== CODE BLOCK END ===

=== CODE BLOCK ADDRESS 0x78cd ===
  0x78cd	call   	0x7a4c
  === BLOCK LINK ===
    0x78d2
=== CODE BLOCK END ===

=== CODE BLOCK ADDRESS 0x78d2 ===
  0x78d2	mov    	cl, bl
  0x78d4	call   	0x7a4c
  === BLOCK LINK ===
    0x78d9
=== CODE BLOCK END ===

=== CODE BLOCK ADDRESS 0x78d9 ===
  0x78d9	mov    	al, 1
  0x78db	dec    	eax
  0x78dc	add    	esp, 0x20
  0x78df	pop    	ebx
  0x78e0	ret    	
  === BLOCK LINK ===
    0x78e1
=== CODE BLOCK END ===

=== CODE BLOCK ADDRESS 0x78e1 ===
  0x78e1	int3   	
  0x78e2	int3   	
  0x78e3	int3   	
  0x78e4	int3   	
  0x78e5	int3   	
  === BLOCK LINK ===
    0x78e6
=== CODE BLOCK END ===

=== CODE BLOCK ADDRESS 0x78e6 ===
  0x78e6	int3   	
  0x78e7	int3   	
  0x78e8	inc    	eax
  0x78e9	push   	ebx
  0x78ea	dec    	eax
  === BLOCK LINK ===
    0x78eb
=== CODE BLOCK END ===

=== CODE BLOCK ADDRESS 0x78eb ===
  0x78eb	sub    	esp, 0x20
  0x78ee	dec    	eax
  0x78ef	mov    	edx, dword ptr [0x770b]
  0x78f5	dec    	eax
  0x78f6	mov    	ebx, ecx
  === BLOCK LINK ===
    0x78f8
=== CODE BLOCK END ===

=== CODE BLOCK ADDRESS 0x78f8 ===
  0x78f8	mov    	ecx, edx
  0x78fa	dec    	eax
  0x78fb	xor    	edx, dword ptr [0x7cbf]
  0x7901	and    	ecx, 0x3f
  0x7904	dec    	eax
  === BLOCK LINK ===
    0x7905
=== CODE BLOCK END ===

=== CODE BLOCK ADDRESS 0x7905 ===
  0x7905	ror    	edx, cl
  0x7907	dec    	eax
  0x7908	cmp    	edx, -1
  0x790b	jne    	0x7917
  === BLOCK LINK ===
    0x790d
=== CODE BLOCK END ===

=== CODE BLOCK ADDRESS 0x790d ===
  0x790d	dec    	eax
  0x790e	mov    	ecx, ebx
  0x7910	call   	0x7fa2
  === BLOCK LINK ===
    0x7915
=== CODE BLOCK END ===

=== CODE BLOCK ADDRESS 0x7915 ===
  0x7915	jmp    	0x7926
  === BLOCK LINK ===
    0x7917
=== CODE BLOCK END ===

=== CODE BLOCK ADDRESS 0x7917 ===
  0x7917	dec    	eax
  0x7918	mov    	edx, ebx
  0x791a	dec    	eax
  0x791b	lea    	ecx, [0x7c9f]
  0x7921	call   	0x7fde
  === BLOCK LINK ===
    0x7926
=== CODE BLOCK END ===

=== CODE BLOCK ADDRESS 0x7926 ===
  0x7926	xor    	ecx, ecx
  0x7928	test   	eax, eax
  0x792a	dec    	eax
  0x792b	cmove  	ecx, ebx
  0x792e	dec    	eax
  === BLOCK LINK ===
    0x792f
=== CODE BLOCK END ===

=== CODE BLOCK ADDRESS 0x792f ===
  0x792f	mov    	eax, ecx
  0x7931	dec    	eax
  0x7932	add    	esp, 0x20
  0x7935	pop    	ebx
  0x7936	ret    	
  === BLOCK LINK ===
    0x7937
=== CODE BLOCK END ===

=== CODE BLOCK ADDRESS 0x7937 ===
  0x7937	int3   	
  0x7938	int3   	
  0x7939	int3   	
  0x793a	int3   	
  0x793b	int3   	
  === BLOCK LINK ===
    0x793c
=== CODE BLOCK END ===

=== CODE BLOCK ADDRESS 0x793c ===
  0x793c	int3   	
  0x793d	int3   	
  0x793e	int3   	
  0x793f	int3   	
  0x7940	dec    	eax
  === BLOCK LINK ===
    0x7941
=== CODE BLOCK END ===

=== CODE BLOCK ADDRESS 0x7941 ===
  0x7941	sub    	esp, 0x28
  0x7944	call   	0x78e8
  === BLOCK LINK ===
    0x7949
=== CODE BLOCK END ===

=== CODE BLOCK ADDRESS 0x7949 ===
  0x7949	dec    	eax
  0x794a	neg    	eax
  0x794c	sbb    	eax, eax
  0x794e	neg    	eax
  0x7950	dec    	eax
  === BLOCK LINK ===
    0x7952
=== CODE BLOCK END ===

=== CODE BLOCK ADDRESS 0x7952 ===
  0x7952	dec    	eax
  0x7953	add    	esp, 0x28
  0x7956	ret    	
  0x7957	int3   	
  0x7958	int3   	
  === BLOCK LINK ===
    0x7959
=== CODE BLOCK END ===

=== CODE BLOCK ADDRESS 0x7959 ===
  0x7959	int3   	
  0x795a	int3   	
  0x795b	int3   	
  0x795c	int3   	
  0x795d	int3   	
  === BLOCK LINK ===
    0x795e
=== CODE BLOCK END ===

=== CODE BLOCK ADDRESS 0x795e ===
  0x795e	int3   	
  0x795f	int3   	
  0x7960	dec    	eax
  0x7961	mov    	dword ptr [esp + 0x20], ebx
  0x7965	push   	ebp
  === BLOCK LINK ===
    0x7966
=== CODE BLOCK END ===

=== CODE BLOCK ADDRESS 0x7966 ===
  0x7966	dec    	eax
  0x7967	mov    	ebp, esp
  0x7969	dec    	eax
  0x796a	sub    	esp, 0x20
  0x796d	dec    	eax
  === BLOCK LINK ===
    0x796e
=== CODE BLOCK END ===

=== CODE BLOCK ADDRESS 0x796e ===
  0x796e	mov    	eax, dword ptr [0x768c]
  0x7974	dec    	eax
  0x7975	mov    	ebx, 0x2ddfa232
  0x797a	cdq    	
  0x797b	sub    	eax, dword ptr [eax]
  === BLOCK LINK ===
    0x797d
=== CODE BLOCK END ===

=== CODE BLOCK ADDRESS 0x797d ===
  0x797d	add    	byte ptr [eax + 0x3b], cl
  0x7980	ret    	
  0x7981	jne    	0x79f7
  === BLOCK LINK ===
    0x7983
=== CODE BLOCK END ===

=== CODE BLOCK ADDRESS 0x232b ===
  0x232b	dec    	eax
  0x232c	mov    	ecx, dword ptr [ebp + 0x38]
  0x232f	dec    	eax
  0x2330	call   	dword ptr [0x7c12]
  === BLOCK LINK ===
    0x2336
=== CODE BLOCK END ===

=== CODE BLOCK ADDRESS 0x7983 ===
  0x7983	dec    	eax
  0x7984	and    	dword ptr [ebp + 0x18], 0
  0x7988	dec    	eax
  0x7989	lea    	ecx, [ebp + 0x18]
  0x798c	call   	dword ptr [0x220e]
  === BLOCK LINK ===
    0x7992
=== CODE BLOCK END ===

=== CODE BLOCK ADDRESS 0x7992 ===
  0x7992	dec    	eax
  0x7993	mov    	eax, dword ptr [ebp + 0x18]
  0x7996	dec    	eax
  0x7997	mov    	dword ptr [ebp + 0x10], eax
  0x799a	call   	dword ptr [0x2188]
  === BLOCK LINK ===
    0x79a0
=== CODE BLOCK END ===

=== CODE BLOCK ADDRESS 0x79a0 ===
  0x79a0	mov    	eax, eax
  0x79a2	dec    	eax
  0x79a3	xor    	dword ptr [ebp + 0x10], eax
  0x79a6	call   	dword ptr [0x2194]
  === BLOCK LINK ===
    0x79ac
=== CODE BLOCK END ===

=== CODE BLOCK ADDRESS 0x79ac ===
  0x79ac	mov    	eax, eax
  0x79ae	dec    	eax
  0x79af	lea    	ecx, [ebp + 0x20]
  0x79b2	dec    	eax
  0x79b3	xor    	dword ptr [ebp + 0x10], eax
  === BLOCK LINK ===
    0x79b6
=== CODE BLOCK END ===

=== CODE BLOCK ADDRESS 0x79b6 ===
  0x79b6	call   	dword ptr [0x21a4]
  === BLOCK LINK ===
    0x79bc
=== CODE BLOCK END ===

=== CODE BLOCK ADDRESS 0x79bc ===
  0x79bc	mov    	eax, dword ptr [ebp + 0x20]
  0x79bf	dec    	eax
  0x79c0	lea    	ecx, [ebp + 0x10]
  0x79c3	dec    	eax
  0x79c4	shl    	eax, 0x20
  === BLOCK LINK ===
    0x79c7
=== CODE BLOCK END ===

=== CODE BLOCK ADDRESS 0x79c7 ===
  0x79c7	dec    	eax
  0x79c8	xor    	eax, dword ptr [ebp + 0x20]
  0x79cb	dec    	eax
  0x79cc	xor    	eax, dword ptr [ebp + 0x10]
  0x79cf	dec    	eax
  === BLOCK LINK ===
    0x79d0
=== CODE BLOCK END ===

=== CODE BLOCK ADDRESS 0x79d0 ===
  0x79d0	xor    	eax, ecx
  0x79d2	dec    	eax
  0x79d3	mov    	ecx, 0xffffffff
  0x79d8	.byte  	0xff
  0x79d9	inc    	dword ptr [eax]
  === BLOCK LINK ===
    0x79db
=== CODE BLOCK END ===

=== CODE BLOCK ADDRESS 0x79db ===
  0x79db	add    	byte ptr [eax + 0x23], cl
  0x79de	ror    	dword ptr [eax - 0x47], 0x33
  0x79e2	mov    	byte ptr [0x2b992ddf], al
  0x79e7	add    	byte ptr [eax], al
  0x79e9	dec    	eax
  === BLOCK LINK ===
    0x79ea
=== CODE BLOCK END ===

=== CODE BLOCK ADDRESS 0x79ea ===
  0x79ea	cmp    	eax, ebx
  0x79ec	dec    	eax
  0x79ed	cmove  	eax, ecx
  0x79f0	dec    	eax
  0x79f1	mov    	dword ptr [0x7609], eax
  === BLOCK LINK ===
    0x79f7
=== CODE BLOCK END ===

=== CODE BLOCK ADDRESS 0x79f7 ===
  0x79f7	dec    	eax
  0x79f8	mov    	ebx, dword ptr [esp + 0x48]
  0x79fc	dec    	eax
  0x79fd	not    	eax
  0x79ff	dec    	eax
  === BLOCK LINK ===
    0x7a00
=== CODE BLOCK END ===

=== CODE BLOCK ADDRESS 0x7a00 ===
  0x7a00	mov    	dword ptr [0x7602], eax
  0x7a06	dec    	eax
  0x7a07	add    	esp, 0x20
  0x7a0a	pop    	ebp
  0x7a0b	ret    	
  === BLOCK LINK ===
    0x7a0c
=== CODE BLOCK END ===

=== CODE BLOCK ADDRESS 0x7a0c ===
  0x7a0c	int3   	
  0x7a0d	int3   	
  0x7a0e	int3   	
  0x7a0f	int3   	
  0x7a10	int3   	
  === BLOCK LINK ===
    0x7a11
=== CODE BLOCK END ===

=== CODE BLOCK ADDRESS 0x7a11 ===
  0x7a11	int3   	
  0x7a12	int3   	
  0x7a13	int3   	
  0x7a14	mov    	eax, 1
  0x7a19	ret    	
  === BLOCK LINK ===
    0x7a1a
=== CODE BLOCK END ===

=== CODE BLOCK ADDRESS 0x234f ===
  0x234f	dec    	eax
  0x2350	mov    	ecx, dword ptr [ebp + 0x38]
  0x2353	dec    	eax
  0x2354	call   	dword ptr [0x7bee]
  === BLOCK LINK ===
    0x235a
=== CODE BLOCK END ===

=== CODE BLOCK ADDRESS 0x7a1a ===
  0x7a1a	int3   	
  0x7a1b	int3   	
  0x7a1c	int3   	
  0x7a1d	int3   	
  0x7a1e	int3   	
  === BLOCK LINK ===
    0x7a1f
=== CODE BLOCK END ===

=== CODE BLOCK ADDRESS 0x7a1f ===
  0x7a1f	int3   	
  0x7a20	xor    	eax, eax
  0x7a22	ret    	
  0x7a23	int3   	
  0x7a24	int3   	
  === BLOCK LINK ===
    0x7a25
=== CODE BLOCK END ===

=== CODE BLOCK ADDRESS 0x7a25 ===
  0x7a25	int3   	
  0x7a26	int3   	
  0x7a27	int3   	
  0x7a28	int3   	
  0x7a29	int3   	
  === BLOCK LINK ===
    0x7a2a
=== CODE BLOCK END ===

=== CODE BLOCK ADDRESS 0x7a2a ===
  0x7a2a	int3   	
  0x7a2b	int3   	
  0x7a2c	mov    	eax, 0x4000
  0x7a31	ret    	
  0x7a32	int3   	
  === BLOCK LINK ===
    0x7a33
=== CODE BLOCK END ===

=== CODE BLOCK ADDRESS 0x2373 ===
  0x2373	dec    	eax
  0x2374	mov    	ecx, dword ptr [ebp + 0x38]
  0x2377	dec    	eax
  0x2378	call   	dword ptr [0x7bca]
  === BLOCK LINK ===
    0x237e
=== CODE BLOCK END ===

=== CODE BLOCK ADDRESS 0x7a33 ===
  0x7a33	int3   	
  0x7a34	int3   	
  0x7a35	int3   	
  0x7a36	int3   	
  0x7a37	int3   	
  === BLOCK LINK ===
    0x7a38
=== CODE BLOCK END ===

=== CODE BLOCK ADDRESS 0x7a38 ===
  0x7a38	dec    	eax
  0x7a39	lea    	ecx, [0x7bc1]
  0x7a3f	dec    	eax
  0x7a40	jmp    	dword ptr [0x20a2]
  === BLOCK LINK ===
    0x7a46
=== CODE BLOCK END ===

=== CODE BLOCK ADDRESS 0x7a46 ===
  0x7a46	int3   	
  0x7a47	int3   	
  0x7a48	int3   	
  0x7a49	int3   	
  0x7a4a	int3   	
  === BLOCK LINK ===
    0x7a4b
=== CODE BLOCK END ===

=== CODE BLOCK ADDRESS 0x7a4b ===
  0x7a4b	int3   	
  0x7a4c	mov    	al, 1
  0x7a4e	ret    	
  0x7a4f	int3   	
  0x7a50	int3   	
  === BLOCK LINK ===
    0x7a51
=== CODE BLOCK END ===

=== CODE BLOCK ADDRESS 0x7a51 ===
  0x7a51	int3   	
  0x7a52	int3   	
  0x7a53	int3   	
  0x7a54	int3   	
  0x7a55	int3   	
  === BLOCK LINK ===
    0x7a56
=== CODE BLOCK END ===

=== CODE BLOCK ADDRESS 0x7a56 ===
  0x7a56	int3   	
  0x7a57	int3   	
  0x7a58	int3   	
  0x7a59	int3   	
  0x7a5a	int3   	
  === BLOCK LINK ===
    0x7a5b
=== CODE BLOCK END ===

=== CODE BLOCK ADDRESS 0x7a5b ===
  0x7a5b	int3   	
  0x7a5c	int3   	
  0x7a5d	int3   	
  0x7a5e	int3   	
  0x7a5f	int3   	
  === BLOCK LINK ===
    0x7a60
=== CODE BLOCK END ===

=== CODE BLOCK ADDRESS 0x7a60 ===
  0x7a60	ret    	0
  0x7a63	int3   	
  0x7a64	int3   	
  0x7a65	int3   	
  0x7a66	int3   	
  === BLOCK LINK ===
    0x7a67
=== CODE BLOCK END ===

=== CODE BLOCK ADDRESS 0x2397 ===
  0x2397	dec    	eax
  0x2398	mov    	ecx, dword ptr [ebp + 0x38]
  0x239b	dec    	eax
  0x239c	call   	dword ptr [0x7ba6]
  === BLOCK LINK ===
    0x23a2
=== CODE BLOCK END ===

=== CODE BLOCK ADDRESS 0x7a67 ===
  0x7a67	int3   	
  0x7a68	int3   	
  0x7a69	int3   	
  0x7a6a	int3   	
  0x7a6b	int3   	
  === BLOCK LINK ===
    0x7a6c
=== CODE BLOCK END ===

=== CODE BLOCK ADDRESS 0x7a6c ===
  0x7a6c	dec    	eax
  0x7a6d	sub    	esp, 0x28
  0x7a70	call   	0x705c
  === BLOCK LINK ===
    0x7a75
=== CODE BLOCK END ===

=== CODE BLOCK ADDRESS 0x7a75 ===
  0x7a75	dec    	eax
  0x7a76	or     	dword ptr [eax], 4
  0x7a79	call   	0x7094
  === BLOCK LINK ===
    0x7a7e
=== CODE BLOCK END ===

=== CODE BLOCK ADDRESS 0x7a7e ===
  0x7a7e	dec    	eax
  0x7a7f	or     	dword ptr [eax], 2
  0x7a82	dec    	eax
  0x7a83	add    	esp, 0x28
  0x7a86	ret    	
  === BLOCK LINK ===
    0x7a87
=== CODE BLOCK END ===

=== CODE BLOCK ADDRESS 0x7a87 ===
  0x7a87	int3   	
  0x7a88	int3   	
  0x7a89	int3   	
  0x7a8a	int3   	
  0x7a8b	int3   	
  === BLOCK LINK ===
    0x7a8c
=== CODE BLOCK END ===

=== CODE BLOCK ADDRESS 0x7a8c ===
  0x7a8c	int3   	
  0x7a8d	int3   	
  0x7a8e	int3   	
  0x7a8f	int3   	
  0x7a90	dec    	eax
  === BLOCK LINK ===
    0x7a91
=== CODE BLOCK END ===

=== CODE BLOCK ADDRESS 0x7a91 ===
  0x7a91	lea    	eax, [0x7bb1]
  0x7a97	ret    	
  0x7a98	int3   	
  0x7a99	int3   	
  0x7a9a	int3   	
  === BLOCK LINK ===
    0x7a9b
=== CODE BLOCK END ===

=== CODE BLOCK ADDRESS 0x7a9b ===
  0x7a9b	int3   	
  0x7a9c	int3   	
  0x7a9d	int3   	
  0x7a9e	int3   	
  0x7a9f	int3   	
  === BLOCK LINK ===
    0x7aa0
=== CODE BLOCK END ===

=== CODE BLOCK ADDRESS 0x7aa0 ===
  0x7aa0	dec    	eax
  0x7aa1	lea    	eax, [0x7b99]
  0x7aa7	ret    	
  0x7aa8	int3   	
  0x7aa9	int3   	
  === BLOCK LINK ===
    0x7aaa
=== CODE BLOCK END ===

=== CODE BLOCK ADDRESS 0x7aaa ===
  0x7aaa	int3   	
  0x7aab	int3   	
  0x7aac	int3   	
  0x7aad	int3   	
  0x7aae	int3   	
  === BLOCK LINK ===
    0x7aaf
=== CODE BLOCK END ===

=== CODE BLOCK ADDRESS 0x7aaf ===
  0x7aaf	int3   	
  0x7ab0	and    	dword ptr [0x7b59], 0
  0x7ab7	ret    	
  0x7ab8	int3   	
  0x7ab9	int3   	
  === BLOCK LINK ===
    0x7aba
=== CODE BLOCK END ===

=== CODE BLOCK ADDRESS 0x7aba ===
  0x7aba	int3   	
  0x7abb	int3   	
  0x7abc	int3   	
  0x7abd	int3   	
  0x7abe	int3   	
  === BLOCK LINK ===
    0x7abf
=== CODE BLOCK END ===

=== CODE BLOCK ADDRESS 0x7abf ===
  0x7abf	int3   	
  0x7ac0	dec    	eax
  0x7ac1	mov    	dword ptr [esp + 8], ebx
  0x7ac5	push   	ebp
  0x7ac6	dec    	eax
  === BLOCK LINK ===
    0x7ac7
=== CODE BLOCK END ===

=== CODE BLOCK ADDRESS 0x7ac7 ===
  0x7ac7	lea    	ebp, [esp - 0x4c0]
  0x7ace	dec    	eax
  0x7acf	sub    	esp, 0x5c0
  0x7ad5	mov    	ebx, ecx
  0x7ad7	mov    	ecx, 0x17
  === BLOCK LINK ===
    0x7adc
=== CODE BLOCK END ===

=== CODE BLOCK ADDRESS 0x7adc ===
  0x7adc	call   	dword ptr [0x206e]
  === BLOCK LINK ===
    0x7ae2
=== CODE BLOCK END ===

=== CODE BLOCK ADDRESS 0x7ae2 ===
  0x7ae2	test   	eax, eax
  0x7ae4	je     	0x7aea
  === BLOCK LINK ===
    0x7ae6
=== CODE BLOCK END ===

=== CODE BLOCK ADDRESS 0x7ae6 ===
  0x7ae6	mov    	ecx, ebx
  0x7ae8	int    	0x29
  0x7aea	mov    	ecx, 3
  0x7aef	call   	0x7ab0
  === BLOCK LINK ===
    0x7af4
=== CODE BLOCK END ===

=== CODE BLOCK ADDRESS 0x7af4 ===
  0x7af4	xor    	edx, edx
  0x7af6	dec    	eax
  0x7af7	lea    	ecx, [ebp - 0x10]
  0x7afa	inc    	ecx
  0x7afb	mov    	eax, 0x4d0
  === BLOCK LINK ===
    0x7b00
=== CODE BLOCK END ===

=== CODE BLOCK ADDRESS 0x7b00 ===
  0x7b00	call   	0x803e
  === BLOCK LINK ===
    0x7b05
=== CODE BLOCK END ===

=== CODE BLOCK ADDRESS 0x7b05 ===
  0x7b05	dec    	eax
  0x7b06	lea    	ecx, [ebp - 0x10]
  0x7b09	call   	dword ptr [0x2071]
  === BLOCK LINK ===
    0x7b0f
=== CODE BLOCK END ===

=== CODE BLOCK ADDRESS 0x7b0f ===
  0x7b0f	dec    	eax
  0x7b10	mov    	ebx, dword ptr [ebp + 0xe8]
  0x7b16	dec    	eax
  0x7b17	lea    	edx, [ebp + 0x4d8]
  0x7b1d	dec    	eax
  === BLOCK LINK ===
    0x7b1e
=== CODE BLOCK END ===

=== CODE BLOCK ADDRESS 0x7b1e ===
  0x7b1e	mov    	ecx, ebx
  0x7b20	inc    	ebp
  0x7b21	xor    	eax, eax
  0x7b23	call   	dword ptr [0x2047]
  === BLOCK LINK ===
    0x7b29
=== CODE BLOCK END ===

=== CODE BLOCK ADDRESS 0x7b29 ===
  0x7b29	dec    	eax
  0x7b2a	test   	eax, eax
  0x7b2c	je     	0x7b6a
  === BLOCK LINK ===
    0x7b2e
=== CODE BLOCK END ===

=== CODE BLOCK ADDRESS 0x7b2e ===
  0x7b2e	dec    	eax
  0x7b2f	and    	dword ptr [esp + 0x38], 0
  0x7b34	dec    	eax
  0x7b35	lea    	ecx, [ebp + 0x4e0]
  0x7b3b	dec    	eax
  === BLOCK LINK ===
    0x7b3c
=== CODE BLOCK END ===

=== CODE BLOCK ADDRESS 0x7b3c ===
  0x7b3c	mov    	edx, dword ptr [ebp + 0x4d8]
  0x7b42	dec    	esp
  0x7b43	mov    	ecx, eax
  0x7b45	dec    	eax
  0x7b46	mov    	dword ptr [esp + 0x30], ecx
  === BLOCK LINK ===
    0x7b4a
=== CODE BLOCK END ===

=== CODE BLOCK ADDRESS 0x7b4a ===
  0x7b4a	dec    	esp
  0x7b4b	mov    	eax, ebx
  0x7b4d	dec    	eax
  0x7b4e	lea    	ecx, [ebp + 0x4e8]
  0x7b54	dec    	eax
  === BLOCK LINK ===
    0x7b55
=== CODE BLOCK END ===

=== CODE BLOCK ADDRESS 0x7b55 ===
  0x7b55	mov    	dword ptr [esp + 0x28], ecx
  0x7b59	dec    	eax
  0x7b5a	lea    	ecx, [ebp - 0x10]
  0x7b5d	dec    	eax
  0x7b5e	mov    	dword ptr [esp + 0x20], ecx
  === BLOCK LINK ===
    0x7b62
=== CODE BLOCK END ===

=== CODE BLOCK ADDRESS 0x7b62 ===
  0x7b62	xor    	ecx, ecx
  0x7b64	call   	dword ptr [0x200e]
  === BLOCK LINK ===
    0x7b6a
=== CODE BLOCK END ===

=== CODE BLOCK ADDRESS 0x7b6a ===
  0x7b6a	dec    	eax
  0x7b6b	mov    	eax, dword ptr [ebp + 0x4c8]
  0x7b71	dec    	eax
  0x7b72	lea    	ecx, [esp + 0x50]
  0x7b76	dec    	eax
  === BLOCK LINK ===
    0x7b77
=== CODE BLOCK END ===

=== CODE BLOCK ADDRESS 0x7b77 ===
  0x7b77	mov    	dword ptr [ebp + 0xe8], eax
  0x7b7d	xor    	edx, edx
  0x7b7f	dec    	eax
  0x7b80	lea    	eax, [ebp + 0x4c8]
  0x7b86	inc    	ecx
  === BLOCK LINK ===
    0x7b87
=== CODE BLOCK END ===

=== CODE BLOCK ADDRESS 0x7b87 ===
  0x7b87	mov    	eax, 0x98
  0x7b8c	dec    	eax
  0x7b8d	add    	eax, 8
  0x7b90	dec    	eax
  0x7b91	mov    	dword ptr [ebp + 0x88], eax
  === BLOCK LINK ===
    0x7b97
=== CODE BLOCK END ===

=== CODE BLOCK ADDRESS 0x7b97 ===
  0x7b97	call   	0x803e
  === BLOCK LINK ===
    0x7b9c
=== CODE BLOCK END ===

=== CODE BLOCK ADDRESS 0x7b9c ===
  0x7b9c	dec    	eax
  0x7b9d	mov    	eax, dword ptr [ebp + 0x4c8]
  0x7ba3	dec    	eax
  0x7ba4	mov    	dword ptr [esp + 0x60], eax
  0x7ba8	mov    	dword ptr [esp + 0x50], 0x40000015
  === BLOCK LINK ===
    0x7bb0
=== CODE BLOCK END ===

=== CODE BLOCK ADDRESS 0x7bb0 ===
  0x7bb0	mov    	dword ptr [esp + 0x54], 1
  0x7bb8	call   	dword ptr [0x1ed2]
  === BLOCK LINK ===
    0x7bbe
=== CODE BLOCK END ===

=== CODE BLOCK ADDRESS 0x7bbe ===
  0x7bbe	cmp    	eax, 1
  0x7bc1	dec    	eax
  0x7bc2	lea    	eax, [esp + 0x50]
  0x7bc6	dec    	eax
  0x7bc7	mov    	dword ptr [esp + 0x40], eax
  === BLOCK LINK ===
    0x7bcb
=== CODE BLOCK END ===

=== CODE BLOCK ADDRESS 0x7bcb ===
  0x7bcb	dec    	eax
  0x7bcc	lea    	eax, [ebp - 0x10]
  0x7bcf	sete   	bl
  0x7bd2	dec    	eax
  0x7bd3	mov    	dword ptr [esp + 0x48], eax
  === BLOCK LINK ===
    0x7bd7
=== CODE BLOCK END ===

=== CODE BLOCK ADDRESS 0x7bd7 ===
  0x7bd7	xor    	ecx, ecx
  0x7bd9	call   	dword ptr [0x1ed1]
  === BLOCK LINK ===
    0x7bdf
=== CODE BLOCK END ===

=== CODE BLOCK ADDRESS 0x7bdf ===
  0x7bdf	dec    	eax
  0x7be0	lea    	ecx, [esp + 0x40]
  0x7be4	call   	dword ptr [0x1eb6]
  === BLOCK LINK ===
    0x7bea
=== CODE BLOCK END ===

=== CODE BLOCK ADDRESS 0x7bea ===
  0x7bea	test   	eax, eax
  0x7bec	jne    	0x7bfa
  === BLOCK LINK ===
    0x7bee
=== CODE BLOCK END ===

=== CODE BLOCK ADDRESS 0x7bee ===
  0x7bee	test   	bl, bl
  0x7bf0	jne    	0x7bfa
  === BLOCK LINK ===
    0x7bf2
=== CODE BLOCK END ===

=== CODE BLOCK ADDRESS 0x7bf2 ===
  0x7bf2	lea    	ecx, [eax + 3]
  0x7bf5	call   	0x7ab0
  === BLOCK LINK ===
    0x7bfa
=== CODE BLOCK END ===

=== CODE BLOCK ADDRESS 0x7bfa ===
  0x7bfa	dec    	eax
  0x7bfb	mov    	ebx, dword ptr [esp + 0x5d0]
  0x7c02	dec    	eax
  0x7c03	add    	esp, 0x5c0
  0x7c09	pop    	ebp
  === BLOCK LINK ===
    0x7c0a
=== CODE BLOCK END ===

=== CODE BLOCK ADDRESS 0x7c0a ===
  0x7c0a	ret    	
  0x7c0b	int3   	
  0x7c0c	int3   	
  0x7c0d	int3   	
  0x7c0e	int3   	
  === BLOCK LINK ===
    0x7c0f
=== CODE BLOCK END ===

=== CODE BLOCK ADDRESS 0x12af ===
  0x12af	dec    	eax
  0x12b0	mov    	ecx, dword ptr [ebp - 0x50]
  0x12b3	call   	0x3330
  === BLOCK LINK ===
    0x12b8
    0x3330
=== CODE BLOCK END ===

=== CODE BLOCK ADDRESS 0x7c0f ===
  0x7c0f	int3   	
  0x7c10	int3   	
  0x7c11	int3   	
  0x7c12	int3   	
  0x7c13	int3   	
  === BLOCK LINK ===
    0x7c14
=== CODE BLOCK END ===

=== CODE BLOCK ADDRESS 0x7c14 ===
  0x7c14	jmp    	0x7a20
  === BLOCK LINK ===
    0x7c19
=== CODE BLOCK END ===

=== CODE BLOCK ADDRESS 0x7c19 ===
  0x7c19	int3   	
  0x7c1a	int3   	
  0x7c1b	int3   	
  0x7c1c	int3   	
  0x7c1d	int3   	
  === BLOCK LINK ===
    0x7c1e
=== CODE BLOCK END ===

=== CODE BLOCK ADDRESS 0x7c1e ===
  0x7c1e	int3   	
  0x7c1f	int3   	
  0x7c20	dec    	eax
  0x7c21	sub    	esp, 0x28
  0x7c24	xor    	ecx, ecx
  === BLOCK LINK ===
    0x7c26
=== CODE BLOCK END ===

=== CODE BLOCK ADDRESS 0x7c26 ===
  0x7c26	call   	dword ptr [0x1ecc]
  === BLOCK LINK ===
    0x7c2c
=== CODE BLOCK END ===

=== CODE BLOCK ADDRESS 0x7c2c ===
  0x7c2c	dec    	eax
  0x7c2d	test   	eax, eax
  0x7c2f	je     	0x7c6b
  === BLOCK LINK ===
    0x7c31
=== CODE BLOCK END ===

=== CODE BLOCK ADDRESS 0x7c31 ===
  0x7c31	mov    	ecx, 0x5a4d
  0x7c36	cmp    	word ptr [eax], cx
  0x7c39	jne    	0x7c6b
  === BLOCK LINK ===
    0x7c3b
=== CODE BLOCK END ===

=== CODE BLOCK ADDRESS 0x7c3b ===
  0x7c3b	dec    	eax
  0x7c3c	arpl   	word ptr [eax + 0x3c], cx
  0x7c3f	dec    	eax
  0x7c40	add    	ecx, eax
  0x7c42	cmp    	dword ptr [ecx], 0x4550
  === BLOCK LINK ===
    0x7c48
=== CODE BLOCK END ===

=== CODE BLOCK ADDRESS 0x7c48 ===
  0x7c48	jne    	0x7c6b
  === BLOCK LINK ===
    0x7c4a
=== CODE BLOCK END ===

=== CODE BLOCK ADDRESS 0x7c4a ===
  0x7c4a	mov    	eax, 0x20b
  0x7c4f	cmp    	word ptr [ecx + 0x18], ax
  0x7c53	jne    	0x7c6b
  === BLOCK LINK ===
    0x7c55
=== CODE BLOCK END ===

=== CODE BLOCK ADDRESS 0x7c55 ===
  0x7c55	cmp    	dword ptr [ecx + 0x84], 0xe
  0x7c5c	jbe    	0x7c6b
  === BLOCK LINK ===
    0x7c5e
=== CODE BLOCK END ===

=== CODE BLOCK ADDRESS 0x7c5e ===
  0x7c5e	cmp    	dword ptr [ecx + 0xf8], 0
  0x7c65	je     	0x7c6b
  === BLOCK LINK ===
    0x7c67
=== CODE BLOCK END ===

=== CODE BLOCK ADDRESS 0x7c67 ===
  0x7c67	mov    	al, 1
  0x7c69	jmp    	0x7c6d
  === BLOCK LINK ===
    0x7c6b
=== CODE BLOCK END ===

=== CODE BLOCK ADDRESS 0x7c6b ===
  0x7c6b	xor    	al, al
  0x7c6d	dec    	eax
  0x7c6e	add    	esp, 0x28
  0x7c71	ret    	
  0x7c72	int3   	
  === BLOCK LINK ===
    0x7c73
=== CODE BLOCK END ===

=== CODE BLOCK ADDRESS 0x7c73 ===
  0x7c73	int3   	
  0x7c74	int3   	
  0x7c75	int3   	
  0x7c76	int3   	
  0x7c77	int3   	
  === BLOCK LINK ===
    0x7c78
=== CODE BLOCK END ===

=== CODE BLOCK ADDRESS 0x7c78 ===
  0x7c78	dec    	eax
  0x7c79	lea    	ecx, [0x11]
  0x7c7f	dec    	eax
  0x7c80	jmp    	dword ptr [0x1e2a]
  === BLOCK LINK ===
    0x7c86
=== CODE BLOCK END ===

=== CODE BLOCK ADDRESS 0x7c86 ===
  0x7c86	int3   	
  0x7c87	int3   	
  0x7c88	int3   	
  0x7c89	int3   	
  0x7c8a	int3   	
  === BLOCK LINK ===
    0x7c8b
=== CODE BLOCK END ===

=== CODE BLOCK ADDRESS 0x7c8b ===
  0x7c8b	int3   	
  0x7c8c	int3   	
  0x7c8d	int3   	
  0x7c8e	int3   	
  0x7c8f	int3   	
  === BLOCK LINK ===
    0x7c90
=== CODE BLOCK END ===

=== CODE BLOCK ADDRESS 0x7c90 ===
  0x7c90	dec    	eax
  0x7c91	sub    	esp, 0x28
  0x7c94	dec    	eax
  0x7c95	mov    	eax, dword ptr [ecx]
  0x7c97	cmp    	dword ptr [eax], 0xe06d7363
  === BLOCK LINK ===
    0x7c9d
=== CODE BLOCK END ===

=== CODE BLOCK ADDRESS 0x7c9d ===
  0x7c9d	jne    	0x7cbb
  === BLOCK LINK ===
    0x7c9f
=== CODE BLOCK END ===

=== CODE BLOCK ADDRESS 0x7c9f ===
  0x7c9f	cmp    	dword ptr [eax + 0x18], 4
  0x7ca3	jne    	0x7cbb
  === BLOCK LINK ===
    0x7ca5
=== CODE BLOCK END ===

=== CODE BLOCK ADDRESS 0x7ca5 ===
  0x7ca5	mov    	ecx, dword ptr [eax + 0x20]
  0x7ca8	lea    	eax, [ecx - 0x19930520]
  0x7cae	cmp    	eax, 2
  0x7cb1	jbe    	0x7cc2
  === BLOCK LINK ===
    0x7cb3
=== CODE BLOCK END ===

=== CODE BLOCK ADDRESS 0x7cb3 ===
  0x7cb3	cmp    	ecx, 0x1994000
  0x7cb9	je     	0x7cc2
  === BLOCK LINK ===
    0x7cbb
=== CODE BLOCK END ===

=== CODE BLOCK ADDRESS 0x7cbb ===
  0x7cbb	xor    	eax, eax
  0x7cbd	dec    	eax
  0x7cbe	add    	esp, 0x28
  0x7cc1	ret    	
  0x7cc2	call   	0x8026
  === BLOCK LINK ===
    0x7cc7
=== CODE BLOCK END ===

=== CODE BLOCK ADDRESS 0x7cc7 ===
  0x7cc7	int3   	
  0x7cc8	int3   	
  0x7cc9	int3   	
  0x7cca	int3   	
  0x7ccb	int3   	
  === BLOCK LINK ===
    0x7ccc
=== CODE BLOCK END ===

=== CODE BLOCK ADDRESS 0x7ccc ===
  0x7ccc	int3   	
  0x7ccd	int3   	
  0x7cce	int3   	
  0x7ccf	int3   	
  0x7cd0	dec    	eax
  === BLOCK LINK ===
    0x7cd1
=== CODE BLOCK END ===

=== CODE BLOCK ADDRESS 0x7cd1 ===
  0x7cd1	mov    	dword ptr [esp + 8], ebx
  0x7cd5	push   	edi
  0x7cd6	dec    	eax
  0x7cd7	sub    	esp, 0x20
  0x7cda	dec    	eax
  === BLOCK LINK ===
    0x7cdb
=== CODE BLOCK END ===

=== CODE BLOCK ADDRESS 0x7cdb ===
  0x7cdb	lea    	ebx, [0x4297]
  0x7ce1	dec    	eax
  0x7ce2	lea    	edi, [0x4290]
  0x7ce8	jmp    	0x7cfc
  === BLOCK LINK ===
    0x7cea
=== CODE BLOCK END ===

=== CODE BLOCK ADDRESS 0x7cea ===
  0x7cea	dec    	eax
  0x7ceb	mov    	eax, dword ptr [ebx]
  0x7ced	dec    	eax
  0x7cee	test   	eax, eax
  0x7cf0	je     	0x7cf8
  === BLOCK LINK ===
    0x7cf2
=== CODE BLOCK END ===

=== CODE BLOCK ADDRESS 0x7cf2 ===
  0x7cf2	call   	dword ptr [0x2448]
  === BLOCK LINK ===
    0x7cf8
=== CODE BLOCK END ===

=== CODE BLOCK ADDRESS 0x7cf8 ===
  0x7cf8	dec    	eax
  0x7cf9	add    	ebx, 8
  0x7cfc	dec    	eax
  0x7cfd	cmp    	ebx, edi
  0x7cff	jb     	0x7cea
  === BLOCK LINK ===
    0x7d01
=== CODE BLOCK END ===

=== CODE BLOCK ADDRESS 0x7d01 ===
  0x7d01	dec    	eax
  0x7d02	mov    	ebx, dword ptr [esp + 0x30]
  0x7d06	dec    	eax
  0x7d07	add    	esp, 0x20
  0x7d0a	pop    	edi
  === BLOCK LINK ===
    0x7d0b
=== CODE BLOCK END ===

=== CODE BLOCK ADDRESS 0x7d0b ===
  0x7d0b	ret    	
  0x7d0c	int3   	
  0x7d0d	int3   	
  0x7d0e	int3   	
  0x7d0f	int3   	
  === BLOCK LINK ===
    0x7d10
=== CODE BLOCK END ===

=== CODE BLOCK ADDRESS 0x240c ===
  0x240c	dec    	esp
  0x240d	lea    	eax, [0x80bd]
  0x2413	xor    	edx, edx
  0x2415	mov    	ecx, ebx
  === BLOCK LINK ===
    0x2417
=== CODE BLOCK END ===

=== CODE BLOCK ADDRESS 0x7d10 ===
  0x7d10	int3   	
  0x7d11	int3   	
  0x7d12	int3   	
  0x7d13	int3   	
  0x7d14	int3   	
  === BLOCK LINK ===
    0x7d15
=== CODE BLOCK END ===

=== CODE BLOCK ADDRESS 0x7d15 ===
  0x7d15	int3   	
  0x7d16	int3   	
  0x7d17	int3   	
  0x7d18	int3   	
  0x7d19	int3   	
  === BLOCK LINK ===
    0x7d1a
=== CODE BLOCK END ===

=== CODE BLOCK ADDRESS 0x7d1a ===
  0x7d1a	int3   	
  0x7d1b	int3   	
  0x7d1c	int3   	
  0x7d1d	int3   	
  0x7d1e	int3   	
  === BLOCK LINK ===
    0x7d1f
=== CODE BLOCK END ===

=== CODE BLOCK ADDRESS 0x7d1f ===
  0x7d1f	int3   	
  0x7d20	dec    	eax
  0x7d21	mov    	dword ptr [esp + 8], ebx
  0x7d25	push   	edi
  0x7d26	dec    	eax
  === BLOCK LINK ===
    0x7d27
=== CODE BLOCK END ===

=== CODE BLOCK ADDRESS 0x7d27 ===
  0x7d27	sub    	esp, 0x20
  0x7d2a	dec    	eax
  0x7d2b	lea    	ebx, [0x4257]
  0x7d31	dec    	eax
  0x7d32	lea    	edi, [0x4250]
  === BLOCK LINK ===
    0x7d38
=== CODE BLOCK END ===

=== CODE BLOCK ADDRESS 0x7d38 ===
  0x7d38	jmp    	0x7d4c
  === BLOCK LINK ===
    0x7d3a
=== CODE BLOCK END ===

=== CODE BLOCK ADDRESS 0x7d3a ===
  0x7d3a	dec    	eax
  0x7d3b	mov    	eax, dword ptr [ebx]
  0x7d3d	dec    	eax
  0x7d3e	test   	eax, eax
  0x7d40	je     	0x7d48
  === BLOCK LINK ===
    0x7d42
=== CODE BLOCK END ===

=== CODE BLOCK ADDRESS 0x7d42 ===
  0x7d42	call   	dword ptr [0x23f8]
  === BLOCK LINK ===
    0x7d48
=== CODE BLOCK END ===

=== CODE BLOCK ADDRESS 0x7d48 ===
  0x7d48	dec    	eax
  0x7d49	add    	ebx, 8
  0x7d4c	dec    	eax
  0x7d4d	cmp    	ebx, edi
  0x7d4f	jb     	0x7d3a
  === BLOCK LINK ===
    0x7d51
=== CODE BLOCK END ===

=== CODE BLOCK ADDRESS 0x7d51 ===
  0x7d51	dec    	eax
  0x7d52	mov    	ebx, dword ptr [esp + 0x30]
  0x7d56	dec    	eax
  0x7d57	add    	esp, 0x20
  0x7d5a	pop    	edi
  === BLOCK LINK ===
    0x7d5b
=== CODE BLOCK END ===

=== CODE BLOCK ADDRESS 0x7d5b ===
  0x7d5b	ret    	
  0x7d5c	int3   	
  0x7d5d	int3   	
  0x7d5e	int3   	
  0x7d5f	int3   	
  === BLOCK LINK ===
    0x7d60
=== CODE BLOCK END ===

=== CODE BLOCK ADDRESS 0x7d60 ===
  0x7d60	int3   	
  0x7d61	int3   	
  0x7d62	int3   	
  0x7d63	int3   	
  0x7d64	dec    	eax
  === BLOCK LINK ===
    0x7d65
=== CODE BLOCK END ===

=== CODE BLOCK ADDRESS 0x7d65 ===
  0x7d65	mov    	dword ptr [esp + 0x10], ebx
  0x7d69	dec    	eax
  0x7d6a	mov    	dword ptr [esp + 0x18], esi
  0x7d6e	push   	edi
  0x7d6f	dec    	eax
  === BLOCK LINK ===
    0x7d70
=== CODE BLOCK END ===

=== CODE BLOCK ADDRESS 0x7d70 ===
  0x7d70	sub    	esp, 0x10
  0x7d73	xor    	eax, eax
  0x7d75	mov    	dword ptr [0x7295], 2
  0x7d7f	xor    	ecx, ecx
  0x7d81	mov    	dword ptr [0x7285], 1
  === BLOCK LINK ===
    0x7d8b
=== CODE BLOCK END ===

=== CODE BLOCK ADDRESS 0x7d8b ===
  0x7d8b	cpuid  	
  0x7d8d	inc    	esp
  0x7d8e	mov    	eax, ecx
  0x7d90	xor    	edi, edi
  0x7d92	inc    	esp
  === BLOCK LINK ===
    0x7d93
=== CODE BLOCK END ===

=== CODE BLOCK ADDRESS 0x7d93 ===
  0x7d93	mov    	ecx, ebx
  0x7d95	inc    	ecx
  0x7d96	xor    	eax, 0x6c65746e
  0x7d9c	inc    	ecx
  0x7d9d	xor    	ecx, 0x756e6547
  === BLOCK LINK ===
    0x7da3
=== CODE BLOCK END ===

=== CODE BLOCK ADDRESS 0x7da3 ===
  0x7da3	inc    	esp
  0x7da4	mov    	edx, edx
  0x7da6	mov    	esi, eax
  0x7da8	xor    	ecx, ecx
  0x7daa	lea    	eax, [edi + 1]
  === BLOCK LINK ===
    0x7dad
=== CODE BLOCK END ===

=== CODE BLOCK ADDRESS 0x7dad ===
  0x7dad	inc    	ebp
  0x7dae	or     	ecx, eax
  0x7db0	cpuid  	
  0x7db2	inc    	ecx
  0x7db3	xor    	edx, 0x49656e69
  === BLOCK LINK ===
    0x7db9
=== CODE BLOCK END ===

=== CODE BLOCK ADDRESS 0x7db9 ===
  0x7db9	mov    	dword ptr [esp], eax
  0x7dbc	inc    	ebp
  0x7dbd	or     	ecx, edx
  0x7dbf	mov    	dword ptr [esp + 4], ebx
  0x7dc3	inc    	esp
  === BLOCK LINK ===
    0x7dc4
=== CODE BLOCK END ===

=== CODE BLOCK ADDRESS 0x7dc4 ===
  0x7dc4	mov    	ebx, ecx
  0x7dc6	mov    	dword ptr [esp + 8], ecx
  0x7dca	mov    	dword ptr [esp + 0xc], edx
  0x7dce	jne    	0x7e20
  === BLOCK LINK ===
    0x7dd0
=== CODE BLOCK END ===

=== CODE BLOCK ADDRESS 0x7dd0 ===
  0x7dd0	dec    	eax
  0x7dd1	or     	dword ptr [0x7240], 0xffffffff
  0x7dd8	and    	eax, 0xfff3ff0
  0x7ddd	cmp    	eax, 0x106c0
  0x7de2	je     	0x7e0c
  === BLOCK LINK ===
    0x7de4
=== CODE BLOCK END ===

=== CODE BLOCK ADDRESS 0x7de4 ===
  0x7de4	cmp    	eax, 0x20660
  0x7de9	je     	0x7e0c
  === BLOCK LINK ===
    0x7deb
=== CODE BLOCK END ===

=== CODE BLOCK ADDRESS 0x7deb ===
  0x7deb	cmp    	eax, 0x20670
  0x7df0	je     	0x7e0c
  === BLOCK LINK ===
    0x7df2
=== CODE BLOCK END ===

=== CODE BLOCK ADDRESS 0x7df2 ===
  0x7df2	add    	eax, 0xfffcf9b0
  0x7df7	cmp    	eax, 0x20
  0x7dfa	ja     	0x7e20
  === BLOCK LINK ===
    0x7dfc
=== CODE BLOCK END ===

=== CODE BLOCK ADDRESS 0x7dfc ===
  0x7dfc	dec    	eax
  0x7dfd	mov    	ecx, 0x10001
  0x7e02	add    	dword ptr [eax], eax
  0x7e04	add    	byte ptr [eax], al
  0x7e06	dec    	eax
  === BLOCK LINK ===
    0x7e07
=== CODE BLOCK END ===

=== CODE BLOCK ADDRESS 0x7e07 ===
  0x7e07	bt     	ecx, eax
  0x7e0a	jae    	0x7e20
  === BLOCK LINK ===
    0x7e0c
=== CODE BLOCK END ===

=== CODE BLOCK ADDRESS 0x7e0c ===
  0x7e0c	inc    	esp
  0x7e0d	mov    	eax, dword ptr [0x7801]
  0x7e13	inc    	ecx
  0x7e14	or     	eax, 1
  0x7e17	inc    	esp
  === BLOCK LINK ===
    0x7e18
=== CODE BLOCK END ===

=== CODE BLOCK ADDRESS 0x7e18 ===
  0x7e18	mov    	dword ptr [0x77f6], eax
  0x7e1e	jmp    	0x7e27
  === BLOCK LINK ===
    0x7e20
=== CODE BLOCK END ===

=== CODE BLOCK ADDRESS 0x7e20 ===
  0x7e20	inc    	esp
  0x7e21	mov    	eax, dword ptr [0x77ed]
  0x7e27	mov    	eax, 7
  0x7e2c	cmp    	esi, eax
  0x7e2e	jl     	0x7e56
  === BLOCK LINK ===
    0x7e30
=== CODE BLOCK END ===

=== CODE BLOCK ADDRESS 0x7e30 ===
  0x7e30	xor    	ecx, ecx
  0x7e32	cpuid  	
  0x7e34	mov    	dword ptr [esp], eax
  0x7e37	mov    	edi, ebx
  0x7e39	mov    	dword ptr [esp + 4], ebx
  === BLOCK LINK ===
    0x7e3d
=== CODE BLOCK END ===

=== CODE BLOCK ADDRESS 0x7e3d ===
  0x7e3d	mov    	dword ptr [esp + 8], ecx
  0x7e41	mov    	dword ptr [esp + 0xc], edx
  0x7e45	bt     	ebx, 9
  0x7e49	jae    	0x7e56
  === BLOCK LINK ===
    0x7e4b
=== CODE BLOCK END ===

=== CODE BLOCK ADDRESS 0x7e4b ===
  0x7e4b	inc    	ecx
  0x7e4c	or     	eax, 2
  0x7e4f	inc    	esp
  0x7e50	mov    	dword ptr [0x77be], eax
  0x7e56	inc    	ecx
  === BLOCK LINK ===
    0x7e57
=== CODE BLOCK END ===

=== CODE BLOCK ADDRESS 0x7e57 ===
  0x7e57	bt     	ebx, 0x14
  0x7e5b	jae    	0x7ecd
  === BLOCK LINK ===
    0x7e5d
=== CODE BLOCK END ===

=== CODE BLOCK ADDRESS 0x7e5d ===
  0x7e5d	mov    	dword ptr [0x71a9], 2
  0x7e67	mov    	dword ptr [0x71a3], 6
  0x7e71	inc    	ecx
  0x7e72	bt     	ebx, 0x1b
  0x7e76	jae    	0x7ecd
  === BLOCK LINK ===
    0x7e78
=== CODE BLOCK END ===

=== CODE BLOCK ADDRESS 0x7e78 ===
  0x7e78	inc    	ecx
  0x7e79	bt     	ebx, 0x1c
  0x7e7d	jae    	0x7ecd
  === BLOCK LINK ===
    0x7e7f
=== CODE BLOCK END ===

=== CODE BLOCK ADDRESS 0x7e7f ===
  0x7e7f	xor    	ecx, ecx
  0x7e81	xgetbv  	
  0x7e84	dec    	eax
  0x7e85	shl    	edx, 0x20
  0x7e88	dec    	eax
  === BLOCK LINK ===
    0x7e89
=== CODE BLOCK END ===

=== CODE BLOCK ADDRESS 0x7e89 ===
  0x7e89	or     	edx, eax
  0x7e8b	dec    	eax
  0x7e8c	mov    	dword ptr [esp + 0x20], edx
  0x7e90	dec    	eax
  0x7e91	mov    	eax, dword ptr [esp + 0x20]
  === BLOCK LINK ===
    0x7e95
=== CODE BLOCK END ===

=== CODE BLOCK ADDRESS 0x7e95 ===
  0x7e95	and    	al, 6
  0x7e97	cmp    	al, 6
  0x7e99	jne    	0x7ecd
  === BLOCK LINK ===
    0x7e9b
=== CODE BLOCK END ===

=== CODE BLOCK ADDRESS 0x7e9b ===
  0x7e9b	mov    	eax, dword ptr [0x7173]
  0x7ea1	or     	eax, 8
  0x7ea4	mov    	dword ptr [0x7162], 3
  0x7eae	mov    	dword ptr [0x7160], eax
  0x7eb4	inc    	eax
  === BLOCK LINK ===
    0x7eb5
=== CODE BLOCK END ===

=== CODE BLOCK ADDRESS 0x7eb5 ===
  0x7eb5	test   	bh, 0x20
  0x7eb8	je     	0x7ecd
  === BLOCK LINK ===
    0x7eba
=== CODE BLOCK END ===

=== CODE BLOCK ADDRESS 0x7eba ===
  0x7eba	or     	eax, 0x20
  0x7ebd	mov    	dword ptr [0x7149], 5
  0x7ec7	mov    	dword ptr [0x7147], eax
  0x7ecd	dec    	eax
  0x7ece	mov    	ebx, dword ptr [esp + 0x28]
  === BLOCK LINK ===
    0x7ed2
=== CODE BLOCK END ===

=== CODE BLOCK ADDRESS 0x7ed2 ===
  0x7ed2	xor    	eax, eax
  0x7ed4	dec    	eax
  0x7ed5	mov    	esi, dword ptr [esp + 0x30]
  0x7ed9	dec    	eax
  0x7eda	add    	esp, 0x10
  === BLOCK LINK ===
    0x7edd
=== CODE BLOCK END ===

=== CODE BLOCK ADDRESS 0x7edd ===
  0x7edd	pop    	edi
  0x7ede	ret    	
  0x7edf	int3   	
  0x7ee0	int3   	
  0x7ee1	int3   	
  === BLOCK LINK ===
    0x7ee2
=== CODE BLOCK END ===

=== CODE BLOCK ADDRESS 0x7ee2 ===
  0x7ee2	int3   	
  0x7ee3	int3   	
  0x7ee4	int3   	
  0x7ee5	int3   	
  0x7ee6	int3   	
  === BLOCK LINK ===
    0x7ee7
=== CODE BLOCK END ===

=== CODE BLOCK ADDRESS 0x7ee7 ===
  0x7ee7	int3   	
  0x7ee8	xor    	eax, eax
  0x7eea	cmp    	dword ptr [0x7130], eax
  0x7ef0	setne  	al
  0x7ef3	ret    	
  === BLOCK LINK ===
    0x7ef4
=== CODE BLOCK END ===

=== CODE BLOCK ADDRESS 0x7ef4 ===
  0x7ef4	int3   	
  0x7ef5	int3   	
  0x7ef6	int3   	
  0x7ef7	int3   	
  0x7ef8	int3   	
  === BLOCK LINK ===
    0x7ef9
=== CODE BLOCK END ===

=== CODE BLOCK ADDRESS 0x7ef9 ===
  0x7ef9	int3   	
  0x7efa	int3   	
  0x7efb	int3   	
  0x7efc	int3   	
  0x7efd	int3   	
  === BLOCK LINK ===
    0x7efe
=== CODE BLOCK END ===

=== CODE BLOCK ADDRESS 0x7efe ===
  0x7efe	int3   	
  0x7eff	int3   	
  0x7f00	int3   	
  0x7f01	int3   	
  0x7f02	int3   	
  === BLOCK LINK ===
    0x7f03
=== CODE BLOCK END ===

=== CODE BLOCK ADDRESS 0x7f03 ===
  0x7f03	int3   	
  0x7f04	int3   	
  0x7f05	int3   	
  0x7f06	jmp    	dword ptr [0x1e64]
  === BLOCK LINK ===
    0x7f0c
=== CODE BLOCK END ===

=== CODE BLOCK ADDRESS 0x7f0c ===
  0x7f0c	int3   	
  0x7f0d	int3   	
  0x7f0e	int3   	
  0x7f0f	int3   	
  0x7f10	int3   	
  === BLOCK LINK ===
    0x7f11
=== CODE BLOCK END ===

=== CODE BLOCK ADDRESS 0x7f11 ===
  0x7f11	int3   	
  0x7f12	jmp    	dword ptr [0x1e60]
  === BLOCK LINK ===
    0x7f18
=== CODE BLOCK END ===

=== CODE BLOCK ADDRESS 0x7f18 ===
  0x7f18	int3   	
  0x7f19	int3   	
  0x7f1a	int3   	
  0x7f1b	int3   	
  0x7f1c	int3   	
  === BLOCK LINK ===
    0x7f1d
=== CODE BLOCK END ===

=== CODE BLOCK ADDRESS 0x7f1d ===
  0x7f1d	int3   	
  0x7f1e	jmp    	dword ptr [0x1e5c]
  === BLOCK LINK ===
    0x7f24
=== CODE BLOCK END ===

=== CODE BLOCK ADDRESS 0x7f24 ===
  0x7f24	int3   	
  0x7f25	int3   	
  0x7f26	int3   	
  0x7f27	int3   	
  0x7f28	int3   	
  === BLOCK LINK ===
    0x7f29
=== CODE BLOCK END ===

=== CODE BLOCK ADDRESS 0x7f29 ===
  0x7f29	int3   	
  0x7f2a	jmp    	dword ptr [0x1e58]
  === BLOCK LINK ===
    0x7f30
=== CODE BLOCK END ===

=== CODE BLOCK ADDRESS 0x7f30 ===
  0x7f30	int3   	
  0x7f31	int3   	
  0x7f32	int3   	
  0x7f33	int3   	
  0x7f34	int3   	
  === BLOCK LINK ===
    0x7f35
=== CODE BLOCK END ===

=== CODE BLOCK ADDRESS 0x7f35 ===
  0x7f35	int3   	
  0x7f36	jmp    	dword ptr [0x1df4]
  === BLOCK LINK ===
    0x7f3c
=== CODE BLOCK END ===

=== CODE BLOCK ADDRESS 0x7f3c ===
  0x7f3c	int3   	
  0x7f3d	int3   	
  0x7f3e	int3   	
  0x7f3f	int3   	
  0x7f40	int3   	
  === BLOCK LINK ===
    0x7f41
=== CODE BLOCK END ===

=== CODE BLOCK ADDRESS 0x7f41 ===
  0x7f41	int3   	
  0x7f42	jmp    	dword ptr [0x1e10]
  === BLOCK LINK ===
    0x7f48
=== CODE BLOCK END ===

=== CODE BLOCK ADDRESS 0x7f48 ===
  0x7f48	int3   	
  0x7f49	int3   	
  0x7f4a	int3   	
  0x7f4b	int3   	
  0x7f4c	int3   	
  === BLOCK LINK ===
    0x7f4d
=== CODE BLOCK END ===

=== CODE BLOCK ADDRESS 0x7f4d ===
  0x7f4d	int3   	
  0x7f4e	jmp    	dword ptr [0x1dfc]
  === BLOCK LINK ===
    0x7f54
=== CODE BLOCK END ===

=== CODE BLOCK ADDRESS 0x7f54 ===
  0x7f54	int3   	
  0x7f55	int3   	
  0x7f56	int3   	
  0x7f57	int3   	
  0x7f58	int3   	
  === BLOCK LINK ===
    0x7f59
=== CODE BLOCK END ===

=== CODE BLOCK ADDRESS 0x7f59 ===
  0x7f59	int3   	
  0x7f5a	jmp    	dword ptr [0x1de8]
  === BLOCK LINK ===
    0x7f60
=== CODE BLOCK END ===

=== CODE BLOCK ADDRESS 0x7f60 ===
  0x7f60	int3   	
  0x7f61	int3   	
  0x7f62	int3   	
  0x7f63	int3   	
  0x7f64	int3   	
  === BLOCK LINK ===
    0x7f65
=== CODE BLOCK END ===

=== CODE BLOCK ADDRESS 0x7f65 ===
  0x7f65	int3   	
  0x7f66	jmp    	dword ptr [0x1c44]
  === BLOCK LINK ===
    0x7f6c
=== CODE BLOCK END ===

=== CODE BLOCK ADDRESS 0x7f6c ===
  0x7f6c	int3   	
  0x7f6d	int3   	
  0x7f6e	int3   	
  0x7f6f	int3   	
  0x7f70	int3   	
  === BLOCK LINK ===
    0x7f71
=== CODE BLOCK END ===

=== CODE BLOCK ADDRESS 0x7f71 ===
  0x7f71	int3   	
  0x7f72	jmp    	dword ptr [0x1c40]
  === BLOCK LINK ===
    0x7f78
=== CODE BLOCK END ===

=== CODE BLOCK ADDRESS 0x7f78 ===
  0x7f78	int3   	
  0x7f79	int3   	
  0x7f7a	int3   	
  0x7f7b	int3   	
  0x7f7c	int3   	
  === BLOCK LINK ===
    0x7f7d
=== CODE BLOCK END ===

=== CODE BLOCK ADDRESS 0x7f7d ===
  0x7f7d	int3   	
  0x7f7e	jmp    	dword ptr [0x1c3c]
  === BLOCK LINK ===
    0x7f84
=== CODE BLOCK END ===

=== CODE BLOCK ADDRESS 0x7f84 ===
  0x7f84	int3   	
  0x7f85	int3   	
  0x7f86	int3   	
  0x7f87	int3   	
  0x7f88	int3   	
  === BLOCK LINK ===
    0x7f89
=== CODE BLOCK END ===

=== CODE BLOCK ADDRESS 0x7f89 ===
  0x7f89	int3   	
  0x7f8a	jmp    	dword ptr [0x1c40]
  === BLOCK LINK ===
    0x7f90
=== CODE BLOCK END ===

=== CODE BLOCK ADDRESS 0x7f90 ===
  0x7f90	int3   	
  0x7f91	int3   	
  0x7f92	int3   	
  0x7f93	int3   	
  0x7f94	int3   	
  === BLOCK LINK ===
    0x7f95
=== CODE BLOCK END ===

=== CODE BLOCK ADDRESS 0x7f95 ===
  0x7f95	int3   	
  0x7f96	jmp    	dword ptr [0x1c3c]
  === BLOCK LINK ===
    0x7f9c
=== CODE BLOCK END ===

=== CODE BLOCK ADDRESS 0x7f9c ===
  0x7f9c	int3   	
  0x7f9d	int3   	
  0x7f9e	int3   	
  0x7f9f	int3   	
  0x7fa0	int3   	
  === BLOCK LINK ===
    0x7fa1
=== CODE BLOCK END ===

=== CODE BLOCK ADDRESS 0x7fa1 ===
  0x7fa1	int3   	
  0x7fa2	jmp    	dword ptr [0x1c38]
  === BLOCK LINK ===
    0x7fa8
=== CODE BLOCK END ===

=== CODE BLOCK ADDRESS 0x7fa8 ===
  0x7fa8	int3   	
  0x7fa9	int3   	
  0x7faa	int3   	
  0x7fab	int3   	
  0x7fac	int3   	
  === BLOCK LINK ===
    0x7fad
=== CODE BLOCK END ===

=== CODE BLOCK ADDRESS 0x7fad ===
  0x7fad	int3   	
  0x7fae	jmp    	dword ptr [0x1c3c]
  === BLOCK LINK ===
    0x7fb4
=== CODE BLOCK END ===

=== CODE BLOCK ADDRESS 0x7fb4 ===
  0x7fb4	int3   	
  0x7fb5	int3   	
  0x7fb6	int3   	
  0x7fb7	int3   	
  0x7fb8	int3   	
  === BLOCK LINK ===
    0x7fb9
=== CODE BLOCK END ===

=== CODE BLOCK ADDRESS 0x7fb9 ===
  0x7fb9	int3   	
  0x7fba	jmp    	dword ptr [0x1c38]
  === BLOCK LINK ===
    0x7fc0
=== CODE BLOCK END ===

=== CODE BLOCK ADDRESS 0x7fc0 ===
  0x7fc0	int3   	
  0x7fc1	int3   	
  0x7fc2	int3   	
  0x7fc3	int3   	
  0x7fc4	int3   	
  === BLOCK LINK ===
    0x7fc5
=== CODE BLOCK END ===

=== CODE BLOCK ADDRESS 0x7fc5 ===
  0x7fc5	int3   	
  0x7fc6	jmp    	dword ptr [0x1c3c]
  === BLOCK LINK ===
    0x7fcc
=== CODE BLOCK END ===

=== CODE BLOCK ADDRESS 0x7fcc ===
  0x7fcc	int3   	
  0x7fcd	int3   	
  0x7fce	int3   	
  0x7fcf	int3   	
  0x7fd0	int3   	
  === BLOCK LINK ===
    0x7fd1
=== CODE BLOCK END ===

=== CODE BLOCK ADDRESS 0x7fd1 ===
  0x7fd1	int3   	
  0x7fd2	jmp    	dword ptr [0x1c38]
  === BLOCK LINK ===
    0x7fd8
=== CODE BLOCK END ===

=== CODE BLOCK ADDRESS 0x7fd8 ===
  0x7fd8	int3   	
  0x7fd9	int3   	
  0x7fda	int3   	
  0x7fdb	int3   	
  0x7fdc	int3   	
  === BLOCK LINK ===
    0x7fdd
=== CODE BLOCK END ===

=== CODE BLOCK ADDRESS 0x7fdd ===
  0x7fdd	int3   	
  0x7fde	jmp    	dword ptr [0x1c44]
  === BLOCK LINK ===
    0x7fe4
=== CODE BLOCK END ===

=== CODE BLOCK ADDRESS 0x7fe4 ===
  0x7fe4	int3   	
  0x7fe5	int3   	
  0x7fe6	int3   	
  0x7fe7	int3   	
  0x7fe8	int3   	
  === BLOCK LINK ===
    0x7fe9
=== CODE BLOCK END ===

=== CODE BLOCK ADDRESS 0x7fe9 ===
  0x7fe9	int3   	
  0x7fea	jmp    	dword ptr [0x1c40]
  === BLOCK LINK ===
    0x7ff0
=== CODE BLOCK END ===

=== CODE BLOCK ADDRESS 0x7ff0 ===
  0x7ff0	int3   	
  0x7ff1	int3   	
  0x7ff2	int3   	
  0x7ff3	int3   	
  0x7ff4	int3   	
  === BLOCK LINK ===
    0x7ff5
=== CODE BLOCK END ===

=== CODE BLOCK ADDRESS 0x7ff5 ===
  0x7ff5	int3   	
  0x7ff6	jmp    	dword ptr [0x1c3c]
  === BLOCK LINK ===
    0x7ffc
=== CODE BLOCK END ===

=== CODE BLOCK ADDRESS 0x7ffc ===
  0x7ffc	int3   	
  0x7ffd	int3   	
  0x7ffe	int3   	
  0x7fff	int3   	
  0x8000	int3   	
  === BLOCK LINK ===
    0x8001
=== CODE BLOCK END ===

=== CODE BLOCK ADDRESS 0x8001 ===
  0x8001	int3   	
  0x8002	jmp    	dword ptr [0x1c38]
  === BLOCK LINK ===
    0x8008
=== CODE BLOCK END ===

=== CODE BLOCK ADDRESS 0x8008 ===
  0x8008	int3   	
  0x8009	int3   	
  0x800a	int3   	
  0x800b	int3   	
  0x800c	int3   	
  === BLOCK LINK ===
    0x800d
=== CODE BLOCK END ===

=== CODE BLOCK ADDRESS 0x800d ===
  0x800d	int3   	
  0x800e	jmp    	dword ptr [0x1c34]
  === BLOCK LINK ===
    0x8014
=== CODE BLOCK END ===

=== CODE BLOCK ADDRESS 0x8014 ===
  0x8014	int3   	
  0x8015	int3   	
  0x8016	int3   	
  0x8017	int3   	
  0x8018	int3   	
  === BLOCK LINK ===
    0x8019
=== CODE BLOCK END ===

=== CODE BLOCK ADDRESS 0x8019 ===
  0x8019	int3   	
  0x801a	jmp    	dword ptr [0x1c58]
  === BLOCK LINK ===
    0x8020
=== CODE BLOCK END ===

=== CODE BLOCK ADDRESS 0x8020 ===
  0x8020	int3   	
  0x8021	int3   	
  0x8022	int3   	
  0x8023	int3   	
  0x8024	int3   	
  === BLOCK LINK ===
    0x8025
=== CODE BLOCK END ===

=== CODE BLOCK ADDRESS 0x8025 ===
  0x8025	int3   	
  0x8026	jmp    	dword ptr [0x1cf4]
  === BLOCK LINK ===
    0x802c
=== CODE BLOCK END ===

=== CODE BLOCK ADDRESS 0x802c ===
  0x802c	int3   	
  0x802d	int3   	
  0x802e	int3   	
  0x802f	int3   	
  0x8030	int3   	
  === BLOCK LINK ===
    0x8031
=== CODE BLOCK END ===

=== CODE BLOCK ADDRESS 0x8031 ===
  0x8031	int3   	
  0x8032	jmp    	dword ptr [0x1cf0]
  === BLOCK LINK ===
    0x8038
=== CODE BLOCK END ===

=== CODE BLOCK ADDRESS 0x8038 ===
  0x8038	int3   	
  0x8039	int3   	
  0x803a	int3   	
  0x803b	int3   	
  0x803c	int3   	
  === BLOCK LINK ===
    0x803d
=== CODE BLOCK END ===

=== CODE BLOCK ADDRESS 0x803d ===
  0x803d	int3   	
  0x803e	jmp    	dword ptr [0x1d64]
  === BLOCK LINK ===
    0x8044
=== CODE BLOCK END ===

=== CODE BLOCK ADDRESS 0x8044 ===
  0x8044	int3   	
  0x8045	int3   	
  0x8046	int3   	
  0x8047	int3   	
  0x8048	int3   	
  === BLOCK LINK ===
    0x8049
=== CODE BLOCK END ===

=== CODE BLOCK ADDRESS 0x8049 ===
  0x8049	int3   	
  0x804a	int3   	
  0x804b	int3   	
  0x804c	dec    	eax
  0x804d	mov    	dword ptr [esp + 8], ebx
  === BLOCK LINK ===
    0x8051
=== CODE BLOCK END ===

=== CODE BLOCK ADDRESS 0x8051 ===
  0x8051	dec    	eax
  0x8052	mov    	dword ptr [esp + 0x10], esi
  0x8056	push   	edi
  0x8057	dec    	eax
  0x8058	sub    	esp, 0x30
  === BLOCK LINK ===
    0x805b
=== CODE BLOCK END ===

=== CODE BLOCK ADDRESS 0x805b ===
  0x805b	dec    	ecx
  0x805c	mov    	ebx, eax
  0x805e	dec    	eax
  0x805f	mov    	edi, edx
  0x8061	dec    	eax
  === BLOCK LINK ===
    0x8062
=== CODE BLOCK END ===

=== CODE BLOCK ADDRESS 0x8062 ===
  0x8062	mov    	esi, ecx
  0x8064	call   	0x705c
  === BLOCK LINK ===
    0x8069
=== CODE BLOCK END ===

=== CODE BLOCK ADDRESS 0x8069 ===
  0x8069	inc    	ebp
  0x806a	xor    	ecx, ecx
  0x806c	dec    	eax
  0x806d	mov    	dword ptr [esp + 0x20], ebx
  0x8071	dec    	esp
  === BLOCK LINK ===
    0x8072
=== CODE BLOCK END ===

=== CODE BLOCK ADDRESS 0x8072 ===
  0x8072	mov    	eax, edi
  0x8074	dec    	eax
  0x8075	mov    	edx, esi
  0x8077	dec    	eax
  0x8078	mov    	ecx, dword ptr [eax]
  === BLOCK LINK ===
    0x807a
=== CODE BLOCK END ===

=== CODE BLOCK ADDRESS 0x807a ===
  0x807a	call   	0x7f66
  === BLOCK LINK ===
    0x807f
=== CODE BLOCK END ===

=== CODE BLOCK ADDRESS 0x807f ===
  0x807f	dec    	eax
  0x8080	mov    	ebx, dword ptr [esp + 0x40]
  0x8084	dec    	eax
  0x8085	mov    	esi, dword ptr [esp + 0x48]
  0x8089	dec    	eax
  === BLOCK LINK ===
    0x808a
=== CODE BLOCK END ===

=== CODE BLOCK ADDRESS 0x808a ===
  0x808a	add    	esp, 0x30
  0x808d	pop    	edi
  0x808e	ret    	
  0x808f	int3   	
  0x8090	int3   	
  === BLOCK LINK ===
    0x8091
=== CODE BLOCK END ===

=== CODE BLOCK ADDRESS 0x8091 ===
  0x8091	int3   	
  0x8092	int3   	
  0x8093	int3   	
  0x8094	int3   	
  0x8095	int3   	
  === BLOCK LINK ===
    0x8096
=== CODE BLOCK END ===

=== CODE BLOCK ADDRESS 0x8096 ===
  0x8096	int3   	
  0x8097	int3   	
  0x8098	dec    	eax
  0x8099	mov    	eax, esp
  0x809b	dec    	eax
  === BLOCK LINK ===
    0x809c
=== CODE BLOCK END ===

=== CODE BLOCK ADDRESS 0x809c ===
  0x809c	mov    	dword ptr [eax + 0x10], edx
  0x809f	dec    	esp
  0x80a0	mov    	dword ptr [eax + 0x18], eax
  0x80a3	dec    	esp
  0x80a4	mov    	dword ptr [eax + 0x20], ecx
  === BLOCK LINK ===
    0x80a7
=== CODE BLOCK END ===

=== CODE BLOCK ADDRESS 0x80a7 ===
  0x80a7	push   	ebx
  0x80a8	push   	esi
  0x80a9	push   	edi
  0x80aa	dec    	eax
  0x80ab	sub    	esp, 0x30
  === BLOCK LINK ===
    0x80ae
=== CODE BLOCK END ===

=== CODE BLOCK ADDRESS 0x80ae ===
  0x80ae	dec    	eax
  0x80af	mov    	edi, edx
  0x80b1	dec    	eax
  0x80b2	lea    	esi, [eax + 0x18]
  0x80b5	dec    	eax
  === BLOCK LINK ===
    0x80b6
=== CODE BLOCK END ===

=== CODE BLOCK ADDRESS 0x80b6 ===
  0x80b6	mov    	ebx, ecx
  0x80b8	call   	0x705c
  === BLOCK LINK ===
    0x80bd
=== CODE BLOCK END ===

=== CODE BLOCK ADDRESS 0x80bd ===
  0x80bd	inc    	ebp
  0x80be	xor    	ecx, ecx
  0x80c0	dec    	eax
  0x80c1	mov    	dword ptr [esp + 0x20], esi
  0x80c5	dec    	esp
  === BLOCK LINK ===
    0x80c6
=== CODE BLOCK END ===

=== CODE BLOCK ADDRESS 0x80c6 ===
  0x80c6	mov    	eax, edi
  0x80c8	dec    	eax
  0x80c9	mov    	edx, ebx
  0x80cb	dec    	eax
  0x80cc	mov    	ecx, dword ptr [eax]
  === BLOCK LINK ===
    0x80ce
=== CODE BLOCK END ===

=== CODE BLOCK ADDRESS 0x80ce ===
  0x80ce	call   	0x7f66
  === BLOCK LINK ===
    0x80d3
=== CODE BLOCK END ===

=== CODE BLOCK ADDRESS 0x80d3 ===
  0x80d3	dec    	eax
  0x80d4	add    	esp, 0x30
  0x80d7	pop    	edi
  0x80d8	pop    	esi
  0x80d9	pop    	ebx
  === BLOCK LINK ===
    0x80da
=== CODE BLOCK END ===

=== CODE BLOCK ADDRESS 0x80da ===
  0x80da	ret    	
  0x80db	int3   	
  0x80dc	int3   	
  0x80dd	int3   	
  0x80de	int3   	
  === BLOCK LINK ===
    0x80df
=== CODE BLOCK END ===

=== CODE BLOCK ADDRESS 0x80df ===
  0x80df	int3   	
  0x80e0	int3   	
  0x80e1	int3   	
  0x80e2	int3   	
  0x80e3	int3   	
  === BLOCK LINK ===
    0x80e4
=== CODE BLOCK END ===

=== CODE BLOCK ADDRESS 0x80e4 ===
  0x80e4	dec    	eax
  0x80e5	mov    	eax, esp
  0x80e7	dec    	eax
  0x80e8	mov    	dword ptr [eax + 8], ecx
  0x80eb	dec    	eax
  === BLOCK LINK ===
    0x80ec
=== CODE BLOCK END ===

=== CODE BLOCK ADDRESS 0x80ec ===
  0x80ec	mov    	dword ptr [eax + 0x10], edx
  0x80ef	dec    	esp
  0x80f0	mov    	dword ptr [eax + 0x18], eax
  0x80f3	dec    	esp
  0x80f4	mov    	dword ptr [eax + 0x20], ecx
  === BLOCK LINK ===
    0x80f7
=== CODE BLOCK END ===

=== CODE BLOCK ADDRESS 0x80f7 ===
  0x80f7	push   	ebx
  0x80f8	push   	edi
  0x80f9	dec    	eax
  0x80fa	sub    	esp, 0x38
  0x80fd	mov    	ecx, 1
  === BLOCK LINK ===
    0x8102
=== CODE BLOCK END ===

=== CODE BLOCK ADDRESS 0x8102 ===
  0x8102	dec    	eax
  0x8103	lea    	edi, [eax + 0x10]
  0x8106	call   	0x7f36
  === BLOCK LINK ===
    0x810b
=== CODE BLOCK END ===

=== CODE BLOCK ADDRESS 0x810b ===
  0x810b	dec    	eax
  0x810c	mov    	ebx, eax
  0x810e	call   	0x705c
  === BLOCK LINK ===
    0x8113
=== CODE BLOCK END ===

=== CODE BLOCK ADDRESS 0x8113 ===
  0x8113	dec    	esp
  0x8114	mov    	eax, dword ptr [esp + 0x50]
  0x8118	inc    	ebp
  0x8119	xor    	ecx, ecx
  0x811b	dec    	eax
  === BLOCK LINK ===
    0x811c
=== CODE BLOCK END ===

=== CODE BLOCK ADDRESS 0x811c ===
  0x811c	mov    	edx, ebx
  0x811e	dec    	eax
  0x811f	mov    	dword ptr [esp + 0x20], edi
  0x8123	dec    	eax
  0x8124	mov    	ecx, dword ptr [eax]
  === BLOCK LINK ===
    0x8126
=== CODE BLOCK END ===

=== CODE BLOCK ADDRESS 0x8126 ===
  0x8126	call   	0x7f66
  === BLOCK LINK ===
    0x812b
=== CODE BLOCK END ===

=== CODE BLOCK ADDRESS 0x812b ===
  0x812b	dec    	eax
  0x812c	add    	esp, 0x38
  0x812f	pop    	edi
  0x8130	pop    	ebx
  0x8131	ret    	
  === BLOCK LINK ===
    0x8132
=== CODE BLOCK END ===

=== CODE BLOCK ADDRESS 0x8132 ===
  0x8132	int3   	
  0x8133	int3   	
  0x8134	int3   	
  0x8135	int3   	
  0x8136	int3   	
  === BLOCK LINK ===
    0x8137
=== CODE BLOCK END ===

=== CODE BLOCK ADDRESS 0x8137 ===
  0x8137	int3   	
  0x8138	dec    	eax
  0x8139	mov    	dword ptr [esp + 8], ebx
  0x813d	dec    	eax
  0x813e	mov    	dword ptr [esp + 0x10], ebp
  === BLOCK LINK ===
    0x8142
=== CODE BLOCK END ===

=== CODE BLOCK ADDRESS 0x8142 ===
  0x8142	dec    	eax
  0x8143	mov    	dword ptr [esp + 0x18], esi
  0x8147	push   	edi
  0x8148	dec    	eax
  0x8149	sub    	esp, 0x30
  === BLOCK LINK ===
    0x814c
=== CODE BLOCK END ===

=== CODE BLOCK ADDRESS 0x814c ===
  0x814c	dec    	ecx
  0x814d	mov    	ebx, ecx
  0x814f	dec    	ecx
  0x8150	mov    	edi, eax
  0x8152	dec    	eax
  === BLOCK LINK ===
    0x8153
=== CODE BLOCK END ===

=== CODE BLOCK ADDRESS 0x8153 ===
  0x8153	mov    	esi, edx
  0x8155	dec    	eax
  0x8156	mov    	ebp, ecx
  0x8158	call   	0x705c
  === BLOCK LINK ===
    0x815d
=== CODE BLOCK END ===

=== CODE BLOCK ADDRESS 0x815d ===
  0x815d	dec    	eax
  0x815e	mov    	dword ptr [esp + 0x28], ebx
  0x8162	dec    	esp
  0x8163	mov    	ecx, edi
  0x8165	dec    	eax
  === BLOCK LINK ===
    0x8166
=== CODE BLOCK END ===

=== CODE BLOCK ADDRESS 0x8166 ===
  0x8166	and    	dword ptr [esp + 0x20], 0
  0x816b	dec    	esp
  0x816c	mov    	eax, esi
  0x816e	dec    	eax
  0x816f	mov    	edx, ebp
  === BLOCK LINK ===
    0x8171
=== CODE BLOCK END ===

=== CODE BLOCK ADDRESS 0x8171 ===
  0x8171	dec    	eax
  0x8172	mov    	ecx, dword ptr [eax]
  0x8174	dec    	eax
  0x8175	or     	ecx, 2
  0x8178	call   	0x7f72
  === BLOCK LINK ===
    0x817d
=== CODE BLOCK END ===

=== CODE BLOCK ADDRESS 0x817d ===
  0x817d	dec    	eax
  0x817e	mov    	ebx, dword ptr [esp + 0x40]
  0x8182	or     	ecx, 0xffffffff
  0x8185	dec    	eax
  0x8186	mov    	ebp, dword ptr [esp + 0x48]
  === BLOCK LINK ===
    0x818a
=== CODE BLOCK END ===

=== CODE BLOCK ADDRESS 0x818a ===
  0x818a	test   	eax, eax
  0x818c	dec    	eax
  0x818d	mov    	esi, dword ptr [esp + 0x50]
  0x8191	cmovs  	eax, ecx
  0x8194	dec    	eax
  === BLOCK LINK ===
    0x8195
=== CODE BLOCK END ===

=== CODE BLOCK ADDRESS 0x8195 ===
  0x8195	add    	esp, 0x30
  0x8198	pop    	edi
  0x8199	ret    	
  0x819a	int3   	
  0x819b	int3   	
  === BLOCK LINK ===
    0x819c
=== CODE BLOCK END ===

=== CODE BLOCK ADDRESS 0x819c ===
  0x819c	int3   	
  0x819d	int3   	
  0x819e	int3   	
  0x819f	int3   	
  0x81a0	dec    	eax
  === BLOCK LINK ===
    0x81a1
=== CODE BLOCK END ===

=== CODE BLOCK ADDRESS 0x81a1 ===
  0x81a1	mov    	eax, esp
  0x81a3	dec    	eax
  0x81a4	mov    	dword ptr [eax + 0x10], edx
  0x81a7	dec    	esp
  0x81a8	mov    	dword ptr [eax + 0x18], eax
  === BLOCK LINK ===
    0x81ab
=== CODE BLOCK END ===

=== CODE BLOCK ADDRESS 0x81ab ===
  0x81ab	dec    	esp
  0x81ac	mov    	dword ptr [eax + 0x20], ecx
  0x81af	push   	ebx
  0x81b0	push   	esi
  0x81b1	push   	edi
  === BLOCK LINK ===
    0x81b2
=== CODE BLOCK END ===

=== CODE BLOCK ADDRESS 0x81b2 ===
  0x81b2	dec    	eax
  0x81b3	sub    	esp, 0x30
  0x81b6	dec    	eax
  0x81b7	mov    	ebx, edx
  0x81b9	dec    	eax
  === BLOCK LINK ===
    0x81ba
=== CODE BLOCK END ===

=== CODE BLOCK ADDRESS 0x81ba ===
  0x81ba	lea    	esi, [eax + 0x18]
  0x81bd	dec    	eax
  0x81be	mov    	edi, ecx
  0x81c0	call   	0x705c
  === BLOCK LINK ===
    0x81c5
=== CODE BLOCK END ===

=== CODE BLOCK ADDRESS 0x81c5 ===
  0x81c5	dec    	esp
  0x81c6	mov    	ecx, ebx
  0x81c8	dec    	eax
  0x81c9	mov    	dword ptr [esp + 0x28], esi
  0x81cd	dec    	eax
  === BLOCK LINK ===
    0x81ce
=== CODE BLOCK END ===

=== CODE BLOCK ADDRESS 0x81ce ===
  0x81ce	and    	dword ptr [esp + 0x20], 0
  0x81d3	dec    	eax
  0x81d4	or     	ebx, 0xffffffff
  0x81d7	dec    	esp
  0x81d8	mov    	eax, ebx
  === BLOCK LINK ===
    0x81da
=== CODE BLOCK END ===

=== CODE BLOCK ADDRESS 0x81da ===
  0x81da	dec    	eax
  0x81db	mov    	edx, edi
  0x81dd	dec    	eax
  0x81de	mov    	ecx, dword ptr [eax]
  0x81e0	dec    	eax
  === BLOCK LINK ===
    0x81e1
=== CODE BLOCK END ===

=== CODE BLOCK ADDRESS 0x81e1 ===
  0x81e1	or     	ecx, 1
  0x81e4	call   	0x7f72
  === BLOCK LINK ===
    0x81e9
=== CODE BLOCK END ===

=== CODE BLOCK ADDRESS 0x81e9 ===
  0x81e9	test   	eax, eax
  0x81eb	cmovs  	eax, ebx
  0x81ee	dec    	eax
  0x81ef	add    	esp, 0x30
  0x81f2	pop    	edi
  === BLOCK LINK ===
    0x81f3
=== CODE BLOCK END ===

=== CODE BLOCK ADDRESS 0x81f3 ===
  0x81f3	pop    	esi
  0x81f4	pop    	ebx
  0x81f5	ret    	
  0x81f6	int3   	
  0x81f7	int3   	
  === BLOCK LINK ===
    0x81f8
=== CODE BLOCK END ===

=== CODE BLOCK ADDRESS 0x81f8 ===
  0x81f8	int3   	
  0x81f9	int3   	
  0x81fa	int3   	
  0x81fb	int3   	
  0x81fc	dec    	eax
  === BLOCK LINK ===
    0x81fd
=== CODE BLOCK END ===

=== CODE BLOCK ADDRESS 0x81fd ===
  0x81fd	sub    	esp, 0x28
  0x8200	dec    	ebp
  0x8201	mov    	eax, dword ptr [ecx + 0x38]
  0x8204	dec    	eax
  0x8205	mov    	ecx, edx
  === BLOCK LINK ===
    0x8207
=== CODE BLOCK END ===

=== CODE BLOCK ADDRESS 0x8207 ===
  0x8207	dec    	ecx
  0x8208	mov    	edx, ecx
  0x820a	call   	0x8220
  === BLOCK LINK ===
    0x820f
=== CODE BLOCK END ===

=== CODE BLOCK ADDRESS 0x820f ===
  0x820f	mov    	eax, 1
  0x8214	dec    	eax
  0x8215	add    	esp, 0x28
  0x8218	ret    	
  0x8219	int3   	
  === BLOCK LINK ===
    0x821a
=== CODE BLOCK END ===

=== CODE BLOCK ADDRESS 0x821a ===
  0x821a	int3   	
  0x821b	int3   	
  0x821c	int3   	
  0x821d	int3   	
  0x821e	int3   	
  === BLOCK LINK ===
    0x821f
=== CODE BLOCK END ===

=== CODE BLOCK ADDRESS 0x821f ===
  0x821f	int3   	
  0x8220	inc    	eax
  0x8221	push   	ebx
  0x8222	inc    	ebp
  0x8223	mov    	ebx, dword ptr [eax]
  === BLOCK LINK ===
    0x8225
=== CODE BLOCK END ===

=== CODE BLOCK ADDRESS 0x8225 ===
  0x8225	dec    	eax
  0x8226	mov    	ebx, edx
  0x8228	inc    	ecx
  0x8229	and    	ebx, 0xfffffff8
  0x822c	dec    	esp
  === BLOCK LINK ===
    0x822d
=== CODE BLOCK END ===

=== CODE BLOCK ADDRESS 0x822d ===
  0x822d	mov    	ecx, ecx
  0x822f	inc    	ecx
  0x8230	test   	byte ptr [eax], 4
  0x8233	dec    	esp
  0x8234	mov    	edx, ecx
  === BLOCK LINK ===
    0x8236
=== CODE BLOCK END ===

=== CODE BLOCK ADDRESS 0x8236 ===
  0x8236	je     	0x824b
  === BLOCK LINK ===
    0x8238
=== CODE BLOCK END ===

=== CODE BLOCK ADDRESS 0x8238 ===
  0x8238	inc    	ecx
  0x8239	mov    	eax, dword ptr [eax + 8]
  0x823c	dec    	ebp
  0x823d	arpl   	word ptr [eax + 4], dx
  0x8240	neg    	eax
  === BLOCK LINK ===
    0x8242
=== CODE BLOCK END ===

=== CODE BLOCK ADDRESS 0x8242 ===
  0x8242	dec    	esp
  0x8243	add    	edx, ecx
  0x8245	dec    	eax
  0x8246	arpl   	ax, cx
  0x8248	dec    	esp
  === BLOCK LINK ===
    0x8249
=== CODE BLOCK END ===

=== CODE BLOCK ADDRESS 0x8249 ===
  0x8249	and    	edx, ecx
  0x824b	dec    	ecx
  0x824c	arpl   	bx, ax
  0x824e	dec    	edx
  0x824f	mov    	edx, dword ptr [eax + edx]
  === BLOCK LINK ===
    0x8252
=== CODE BLOCK END ===

=== CODE BLOCK ADDRESS 0x8252 ===
  0x8252	dec    	eax
  0x8253	mov    	eax, dword ptr [ebx + 0x10]
  0x8256	mov    	ecx, dword ptr [eax + 8]
  0x8259	dec    	eax
  0x825a	mov    	eax, dword ptr [ebx + 8]
  === BLOCK LINK ===
    0x825d
=== CODE BLOCK END ===

=== CODE BLOCK ADDRESS 0x825d ===
  0x825d	test   	byte ptr [ecx + eax + 3], 0xf
  0x8262	je     	0x826f
  === BLOCK LINK ===
    0x8264
=== CODE BLOCK END ===

=== CODE BLOCK ADDRESS 0x8264 ===
  0x8264	movzx  	eax, byte ptr [ecx + eax + 3]
  0x8269	and    	eax, 0xfffffff0
  0x826c	dec    	esp
  0x826d	add    	ecx, eax
  0x826f	dec    	esp
  === BLOCK LINK ===
    0x8270
=== CODE BLOCK END ===

=== CODE BLOCK ADDRESS 0x8270 ===
  0x8270	xor    	ecx, edx
  0x8272	dec    	ecx
  0x8273	mov    	ecx, ecx
  0x8275	pop    	ebx
  0x8276	jmp    	0x7390
  === BLOCK LINK ===
    0x827b
=== CODE BLOCK END ===

=== CODE BLOCK ADDRESS 0x827b ===
  0x827b	int3   	
  0x827c	int3   	
  0x827d	int3   	
  0x827e	int3   	
  0x827f	int3   	
  === BLOCK LINK ===
    0x8280
=== CODE BLOCK END ===

=== CODE BLOCK ADDRESS 0x8280 ===
  0x8280	int3   	
  0x8281	jmp    	dword ptr [0x1b39]
  === BLOCK LINK ===
    0x8287
=== CODE BLOCK END ===

=== CODE BLOCK ADDRESS 0x8287 ===
  0x8287	int3   	
  0x8288	int3   	
  0x8289	int3   	
  0x828a	int3   	
  0x828b	int3   	
  === BLOCK LINK ===
    0x828c
=== CODE BLOCK END ===

=== CODE BLOCK ADDRESS 0x828c ===
  0x828c	int3   	
  0x828d	jmp    	dword ptr [0x1acd]
  === BLOCK LINK ===
    0x8293
=== CODE BLOCK END ===

=== CODE BLOCK ADDRESS 0x8293 ===
  0x8293	int3   	
  0x8294	int3   	
  0x8295	int3   	
  0x8296	int3   	
  0x8297	int3   	
  === BLOCK LINK ===
    0x8298
=== CODE BLOCK END ===

=== CODE BLOCK ADDRESS 0x8298 ===
  0x8298	int3   	
  0x8299	jmp    	dword ptr [0x19c9]
  === BLOCK LINK ===
    0x829f
=== CODE BLOCK END ===

=== CODE BLOCK ADDRESS 0x829f ===
  0x829f	int3   	
  0x82a0	int3   	
  0x82a1	int3   	
  0x82a2	int3   	
  0x82a3	int3   	
  === BLOCK LINK ===
    0x82a4
=== CODE BLOCK END ===

=== CODE BLOCK ADDRESS 0x82a4 ===
  0x82a4	int3   	
  0x82a5	int3   	
  0x82a6	nop    	word ptr [eax + eax]
  0x82b0	jmp    	eax
  === BLOCK LINK ===
    0x82b2
=== CODE BLOCK END ===

=== CODE BLOCK ADDRESS 0x82b2 ===
  0x82b2	int3   	
  0x82b3	int3   	
  0x82b4	int3   	
  0x82b5	int3   	
  0x82b6	int3   	
  === BLOCK LINK ===
    0x82b7
=== CODE BLOCK END ===

=== CODE BLOCK ADDRESS 0x82b7 ===
  0x82b7	int3   	
  0x82b8	inc    	eax
  0x82b9	push   	ebp
  0x82ba	dec    	eax
  0x82bb	sub    	esp, 0x20
  === BLOCK LINK ===
    0x82be
=== CODE BLOCK END ===

=== CODE BLOCK ADDRESS 0x82be ===
  0x82be	dec    	eax
  0x82bf	mov    	ebp, edx
  0x82c1	dec    	eax
  0x82c2	mov    	eax, dword ptr [ecx]
  0x82c4	dec    	eax
  === BLOCK LINK ===
    0x82c5
=== CODE BLOCK END ===

=== CODE BLOCK ADDRESS 0x82c5 ===
  0x82c5	mov    	edx, ecx
  0x82c7	mov    	ecx, dword ptr [eax]
  0x82c9	call   	0x7fea
  === BLOCK LINK ===
    0x82ce
=== CODE BLOCK END ===

=== CODE BLOCK ADDRESS 0x82ce ===
  0x82ce	nop    	
  0x82cf	dec    	eax
  0x82d0	add    	esp, 0x20
  0x82d3	pop    	ebp
  0x82d4	ret    	
  === BLOCK LINK ===
    0x82d5
=== CODE BLOCK END ===

=== CODE BLOCK ADDRESS 0x82d5 ===
  0x82d5	int3   	
  0x82d6	int3   	
  0x82d7	int3   	
  0x82d8	int3   	
  0x82d9	int3   	
  === BLOCK LINK ===
    0x82da
=== CODE BLOCK END ===

=== CODE BLOCK ADDRESS 0x82da ===
  0x82da	int3   	
  0x82db	int3   	
  0x82dc	inc    	eax
  0x82dd	push   	ebp
  0x82de	dec    	eax
  === BLOCK LINK ===
    0x82df
=== CODE BLOCK END ===

=== CODE BLOCK ADDRESS 0x82df ===
  0x82df	mov    	ebp, edx
  0x82e1	dec    	eax
  0x82e2	mov    	eax, dword ptr [ecx]
  0x82e4	xor    	ecx, ecx
  0x82e6	cmp    	dword ptr [eax], 0xc0000005
  === BLOCK LINK ===
    0x82ec
=== CODE BLOCK END ===

=== CODE BLOCK ADDRESS 0x82ec ===
  0x82ec	sete   	cl
  0x82ef	mov    	eax, ecx
  0x82f1	pop    	ebp
  0x82f2	ret    	
  0x82f3	int3   	
  === BLOCK LINK ===
    0x82f4
=== CODE BLOCK END ===

=== CODE BLOCK ADDRESS 0x243f ===
=== CODE BLOCK END ===

=== CODE BLOCK ADDRESS 0x82f4 ===
  0x82f4	add    	byte ptr [eax], al
  0x82f6	add    	byte ptr [eax], al
  0x82f8	add    	byte ptr [eax], al
  0x82fa	add    	byte ptr [eax], al
  0x82fc	add    	byte ptr [eax], al
  === BLOCK LINK ===
    0x82fe
=== CODE BLOCK END ===

=== CODE BLOCK ADDRESS 0x82fe ===
  0x82fe	add    	byte ptr [eax], al
  0x8300	add    	byte ptr [eax], al
  0x8302	add    	byte ptr [eax], al
  0x8304	add    	byte ptr [eax], al
  0x8306	add    	byte ptr [eax], al
  === BLOCK LINK ===
    0x8308
=== CODE BLOCK END ===

=== CODE BLOCK ADDRESS 0x8308 ===
  0x8308	add    	byte ptr [eax], al
  0x830a	add    	byte ptr [eax], al
  0x830c	add    	byte ptr [eax], al
  0x830e	add    	byte ptr [eax], al
  0x8310	add    	byte ptr [eax], al
  === BLOCK LINK ===
    0x8312
=== CODE BLOCK END ===

=== CODE BLOCK ADDRESS 0x8312 ===
  0x8312	add    	byte ptr [eax], al
  0x8314	add    	byte ptr [eax], al
  0x8316	add    	byte ptr [eax], al
  0x8318	add    	byte ptr [eax], al
  0x831a	add    	byte ptr [eax], al
  === BLOCK LINK ===
    0x831c
=== CODE BLOCK END ===

=== CODE BLOCK ADDRESS 0x831c ===
  0x831c	add    	byte ptr [eax], al
  0x831e	add    	byte ptr [eax], al
  0x8320	add    	byte ptr [eax], al
  0x8322	add    	byte ptr [eax], al
  0x8324	add    	byte ptr [eax], al
  === BLOCK LINK ===
    0x8326
=== CODE BLOCK END ===

=== CODE BLOCK ADDRESS 0x8326 ===
  0x8326	add    	byte ptr [eax], al
  0x8328	add    	byte ptr [eax], al
  0x832a	add    	byte ptr [eax], al
  0x832c	add    	byte ptr [eax], al
  0x832e	add    	byte ptr [eax], al
  === BLOCK LINK ===
    0x8330
=== CODE BLOCK END ===

=== CODE BLOCK ADDRESS 0x8330 ===
  0x8330	add    	byte ptr [eax], al
  0x8332	add    	byte ptr [eax], al
  0x8334	add    	byte ptr [eax], al
  0x8336	add    	byte ptr [eax], al
  0x8338	add    	byte ptr [eax], al
  === BLOCK LINK ===
    0x833a
=== CODE BLOCK END ===

=== CODE BLOCK ADDRESS 0x833a ===
  0x833a	add    	byte ptr [eax], al
  0x833c	add    	byte ptr [eax], al
  0x833e	add    	byte ptr [eax], al
  0x8340	add    	byte ptr [eax], al
  0x8342	add    	byte ptr [eax], al
  === BLOCK LINK ===
    0x8344
=== CODE BLOCK END ===

=== CODE BLOCK ADDRESS 0x8344 ===
  0x8344	add    	byte ptr [eax], al
  0x8346	add    	byte ptr [eax], al
  0x8348	add    	byte ptr [eax], al
  0x834a	add    	byte ptr [eax], al
  0x834c	add    	byte ptr [eax], al
  === BLOCK LINK ===
    0x834e
=== CODE BLOCK END ===

=== CODE BLOCK ADDRESS 0x834e ===
  0x834e	add    	byte ptr [eax], al
  0x8350	add    	byte ptr [eax], al
  0x8352	add    	byte ptr [eax], al
  0x8354	add    	byte ptr [eax], al
  0x8356	add    	byte ptr [eax], al
  === BLOCK LINK ===
    0x8358
=== CODE BLOCK END ===

=== CODE BLOCK ADDRESS 0x8358 ===
  0x8358	add    	byte ptr [eax], al
  0x835a	add    	byte ptr [eax], al
  0x835c	add    	byte ptr [eax], al
  0x835e	add    	byte ptr [eax], al
  0x8360	add    	byte ptr [eax], al
  === BLOCK LINK ===
    0x8362
=== CODE BLOCK END ===

=== CODE BLOCK ADDRESS 0x8362 ===
  0x8362	add    	byte ptr [eax], al
  0x8364	add    	byte ptr [eax], al
  0x8366	add    	byte ptr [eax], al
  0x8368	add    	byte ptr [eax], al
  0x836a	add    	byte ptr [eax], al
  === BLOCK LINK ===
    0x836c
=== CODE BLOCK END ===

=== CODE BLOCK ADDRESS 0x836c ===
  0x836c	add    	byte ptr [eax], al
  0x836e	add    	byte ptr [eax], al
  0x8370	add    	byte ptr [eax], al
  0x8372	add    	byte ptr [eax], al
  0x8374	add    	byte ptr [eax], al
  === BLOCK LINK ===
    0x8376
=== CODE BLOCK END ===

=== CODE BLOCK ADDRESS 0x8376 ===
  0x8376	add    	byte ptr [eax], al
  0x8378	add    	byte ptr [eax], al
  0x837a	add    	byte ptr [eax], al
  0x837c	add    	byte ptr [eax], al
  0x837e	add    	byte ptr [eax], al
  === BLOCK LINK ===
    0x8380
=== CODE BLOCK END ===

=== CODE BLOCK ADDRESS 0x8380 ===
  0x8380	add    	byte ptr [eax], al
  0x8382	add    	byte ptr [eax], al
  0x8384	add    	byte ptr [eax], al
  0x8386	add    	byte ptr [eax], al
  0x8388	add    	byte ptr [eax], al
  === BLOCK LINK ===
    0x838a
=== CODE BLOCK END ===

=== CODE BLOCK ADDRESS 0x838a ===
  0x838a	add    	byte ptr [eax], al
  0x838c	add    	byte ptr [eax], al
  0x838e	add    	byte ptr [eax], al
  0x8390	add    	byte ptr [eax], al
  0x8392	add    	byte ptr [eax], al
  === BLOCK LINK ===
    0x8394
=== CODE BLOCK END ===

=== CODE BLOCK ADDRESS 0x8394 ===
  0x8394	add    	byte ptr [eax], al
  0x8396	add    	byte ptr [eax], al
  0x8398	add    	byte ptr [eax], al
  0x839a	add    	byte ptr [eax], al
  0x839c	add    	byte ptr [eax], al
  === BLOCK LINK ===
    0x839e
=== CODE BLOCK END ===

=== CODE BLOCK ADDRESS 0x839e ===
  0x839e	add    	byte ptr [eax], al
  0x83a0	add    	byte ptr [eax], al
  0x83a2	add    	byte ptr [eax], al
  0x83a4	add    	byte ptr [eax], al
  0x83a6	add    	byte ptr [eax], al
  === BLOCK LINK ===
    0x83a8
=== CODE BLOCK END ===

=== CODE BLOCK ADDRESS 0x83a8 ===
  0x83a8	add    	byte ptr [eax], al
  0x83aa	add    	byte ptr [eax], al
  0x83ac	add    	byte ptr [eax], al
  0x83ae	add    	byte ptr [eax], al
  0x83b0	add    	byte ptr [eax], al
  === BLOCK LINK ===
    0x83b2
=== CODE BLOCK END ===

=== CODE BLOCK ADDRESS 0x83b2 ===
  0x83b2	add    	byte ptr [eax], al
  0x83b4	add    	byte ptr [eax], al
  0x83b6	add    	byte ptr [eax], al
  0x83b8	add    	byte ptr [eax], al
  0x83ba	add    	byte ptr [eax], al
  === BLOCK LINK ===
    0x83bc
=== CODE BLOCK END ===

=== CODE BLOCK ADDRESS 0x83bc ===
  0x83bc	add    	byte ptr [eax], al
  0x83be	add    	byte ptr [eax], al
  0x83c0	add    	byte ptr [eax], al
  0x83c2	add    	byte ptr [eax], al
  0x83c4	add    	byte ptr [eax], al
  === BLOCK LINK ===
    0x83c6
=== CODE BLOCK END ===

=== CODE BLOCK ADDRESS 0x83c6 ===
  0x83c6	add    	byte ptr [eax], al
  0x83c8	add    	byte ptr [eax], al
  0x83ca	add    	byte ptr [eax], al
  0x83cc	add    	byte ptr [eax], al
  0x83ce	add    	byte ptr [eax], al
  === BLOCK LINK ===
    0x83d0
=== CODE BLOCK END ===

=== CODE BLOCK ADDRESS 0x83d0 ===
  0x83d0	add    	byte ptr [eax], al
  0x83d2	add    	byte ptr [eax], al
  0x83d4	add    	byte ptr [eax], al
  0x83d6	add    	byte ptr [eax], al
  0x83d8	add    	byte ptr [eax], al
  === BLOCK LINK ===
    0x83da
=== CODE BLOCK END ===

=== CODE BLOCK ADDRESS 0x83da ===
  0x83da	add    	byte ptr [eax], al
  0x83dc	add    	byte ptr [eax], al
  0x83de	add    	byte ptr [eax], al
  0x83e0	add    	byte ptr [eax], al
  0x83e2	add    	byte ptr [eax], al
  === BLOCK LINK ===
    0x83e4
=== CODE BLOCK END ===

=== CODE BLOCK ADDRESS 0x83e4 ===
  0x83e4	add    	byte ptr [eax], al
  0x83e6	add    	byte ptr [eax], al
  0x83e8	add    	byte ptr [eax], al
  0x83ea	add    	byte ptr [eax], al
  0x83ec	add    	byte ptr [eax], al
  === BLOCK LINK ===
    0x83ee
=== CODE BLOCK END ===

=== CODE BLOCK ADDRESS 0x83ee ===
  0x83ee	add    	byte ptr [eax], al
  0x83f0	add    	byte ptr [eax], al
  0x83f2	add    	byte ptr [eax], al
  0x83f4	add    	byte ptr [eax], al
  0x83f6	add    	byte ptr [eax], al
  === BLOCK LINK ===
    0x83f8
=== CODE BLOCK END ===

=== CODE BLOCK ADDRESS 0x83f8 ===
  0x83f8	add    	byte ptr [eax], al
  0x83fa	add    	byte ptr [eax], al
  0x83fc	add    	byte ptr [eax], al
=== CODE BLOCK END ===

=== DATA BLOCK ADDRESS 0x9000 ===
  0x9000	40 f0 00 40 01 00 00 00 e0 f0 00 40 01 00 00 00 	@00@0000000@0000
  0x9010	00 a2 00 40 01 00 00 00 08 a2 00 40 01 00 00 00 	000@0000000@0000
  0x9020	14 a2 00 40 01 00 00 00 18 a2 00 40 01 00 00 00 	000@0000000@0000
  0x9030	20 a2 00 40 01 00 00 00 28 a2 00 40 01 00 00 00 	 00@0000(00@0000
  0x9040	30 a2 00 40 01 00 00 00 40 a2 00 40 01 00 00 00 	000@0000@00@0000
  0x9050	50 a2 00 40 01 00 00 00 60 a2 00 40 01 00 00 00 	P00@0000`00@0000
  0x9060	6c a2 00 40 01 00 00 00 78 a2 00 40 01 00 00 00 	l00@0000x00@0000
  0x9070	88 a2 00 40 01 00 00 00 98 a2 00 40 01 00 00 00 	000@0000000@0000
  0x9080	a0 a2 00 40 01 00 00 00 a8 a2 00 40 01 00 00 00 	000@0000000@0000
  0x9090	b8 a2 00 40 01 00 00 00 c4 a2 00 40 01 00 00 00 	000@0000000@0000
  0x90a0	c8 a2 00 40 01 00 00 00 d8 a2 00 40 01 00 00 00 	000@0000000@0000
  0x90b0	e0 a2 00 40 01 00 00 00 00 00 00 00 00 00 00 00 	000@000000000000
  0x90c0	00 ae 00 40 01 00 00 00 00 00 00 00 50 00 00 00 	000@00000000P000
  0x90d0	10 ae 00 40 01 00 00 00 00 00 00 00 72 00 00 00 	000@00000000r000
  0x90e0	18 ae 00 40 01 00 00 00 00 00 00 00 01 00 00 00 	000@000000000000
  0x90f0	20 ae 00 40 01 00 00 00 00 00 00 00 61 00 00 00 	 00@00000000a000
  0x9100	a0 a3 00 40 01 00 00 00 00 00 00 00 02 00 00 00 	000@000000000000
  0x9110	30 ae 00 40 01 00 00 00 01 00 00 00 62 00 00 00 	000@00000000b000
  0x9120	40 ae 00 40 01 00 00 00 01 00 00 00 62 00 00 00 	@00@00000000b000
  0x9130	50 ae 00 40 01 00 00 00 00 00 00 00 6a 00 00 00 	P00@00000000j000
  0x9140	58 ae 00 40 01 00 00 00 00 00 00 00 6a 00 00 00 	X00@00000000j000
  0x9150	54 a4 00 40 01 00 00 00 00 00 00 00 6a 00 00 00 	T00@00000000j000
  0x9160	60 ae 00 40 01 00 00 00 01 00 00 00 43 00 00 00 	`00@00000000C000
  0x9170	68 ae 00 40 01 00 00 00 00 00 00 00 03 00 00 00 	h00@000000000000
  0x9180	74 ae 00 40 01 00 00 00 00 00 00 00 04 00 00 00 	t00@000000000000
  0x9190	80 ae 00 40 01 00 00 00 00 00 00 00 05 00 00 00 	000@000000000000
  0x91a0	28 a5 00 40 01 00 00 00 00 00 00 00 5a 00 00 00 	(00@00000000Z000
  0x91b0	98 ae 00 40 01 00 00 00 00 00 00 00 77 00 00 00 	000@00000000w000
  0x91c0	a8 ae 00 40 01 00 00 00 00 00 00 00 63 00 00 00 	000@00000000c000
  0x91d0	b0 ae 00 40 01 00 00 00 00 00 00 00 4c 00 00 00 	000@00000000L000
  0x91e0	c0 ae 00 40 01 00 00 00 01 00 00 00 43 00 00 00 	000@00000000C000
  0x91f0	d0 ae 00 40 01 00 00 00 00 00 00 00 20 00 00 00 	000@00000000 000
  0x9200	e8 ae 00 40 01 00 00 00 01 00 00 00 06 00 00 00 	000@000000000000
  0x9210	f0 ae 00 40 01 00 00 00 01 00 00 00 58 00 00 00 	000@00000000X000
  0x9220	00 af 00 40 01 00 00 00 00 00 00 00 07 00 00 00 	000@000000000000
  0x9230	10 af 00 40 01 00 00 00 00 00 00 00 78 00 00 00 	000@00000000x000
  0x9240	18 af 00 40 01 00 00 00 00 00 00 00 71 00 00 00 	000@00000000q000
  0x9250	24 af 00 40 01 00 00 00 00 00 00 00 08 00 00 00 	$00@000000000000
  0x9260	2c af 00 40 01 00 00 00 01 00 00 00 66 00 00 00 	,00@00000000f000
  0x9270	38 af 00 40 01 00 00 00 01 00 00 00 54 00 00 00 	800@00000000T000
  0x9280	44 af 00 40 01 00 00 00 01 00 00 00 09 00 00 00 	D00@000000000000
  0x9290	4c af 00 40 01 00 00 00 01 00 00 00 0a 00 00 00 	L00@000000000000
  0x92a0	50 af 00 40 01 00 00 00 01 00 00 00 0b 00 00 00 	P00@000000000000
  0x92b0	28 a4 00 40 01 00 00 00 00 00 00 00 0c 00 00 00 	(00@000000000000
  0x92c0	58 af 00 40 01 00 00 00 00 00 00 00 7a 00 00 00 	X00@00000000z000
  0x92d0	34 a5 00 40 01 00 00 00 00 00 00 00 7a 00 00 00 	400@00000000z000
  0x92e0	60 af 00 40 01 00 00 00 00 00 00 00 0d 00 00 00 	`00@000000000000
  0x92f0	68 af 00 40 01 00 00 00 00 00 00 00 0e 00 00 00 	h00@000000000000
  0x9300	78 af 00 40 01 00 00 00 00 00 00 00 0f 00 00 00 	x00@000000000000
  0x9310	88 af 00 40 01 00 00 00 01 00 00 00 10 00 00 00 	000@000000000000
  0x9320	90 af 00 40 01 00 00 00 00 00 00 00 50 00 00 00 	000@00000000P000
  0x9330	a0 af 00 40 01 00 00 00 00 00 00 00 77 00 00 00 	000@00000000w000
  0x9340	b0 af 00 40 01 00 00 00 00 00 00 00 11 00 00 00 	000@000000000000
  0x9350	c8 af 00 40 01 00 00 00 00 00 00 00 6b 00 00 00 	000@00000000k000
  0x9360	d8 af 00 40 01 00 00 00 00 00 00 00 74 00 00 00 	000@00000000t000
  0x9370	60 a4 00 40 01 00 00 00 00 00 00 00 12 00 00 00 	`00@000000000000
  0x9380	68 a4 00 40 01 00 00 00 00 00 00 00 13 00 00 00 	h00@000000000000
  0x9390	6c a4 00 40 01 00 00 00 00 00 00 00 14 00 00 00 	l00@000000000000
  0x93a0	74 a4 00 40 01 00 00 00 00 00 00 00 15 00 00 00 	t00@000000000000
  0x93b0	7c a4 00 40 01 00 00 00 00 00 00 00 16 00 00 00 	|00@000000000000
  0x93c0	e0 af 00 40 01 00 00 00 00 00 00 00 17 00 00 00 	000@000000000000
  0x93d0	f0 af 00 40 01 00 00 00 00 00 00 00 6d 00 00 00 	000@00000000m000
  0x93e0	04 b0 00 40 01 00 00 00 01 00 00 00 18 00 00 00 	000@000000000000
  0x93f0	10 b0 00 40 01 00 00 00 01 00 00 00 18 00 00 00 	000@000000000000
  0x9400	20 b0 00 40 01 00 00 00 01 00 00 00 19 00 00 00 	 00@000000000000
  0x9410	38 b0 00 40 01 00 00 00 01 00 00 00 1a 00 00 00 	800@000000000000
  0x9420	48 b0 00 40 01 00 00 00 01 00 00 00 1b 00 00 00 	H00@000000000000
  0x9430	60 b0 00 40 01 00 00 00 01 00 00 00 19 00 00 00 	`00@000000000000
  0x9440	70 b0 00 40 01 00 00 00 00 00 00 00 1e 00 00 00 	p00@000000000000
  0x9450	78 b0 00 40 01 00 00 00 00 00 00 00 1f 00 00 00 	x00@000000000000
  0x9460	88 b0 00 40 01 00 00 00 00 00 00 00 20 00 00 00 	000@00000000 000
  0x9470	98 b0 00 40 01 00 00 00 00 00 00 00 6e 00 00 00 	000@00000000n000
  0x9480	a8 b0 00 40 01 00 00 00 00 00 00 00 21 00 00 00 	000@00000000!000
  0x9490	b8 b0 00 40 01 00 00 00 00 00 00 00 22 00 00 00 	000@00000000"000
  0x94a0	c8 b0 00 40 01 00 00 00 00 00 00 00 23 00 00 00 	000@00000000#000
  0x94b0	e0 b0 00 40 01 00 00 00 00 00 00 00 24 00 00 00 	000@00000000$000
  0x94c0	f0 b0 00 40 01 00 00 00 00 00 00 00 24 00 00 00 	000@00000000$000
  0x94d0	fc b0 00 40 01 00 00 00 00 00 00 00 1c 00 00 00 	000@000000000000
  0x94e0	08 b1 00 40 01 00 00 00 00 00 00 00 1d 00 00 00 	000@000000000000
  0x94f0	28 b1 00 40 01 00 00 00 00 00 00 00 6e 00 00 00 	(00@00000000n000
  0x9500	34 b1 00 40 01 00 00 00 00 00 00 00 25 00 00 00 	400@00000000%000
  0x9510	40 b1 00 40 01 00 00 00 00 00 00 00 26 00 00 00 	@00@00000000&000
  0x9520	50 b1 00 40 01 00 00 00 01 00 00 00 27 00 00 00 	P00@00000000'000
  0x9530	58 b1 00 40 01 00 00 00 01 00 00 00 27 00 00 00 	X00@00000000'000
  0x9540	68 b1 00 40 01 00 00 00 01 00 00 00 28 00 00 00 	h00@00000000(000
  0x9550	80 b1 00 40 01 00 00 00 01 00 00 00 29 00 00 00 	000@00000000)000
  0x9560	90 b1 00 40 01 00 00 00 01 00 00 00 2a 00 00 00 	000@00000000*000
  0x9570	a8 b1 00 40 01 00 00 00 01 00 00 00 28 00 00 00 	000@00000000(000
  0x9580	b8 b1 00 40 01 00 00 00 00 00 00 00 2b 00 00 00 	000@00000000+000
  0x9590	c8 b1 00 40 01 00 00 00 01 00 00 00 2c 00 00 00 	000@00000000,000
  0x95a0	d0 b1 00 40 01 00 00 00 01 00 00 00 2d 00 00 00 	000@00000000-000
  0x95b0	dc b1 00 40 01 00 00 00 00 00 00 00 2e 00 00 00 	000@00000000.000
  0x95c0	e8 b1 00 40 01 00 00 00 00 00 00 00 70 00 00 00 	000@00000000p000
  0x95d0	00 b2 00 40 01 00 00 00 00 00 00 00 42 00 00 00 	000@00000000B000
  0x95e0	18 b2 00 40 01 00 00 00 00 00 00 00 2f 00 00 00 	000@00000000/000
  0x95f0	28 b2 00 40 01 00 00 00 00 00 00 00 30 00 00 00 	(00@000000000000
  0x9600	38 b2 00 40 01 00 00 00 00 00 00 00 70 00 00 00 	800@00000000p000
  0x9610	50 b2 00 40 01 00 00 00 01 00 00 00 31 00 00 00 	P00@000000001000
  0x9620	68 b2 00 40 01 00 00 00 00 00 00 00 4f 00 00 00 	h00@00000000O000
  0x9630	74 b2 00 40 01 00 00 00 00 00 00 00 32 00 00 00 	t00@000000002000
  0x9640	7c b2 00 40 01 00 00 00 01 00 00 00 33 00 00 00 	|00@000000003000
  0x9650	80 b2 00 40 01 00 00 00 01 00 00 00 34 00 00 00 	000@000000004000
  0x9660	88 b2 00 40 01 00 00 00 00 00 00 00 5a 00 00 00 	000@00000000Z000
  0x9670	94 b2 00 40 01 00 00 00 00 00 00 00 55 00 00 00 	000@00000000U000
  0x9680	a0 b2 00 40 01 00 00 00 00 00 00 00 55 00 00 00 	000@00000000U000
  0x9690	b0 b2 00 40 01 00 00 00 00 00 00 00 75 00 00 00 	000@00000000u000
  0x96a0	b8 b2 00 40 01 00 00 00 01 00 00 00 35 00 00 00 	000@000000005000
  0x96b0	18 a5 00 40 01 00 00 00 00 00 00 00 36 00 00 00 	000@000000006000
  0x96c0	d0 b2 00 40 01 00 00 00 00 00 00 00 76 00 00 00 	000@00000000v000
  0x96d0	d8 b2 00 40 01 00 00 00 00 00 00 00 37 00 00 00 	000@000000007000
  0x96e0	e0 b2 00 40 01 00 00 00 00 00 00 00 38 00 00 00 	000@000000008000
  0x96f0	5c a4 00 40 01 00 00 00 00 00 00 00 4a 00 00 00 	000@00000000J000
  0x9700	84 a4 00 40 01 00 00 00 00 00 00 00 39 00 00 00 	000@000000009000
  0x9710	00 00 00 00 00 00 00 00 00 00 00 00 00 00 00 00 	0000000000000000
  0x9720	d0 b3 00 40 01 00 00 00 28 a5 00 40 01 00 00 00 	000@0000(00@0000
  0x9730	d4 b3 00 40 01 00 00 00 54 a4 00 40 01 00 00 00 	000@0000T00@0000
  0x9740	dc b3 00 40 01 00 00 00 34 a5 00 40 01 00 00 00 	000@0000400@0000
  0x9750	e0 b3 00 40 01 00 00 00 28 a4 00 40 01 00 00 00 	000@0000(00@0000
  0x9760	e8 b3 00 40 01 00 00 00 60 a4 00 40 01 00 00 00 	000@0000`00@0000
  0x9770	f0 b3 00 40 01 00 00 00 6c a4 00 40 01 00 00 00 	000@0000l00@0000
  0x9780	f4 b3 00 40 01 00 00 00 68 a4 00 40 01 00 00 00 	000@0000h00@0000
  0x9790	fc b3 00 40 01 00 00 00 7c a4 00 40 01 00 00 00 	000@0000|00@0000
  0x97a0	04 b4 00 40 01 00 00 00 74 a4 00 40 01 00 00 00 	000@0000t00@0000
  0x97b0	0c b4 00 40 01 00 00 00 18 a5 00 40 01 00 00 00 	000@0000000@0000
  0x97c0	10 b4 00 40 01 00 00 00 5c a4 00 40 01 00 00 00 	000@0000000@0000
  0x97d0	14 b4 00 40 01 00 00 00 84 a4 00 40 01 00 00 00 	000@0000000@0000
  0x97e0	00 00 00 00 00 00 00 00 00 00 00 00 00 00 00 00 	0000000000000000
  0x97f0	b0 b4 00 40 01 00 00 00 b8 b4 00 40 01 00 00 00 	000@0000000@0000
  0x9800	c0 b4 00 40 01 00 00 00 b8 b4 00 40 01 00 00 00 	000@0000000@0000
  0x9810	c8 b4 00 40 01 00 00 00 d0 b4 00 40 01 00 00 00 	000@0000000@0000
  0x9820	dc b4 00 40 01 00 00 00 d0 b4 00 40 01 00 00 00 	000@0000000@0000
  0x9830	e4 b4 00 40 01 00 00 00 d0 b4 00 40 01 00 00 00 	000@0000000@0000
  0x9840	ec b4 00 40 01 00 00 00 f8 b4 00 40 01 00 00 00 	000@0000000@0000
  0x9850	04 b5 00 40 01 00 00 00 10 b5 00 40 01 00 00 00 	000@0000000@0000
  0x9860	18 b5 00 40 01 00 00 00 20 b5 00 40 01 00 00 00 	000@0000 00@0000
  0x9870	2c b5 00 40 01 00 00 00 34 b5 00 40 01 00 00 00 	,00@0000400@0000
  0x9880	3c b5 00 40 01 00 00 00 34 b5 00 40 01 00 00 00 	<00@0000400@0000
  0x9890	40 b5 00 40 01 00 00 00 48 b5 00 40 01 00 00 00 	@00@0000H00@0000
  0x98a0	00 00 00 00 00 00 00 00 00 00 00 00 00 00 00 00 	0000000000000000
  0x98b0	1c b4 00 40 01 00 00 00 20 b4 00 40 01 00 00 00 	000@0000 00@0000
  0x98c0	28 b4 00 40 01 00 00 00 2c b4 00 40 01 00 00 00 	(00@0000,00@0000
  0x98d0	34 b4 00 40 01 00 00 00 3c b4 00 40 01 00 00 00 	400@0000<00@0000
  0x98e0	44 b4 00 40 01 00 00 00 50 b4 00 40 01 00 00 00 	D00@0000P00@0000
  0x98f0	58 b4 00 40 01 00 00 00 60 b4 00 40 01 00 00 00 	X00@0000`00@0000
  0x9900	68 b4 00 40 01 00 00 00 70 b4 00 40 01 00 00 00 	h00@0000p00@0000
  0x9910	78 b4 00 40 01 00 00 00 80 b4 00 40 01 00 00 00 	x00@0000000@0000
  0x9920	88 b4 00 40 01 00 00 00 90 b4 00 40 01 00 00 00 	000@0000000@0000
  0x9930	98 b4 00 40 01 00 00 00 a0 b4 00 40 01 00 00 00 	000@0000000@0000
  0x9940	a4 b4 00 40 01 00 00 00 ac b4 00 40 01 00 00 00 	000@0000000@0000
  0x9950	00 00 00 00 00 00 00 00 00 00 00 00 00 00 00 00 	0000000000000000
  0x9960	18 01 00 00 00 00 00 00 00 00 00 00 00 00 00 00 	0000000000000000
  0x9970	00 00 00 00 00 00 00 00 00 00 00 00 00 00 00 00 	0000000000000000
  0x9980	00 00 00 00 00 00 00 00 00 00 00 00 00 00 00 00 	0000000000000000
  0x9990	00 00 00 00 00 00 00 00 00 00 00 00 00 00 00 00 	0000000000000000
  0x99a0	00 00 00 00 00 00 00 00 00 00 00 00 00 00 00 00 	0000000000000000
  0x99b0	00 00 00 00 00 00 00 00 00 f0 00 40 01 00 00 00 	00000000000@0000
  0x99c0	00 00 00 00 00 00 00 00 00 00 00 00 00 00 00 00 	0000000000000000
  0x99d0	38 a1 00 40 01 00 00 00 40 a1 00 40 01 00 00 00 	800@0000@00@0000
  0x99e0	c0 a1 00 40 01 00 00 00 0f 00 00 00 00 00 00 00 	000@000000000000
  0x99f0	00 75 41 00 00 00 00 00 00 00 00 00 00 00 00 00 	0uA0000000000000
  0x9a00	00 00 00 00 00 00 00 00 00 00 00 00 00 00 00 00 	0000000000000000
  0x9a10	00 00 00 00 00 00 00 00 00 00 00 00 00 00 00 00 	0000000000000000
  0x9a20	00 00 00 00 00 00 00 00 00 00 00 00 00 00 00 00 	0000000000000000
  0x9a30	00 00 00 00 00 00 00 00 00 00 00 00 00 00 00 00 	0000000000000000
  0x9a40	00 00 00 00 00 00 00 00 00 00 00 00 00 00 00 00 	0000000000000000
  0x9a50	00 00 00 00 00 00 00 00 00 00 00 00 00 00 00 00 	0000000000000000
  0x9a60	00 00 00 00 00 00 00 00 b8 a1 00 40 01 00 00 00 	00000000000@0000
  0x9a70	02 00 00 00 00 00 00 00 72 d0 00 00 00 00 00 00 	00000000r0000000
  0x9a80	84 d0 00 00 00 00 00 00 00 00 00 00 00 00 00 00 	0000000000000000
  0x9a90	d8 d0 00 00 00 00 00 00 00 00 00 00 00 00 00 00 	0000000000000000
  0x9aa0	ec d0 00 00 00 00 00 00 0e d0 00 00 00 00 00 00 	0000000000000000
  0x9ab0	08 d1 00 00 00 00 00 00 00 00 00 00 00 00 00 00 	0000000000000000
  0x9ac0	36 d0 00 00 00 00 00 00 4a d0 00 00 00 00 00 00 	60000000J0000000
  0x9ad0	cc cf 00 00 00 00 00 00 66 d0 00 00 00 00 00 00 	00000000f0000000
  0x9ae0	00 00 00 00 00 00 00 00 ca d1 00 00 00 00 00 00 	0000000000000000
  0x9af0	00 00 00 00 00 00 00 00 e0 d1 00 00 00 00 00 00 	0000000000000000
  0x9b00	00 00 00 00 00 00 00 00 e0 cf 00 00 00 00 00 00 	0000000000000000
  0x9b10	56 d0 00 00 00 00 00 00 1e d0 00 00 00 00 00 00 	V000000000000000
  0x9b20	00 00 00 00 00 00 00 00 9a d1 00 00 00 00 00 00 	0000000000000000
  0x9b30	3a d1 00 00 00 00 00 00 26 d1 00 00 00 00 00 00 	:0000000&0000000
  0x9b40	84 d1 00 00 00 00 00 00 00 00 00 00 00 00 00 00 	0000000000000000
  0x9b50	4e d1 00 00 00 00 00 00 00 00 00 00 00 00 00 00 	N000000000000000
  0x9b60	6a d1 00 00 00 00 00 00 00 00 00 00 00 00 00 00 	j000000000000000
  0x9b70	aa d0 00 00 00 00 00 00 c4 d0 00 00 00 00 00 00 	0000000000000000
  0x9b80	96 d0 00 00 00 00 00 00 00 00 00 00 00 00 00 00 	0000000000000000
  0x9b90	f8 cf 00 00 00 00 00 00 00 00 00 00 00 00 00 00 	0000000000000000
  0x9ba0	b0 d1 00 00 00 00 00 00 00 00 00 00 00 00 00 00 	0000000000000000
  0x9bb0	7a cc 00 00 00 00 00 00 98 cc 00 00 00 00 00 00 	z000000000000000
  0x9bc0	b6 cc 00 00 00 00 00 00 c2 cc 00 00 00 00 00 00 	0000000000000000
  0x9bd0	ce cc 00 00 00 00 00 00 e8 cc 00 00 00 00 00 00 	0000000000000000
  0x9be0	04 cd 00 00 00 00 00 00 16 cd 00 00 00 00 00 00 	0000000000000000
  0x9bf0	22 cd 00 00 00 00 00 00 2e cd 00 00 00 00 00 00 	"0000000.0000000
  0x9c00	54 cd 00 00 00 00 00 00 68 cd 00 00 00 00 00 00 	T0000000h0000000
  0x9c10	8c cd 00 00 00 00 00 00 aa cd 00 00 00 00 00 00 	0000000000000000
  0x9c20	be cd 00 00 00 00 00 00 ca cd 00 00 00 00 00 00 	0000000000000000
  0x9c30	ea cd 00 00 00 00 00 00 00 ce 00 00 00 00 00 00 	0000000000000000
  0x9c40	14 ce 00 00 00 00 00 00 24 ce 00 00 00 00 00 00 	00000000$0000000
  0x9c50	38 ce 00 00 00 00 00 00 46 ce 00 00 00 00 00 00 	80000000F0000000
  0x9c60	56 ce 00 00 00 00 00 00 16 e0 00 00 00 00 00 00 	V000000000000000
  0x9c70	64 ce 00 00 00 00 00 00 70 ce 00 00 00 00 00 00 	d0000000p0000000
  0x9c80	7a ce 00 00 00 00 00 00 86 ce 00 00 00 00 00 00 	z000000000000000
  0x9c90	90 ce 00 00 00 00 00 00 9c ce 00 00 00 00 00 00 	0000000000000000
  0x9ca0	a8 ce 00 00 00 00 00 00 b4 ce 00 00 00 00 00 00 	0000000000000000
  0x9cb0	c0 ce 00 00 00 00 00 00 cc ce 00 00 00 00 00 00 	0000000000000000
  0x9cc0	d6 ce 00 00 00 00 00 00 e2 ce 00 00 00 00 00 00 	0000000000000000
  0x9cd0	f0 ce 00 00 00 00 00 00 fe ce 00 00 00 00 00 00 	0000000000000000
  0x9ce0	0c cf 00 00 00 00 00 00 18 cf 00 00 00 00 00 00 	0000000000000000
  0x9cf0	24 cf 00 00 00 00 00 00 32 cf 00 00 00 00 00 00 	$000000020000000
  0x9d00	40 cf 00 00 00 00 00 00 50 cf 00 00 00 00 00 00 	@0000000P0000000
  0x9d10	5e cf 00 00 00 00 00 00 6c cf 00 00 00 00 00 00 	^0000000l0000000
  0x9d20	78 cf 00 00 00 00 00 00 88 cf 00 00 00 00 00 00 	x000000000000000
  0x9d30	32 cc 00 00 00 00 00 00 28 cc 00 00 00 00 00 00 	20000000(0000000
  0x9d40	1e cc 00 00 00 00 00 00 68 cc 00 00 00 00 00 00 	00000000h0000000
  0x9d50	58 cc 00 00 00 00 00 00 48 cc 00 00 00 00 00 00 	X0000000H0000000
  0x9d60	0c e0 00 00 00 00 00 00 00 00 00 00 00 00 00 00 	0000000000000000
  0x9d70	48 cb 00 00 00 00 00 00 54 cb 00 00 00 00 00 00 	H0000000T0000000
  0x9d80	62 cb 00 00 00 00 00 00 6c cb 00 00 00 00 00 00 	b0000000l0000000
  0x9d90	00 00 00 00 00 00 00 00 36 cb 00 00 00 00 00 00 	0000000060000000
  0x9da0	00 00 00 00 00 00 00 00 a0 cf 00 00 00 00 00 00 	0000000000000000
  0x9db0	3e cb 00 00 00 00 00 00 22 cb 00 00 00 00 00 00 	>0000000"0000000
  0x9dc0	02 e0 00 00 00 00 00 00 18 cb 00 00 00 00 00 00 	0000000000000000
  0x9dd0	00 00 00 00 00 00 00 00 2c cb 00 00 00 00 00 00 	00000000,0000000
  0x9de0	00 00 00 00 00 00 00 00 48 d4 00 00 00 00 00 00 	00000000H0000000
  0x9df0	68 d4 00 00 00 00 00 00 7c d4 00 00 00 00 00 00 	h0000000|0000000
  0x9e00	92 d4 00 00 00 00 00 00 bc d4 00 00 00 00 00 00 	0000000000000000
  0x9e10	de d4 00 00 00 00 00 00 f8 d4 00 00 00 00 00 00 	0000000000000000
  0x9e20	16 d5 00 00 00 00 00 00 3c d5 00 00 00 00 00 00 	00000000<0000000
  0x9e30	60 d5 00 00 00 00 00 00 84 d5 00 00 00 00 00 00 	`000000000000000
  0x9e40	a0 d5 00 00 00 00 00 00 bc d5 00 00 00 00 00 00 	0000000000000000
  0x9e50	ec d5 00 00 00 00 00 00 04 d6 00 00 00 00 00 00 	0000000000000000
  0x9e60	1e d6 00 00 00 00 00 00 36 d6 00 00 00 00 00 00 	0000000060000000
  0x9e70	64 d6 00 00 00 00 00 00 82 d6 00 00 00 00 00 00 	d000000000000000
  0x9e80	a4 d6 00 00 00 00 00 00 b8 d6 00 00 00 00 00 00 	0000000000000000
  0x9e90	d0 d6 00 00 00 00 00 00 f2 d6 00 00 00 00 00 00 	0000000000000000
  0x9ea0	1c d7 00 00 00 00 00 00 32 d7 00 00 00 00 00 00 	0000000020000000
  0x9eb0	46 d7 00 00 00 00 00 00 70 d7 00 00 00 00 00 00 	F0000000p0000000
  0x9ec0	88 d7 00 00 00 00 00 00 a2 d7 00 00 00 00 00 00 	0000000000000000
  0x9ed0	bc d7 00 00 00 00 00 00 d6 d7 00 00 00 00 00 00 	0000000000000000
  0x9ee0	ec d7 00 00 00 00 00 00 06 d8 00 00 00 00 00 00 	0000000000000000
  0x9ef0	1c d8 00 00 00 00 00 00 38 d8 00 00 00 00 00 00 	0000000080000000
  0x9f00	5a d8 00 00 00 00 00 00 70 d8 00 00 00 00 00 00 	Z0000000p0000000
  0x9f10	8e d8 00 00 00 00 00 00 a8 d8 00 00 00 00 00 00 	0000000000000000
  0x9f20	be d8 00 00 00 00 00 00 d4 d8 00 00 00 00 00 00 	0000000000000000
  0x9f30	fe d8 00 00 00 00 00 00 26 d9 00 00 00 00 00 00 	00000000&0000000
  0x9f40	40 d9 00 00 00 00 00 00 30 d4 00 00 00 00 00 00 	@000000000000000
  0x9f50	78 d9 00 00 00 00 00 00 90 d9 00 00 00 00 00 00 	x000000000000000
  0x9f60	ae d9 00 00 00 00 00 00 c4 d9 00 00 00 00 00 00 	0000000000000000
  0x9f70	10 d4 00 00 00 00 00 00 f6 d9 00 00 00 00 00 00 	0000000000000000
  0x9f80	0c da 00 00 00 00 00 00 20 da 00 00 00 00 00 00 	00000000 0000000
  0x9f90	36 da 00 00 00 00 00 00 50 da 00 00 00 00 00 00 	60000000P0000000
  0x9fa0	64 da 00 00 00 00 00 00 7a da 00 00 00 00 00 00 	d0000000z0000000
  0x9fb0	a4 da 00 00 00 00 00 00 bc da 00 00 00 00 00 00 	0000000000000000
  0x9fc0	d4 da 00 00 00 00 00 00 ee da 00 00 00 00 00 00 	0000000000000000
  0x9fd0	16 db 00 00 00 00 00 00 38 db 00 00 00 00 00 00 	0000000080000000
  0x9fe0	5a db 00 00 00 00 00 00 6a db 00 00 00 00 00 00 	Z0000000j0000000
  0x9ff0	80 db 00 00 00 00 00 00 a4 db 00 00 00 00 00 00 	0000000000000000
  0xa000	c0 db 00 00 00 00 00 00 d6 db 00 00 00 00 00 00 	0000000000000000
  0xa010	ee db 00 00 00 00 00 00 14 dc 00 00 00 00 00 00 	0000000000000000
  0xa020	36 dc 00 00 00 00 00 00 4e dc 00 00 00 00 00 00 	60000000N0000000
  0xa030	6a dc 00 00 00 00 00 00 92 dc 00 00 00 00 00 00 	j000000000000000
  0xa040	a6 dc 00 00 00 00 00 00 c2 dc 00 00 00 00 00 00 	0000000000000000
  0xa050	dc dc 00 00 00 00 00 00 f2 dc 00 00 00 00 00 00 	0000000000000000
  0xa060	0c dd 00 00 00 00 00 00 34 dd 00 00 00 00 00 00 	0000000040000000
  0xa070	4c dd 00 00 00 00 00 00 5e dd 00 00 00 00 00 00 	L0000000^0000000
  0xa080	78 dd 00 00 00 00 00 00 94 dd 00 00 00 00 00 00 	x000000000000000
  0xa090	b6 dd 00 00 00 00 00 00 d4 dd 00 00 00 00 00 00 	0000000000000000
  0xa0a0	f4 dd 00 00 00 00 00 00 18 de 00 00 00 00 00 00 	0000000000000000
  0xa0b0	34 de 00 00 00 00 00 00 5e de 00 00 00 00 00 00 	40000000^0000000
  0xa0c0	72 de 00 00 00 00 00 00 92 de 00 00 00 00 00 00 	r000000000000000
  0xa0d0	b6 de 00 00 00 00 00 00 d8 de 00 00 00 00 00 00 	0000000000000000
  0xa0e0	02 df 00 00 00 00 00 00 2a df 00 00 00 00 00 00 	00000000*0000000
  0xa0f0	5c df 00 00 00 00 00 00 7c df 00 00 00 00 00 00 	00000000|0000000
  0xa100	a4 df 00 00 00 00 00 00 ba df 00 00 00 00 00 00 	0000000000000000
  0xa110	d4 df 00 00 00 00 00 00 dc d9 00 00 00 00 00 00 	0000000000000000
  0xa120	e8 d3 00 00 00 00 00 00 5a d9 00 00 00 00 00 00 	00000000Z0000000
  0xa130	00 00 00 00 00 00 00 00 60 7a 00 40 01 00 00 00 	00000000`z0@0000
  0xa140	b0 82 00 40 01 00 00 00 00 00 00 00 00 00 00 00 	000@000000000000
  0xa150	b0 71 00 40 01 00 00 00 00 00 00 00 00 00 00 00 	0q0@000000000000
  0xa160	00 00 00 00 00 00 00 00 e0 70 00 40 01 00 00 00 	000000000p0@0000
  0xa170	90 71 00 40 01 00 00 00 40 70 00 40 01 00 00 00 	0q0@0000@p0@0000
  0xa180	70 70 00 40 01 00 00 00 b0 70 00 40 01 00 00 00 	pp0@00000p0@0000
  0xa190	00 00 00 00 00 00 00 00 00 00 00 00 00 00 00 00 	0000000000000000
  0xa1a0	00 00 00 00 00 00 00 00 00 00 00 00 00 00 00 00 	0000000000000000
  0xa1b0	00 00 00 00 00 00 00 00 fe 72 00 00 7d 78 00 00 	000000000r00}x00
  0xa1c0	f0 35 00 00 20 49 00 00 00 65 00 00 80 65 00 00 	0500 I000e000e00
  0xa1d0	40 70 00 00 70 70 00 00 b0 70 00 00 e0 70 00 00 	@p00pp000p000p00
  0xa1e0	90 71 00 00 b0 71 00 00 60 73 00 00 20 74 00 00 	0q000q00`s00 t00
  0xa1f0	60 7a 00 00 90 7c 00 00 20 7d 00 00 00 00 00 00 	`z000|00 }000000
  0xa200	43 56 53 00 00 00 00 00 2e 63 76 73 69 67 6e 6f 	CVS00000.cvsigno
  0xa210	72 65 00 00 52 43 53 00 53 43 43 53 00 00 00 00 	re00RCS0SCCS0000
  0xa220	2e 73 76 6e 00 00 00 00 2e 67 69 74 00 00 00 00 	.svn0000.git0000
  0xa230	2e 67 69 74 69 67 6e 6f 72 65 00 00 00 00 00 00 	.gitignore000000
  0xa240	2e 67 69 74 61 74 74 72 69 62 75 74 65 73 00 00 	.gitattributes00
  0xa250	2e 67 69 74 6d 6f 64 75 6c 65 73 00 00 00 00 00 	.gitmodules00000
  0xa260	2e 61 72 63 68 2d 69 64 73 00 00 00 7b 61 72 63 	.arch-ids000{arc
  0xa270	68 7d 00 00 00 00 00 00 3d 52 45 4c 45 41 53 45 	h}000000=RELEASE
  0xa280	2d 49 44 00 00 00 00 00 3d 6d 65 74 61 2d 75 70 	-ID00000=meta-up
  0xa290	64 61 74 65 00 00 00 00 3d 75 70 64 61 74 65 00 	date0000=update0
  0xa2a0	2e 62 7a 72 00 00 00 00 2e 62 7a 72 69 67 6e 6f 	.bzr0000.bzrigno
  0xa2b0	72 65 00 00 00 00 00 00 2e 62 7a 72 74 61 67 73 	re000000.bzrtags
  0xa2c0	00 00 00 00 2e 68 67 00 2e 68 67 69 67 6e 6f 72 	0000.hg0.hgignor
  0xa2d0	65 00 00 00 00 00 00 00 2e 68 67 74 61 67 73 00 	e0000000.hgtags0
  0xa2e0	5f 64 61 72 63 73 00 00 62 73 64 74 61 72 00 00 	_darcs00bsdtar00
  0xa2f0	46 61 69 6c 65 64 20 74 6f 20 73 65 74 20 64 65 	Failed to set de
  0xa300	66 61 75 6c 74 20 6c 6f 63 61 6c 65 00 00 00 00 	fault locale0000
  0xa310	54 41 50 45 00 00 00 00 5c 5c 2e 5c 74 61 70 65 	TAPE000000.0tape
  0xa320	30 00 00 00 00 00 00 00 4f 75 74 20 6f 66 20 6d 	00000000Out of m
  0xa330	65 6d 6f 72 79 00 00 00 49 6e 76 61 6c 69 64 20 	emory000Invalid 
  0xa340	6f 72 20 6f 75 74 20 6f 66 20 72 61 6e 67 65 20 	or out of range 
  0xa350	28 31 2e 2e 38 31 39 32 29 20 61 72 67 75 6d 65 	(1..8192) argume
  0xa360	6e 74 20 74 6f 20 2d 62 00 00 00 00 00 00 00 00 	nt to -b00000000
  0xa370	43 61 6e 27 74 20 73 70 65 63 69 66 79 20 62 6f 	Can't specify bo
  0xa380	74 68 20 2d 2d 75 75 65 6e 63 6f 64 65 20 61 6e 	th --uuencode an
  0xa390	64 20 2d 2d 62 36 34 65 6e 63 6f 64 65 00 00 00 	d --b64encode000
  0xa3a0	62 36 34 65 6e 63 6f 64 65 00 00 00 00 00 00 00 	b64encode0000000
  0xa3b0	4d 65 61 6e 69 6e 67 6c 65 73 73 20 6f 70 74 69 	Meaningless opti
  0xa3c0	6f 6e 3a 20 2d 43 20 27 27 00 00 00 00 00 00 00 	on: -C ''0000000
  0xa3d0	43 6f 75 6c 64 6e 27 74 20 65 78 63 6c 75 64 65 	Couldn't exclude
  0xa3e0	20 25 73 0a 00 00 00 00 49 6e 76 61 6c 69 64 20 	 %s00000Invalid 
  0xa3f0	61 72 67 75 6d 65 6e 74 20 74 6f 20 2d 2d 67 69 	argument to --gi
  0xa400	64 00 00 00 00 00 00 00 43 61 6e 27 74 20 73 70 	d0000000Can't sp
  0xa410	65 63 69 66 79 20 62 6f 74 68 20 2d 25 63 20 61 	ecify both -%c a
  0xa420	6e 64 20 2d 25 63 00 00 67 72 7a 69 70 00 00 00 	nd -%c00grzip000
  0xa430	46 61 69 6c 65 64 20 74 6f 20 61 64 64 20 25 73 	Failed to add %s
  0xa440	20 74 6f 20 69 6e 63 6c 75 73 69 6f 6e 20 6c 69 	 to inclusion li
  0xa450	73 74 00 00 62 7a 69 70 32 00 00 00 78 7a 00 00 	st00bzip2000xz00
  0xa460	6c 72 7a 69 70 00 00 00 6c 7a 34 00 6c 7a 69 70 	lrzip000lz40lzip
  0xa470	00 00 00 00 6c 7a 6d 61 00 00 00 00 6c 7a 6f 70 	0000lzma0000lzop
  0xa480	00 00 00 00 7a 73 74 64 00 00 00 00 00 00 00 00 	0000zstd00000000
  0xa490	45 72 72 6f 72 20 3a 20 25 73 00 00 70 61 78 00 	Error : %s00pax0
  0xa4a0	2d 73 20 69 73 20 6e 6f 74 20 73 75 70 70 6f 72 	-s is not suppor
  0xa4b0	74 65 64 20 62 79 20 74 68 69 73 20 76 65 72 73 	ted by this vers
  0xa4c0	69 6f 6e 20 6f 66 20 62 73 64 74 61 72 00 00 00 	ion of bsdtar000
  0xa4d0	49 6e 76 61 6c 69 64 20 61 72 67 75 6d 65 6e 74 	Invalid argument
  0xa4e0	20 74 6f 20 2d 2d 73 74 72 69 70 2d 63 6f 6d 70 	 to --strip-comp
  0xa4f0	6f 6e 65 6e 74 73 00 00 49 6e 76 61 6c 69 64 20 	onents00Invalid 
  0xa500	61 72 67 75 6d 65 6e 74 20 74 6f 20 2d 2d 75 69 	argument to --ui
  0xa510	64 00 00 00 00 00 00 00 75 75 65 6e 63 6f 64 65 	d0000000uuencode
  0xa520	00 00 00 00 00 00 00 00 63 6f 6d 70 72 65 73 73 	00000000compress
  0xa530	00 00 00 00 67 7a 69 70 00 00 00 00 00 00 00 00 	0000gzip00000000
  0xa540	4d 75 73 74 20 73 70 65 63 69 66 79 20 6f 6e 65 	Must specify one
  0xa550	20 6f 66 20 2d 63 2c 20 2d 72 2c 20 2d 74 2c 20 	 of -c, -r, -t, 
  0xa560	2d 75 2c 20 2d 78 00 00 63 00 00 00 2d 61 00 00 	-u, -x00c000-a00
  0xa570	63 72 75 00 00 00 00 00 2d 2d 6f 6e 65 2d 66 69 	cru00000--one-fi
  0xa580	6c 65 2d 73 79 73 74 65 6d 00 00 00 78 74 00 00 	le-system000xt00
  0xa590	2d 2d 66 61 73 74 2d 72 65 61 64 00 78 00 00 00 	--fast-read0x000
  0xa5a0	2d 2d 68 66 73 43 6f 6d 70 72 65 73 73 69 6f 6e 	--hfsCompression
  0xa5b0	00 00 00 00 00 00 00 00 2d 2d 6e 6f 70 72 65 73 	00000000--nopres
  0xa5c0	65 72 76 65 48 46 53 43 6f 6d 70 72 65 73 73 69 	erveHFSCompressi
  0xa5d0	6f 6e 00 00 00 00 00 00 2d 2d 6e 6f 64 75 6d 70 	on000000--nodump
  0xa5e0	00 00 00 00 63 72 75 78 00 00 00 00 2d 2d 61 63 	0000crux0000--ac
  0xa5f0	6c 73 00 00 00 00 00 00 2d 2d 6e 6f 2d 61 63 6c 	ls000000--no-acl
  0xa600	73 00 00 00 00 00 00 00 2d 2d 78 61 74 74 72 73 	s0000000--xattrs
  0xa610	00 00 00 00 00 00 00 00 2d 2d 6e 6f 2d 78 61 74 	00000000--no-xat
  0xa620	74 72 73 00 00 00 00 00 2d 2d 66 66 6c 61 67 73 	trs00000--fflags
  0xa630	00 00 00 00 00 00 00 00 2d 2d 6e 6f 2d 66 66 6c 	00000000--no-ffl
  0xa640	61 67 73 00 00 00 00 00 2d 2d 6d 61 63 2d 6d 65 	ags00000--mac-me
  0xa650	74 61 64 61 74 61 00 00 2d 2d 6e 6f 2d 6d 61 63 	tadata00--no-mac
  0xa660	2d 6d 65 74 61 64 61 74 61 00 00 00 75 73 74 61 	-metadata000usta
  0xa670	72 00 00 00 78 63 00 00 2d 6f 00 00 2d 4f 00 00 	r000xc00-o00-O00
  0xa680	2d 55 00 00 63 72 00 00 2d 2d 63 68 65 63 6b 2d 	-U00cr00--check-
  0xa690	6c 69 6e 6b 73 00 00 00 63 78 74 00 00 00 00 00 	links000cxt00000
  0xa6a0	2d 2d 75 73 65 2d 63 6f 6d 70 72 65 73 73 2d 70 	--use-compress-p
  0xa6b0	72 6f 67 72 61 6d 00 00 2d 3f 00 00 2d 2d 00 00 	rogram00-?00--00
  0xa6c0	2d 2d 66 6f 72 6d 61 74 00 00 00 00 00 00 00 00 	--format00000000
  0xa6d0	45 72 72 6f 72 20 65 78 69 74 20 64 65 6c 61 79 	Error exit delay
  0xa6e0	65 64 20 66 72 6f 6d 20 70 72 65 76 69 6f 75 73 	ed from previous
  0xa6f0	20 65 72 72 6f 72 73 2e 00 00 00 00 00 00 00 00 	 errors.00000000
  0xa700	4f 70 74 69 6f 6e 20 25 73 20 69 73 20 6e 6f 74 	Option %s is not
  0xa710	20 70 65 72 6d 69 74 74 65 64 20 69 6e 20 6d 6f 	 permitted in mo
  0xa720	64 65 20 2d 25 63 00 00 55 73 61 67 65 3a 0a 00 	de -%c00Usage:00
  0xa730	20 20 4c 69 73 74 3a 20 20 20 20 25 73 20 2d 74 	  List:    %s -t
  0xa740	66 20 3c 61 72 63 68 69 76 65 2d 66 69 6c 65 6e 	f <archive-filen
  0xa750	61 6d 65 3e 0a 00 00 00 20 20 45 78 74 72 61 63 	ame>0000  Extrac
  0xa760	74 3a 20 25 73 20 2d 78 66 20 3c 61 72 63 68 69 	t: %s -xf <archi
  0xa770	76 65 2d 66 69 6c 65 6e 61 6d 65 3e 0a 00 00 00 	ve-filename>0000
  0xa780	20 20 43 72 65 61 74 65 3a 20 20 25 73 20 2d 63 	  Create:  %s -c
  0xa790	66 20 3c 61 72 63 68 69 76 65 2d 66 69 6c 65 6e 	f <archive-filen
  0xa7a0	61 6d 65 3e 20 5b 66 69 6c 65 6e 61 6d 65 73 2e 	ame> [filenames.
  0xa7b0	2e 2e 5d 0a 00 00 00 00 20 20 48 65 6c 70 3a 20 	..]00000  Help: 
  0xa7c0	20 20 20 25 73 20 2d 2d 68 65 6c 70 0a 00 00 00 	   %s --help0000
  0xa7d0	33 2e 35 2e 32 00 00 00 62 73 64 74 61 72 20 25 	3.5.2000bsdtar %
  0xa7e0	73 20 2d 20 25 73 20 0a 00 00 00 00 00 00 00 00 	s - %s 000000000
  0xa7f0	46 69 72 73 74 20 6f 70 74 69 6f 6e 20 6d 75 73 	First option mus
  0xa800	74 20 62 65 20 61 20 6d 6f 64 65 20 73 70 65 63 	t be a mode spec
  0xa810	69 66 69 65 72 3a 0a 20 20 2d 63 20 43 72 65 61 	ifier:0  -c Crea
  0xa820	74 65 20 20 2d 72 20 41 64 64 2f 52 65 70 6c 61 	te  -r Add/Repla
  0xa830	63 65 20 20 2d 74 20 4c 69 73 74 20 20 2d 75 20 	ce  -t List  -u 
  0xa840	55 70 64 61 74 65 20 20 2d 78 20 45 78 74 72 61 	Update  -x Extra
  0xa850	63 74 0a 43 6f 6d 6d 6f 6e 20 4f 70 74 69 6f 6e 	ct0Common Option
  0xa860	73 3a 0a 20 20 2d 62 20 23 20 20 55 73 65 20 23 	s:0  -b #  Use #
  0xa870	20 35 31 32 2d 62 79 74 65 20 72 65 63 6f 72 64 	 512-byte record
  0xa880	73 20 70 65 72 20 49 2f 4f 20 62 6c 6f 63 6b 0a 	s per I/O block0
  0xa890	20 20 2d 66 20 3c 66 69 6c 65 6e 61 6d 65 3e 20 	  -f <filename> 
  0xa8a0	20 4c 6f 63 61 74 69 6f 6e 20 6f 66 20 61 72 63 	 Location of arc
  0xa8b0	68 69 76 65 20 28 64 65 66 61 75 6c 74 20 5c 5c 	hive (default 00
  0xa8c0	2e 5c 74 61 70 65 30 29 0a 20 20 2d 76 20 20 20 	.0tape0)0  -v   
  0xa8d0	20 56 65 72 62 6f 73 65 0a 20 20 2d 77 20 20 20 	 Verbose0  -w   
  0xa8e0	20 49 6e 74 65 72 61 63 74 69 76 65 0a 43 72 65 	 Interactive0Cre
  0xa8f0	61 74 65 3a 20 25 70 20 2d 63 20 5b 6f 70 74 69 	ate: %p -c [opti
  0xa900	6f 6e 73 5d 20 5b 3c 66 69 6c 65 3e 20 7c 20 3c 	ons] [<file> | <
  0xa910	64 69 72 3e 20 7c 20 40 3c 61 72 63 68 69 76 65 	dir> | @<archive
  0xa920	3e 20 7c 20 2d 43 20 3c 64 69 72 3e 20 5d 0a 20 	> | -C <dir> ]0 
  0xa930	20 3c 66 69 6c 65 3e 2c 20 3c 64 69 72 3e 20 20 	 <file>, <dir>  
  0xa940	61 64 64 20 74 68 65 73 65 20 69 74 65 6d 73 20 	add these items 
  0xa950	74 6f 20 61 72 63 68 69 76 65 0a 20 20 2d 7a 2c 	to archive0  -z,
  0xa960	20 2d 6a 2c 20 2d 4a 2c 20 2d 2d 6c 7a 6d 61 20 	 -j, -J, --lzma 
  0xa970	20 43 6f 6d 70 72 65 73 73 20 61 72 63 68 69 76 	 Compress archiv
  0xa980	65 20 77 69 74 68 20 67 7a 69 70 2f 62 7a 69 70 	e with gzip/bzip
  0xa990	32 2f 78 7a 2f 6c 7a 6d 61 0a 20 20 2d 2d 66 6f 	2/xz/lzma0  --fo
  0xa9a0	72 6d 61 74 20 7b 75 73 74 61 72 7c 70 61 78 7c 	rmat {ustar|pax|
  0xa9b0	63 70 69 6f 7c 73 68 61 72 7d 20 20 53 65 6c 65 	cpio|shar}  Sele
  0xa9c0	63 74 20 61 72 63 68 69 76 65 20 66 6f 72 6d 61 	ct archive forma
  0xa9d0	74 0a 20 20 2d 2d 65 78 63 6c 75 64 65 20 3c 70 	t0  --exclude <p
  0xa9e0	61 74 74 65 72 6e 3e 20 20 53 6b 69 70 20 66 69 	attern>  Skip fi
  0xa9f0	6c 65 73 20 74 68 61 74 20 6d 61 74 63 68 20 70 	les that match p
  0xaa00	61 74 74 65 72 6e 0a 20 20 2d 43 20 3c 64 69 72 	attern0  -C <dir
  0xaa10	3e 20 20 43 68 61 6e 67 65 20 74 6f 20 3c 64 69 	>  Change to <di
  0xaa20	72 3e 20 62 65 66 6f 72 65 20 70 72 6f 63 65 73 	r> before proces
  0xaa30	73 69 6e 67 20 72 65 6d 61 69 6e 69 6e 67 20 66 	sing remaining f
  0xaa40	69 6c 65 73 0a 20 20 40 3c 61 72 63 68 69 76 65 	iles0  @<archive
  0xaa50	3e 20 20 41 64 64 20 65 6e 74 72 69 65 73 20 66 	>  Add entries f
  0xaa60	72 6f 6d 20 3c 61 72 63 68 69 76 65 3e 20 74 6f 	rom <archive> to
  0xaa70	20 6f 75 74 70 75 74 0a 4c 69 73 74 3a 20 25 70 	 output0List: %p
  0xaa80	20 2d 74 20 5b 6f 70 74 69 6f 6e 73 5d 20 5b 3c 	 -t [options] [<
  0xaa90	70 61 74 74 65 72 6e 73 3e 5d 0a 20 20 3c 70 61 	patterns>]0  <pa
  0xaaa0	74 74 65 72 6e 73 3e 20 20 49 66 20 73 70 65 63 	tterns>  If spec
  0xaab0	69 66 69 65 64 2c 20 6c 69 73 74 20 6f 6e 6c 79 	ified, list only
  0xaac0	20 65 6e 74 72 69 65 73 20 74 68 61 74 20 6d 61 	 entries that ma
  0xaad0	74 63 68 0a 45 78 74 72 61 63 74 3a 20 25 70 20 	tch0Extract: %p 
  0xaae0	2d 78 20 5b 6f 70 74 69 6f 6e 73 5d 20 5b 3c 70 	-x [options] [<p
  0xaaf0	61 74 74 65 72 6e 73 3e 5d 0a 20 20 3c 70 61 74 	atterns>]0  <pat
  0xab00	74 65 72 6e 73 3e 20 20 49 66 20 73 70 65 63 69 	terns>  If speci
  0xab10	66 69 65 64 2c 20 65 78 74 72 61 63 74 20 6f 6e 	fied, extract on
  0xab20	6c 79 20 65 6e 74 72 69 65 73 20 74 68 61 74 20 	ly entries that 
  0xab30	6d 61 74 63 68 0a 20 20 2d 6b 20 20 20 20 4b 65 	match0  -k    Ke
  0xab40	65 70 20 28 64 6f 6e 27 74 20 6f 76 65 72 77 72 	ep (don't overwr
  0xab50	69 74 65 29 20 65 78 69 73 74 69 6e 67 20 66 69 	ite) existing fi
  0xab60	6c 65 73 0a 20 20 2d 6d 20 20 20 20 44 6f 6e 27 	les0  -m    Don'
  0xab70	74 20 72 65 73 74 6f 72 65 20 6d 6f 64 69 66 69 	t restore modifi
  0xab80	63 61 74 69 6f 6e 20 74 69 6d 65 73 0a 20 20 2d 	cation times0  -
  0xab90	4f 20 20 20 20 57 72 69 74 65 20 65 6e 74 72 69 	O    Write entri
  0xaba0	65 73 20 74 6f 20 73 74 64 6f 75 74 2c 20 64 6f 	es to stdout, do
  0xabb0	6e 27 74 20 72 65 73 74 6f 72 65 20 74 6f 20 64 	n't restore to d
  0xabc0	69 73 6b 0a 20 20 2d 70 20 20 20 20 52 65 73 74 	isk0  -p    Rest
  0xabd0	6f 72 65 20 70 65 72 6d 69 73 73 69 6f 6e 73 20 	ore permissions 
  0xabe0	28 69 6e 63 6c 75 64 69 6e 67 20 41 43 4c 73 2c 	(including ACLs,
  0xabf0	20 6f 77 6e 65 72 2c 20 66 69 6c 65 20 66 6c 61 	 owner, file fla
  0xac00	67 73 29 0a 00 00 00 00 28 62 73 64 74 61 72 29 	gs)00000(bsdtar)
  0xac10	00 00 00 00 00 00 00 00 25 73 25 73 3a 20 6d 61 	00000000%s%s: ma
  0xac20	6e 69 70 75 6c 61 74 65 20 61 72 63 68 69 76 65 	nipulate archive
  0xac30	20 66 69 6c 65 73 0a 00 5c 00 5c 00 3f 00 5c 00 	 files000000?000
  0xac40	00 00 00 00 00 00 00 00 55 00 4e 00 43 00 5c 00 	00000000U0N0C000
  0xac50	00 00 00 00 00 00 00 00 00 00 00 00 00 00 00 00 	0000000000000000
  0xac60	01 00 00 00 16 00 00 00 02 00 00 00 02 00 00 00 	0000000000000000
  0xac70	03 00 00 00 02 00 00 00 04 00 00 00 18 00 00 00 	0000000000000000
  0xac80	05 00 00 00 0d 00 00 00 06 00 00 00 09 00 00 00 	0000000000000000
  0xac90	07 00 00 00 0c 00 00 00 08 00 00 00 0c 00 00 00 	0000000000000000
  0xaca0	09 00 00 00 0c 00 00 00 0a 00 00 00 07 00 00 00 	0000000000000000
  0xacb0	0b 00 00 00 08 00 00 00 0c 00 00 00 16 00 00 00 	0000000000000000
  0xacc0	0d 00 00 00 16 00 00 00 0f 00 00 00 02 00 00 00 	0000000000000000
  0xacd0	10 00 00 00 0d 00 00 00 11 00 00 00 12 00 00 00 	0000000000000000
  0xace0	12 00 00 00 02 00 00 00 21 00 00 00 0d 00 00 00 	00000000!0000000
  0xacf0	20 00 00 00 0d 00 00 00 35 00 00 00 02 00 00 00 	 000000050000000
  0xad00	41 00 00 00 0d 00 00 00 43 00 00 00 02 00 00 00 	A0000000C0000000
  0xad10	50 00 00 00 11 00 00 00 52 00 00 00 0d 00 00 00 	P0000000R0000000
  0xad20	53 00 00 00 0d 00 00 00 57 00 00 00 16 00 00 00 	S0000000W0000000
  0xad30	59 00 00 00 0b 00 00 00 6c 00 00 00 0d 00 00 00 	Y0000000l0000000
  0xad40	6d 00 00 00 20 00 00 00 70 00 00 00 1c 00 00 00 	m000 000p0000000
  0xad50	72 00 00 00 09 00 00 00 06 00 00 00 16 00 00 00 	r000000000000000
  0xad60	80 00 00 00 0a 00 00 00 81 00 00 00 0a 00 00 00 	0000000000000000
  0xad70	82 00 00 00 09 00 00 00 83 00 00 00 16 00 00 00 	0000000000000000
  0xad80	84 00 00 00 0d 00 00 00 91 00 00 00 29 00 00 00 	000000000000)000
  0xad90	9e 00 00 00 0d 00 00 00 a1 00 00 00 02 00 00 00 	0000000000000000
  0xada0	a4 00 00 00 0b 00 00 00 a7 00 00 00 0d 00 00 00 	0000000000000000
  0xadb0	b7 00 00 00 11 00 00 00 ce 00 00 00 02 00 00 00 	0000000000000000
  0xadc0	d7 00 00 00 0b 00 00 00 18 07 00 00 0c 00 00 00 	0000000000000000
  0xadd0	61 42 62 3a 43 3a 63 66 3a 48 68 49 3a 4a 6a 6b 	aBb:C:cf:HhI:Jjk
  0xade0	4c 6c 6d 6e 4f 6f 50 70 71 72 53 73 3a 54 3a 74 	LlmnOoPpqrSs:T:t
  0xadf0	55 75 76 57 3a 77 58 3a 78 79 5a 7a 00 00 00 00 	UuvW:wX:xyZz0000
  0xae00	61 62 73 6f 6c 75 74 65 2d 70 61 74 68 73 00 00 	absolute-paths00
  0xae10	61 70 70 65 6e 64 00 00 61 63 6c 73 00 00 00 00 	append00acls0000
  0xae20	61 75 74 6f 2d 63 6f 6d 70 72 65 73 73 00 00 00 	auto-compress000
  0xae30	62 6c 6f 63 6b 2d 73 69 7a 65 00 00 00 00 00 00 	block-size000000
  0xae40	62 6c 6f 63 6b 69 6e 67 2d 66 61 63 74 6f 72 00 	blocking-factor0
  0xae50	62 75 6e 7a 69 70 32 00 62 7a 69 70 00 00 00 00 	bunzip20bzip0000
  0xae60	63 64 00 00 00 00 00 00 63 68 65 63 6b 2d 6c 69 	cd000000check-li
  0xae70	6e 6b 73 00 63 68 72 6f 6f 74 00 00 00 00 00 00 	nks0chroot000000
  0xae80	63 6c 65 61 72 2d 6e 6f 63 68 61 6e 67 65 2d 66 	clear-nochange-f
  0xae90	66 6c 61 67 73 00 00 00 63 6f 6e 66 69 72 6d 61 	flags000confirma
  0xaea0	74 69 6f 6e 00 00 00 00 63 72 65 61 74 65 00 00 	tion0000create00
  0xaeb0	64 65 72 65 66 65 72 65 6e 63 65 00 00 00 00 00 	dereference00000
  0xaec0	64 69 72 65 63 74 6f 72 79 00 00 00 00 00 00 00 	directory0000000
  0xaed0	64 69 73 61 62 6c 65 2d 63 6f 70 79 66 69 6c 65 	disable-copyfile
  0xaee0	00 00 00 00 00 00 00 00 65 78 63 6c 75 64 65 00 	00000000exclude0
  0xaef0	65 78 63 6c 75 64 65 2d 66 72 6f 6d 00 00 00 00 	exclude-from0000
  0xaf00	65 78 63 6c 75 64 65 2d 76 63 73 00 00 00 00 00 	exclude-vcs00000
  0xaf10	65 78 74 72 61 63 74 00 66 61 73 74 2d 72 65 61 	extract0fast-rea
  0xaf20	64 00 00 00 66 66 6c 61 67 73 00 00 66 69 6c 65 	d000fflags00file
  0xaf30	00 00 00 00 00 00 00 00 66 69 6c 65 73 2d 66 72 	00000000files-fr
  0xaf40	6f 6d 00 00 66 6f 72 6d 61 74 00 00 67 69 64 00 	om00format00gid0
  0xaf50	67 6e 61 6d 65 00 00 00 67 75 6e 7a 69 70 00 00 	gname000gunzip00
  0xaf60	68 65 6c 70 00 00 00 00 68 66 73 43 6f 6d 70 72 	help0000hfsCompr
  0xaf70	65 73 73 69 6f 6e 00 00 69 67 6e 6f 72 65 2d 7a 	ession00ignore-z
  0xaf80	65 72 6f 73 00 00 00 00 69 6e 63 6c 75 64 65 00 	eros0000include0
  0xaf90	69 6e 73 65 63 75 72 65 00 00 00 00 00 00 00 00 	insecure00000000
  0xafa0	69 6e 74 65 72 61 63 74 69 76 65 00 00 00 00 00 	interactive00000
  0xafb0	6b 65 65 70 2d 6e 65 77 65 72 2d 66 69 6c 65 73 	keep-newer-files
  0xafc0	00 00 00 00 00 00 00 00 6b 65 65 70 2d 6f 6c 64 	00000000keep-old
  0xafd0	2d 66 69 6c 65 73 00 00 6c 69 73 74 00 00 00 00 	-files00list0000
  0xafe0	6d 61 63 2d 6d 65 74 61 64 61 74 61 00 00 00 00 	mac-metadata0000
  0xaff0	6d 6f 64 69 66 69 63 61 74 69 6f 6e 2d 74 69 6d 	modification-tim
  0xb000	65 00 00 00 6e 65 77 65 72 00 00 00 00 00 00 00 	e000newer0000000
  0xb010	6e 65 77 65 72 2d 63 74 69 6d 65 00 00 00 00 00 	newer-ctime00000
  0xb020	6e 65 77 65 72 2d 63 74 69 6d 65 2d 74 68 61 6e 	newer-ctime-than
  0xb030	00 00 00 00 00 00 00 00 6e 65 77 65 72 2d 6d 74 	00000000newer-mt
  0xb040	69 6d 65 00 00 00 00 00 6e 65 77 65 72 2d 6d 74 	ime00000newer-mt
  0xb050	69 6d 65 2d 74 68 61 6e 00 00 00 00 00 00 00 00 	ime-than00000000
  0xb060	6e 65 77 65 72 2d 74 68 61 6e 00 00 00 00 00 00 	newer-than000000
  0xb070	6e 6f 2d 61 63 6c 73 00 6e 6f 2d 66 66 6c 61 67 	no-acls0no-fflag
  0xb080	73 00 00 00 00 00 00 00 6e 6f 2d 6d 61 63 2d 6d 	s0000000no-mac-m
  0xb090	65 74 61 64 61 74 61 00 6e 6f 2d 72 65 63 75 72 	etadata0no-recur
  0xb0a0	73 69 6f 6e 00 00 00 00 6e 6f 2d 73 61 66 65 2d 	sion0000no-safe-
  0xb0b0	77 72 69 74 65 73 00 00 6e 6f 2d 73 61 6d 65 2d 	writes00no-same-
  0xb0c0	6f 77 6e 65 72 00 00 00 6e 6f 2d 73 61 6d 65 2d 	owner000no-same-
  0xb0d0	70 65 72 6d 69 73 73 69 6f 6e 73 00 00 00 00 00 	permissions00000
  0xb0e0	6e 6f 2d 78 61 74 74 72 00 00 00 00 00 00 00 00 	no-xattr00000000
  0xb0f0	6e 6f 2d 78 61 74 74 72 73 00 00 00 6e 6f 64 75 	no-xattrs000nodu
  0xb100	6d 70 00 00 00 00 00 00 6e 6f 70 72 65 73 65 72 	mp000000nopreser
  0xb110	76 65 48 46 53 43 6f 6d 70 72 65 73 73 69 6f 6e 	veHFSCompression
  0xb120	00 00 00 00 00 00 00 00 6e 6f 72 65 63 75 72 73 	00000000norecurs
  0xb130	65 00 00 00 6e 75 6c 6c 00 00 00 00 00 00 00 00 	e000null00000000
  0xb140	6e 75 6d 65 72 69 63 2d 6f 77 6e 65 72 00 00 00 	numeric-owner000
  0xb150	6f 6c 64 65 72 00 00 00 6f 6c 64 65 72 2d 63 74 	older000older-ct
  0xb160	69 6d 65 00 00 00 00 00 6f 6c 64 65 72 2d 63 74 	ime00000older-ct
  0xb170	69 6d 65 2d 74 68 61 6e 00 00 00 00 00 00 00 00 	ime-than00000000
  0xb180	6f 6c 64 65 72 2d 6d 74 69 6d 65 00 00 00 00 00 	older-mtime00000
  0xb190	6f 6c 64 65 72 2d 6d 74 69 6d 65 2d 74 68 61 6e 	older-mtime-than
  0xb1a0	00 00 00 00 00 00 00 00 6f 6c 64 65 72 2d 74 68 	00000000older-th
  0xb1b0	61 6e 00 00 00 00 00 00 6f 6e 65 2d 66 69 6c 65 	an000000one-file
  0xb1c0	2d 73 79 73 74 65 6d 00 6f 70 74 69 6f 6e 73 00 	-system0options0
  0xb1d0	70 61 73 73 70 68 72 61 73 65 00 00 70 6f 73 69 	passphrase00posi
  0xb1e0	78 00 00 00 00 00 00 00 70 72 65 73 65 72 76 65 	x0000000preserve
  0xb1f0	2d 70 65 72 6d 69 73 73 69 6f 6e 73 00 00 00 00 	-permissions0000
  0xb200	72 65 61 64 2d 66 75 6c 6c 2d 62 6c 6f 63 6b 73 	read-full-blocks
  0xb210	00 00 00 00 00 00 00 00 73 61 66 65 2d 77 72 69 	00000000safe-wri
  0xb220	74 65 73 00 00 00 00 00 73 61 6d 65 2d 6f 77 6e 	tes00000same-own
  0xb230	65 72 00 00 00 00 00 00 73 61 6d 65 2d 70 65 72 	er000000same-per
  0xb240	6d 69 73 73 69 6f 6e 73 00 00 00 00 00 00 00 00 	missions00000000
  0xb250	73 74 72 69 70 2d 63 6f 6d 70 6f 6e 65 6e 74 73 	strip-components
  0xb260	00 00 00 00 00 00 00 00 74 6f 2d 73 74 64 6f 75 	00000000to-stdou
  0xb270	74 00 00 00 74 6f 74 61 6c 73 00 00 75 69 64 00 	t000totals00uid0
  0xb280	75 6e 61 6d 65 00 00 00 75 6e 63 6f 6d 70 72 65 	uname000uncompre
  0xb290	73 73 00 00 75 6e 6c 69 6e 6b 00 00 00 00 00 00 	ss00unlink000000
  0xb2a0	75 6e 6c 69 6e 6b 2d 66 69 72 73 74 00 00 00 00 	unlink-first0000
  0xb2b0	75 70 64 61 74 65 00 00 75 73 65 2d 63 6f 6d 70 	update00use-comp
  0xb2c0	72 65 73 73 2d 70 72 6f 67 72 61 6d 00 00 00 00 	ress-program0000
  0xb2d0	76 65 72 62 6f 73 65 00 76 65 72 73 69 6f 6e 00 	verbose0version0
  0xb2e0	78 61 74 74 72 73 00 00 4f 70 74 69 6f 6e 20 25 	xattrs00Option %
  0xb2f0	63 20 72 65 71 75 69 72 65 73 20 61 6e 20 61 72 	c requires an ar
  0xb300	67 75 6d 65 6e 74 00 00 4f 70 74 69 6f 6e 20 2d 	gument00Option -
  0xb310	25 63 20 72 65 71 75 69 72 65 73 20 61 6e 20 61 	%c requires an a
  0xb320	72 67 75 6d 65 6e 74 00 2d 57 20 00 00 00 00 00 	rgument0-W 00000
  0xb330	4f 70 74 69 6f 6e 20 25 73 25 73 20 69 73 20 6e 	Option %s%s is n
  0xb340	6f 74 20 73 75 70 70 6f 72 74 65 64 00 00 00 00 	ot supported0000
  0xb350	41 6d 62 69 67 75 6f 75 73 20 6f 70 74 69 6f 6e 	Ambiguous option
  0xb360	20 25 73 25 73 20 28 6d 61 74 63 68 65 73 20 2d 	 %s%s (matches -
  0xb370	2d 25 73 20 61 6e 64 20 2d 2d 25 73 29 00 00 00 	-%s and --%s)000
  0xb380	4f 70 74 69 6f 6e 20 25 73 25 73 20 72 65 71 75 	Option %s%s requ
  0xb390	69 72 65 73 20 61 6e 20 61 72 67 75 6d 65 6e 74 	ires an argument
  0xb3a0	00 00 00 00 00 00 00 00 4f 70 74 69 6f 6e 20 25 	00000000Option %
  0xb3b0	73 25 73 20 64 6f 65 73 20 6e 6f 74 20 61 6c 6c 	s%s does not all
  0xb3c0	6f 77 20 61 6e 20 61 72 67 75 6d 65 6e 74 00 00 	ow an argument00
  0xb3d0	2e 5a 00 00 2e 62 7a 32 00 00 00 00 2e 67 7a 00 	.Z00.bz20000.gz0
  0xb3e0	2e 67 72 7a 00 00 00 00 2e 6c 72 7a 00 00 00 00 	.grz0000.lrz0000
  0xb3f0	2e 6c 7a 00 2e 6c 7a 34 00 00 00 00 2e 6c 7a 6f 	.lz0.lz40000.lzo
  0xb400	00 00 00 00 2e 6c 7a 6d 61 00 00 00 2e 75 75 00 	0000.lzma000.uu0
  0xb410	2e 78 7a 00 2e 7a 73 74 00 00 00 00 2e 37 7a 00 	.xz0.zst0000.7z0
  0xb420	37 7a 69 70 00 00 00 00 2e 61 72 00 61 72 62 73 	7zip0000.ar0arbs
  0xb430	64 00 00 00 2e 63 70 69 6f 00 00 00 63 70 69 6f 	d000.cpio000cpio
  0xb440	00 00 00 00 2e 69 73 6f 00 00 00 00 00 00 00 00 	0000.iso00000000
  0xb450	69 73 6f 39 39 36 30 00 2e 6d 74 72 65 65 00 00 	iso99600.mtree00
  0xb460	6d 74 72 65 65 00 00 00 2e 73 68 61 72 00 00 00 	mtree000.shar000
  0xb470	73 68 61 72 00 00 00 00 2e 74 61 72 00 00 00 00 	shar0000.tar0000
  0xb480	70 61 78 72 00 00 00 00 2e 77 61 72 63 00 00 00 	paxr0000.warc000
  0xb490	77 61 72 63 00 00 00 00 2e 78 61 72 00 00 00 00 	warc0000.xar0000
  0xb4a0	78 61 72 00 2e 7a 69 70 00 00 00 00 7a 69 70 00 	xar0.zip0000zip0
  0xb4b0	2e 74 61 7a 00 00 00 00 2e 74 61 72 2e 67 7a 00 	.taz0000.tar.gz0
  0xb4c0	2e 74 67 7a 00 00 00 00 2e 74 62 7a 00 00 00 00 	.tgz0000.tbz0000
  0xb4d0	2e 74 61 72 2e 62 7a 32 00 00 00 00 2e 74 62 7a 	.tar.bz20000.tbz
  0xb4e0	32 00 00 00 2e 74 7a 32 00 00 00 00 2e 74 6c 7a 	2000.tz20000.tlz
  0xb4f0	00 00 00 00 00 00 00 00 2e 74 61 72 2e 6c 7a 6d 	00000000.tar.lzm
  0xb500	61 00 00 00 2e 74 78 7a 00 00 00 00 00 00 00 00 	a000.txz00000000
  0xb510	2e 74 61 72 2e 78 7a 00 2e 74 7a 6f 00 00 00 00 	.tar.xz0.tzo0000
  0xb520	2e 74 61 72 2e 6c 7a 6f 00 00 00 00 2e 74 61 5a 	.tar.lzo0000.taZ
  0xb530	00 00 00 00 2e 74 61 72 2e 5a 00 00 2e 74 5a 00 	0000.tar.Z00.tZ0
  0xb540	2e 74 7a 73 74 00 00 00 2e 74 61 72 2e 7a 73 74 	.tzst000.tar.zst
  0xb550	00 00 00 00 00 00 00 00 4e 6f 20 6d 65 6d 6f 72 	00000000No memor
  0xb560	79 00 00 00 00 00 00 00 4e 6f 74 20 66 6f 75 6e 	y0000000Not foun
  0xb570	64 20 69 6e 20 61 72 63 68 69 76 65 00 00 00 00 	d in archive0000
  0xb580	43 61 6e 6e 6f 74 20 61 6c 6c 6f 63 61 74 65 20 	Cannot allocate 
  0xb590	64 69 73 6b 20 77 72 69 74 65 72 20 6f 62 6a 65 	disk writer obje
  0xb5a0	63 74 00 00 0a 00 00 00 45 72 72 6f 72 20 69 6e 	ct000000Error in
  0xb5b0	63 6c 75 73 69 6f 6e 20 70 61 74 74 65 72 6e 3a 	clusion pattern:
  0xb5c0	20 25 73 00 00 00 00 00 54 41 52 5f 52 45 41 44 	 %s00000TAR_READ
  0xb5d0	45 52 5f 4f 50 54 49 4f 4e 53 00 00 00 00 00 00 	ER_OPTIONS000000
  0xb5e0	5f 5f 69 67 6e 6f 72 65 5f 77 72 6f 6e 67 5f 6d 	__ignore_wrong_m
  0xb5f0	6f 64 75 6c 65 5f 6e 61 6d 65 5f 5f 2c 00 00 00 	odule_name__,000
  0xb600	25 73 00 00 00 00 00 00 72 65 61 64 5f 63 6f 6e 	%s000000read_con
  0xb610	63 61 74 65 6e 61 74 65 64 5f 61 72 63 68 69 76 	catenated_archiv
  0xb620	65 73 00 00 00 00 00 00 45 72 72 6f 72 20 6f 70 	es000000Error op
  0xb630	65 6e 69 6e 67 20 61 72 63 68 69 76 65 3a 20 25 	ening archive: %
  0xb640	73 00 00 00 00 00 00 00 63 68 72 6f 6f 74 20 69 	s0000000chroot i
  0xb650	73 6e 27 74 20 73 75 70 70 6f 72 74 65 64 20 6f 	sn't supported o
  0xb660	6e 20 74 68 69 73 20 70 6c 61 74 66 6f 72 6d 00 	n this platform0
  0xb670	52 65 74 72 79 69 6e 67 2e 2e 2e 00 00 00 00 00 	Retrying...00000
  0xb680	41 72 63 68 69 76 65 20 65 6e 74 72 79 20 68 61 	Archive entry ha
  0xb690	73 20 65 6d 70 74 79 20 6f 72 20 75 6e 72 65 61 	s empty or unrea
  0xb6a0	64 61 62 6c 65 20 66 69 6c 65 6e 61 6d 65 20 2e 	dable filename .
  0xb6b0	2e 2e 20 73 6b 69 70 70 69 6e 67 2e 00 00 00 00 	.. skipping.0000
  0xb6c0	65 78 74 72 61 63 74 20 27 25 73 27 00 00 00 00 	extract '%s'0000
  0xb6d0	78 20 00 00 78 20 25 73 00 00 00 00 3a 20 25 73 	x 00x %s0000: %s
  0xb6e0	00 00 00 00 00 00 00 00 41 72 63 68 69 76 65 20 	00000000Archive 
  0xb6f0	46 6f 72 6d 61 74 3a 20 25 73 2c 20 20 43 6f 6d 	Format: %s,  Com
  0xb700	70 72 65 73 73 69 6f 6e 3a 20 25 73 0a 00 00 00 	pression: %s0000
  0xb710	25 73 3a 20 25 73 00 00 25 30 33 6f 00 00 00 00 	%s: %s00%03o0000
  0xb720	20 28 79 2f 4e 29 3f 20 00 00 00 00 00 00 00 00 	 (y/N)? 00000000
  0xb730	4b 65 79 62 6f 61 72 64 20 72 65 61 64 20 66 61 	Keyboard read fa
  0xb740	69 6c 65 64 0a 00 00 00 25 73 2f 25 73 00 00 00 	iled0000%s/%s000
  0xb750	63 6f 75 6c 64 20 6e 6f 74 20 63 68 64 69 72 20 	could not chdir 
  0xb760	74 6f 20 27 25 73 27 0a 00 00 00 00 00 00 00 00 	to '%s'000000000
  0xb770	52 65 6d 6f 76 69 6e 67 20 6c 65 61 64 69 6e 67 	Removing leading
  0xb780	20 27 25 63 27 20 66 72 6f 6d 20 6d 65 6d 62 65 	 '%c' from membe
  0xb790	72 20 6e 61 6d 65 73 00 52 65 6d 6f 76 69 6e 67 	r names0Removing
  0xb7a0	20 6c 65 61 64 69 6e 67 20 64 72 69 76 65 20 6c 	 leading drive l
  0xb7b0	65 74 74 65 72 20 66 72 6f 6d 20 6d 65 6d 62 65 	etter from membe
  0xb7c0	72 20 6e 61 6d 65 73 00 2e 00 00 00 00 00 00 00 	r names0.0000000
  0xb7d0	45 6e 74 65 72 20 70 61 73 73 70 68 72 61 73 65 	Enter passphrase
  0xb7e0	3a 00 00 00 25 73 20 25 64 20 00 00 25 6c 75 20 	:000%s %d 00%lu 
  0xb7f0	00 00 00 00 25 2d 2a 73 20 00 00 00 25 6c 75 00 	0000%-*s 000%lu0
  0xb800	25 6c 75 2c 25 6c 75 00 25 2a 73 00 00 00 00 00 	%lu,%lu0%*s00000
  0xb810	25 64 20 25 62 20 20 25 59 00 00 00 00 00 00 00 	%d %b  %Y0000000
  0xb820	25 62 20 25 64 20 20 25 59 00 00 00 00 00 00 00 	%b %d  %Y0000000
  0xb830	25 64 20 25 62 20 25 48 3a 25 4d 00 00 00 00 00 	%d %b %H:%M00000
  0xb840	25 62 20 25 64 20 25 48 3a 25 4d 00 20 25 73 20 	%b %d %H:%M0 %s 
  0xb850	00 00 00 00 00 00 00 00 20 6c 69 6e 6b 20 74 6f 	00000000 link to
  0xb860	20 25 73 00 20 2d 3e 20 25 73 00 00 00 00 00 00 	 %s0 -> %s000000
  0xb870	54 41 52 5f 57 52 49 54 45 52 5f 4f 50 54 49 4f 	TAR_WRITER_OPTIO
  0xb880	4e 53 00 00 00 00 00 00 6e 6f 20 66 69 6c 65 73 	NS000000no files
  0xb890	20 6f 72 20 64 69 72 65 63 74 6f 72 69 65 73 20 	 or directories 
  0xb8a0	73 70 65 63 69 66 69 65 64 00 00 00 00 00 00 00 	specified0000000
  0xb8b0	70 61 78 20 72 65 73 74 72 69 63 74 65 64 00 00 	pax restricted00
  0xb8c0	43 61 6e 27 74 20 75 73 65 20 66 6f 72 6d 61 74 	Can't use format
  0xb8d0	20 25 73 3a 20 25 73 0a 00 00 00 00 00 00 00 00 	 %s: %s000000000
  0xb8e0	55 6e 73 75 70 70 6f 72 74 65 64 20 63 6f 6d 70 	Unsupported comp
  0xb8f0	72 65 73 73 69 6f 6e 20 6f 70 74 69 6f 6e 20 2d 	ression option -
  0xb900	2d 25 73 00 00 00 00 00 43 61 6e 6e 6f 74 20 6f 	-%s00000Cannot o
  0xb910	70 65 6e 20 25 73 00 00 43 61 6e 27 74 20 72 65 	pen %s00Can't re
  0xb920	61 64 20 61 72 63 68 69 76 65 20 25 73 3a 20 25 	ad archive %s: %
  0xb930	73 00 00 00 00 00 00 00 43 61 6e 6e 6f 74 20 61 	s0000000Cannot a
  0xb940	70 70 65 6e 64 20 74 6f 20 63 6f 6d 70 72 65 73 	ppend to compres
  0xb950	73 65 64 20 61 72 63 68 69 76 65 2e 00 00 00 00 	sed archive.0000
  0xb960	46 6f 72 6d 61 74 20 25 73 20 69 73 20 69 6e 63 	Format %s is inc
  0xb970	6f 6d 70 61 74 69 62 6c 65 20 77 69 74 68 20 74 	ompatible with t
  0xb980	68 65 20 61 72 63 68 69 76 65 20 25 73 2e 00 00 	he archive %s.00
  0xb990	43 6f 75 6c 64 20 6e 6f 74 20 73 65 65 6b 20 74 	Could not seek t
  0xb9a0	6f 20 61 72 63 68 69 76 65 20 65 6e 64 00 00 00 	o archive end000
  0xb9b0	43 61 6e 27 74 20 6f 70 65 6e 20 25 73 3a 20 25 	Can't open %s: %
  0xb9c0	73 00 00 00 00 00 00 00 63 61 6e 6e 6f 74 20 61 	s0000000cannot a
  0xb9d0	6c 6c 6f 63 61 74 65 20 6d 65 6d 6f 72 79 00 00 	llocate memory00
  0xb9e0	63 61 6e 6e 6f 74 20 63 72 65 61 74 65 20 6c 69 	cannot create li
  0xb9f0	6e 6b 20 72 65 73 6f 6c 76 65 72 00 00 00 00 00 	nk resolver00000
  0xba00	43 61 6e 6e 6f 74 20 63 72 65 61 74 65 20 72 65 	Cannot create re
  0xba10	61 64 5f 64 69 73 6b 20 6f 62 6a 65 63 74 00 00 	ad_disk object00
  0xba20	4d 69 73 73 69 6e 67 20 61 72 67 75 6d 65 6e 74 	Missing argument
  0xba30	20 66 6f 72 20 2d 43 00 4d 65 61 6e 69 6e 67 6c 	 for -C0Meaningl
  0xba40	65 73 73 20 61 72 67 75 6d 65 6e 74 20 66 6f 72 	ess argument for
  0xba50	20 2d 43 3a 20 27 27 00 54 6f 74 61 6c 20 62 79 	 -C: ''0Total by
  0xba60	74 65 73 20 77 72 69 74 74 65 6e 3a 20 25 73 0a 	tes written: %s0
  0xba70	00 00 00 00 00 00 00 00 55 6e 65 78 70 65 63 74 	00000000Unexpect
  0xba80	65 64 20 65 6e 64 20 6f 66 20 66 69 6c 65 6e 61 	ed end of filena
  0xba90	6d 65 20 6c 69 73 74 3b 20 64 69 72 65 63 74 6f 	me list; directo
  0xbaa0	72 79 20 65 78 70 65 63 74 65 64 20 61 66 74 65 	ry expected afte
  0xbab0	72 20 2d 43 00 00 00 00 6d 74 72 65 65 3a 63 68 	r -C0000mtree:ch
  0xbac0	65 63 6b 66 73 00 00 00 45 72 72 6f 72 20 72 65 	eckfs000Error re
  0xbad0	61 64 69 6e 67 20 61 72 63 68 69 76 65 20 25 73 	ading archive %s
  0xbae0	3a 20 25 73 00 00 00 00 63 6f 70 79 20 27 25 73 	: %s0000copy '%s
  0xbaf0	27 00 00 00 61 20 00 00 61 20 25 73 00 00 00 00 	'000a 00a %s0000
  0xbb00	25 73 3a 20 54 72 75 6e 63 61 74 65 64 20 77 72 	%s: Truncated wr
  0xbb10	69 74 65 3b 20 66 69 6c 65 20 6d 61 79 20 68 61 	ite; file may ha
  0xbb20	76 65 20 67 72 6f 77 6e 20 77 68 69 6c 65 20 62 	ve grown while b
  0xbb30	65 69 6e 67 20 61 72 63 68 69 76 65 64 2e 00 00 	eing archived.00
  0xbb40	61 64 64 20 27 25 73 27 00 00 00 00 00 00 00 00 	add '%s'00000000
  0xbb50	43 61 6e 6e 6f 74 20 61 70 70 65 6e 64 20 74 6f 	Cannot append to
  0xbb60	20 73 74 64 6f 75 74 2e 00 00 00 00 00 00 00 00 	 stdout.00000000
  0xbb70	43 61 6e 6e 6f 74 20 61 70 70 65 6e 64 20 74 6f 	Cannot append to
  0xbb80	20 25 73 3a 20 6e 6f 74 20 61 20 72 65 67 75 6c 	 %s: not a regul
  0xbb90	61 72 20 66 69 6c 65 2e 00 00 00 00 25 73 3a 20 	ar file.0000%s: 
  0xbba0	00 00 00 00 00 00 00 00 43 61 6e 27 74 20 6f 70 	00000000Can't op
  0xbbb0	65 6e 20 25 73 00 00 00 72 00 00 00 00 00 00 00 	en %s000r0000000
  0xbbc0	43 6f 75 6c 64 6e 27 74 20 6f 70 65 6e 20 25 73 	Couldn't open %s
  0xbbd0	00 00 00 00 0d 0a 00 00 4c 69 6e 65 20 74 6f 6f 	00000000Line too
  0xbbe0	20 6c 6f 6e 67 20 69 6e 20 25 73 00 00 00 00 00 	 long in %s00000
  0xbbf0	43 61 6e 27 74 20 72 65 61 64 20 25 73 00 00 00 	Can't read %s000
  0xbc00	43 6f 75 6c 64 6e 27 74 20 72 65 61 64 20 70 61 	Couldn't read pa
  0xbc10	73 73 70 68 72 61 73 65 00 00 00 00 00 00 00 00 	ssphrase00000000
  0xbc20	00 00 00 00 a9 77 49 f9 00 00 00 00 02 00 00 00 	00000wI000000000
  0xbc30	20 00 00 00 74 bc 00 00 74 a4 00 00 00 00 00 00 	 000t000t0000000
  0xbc40	a9 77 49 f9 00 00 00 00 0d 00 00 00 b8 02 00 00 	0wI0000000000000
  0xbc50	94 bc 00 00 94 a4 00 00 00 00 00 00 a9 77 49 f9 	0000000000000wI0
  0xbc60	00 00 00 00 10 00 00 00 24 00 00 00 4c bf 00 00 	00000000$000L000
  0xbc70	4c a7 00 00 52 53 44 53 cb 2c 25 54 b1 96 20 69 	L000RSDS0,%T00 i
  0xbc80	da 85 0c cb 36 e7 30 10 01 00 00 00 74 61 72 2e 	000060000000tar.
  0xbc90	70 64 62 00 47 43 54 4c 00 10 00 00 a0 72 00 00 	pdb0GCTL00000r00
  0xbca0	2e 74 65 78 74 24 6d 6e 00 00 00 00 a0 82 00 00 	.text$mn00000000
  0xbcb0	12 00 00 00 2e 74 65 78 74 24 6d 6e 24 30 30 00 	0000.text$mn$000
  0xbcc0	b2 82 00 00 42 00 00 00 2e 74 65 78 74 24 78 00 	0000B000.text$x0
  0xbcd0	00 90 00 00 78 0a 00 00 2e 72 64 61 74 61 24 62 	0000x000.rdata$b
  0xbce0	72 63 00 00 78 9a 00 00 c0 06 00 00 2e 69 64 61 	rc00x0000000.ida
  0xbcf0	74 61 24 35 00 00 00 00 38 a1 00 00 10 00 00 00 	ta$5000080000000
  0xbd00	2e 30 30 63 66 67 00 00 48 a1 00 00 08 00 00 00 	.00cfg00H0000000
  0xbd10	2e 43 52 54 24 58 43 41 00 00 00 00 50 a1 00 00 	.CRT$XCA0000P000
  0xbd20	08 00 00 00 2e 43 52 54 24 58 43 41 41 00 00 00 	0000.CRT$XCAA000
  0xbd30	58 a1 00 00 08 00 00 00 2e 43 52 54 24 58 43 5a 	X0000000.CRT$XCZ
  0xbd40	00 00 00 00 60 a1 00 00 08 00 00 00 2e 43 52 54 	0000`0000000.CRT
  0xbd50	24 58 49 41 00 00 00 00 68 a1 00 00 08 00 00 00 	$XIA0000h0000000
  0xbd60	2e 43 52 54 24 58 49 41 41 00 00 00 70 a1 00 00 	.CRT$XIAA000p000
  0xbd70	08 00 00 00 2e 43 52 54 24 58 49 41 43 00 00 00 	0000.CRT$XIAC000
  0xbd80	78 a1 00 00 18 00 00 00 2e 43 52 54 24 58 49 43 	x0000000.CRT$XIC
  0xbd90	00 00 00 00 90 a1 00 00 08 00 00 00 2e 43 52 54 	000000000000.CRT
  0xbda0	24 58 49 5a 00 00 00 00 98 a1 00 00 08 00 00 00 	$XIZ000000000000
  0xbdb0	2e 43 52 54 24 58 50 41 00 00 00 00 a0 a1 00 00 	.CRT$XPA00000000
  0xbdc0	08 00 00 00 2e 43 52 54 24 58 50 5a 00 00 00 00 	0000.CRT$XPZ0000
  0xbdd0	a8 a1 00 00 08 00 00 00 2e 43 52 54 24 58 54 41 	00000000.CRT$XTA
  0xbde0	00 00 00 00 b0 a1 00 00 08 00 00 00 2e 43 52 54 	000000000000.CRT
  0xbdf0	24 58 54 5a 00 00 00 00 b8 a1 00 00 08 00 00 00 	$XTZ000000000000
  0xbe00	2e 67 65 68 63 6f 6e 74 00 00 00 00 c0 a1 00 00 	.gehcont00000000
  0xbe10	40 00 00 00 2e 67 66 69 64 73 00 00 00 a2 00 00 	@000.gfids000000
  0xbe20	74 1a 00 00 2e 72 64 61 74 61 00 00 74 bc 00 00 	t000.rdata00t000
  0xbe30	fc 02 00 00 2e 72 64 61 74 61 24 7a 7a 7a 64 62 	0000.rdata$zzzdb
  0xbe40	67 00 00 00 70 bf 00 00 08 00 00 00 2e 72 74 63 	g000p0000000.rtc
  0xbe50	24 49 41 41 00 00 00 00 78 bf 00 00 08 00 00 00 	$IAA0000x0000000
  0xbe60	2e 72 74 63 24 49 5a 5a 00 00 00 00 80 bf 00 00 	.rtc$IZZ00000000
  0xbe70	08 00 00 00 2e 72 74 63 24 54 41 41 00 00 00 00 	0000.rtc$TAA0000
  0xbe80	88 bf 00 00 08 00 00 00 2e 72 74 63 24 54 5a 5a 	00000000.rtc$TZZ
  0xbe90	00 00 00 00 90 bf 00 00 38 03 00 00 2e 78 64 61 	000000008000.xda
  0xbea0	74 61 00 00 c8 c2 00 00 7c 01 00 00 2e 69 64 61 	ta000000|000.ida
  0xbeb0	74 61 24 32 00 00 00 00 44 c4 00 00 14 00 00 00 	ta$20000D0000000
  0xbec0	2e 69 64 61 74 61 24 33 00 00 00 00 58 c4 00 00 	.idata$30000X000
  0xbed0	c0 06 00 00 2e 69 64 61 74 61 24 34 00 00 00 00 	0000.idata$40000
  0xbee0	18 cb 00 00 08 15 00 00 2e 69 64 61 74 61 24 36 	00000000.idata$6
  0xbef0	00 00 00 00 00 f0 00 00 30 00 00 00 2e 64 61 74 	000000000000.dat
  0xbf00	61 00 00 00 30 f0 00 00 a0 06 00 00 2e 62 73 73 	a00000000000.bss
  0xbf10	00 00 00 00 00 00 01 00 fc 03 00 00 2e 70 64 61 	000000000000.pda
  0xbf20	74 61 00 00 00 10 01 00 60 00 00 00 2e 72 73 72 	ta000000`000.rsr
  0xbf30	63 24 30 31 00 00 00 00 60 10 01 00 58 03 00 00 	c$010000`000X000
  0xbf40	2e 72 73 72 63 24 30 32 00 00 00 00 20 00 00 00 	.rsrc$020000 000
  0xbf50	cb 2c 25 54 b1 96 20 69 da 85 0c cb 36 e7 30 10 	0,%T00 i00006000
  0xbf60	d0 35 fd 5c ce 8a bf 4b b1 d1 a5 e6 a9 77 49 f9 	0500000K00000wI0
  0xbf70	00 00 00 00 00 00 00 00 00 00 00 00 00 00 00 00 	0000000000000000
  0xbf80	00 00 00 00 00 00 00 00 00 00 00 00 00 00 00 00 	0000000000000000
  0xbf90	19 37 0d 00 26 74 3d 00 26 64 3c 00 26 34 3a 00 	0700&t=0&d<0&4:0
  0xbfa0	26 01 34 00 18 f0 16 e0 14 d0 12 c0 10 50 00 00 	&040000000000P00
  0xbfb0	fc 81 00 00 90 01 00 00 01 04 01 00 04 62 00 00 	0000000000000b00
  0xbfc0	01 0a 04 00 0a 34 06 00 0a 32 06 70 01 04 01 00 	00000400020p0000
  0xbfd0	04 42 00 00 01 0f 06 00 0f 64 07 00 0f 34 06 00 	0B0000000d000400
  0xbfe0	0f 32 0b 70 01 1c 0c 00 1c 64 0e 00 1c 54 0d 00 	020p00000d000T00
  0xbff0	1c 34 0c 00 1c 52 18 f0 16 e0 14 d0 12 c0 10 70 	04000R000000000p
  0xc000	01 06 02 00 06 32 02 30 01 05 02 00 05 34 01 00 	0000020000000400
  0xc010	01 14 08 00 14 64 08 00 14 54 07 00 14 34 06 00 	00000d000T000400
  0xc020	14 32 10 70 01 18 0a 00 18 64 0a 00 18 54 09 00 	020p00000d000T00
  0xc030	18 34 08 00 18 32 14 f0 12 e0 10 70 01 20 0a 00 	04000200000p0 00
  0xc040	20 34 13 00 20 72 19 f0 17 e0 15 d0 13 c0 11 70 	 400 r000000000p
  0xc050	10 60 0f 50 01 0a 02 00 0a 32 06 30 19 3a 0a 00 	0`0P000002000:00
  0xc060	29 01 49 00 1b f0 19 e0 17 d0 15 c0 13 70 12 60 	)0I0000000000p0`
  0xc070	11 30 10 50 fc 81 00 00 30 02 00 00 01 19 0a 00 	000P000000000000
  0xc080	19 74 09 00 19 64 08 00 19 54 07 00 19 34 06 00 	0t000d000T000400
  0xc090	19 32 15 e0 19 28 03 00 19 a2 15 70 14 30 00 00 	02000(00000p0000
  0xc0a0	fc 81 00 00 40 00 00 00 19 2a 0b 00 1c 34 25 00 	0000@0000*0004%0
  0xc0b0	1c 01 1a 00 10 f0 0e e0 0c d0 0a c0 08 70 07 60 	0000000000000p0`
  0xc0c0	06 50 00 00 fc 81 00 00 c0 00 00 00 01 16 0a 00 	0P00000000000000
  0xc0d0	16 54 0c 00 16 34 0b 00 16 32 12 f0 10 e0 0e c0 	0T00040002000000
  0xc0e0	0c 70 0b 60 01 12 08 00 12 54 0c 00 12 34 0b 00 	0p0`00000T000400
  0xc0f0	12 52 0e e0 0c 70 0b 60 01 14 08 00 14 64 0d 00 	0R000p0`00000d00
  0xc100	14 54 0c 00 14 34 0b 00 14 72 10 70 01 12 08 00 	0T0004000r0p0000
  0xc110	12 54 0b 00 12 34 08 00 12 32 0e e0 0c 70 0b 60 	0T00040002000p0`
  0xc120	01 18 0a 00 18 64 0a 00 18 54 09 00 18 34 08 00 	00000d000T000400
  0xc130	18 32 14 e0 12 c0 10 70 01 16 0a 00 16 54 0b 00 	0200000p00000T00
  0xc140	16 34 0a 00 16 32 12 f0 10 e0 0e c0 0c 70 0b 60 	0400020000000p0`
  0xc150	01 1c 0c 00 1c 64 10 00 1c 54 0f 00 1c 34 0e 00 	00000d000T000400
  0xc160	1c 72 18 f0 16 e0 14 d0 12 c0 10 70 01 13 08 00 	0r000000000p0000
  0xc170	13 34 0b 00 13 32 0c f0 0a e0 08 70 07 60 06 50 	04000200000p0`0P
  0xc180	19 15 02 00 06 b2 02 30 fc 81 00 00 50 00 00 00 	000000000000P000
  0xc190	01 13 01 00 13 42 00 00 01 0f 02 00 0f 32 0b 30 	00000B0000000200
  0xc1a0	01 10 06 00 10 74 07 00 10 34 06 00 10 32 0c e0 	00000t0004000200
  0xc1b0	01 18 06 00 18 64 0b 00 18 34 09 00 18 52 14 70 	00000d0004000R0p
  0xc1c0	09 0f 06 00 0f 64 09 00 0f 34 08 00 0f 52 0b 70 	00000d0004000R0p
  0xc1d0	32 80 00 00 02 00 00 00 f9 71 00 00 fe 72 00 00 	200000000q000r00
  0xc1e0	b8 82 00 00 fe 72 00 00 32 73 00 00 44 73 00 00 	00000r002s00Ds00
  0xc1f0	b8 82 00 00 fe 72 00 00 01 06 02 00 06 32 02 50 	00000r000000020P
  0xc200	01 00 00 00 01 08 01 00 08 42 00 00 01 09 01 00 	000000000B000000
  0xc210	09 62 00 00 01 0a 04 00 0a 34 0d 00 0a 72 06 70 	0b00000004000r0p
  0xc220	01 08 04 00 08 72 04 70 03 60 02 30 09 04 01 00 	00000r0p0`000000
  0xc230	04 22 00 00 32 80 00 00 01 00 00 00 f3 77 00 00 	0"00200000000w00
  0xc240	7d 78 00 00 dc 82 00 00 7d 78 00 00 01 02 01 00 	}x000000}x000000
  0xc250	02 50 00 00 01 0d 04 00 0d 34 09 00 0d 32 06 50 	0P0000000400020P
  0xc260	01 15 05 00 15 34 ba 00 15 01 b8 00 06 50 00 00 	0000040000000P00
  0xc270	01 0f 06 00 0f 64 06 00 0f 34 05 00 0f 12 0b 70 	00000d000400000p
  0xc280	01 00 00 00 01 0f 06 00 0f 64 09 00 0f 34 08 00 	000000000d000400
  0xc290	0f 52 0b 70 01 16 04 00 16 52 12 70 11 60 10 30 	0R0p00000R0p0`00
  0xc2a0	01 19 03 00 19 62 15 70 14 30 00 00 01 14 08 00 	00000b0p00000000
  0xc2b0	14 64 0a 00 14 54 09 00 14 34 08 00 14 52 10 70 	0d000T0004000R0p
  0xc2c0	01 02 01 00 02 30 00 00 88 c7 00 00 00 00 00 00 	0000000000000000
  0xc2d0	00 00 00 00 9a cb 00 00 a8 9d 00 00 b8 c7 00 00 	0000000000000000
  0xc2e0	00 00 00 00 00 00 00 00 bc cb 00 00 d8 9d 00 00 	0000000000000000
  0xc2f0	78 c7 00 00 00 00 00 00 00 00 00 00 dc cb 00 00 	x000000000000000
  0xc300	98 9d 00 00 50 c7 00 00 00 00 00 00 00 00 00 00 	0000P00000000000
  0xc310	fc cb 00 00 70 9d 00 00 90 c5 00 00 00 00 00 00 	0000p00000000000
  0xc320	00 00 00 00 aa cf 00 00 b0 9b 00 00 a0 c4 00 00 	0000000000000000
  0xc330	00 00 00 00 00 00 00 00 f4 d1 00 00 c0 9a 00 00 	0000000000000000
  0xc340	e8 c4 00 00 00 00 00 00 00 00 00 00 14 d2 00 00 	0000000000000000
  0xc350	08 9b 00 00 70 c5 00 00 00 00 00 00 00 00 00 00 	0000p00000000000
  0xc360	42 d2 00 00 90 9b 00 00 80 c4 00 00 00 00 00 00 	B000000000000000
  0xc370	00 00 00 00 64 d2 00 00 a0 9a 00 00 58 c4 00 00 	0000d0000000X000
  0xc380	00 00 00 00 00 00 00 00 8e d2 00 00 78 9a 00 00 	000000000000x000
  0xc390	50 c5 00 00 00 00 00 00 00 00 00 00 b2 d2 00 00 	P000000000000000
  0xc3a0	70 9b 00 00 70 c4 00 00 00 00 00 00 00 00 00 00 	p000p00000000000
  0xc3b0	d8 d2 00 00 90 9a 00 00 08 c5 00 00 00 00 00 00 	0000000000000000
  0xc3c0	00 00 00 00 fa d2 00 00 28 9b 00 00 30 c5 00 00 	00000000(0000000
  0xc3d0	00 00 00 00 00 00 00 00 24 d3 00 00 50 9b 00 00 	00000000$000P000
  0xc3e0	40 c5 00 00 00 00 00 00 00 00 00 00 4e d3 00 00 	@00000000000N000
  0xc3f0	60 9b 00 00 80 c5 00 00 00 00 00 00 00 00 00 00 	`000000000000000
  0xc400	72 d3 00 00 a0 9b 00 00 c8 c4 00 00 00 00 00 00 	r000000000000000
  0xc410	00 00 00 00 96 d3 00 00 e8 9a 00 00 d8 c4 00 00 	0000000000000000
  0xc420	00 00 00 00 00 00 00 00 be d3 00 00 f8 9a 00 00 	0000000000000000
  0xc430	c8 c7 00 00 00 00 00 00 00 00 00 00 f2 df 00 00 	0000000000000000
  0xc440	e8 9d 00 00 00 00 00 00 00 00 00 00 00 00 00 00 	0000000000000000
  0xc450	00 00 00 00 00 00 00 00 72 d0 00 00 00 00 00 00 	00000000r0000000
  0xc460	84 d0 00 00 00 00 00 00 00 00 00 00 00 00 00 00 	0000000000000000
  0xc470	d8 d0 00 00 00 00 00 00 00 00 00 00 00 00 00 00 	0000000000000000
  0xc480	ec d0 00 00 00 00 00 00 0e d0 00 00 00 00 00 00 	0000000000000000
  0xc490	08 d1 00 00 00 00 00 00 00 00 00 00 00 00 00 00 	0000000000000000
  0xc4a0	36 d0 00 00 00 00 00 00 4a d0 00 00 00 00 00 00 	60000000J0000000
  0xc4b0	cc cf 00 00 00 00 00 00 66 d0 00 00 00 00 00 00 	00000000f0000000
  0xc4c0	00 00 00 00 00 00 00 00 ca d1 00 00 00 00 00 00 	0000000000000000
  0xc4d0	00 00 00 00 00 00 00 00 e0 d1 00 00 00 00 00 00 	0000000000000000
  0xc4e0	00 00 00 00 00 00 00 00 e0 cf 00 00 00 00 00 00 	0000000000000000
  0xc4f0	56 d0 00 00 00 00 00 00 1e d0 00 00 00 00 00 00 	V000000000000000
  0xc500	00 00 00 00 00 00 00 00 9a d1 00 00 00 00 00 00 	0000000000000000
  0xc510	3a d1 00 00 00 00 00 00 26 d1 00 00 00 00 00 00 	:0000000&0000000
  0xc520	84 d1 00 00 00 00 00 00 00 00 00 00 00 00 00 00 	0000000000000000
  0xc530	4e d1 00 00 00 00 00 00 00 00 00 00 00 00 00 00 	N000000000000000
  0xc540	6a d1 00 00 00 00 00 00 00 00 00 00 00 00 00 00 	j000000000000000
  0xc550	aa d0 00 00 00 00 00 00 c4 d0 00 00 00 00 00 00 	0000000000000000
  0xc560	96 d0 00 00 00 00 00 00 00 00 00 00 00 00 00 00 	0000000000000000
  0xc570	f8 cf 00 00 00 00 00 00 00 00 00 00 00 00 00 00 	0000000000000000
  0xc580	b0 d1 00 00 00 00 00 00 00 00 00 00 00 00 00 00 	0000000000000000
  0xc590	7a cc 00 00 00 00 00 00 98 cc 00 00 00 00 00 00 	z000000000000000
  0xc5a0	b6 cc 00 00 00 00 00 00 c2 cc 00 00 00 00 00 00 	0000000000000000
  0xc5b0	ce cc 00 00 00 00 00 00 e8 cc 00 00 00 00 00 00 	0000000000000000
  0xc5c0	04 cd 00 00 00 00 00 00 16 cd 00 00 00 00 00 00 	0000000000000000
  0xc5d0	22 cd 00 00 00 00 00 00 2e cd 00 00 00 00 00 00 	"0000000.0000000
  0xc5e0	54 cd 00 00 00 00 00 00 68 cd 00 00 00 00 00 00 	T0000000h0000000
  0xc5f0	8c cd 00 00 00 00 00 00 aa cd 00 00 00 00 00 00 	0000000000000000
  0xc600	be cd 00 00 00 00 00 00 ca cd 00 00 00 00 00 00 	0000000000000000
  0xc610	ea cd 00 00 00 00 00 00 00 ce 00 00 00 00 00 00 	0000000000000000
  0xc620	14 ce 00 00 00 00 00 00 24 ce 00 00 00 00 00 00 	00000000$0000000
  0xc630	38 ce 00 00 00 00 00 00 46 ce 00 00 00 00 00 00 	80000000F0000000
  0xc640	56 ce 00 00 00 00 00 00 16 e0 00 00 00 00 00 00 	V000000000000000
  0xc650	64 ce 00 00 00 00 00 00 70 ce 00 00 00 00 00 00 	d0000000p0000000
  0xc660	7a ce 00 00 00 00 00 00 86 ce 00 00 00 00 00 00 	z000000000000000
  0xc670	90 ce 00 00 00 00 00 00 9c ce 00 00 00 00 00 00 	0000000000000000
  0xc680	a8 ce 00 00 00 00 00 00 b4 ce 00 00 00 00 00 00 	0000000000000000
  0xc690	c0 ce 00 00 00 00 00 00 cc ce 00 00 00 00 00 00 	0000000000000000
  0xc6a0	d6 ce 00 00 00 00 00 00 e2 ce 00 00 00 00 00 00 	0000000000000000
  0xc6b0	f0 ce 00 00 00 00 00 00 fe ce 00 00 00 00 00 00 	0000000000000000
  0xc6c0	0c cf 00 00 00 00 00 00 18 cf 00 00 00 00 00 00 	0000000000000000
  0xc6d0	24 cf 00 00 00 00 00 00 32 cf 00 00 00 00 00 00 	$000000020000000
  0xc6e0	40 cf 00 00 00 00 00 00 50 cf 00 00 00 00 00 00 	@0000000P0000000
  0xc6f0	5e cf 00 00 00 00 00 00 6c cf 00 00 00 00 00 00 	^0000000l0000000
  0xc700	78 cf 00 00 00 00 00 00 88 cf 00 00 00 00 00 00 	x000000000000000
  0xc710	32 cc 00 00 00 00 00 00 28 cc 00 00 00 00 00 00 	20000000(0000000
  0xc720	1e cc 00 00 00 00 00 00 68 cc 00 00 00 00 00 00 	00000000h0000000
  0xc730	58 cc 00 00 00 00 00 00 48 cc 00 00 00 00 00 00 	X0000000H0000000
  0xc740	0c e0 00 00 00 00 00 00 00 00 00 00 00 00 00 00 	0000000000000000
  0xc750	48 cb 00 00 00 00 00 00 54 cb 00 00 00 00 00 00 	H0000000T0000000
  0xc760	62 cb 00 00 00 00 00 00 6c cb 00 00 00 00 00 00 	b0000000l0000000
  0xc770	00 00 00 00 00 00 00 00 36 cb 00 00 00 00 00 00 	0000000060000000
  0xc780	00 00 00 00 00 00 00 00 a0 cf 00 00 00 00 00 00 	0000000000000000
  0xc790	3e cb 00 00 00 00 00 00 22 cb 00 00 00 00 00 00 	>0000000"0000000
  0xc7a0	02 e0 00 00 00 00 00 00 18 cb 00 00 00 00 00 00 	0000000000000000
  0xc7b0	00 00 00 00 00 00 00 00 2c cb 00 00 00 00 00 00 	00000000,0000000
  0xc7c0	00 00 00 00 00 00 00 00 48 d4 00 00 00 00 00 00 	00000000H0000000
  0xc7d0	68 d4 00 00 00 00 00 00 7c d4 00 00 00 00 00 00 	h0000000|0000000
  0xc7e0	92 d4 00 00 00 00 00 00 bc d4 00 00 00 00 00 00 	0000000000000000
  0xc7f0	de d4 00 00 00 00 00 00 f8 d4 00 00 00 00 00 00 	0000000000000000
  0xc800	16 d5 00 00 00 00 00 00 3c d5 00 00 00 00 00 00 	00000000<0000000
  0xc810	60 d5 00 00 00 00 00 00 84 d5 00 00 00 00 00 00 	`000000000000000
  0xc820	a0 d5 00 00 00 00 00 00 bc d5 00 00 00 00 00 00 	0000000000000000
  0xc830	ec d5 00 00 00 00 00 00 04 d6 00 00 00 00 00 00 	0000000000000000
  0xc840	1e d6 00 00 00 00 00 00 36 d6 00 00 00 00 00 00 	0000000060000000
  0xc850	64 d6 00 00 00 00 00 00 82 d6 00 00 00 00 00 00 	d000000000000000
  0xc860	a4 d6 00 00 00 00 00 00 b8 d6 00 00 00 00 00 00 	0000000000000000
  0xc870	d0 d6 00 00 00 00 00 00 f2 d6 00 00 00 00 00 00 	0000000000000000
  0xc880	1c d7 00 00 00 00 00 00 32 d7 00 00 00 00 00 00 	0000000020000000
  0xc890	46 d7 00 00 00 00 00 00 70 d7 00 00 00 00 00 00 	F0000000p0000000
  0xc8a0	88 d7 00 00 00 00 00 00 a2 d7 00 00 00 00 00 00 	0000000000000000
  0xc8b0	bc d7 00 00 00 00 00 00 d6 d7 00 00 00 00 00 00 	0000000000000000
  0xc8c0	ec d7 00 00 00 00 00 00 06 d8 00 00 00 00 00 00 	0000000000000000
  0xc8d0	1c d8 00 00 00 00 00 00 38 d8 00 00 00 00 00 00 	0000000080000000
  0xc8e0	5a d8 00 00 00 00 00 00 70 d8 00 00 00 00 00 00 	Z0000000p0000000
  0xc8f0	8e d8 00 00 00 00 00 00 a8 d8 00 00 00 00 00 00 	0000000000000000
  0xc900	be d8 00 00 00 00 00 00 d4 d8 00 00 00 00 00 00 	0000000000000000
  0xc910	fe d8 00 00 00 00 00 00 26 d9 00 00 00 00 00 00 	00000000&0000000
  0xc920	40 d9 00 00 00 00 00 00 30 d4 00 00 00 00 00 00 	@000000000000000
  0xc930	78 d9 00 00 00 00 00 00 90 d9 00 00 00 00 00 00 	x000000000000000
  0xc940	ae d9 00 00 00 00 00 00 c4 d9 00 00 00 00 00 00 	0000000000000000
  0xc950	10 d4 00 00 00 00 00 00 f6 d9 00 00 00 00 00 00 	0000000000000000
  0xc960	0c da 00 00 00 00 00 00 20 da 00 00 00 00 00 00 	00000000 0000000
  0xc970	36 da 00 00 00 00 00 00 50 da 00 00 00 00 00 00 	60000000P0000000
  0xc980	64 da 00 00 00 00 00 00 7a da 00 00 00 00 00 00 	d0000000z0000000
  0xc990	a4 da 00 00 00 00 00 00 bc da 00 00 00 00 00 00 	0000000000000000
  0xc9a0	d4 da 00 00 00 00 00 00 ee da 00 00 00 00 00 00 	0000000000000000
  0xc9b0	16 db 00 00 00 00 00 00 38 db 00 00 00 00 00 00 	0000000080000000
  0xc9c0	5a db 00 00 00 00 00 00 6a db 00 00 00 00 00 00 	Z0000000j0000000
  0xc9d0	80 db 00 00 00 00 00 00 a4 db 00 00 00 00 00 00 	0000000000000000
  0xc9e0	c0 db 00 00 00 00 00 00 d6 db 00 00 00 00 00 00 	0000000000000000
  0xc9f0	ee db 00 00 00 00 00 00 14 dc 00 00 00 00 00 00 	0000000000000000
  0xca00	36 dc 00 00 00 00 00 00 4e dc 00 00 00 00 00 00 	60000000N0000000
  0xca10	6a dc 00 00 00 00 00 00 92 dc 00 00 00 00 00 00 	j000000000000000
  0xca20	a6 dc 00 00 00 00 00 00 c2 dc 00 00 00 00 00 00 	0000000000000000
  0xca30	dc dc 00 00 00 00 00 00 f2 dc 00 00 00 00 00 00 	0000000000000000
  0xca40	0c dd 00 00 00 00 00 00 34 dd 00 00 00 00 00 00 	0000000040000000
  0xca50	4c dd 00 00 00 00 00 00 5e dd 00 00 00 00 00 00 	L0000000^0000000
  0xca60	78 dd 00 00 00 00 00 00 94 dd 00 00 00 00 00 00 	x000000000000000
  0xca70	b6 dd 00 00 00 00 00 00 d4 dd 00 00 00 00 00 00 	0000000000000000
  0xca80	f4 dd 00 00 00 00 00 00 18 de 00 00 00 00 00 00 	0000000000000000
  0xca90	34 de 00 00 00 00 00 00 5e de 00 00 00 00 00 00 	40000000^0000000
  0xcaa0	72 de 00 00 00 00 00 00 92 de 00 00 00 00 00 00 	r000000000000000
  0xcab0	b6 de 00 00 00 00 00 00 d8 de 00 00 00 00 00 00 	0000000000000000
  0xcac0	02 df 00 00 00 00 00 00 2a df 00 00 00 00 00 00 	00000000*0000000
  0xcad0	5c df 00 00 00 00 00 00 7c df 00 00 00 00 00 00 	00000000|0000000
  0xcae0	a4 df 00 00 00 00 00 00 ba df 00 00 00 00 00 00 	0000000000000000
  0xcaf0	d4 df 00 00 00 00 00 00 dc d9 00 00 00 00 00 00 	0000000000000000
  0xcb00	e8 d3 00 00 00 00 00 00 5a d9 00 00 00 00 00 00 	00000000Z0000000
  0xcb10	00 00 00 00 00 00 00 00 a7 00 77 63 73 6e 63 70 	0000000000wcsncp
  0xcb20	79 00 8e 00 73 74 72 6e 63 6d 70 00 30 00 5f 74 	y000strncmp000_t
  0xcb30	69 6d 65 36 34 00 49 00 5f 6f 70 65 6e 00 8a 00 	ime640I0_open000
  0xcb40	73 74 72 63 73 70 6e 00 36 00 5f 69 6e 69 74 74 	strcspn060_initt
  0xcb50	65 72 6d 00 37 00 5f 69 6e 69 74 74 65 72 6d 5f 	erm070_initterm_
  0xcb60	65 00 15 00 5f 63 5f 65 78 69 74 00 3d 00 5f 72 	e000_c_exit0=0_r
  0xcb70	65 67 69 73 74 65 72 5f 74 68 72 65 61 64 5f 6c 	egister_thread_l
  0xcb80	6f 63 61 6c 5f 65 78 65 5f 61 74 65 78 69 74 5f 	ocal_exe_atexit_
  0xcb90	63 61 6c 6c 62 61 63 6b 00 00 61 70 69 2d 6d 73 	callback00api-ms
  0xcba0	2d 77 69 6e 2d 63 72 74 2d 73 74 72 69 6e 67 2d 	-win-crt-string-
  0xcbb0	6c 31 2d 31 2d 30 2e 64 6c 6c 00 00 61 70 69 2d 	l1-1-0.dll00api-
  0xcbc0	6d 73 2d 77 69 6e 2d 63 72 74 2d 74 69 6d 65 2d 	ms-win-crt-time-
  0xcbd0	6c 31 2d 31 2d 30 2e 64 6c 6c 00 00 61 70 69 2d 	l1-1-0.dll00api-
  0xcbe0	6d 73 2d 77 69 6e 2d 63 72 74 2d 73 74 64 69 6f 	ms-win-crt-stdio
  0xcbf0	2d 6c 31 2d 31 2d 30 2e 64 6c 6c 00 61 70 69 2d 	-l1-1-0.dll0api-
  0xcc00	6d 73 2d 77 69 6e 2d 63 72 74 2d 72 75 6e 74 69 	ms-win-crt-runti
  0xcc10	6d 65 2d 6c 31 2d 31 2d 30 2e 64 6c 6c 00 66 04 	me-l1-1-0.dll0f0
  0xcc20	73 74 72 63 68 72 00 00 67 04 73 74 72 72 63 68 	strchr00g0strrch
  0xcc30	72 00 43 00 5f 6f 5f 5f 5f 61 63 72 74 5f 69 6f 	r0C0_o___acrt_io
  0xcc40	62 5f 66 75 6e 63 00 00 4f 00 5f 6f 5f 5f 5f 70 	b_func00O0_o___p
  0xcc50	5f 5f 5f 61 72 67 63 00 50 00 5f 6f 5f 5f 5f 70 	___argc0P0_o___p
  0xcc60	5f 5f 5f 61 72 67 76 00 53 00 5f 6f 5f 5f 5f 70 	___argv0S0_o___p
  0xcc70	5f 5f 63 6f 6d 6d 6f 64 65 00 62 00 5f 6f 5f 5f 	__commode0b0_o__
  0xcc80	5f 73 74 64 69 6f 5f 63 6f 6d 6d 6f 6e 5f 76 66 	_stdio_common_vf
  0xcc90	70 72 69 6e 74 66 00 00 6c 00 5f 6f 5f 5f 5f 73 	printf00l0_o___s
  0xcca0	74 64 69 6f 5f 63 6f 6d 6d 6f 6e 5f 76 73 70 72 	tdio_common_vspr
  0xccb0	69 6e 74 66 00 00 93 00 5f 6f 5f 5f 63 65 78 69 	intf0000_o__cexi
  0xccc0	74 00 9d 00 5f 6f 5f 5f 63 6c 6f 73 65 00 9f 00 	t000_o__close000
  0xccd0	5f 6f 5f 5f 63 6f 6e 66 69 67 74 68 72 65 61 64 	_o__configthread
  0xcce0	6c 6f 63 61 6c 65 00 00 a0 00 5f 6f 5f 5f 63 6f 	locale0000_o__co
  0xccf0	6e 66 69 67 75 72 65 5f 6e 61 72 72 6f 77 5f 61 	nfigure_narrow_a
  0xcd00	72 67 76 00 a7 00 5f 6f 5f 5f 63 72 74 5f 61 74 	rgv000_o__crt_at
  0xcd10	65 78 69 74 00 00 c0 00 5f 6f 5f 5f 65 72 72 6e 	exit0000_o__errn
  0xcd20	6f 00 c7 00 5f 6f 5f 5f 65 78 69 74 00 00 0e 01 	o000_o__exit0000
  0xcd30	5f 6f 5f 5f 67 65 74 5f 69 6e 69 74 69 61 6c 5f 	_o__get_initial_
  0xcd40	6e 61 72 72 6f 77 5f 65 6e 76 69 72 6f 6e 6d 65 	narrow_environme
  0xcd50	6e 74 00 00 12 01 5f 6f 5f 5f 67 65 74 5f 6f 73 	nt0000_o__get_os
  0xcd60	66 68 61 6e 64 6c 65 00 3c 01 5f 6f 5f 5f 69 6e 	fhandle0<0_o__in
  0xcd70	69 74 69 61 6c 69 7a 65 5f 6e 61 72 72 6f 77 5f 	itialize_narrow_
  0xcd80	65 6e 76 69 72 6f 6e 6d 65 6e 74 00 3d 01 5f 6f 	environment0=0_o
  0xcd90	5f 5f 69 6e 69 74 69 61 6c 69 7a 65 5f 6f 6e 65 	__initialize_one
  0xcda0	78 69 74 5f 74 61 62 6c 65 00 9d 01 5f 6f 5f 5f 	xit_table000_o__
  0xcdb0	6c 6f 63 61 6c 74 69 6d 65 36 34 5f 73 00 4e 02 	localtime64_s0N0
  0xcdc0	5f 6f 5f 5f 72 65 61 64 00 00 51 02 5f 6f 5f 5f 	_o__read00Q0_o__
  0xcdd0	72 65 67 69 73 74 65 72 5f 6f 6e 65 78 69 74 5f 	register_onexit_
  0xcde0	66 75 6e 63 74 69 6f 6e 00 00 5a 02 5f 6f 5f 5f 	function00Z0_o__
  0xcdf0	73 65 68 5f 66 69 6c 74 65 72 5f 65 78 65 00 00 	seh_filter_exe00
  0xce00	5c 02 5f 6f 5f 5f 73 65 74 5f 61 70 70 5f 74 79 	00_o__set_app_ty
  0xce10	70 65 00 00 5f 02 5f 6f 5f 5f 73 65 74 5f 66 6d 	pe00_0_o__set_fm
  0xce20	6f 64 65 00 62 02 5f 6f 5f 5f 73 65 74 5f 6e 65 	ode0b0_o__set_ne
  0xce30	77 5f 6d 6f 64 65 00 00 66 02 5f 6f 5f 5f 73 65 	w_mode00f0_o__se
  0xce40	74 6d 6f 64 65 00 75 02 5f 6f 5f 5f 73 74 61 74 	tmode0u0_o__stat
  0xce50	36 34 69 33 32 00 79 02 5f 6f 5f 5f 73 74 72 64 	64i320y0_o__strd
  0xce60	75 70 00 00 5c 03 5f 6f 5f 63 61 6c 6c 6f 63 00 	up0000_o_calloc0
  0xce70	6d 03 5f 6f 5f 65 78 69 74 00 74 03 5f 6f 5f 66 	m0_o_exit0t0_o_f
  0xce80	63 6c 6f 73 65 00 75 03 5f 6f 5f 66 65 6f 66 00 	close0u0_o_feof0
  0xce90	76 03 5f 6f 5f 66 65 72 72 6f 72 00 77 03 5f 6f 	v0_o_ferror0w0_o
  0xcea0	5f 66 66 6c 75 73 68 00 84 03 5f 6f 5f 66 6f 70 	_fflush000_o_fop
  0xceb0	65 6e 00 00 87 03 5f 6f 5f 66 70 75 74 73 00 00 	en0000_o_fputs00
  0xcec0	8a 03 5f 6f 5f 66 72 65 61 64 00 00 8c 03 5f 6f 	00_o_fread0000_o
  0xced0	5f 66 72 65 65 00 96 03 5f 6f 5f 67 65 74 65 6e 	_free000_o_geten
  0xcee0	76 00 a6 03 5f 6f 5f 69 73 70 72 69 6e 74 00 00 	v000_o_isprint00
  0xcef0	a8 03 5f 6f 5f 69 73 73 70 61 63 65 00 00 af 03 	00_o_isspace0000
  0xcf00	5f 6f 5f 69 73 77 63 74 79 70 65 00 d7 03 5f 6f 	_o_iswctype000_o
  0xcf10	5f 6d 61 6c 6c 6f 63 00 e1 03 5f 6f 5f 6d 62 74 	_malloc000_o_mbt
  0xcf20	6f 77 63 00 f5 03 5f 6f 5f 70 75 74 63 68 61 72 	owc000_o_putchar
  0xcf30	00 00 fe 03 5f 6f 5f 72 65 61 6c 6c 6f 63 00 00 	0000_o_realloc00
  0xcf40	16 04 5f 6f 5f 73 65 74 6c 6f 63 61 6c 65 00 00 	00_o_setlocale00
  0xcf50	22 04 5f 6f 5f 73 74 72 65 72 72 6f 72 00 24 04 	"0_o_strerror0$0
  0xcf60	5f 6f 5f 73 74 72 66 74 69 6d 65 00 2b 04 5f 6f 	_o_strftime0+0_o
  0xcf70	5f 73 74 72 74 6f 6c 00 35 04 5f 6f 5f 74 65 72 	_strtol050_o_ter
  0xcf80	6d 69 6e 61 74 65 00 00 0c 00 5f 5f 43 5f 73 70 	minate0000__C_sp
  0xcf90	65 63 69 66 69 63 5f 68 61 6e 64 6c 65 72 00 00 	ecific_handler00
  0xcfa0	83 00 6d 65 6d 73 65 74 00 00 61 70 69 2d 6d 73 	00memset00api-ms
  0xcfb0	2d 77 69 6e 2d 63 72 74 2d 70 72 69 76 61 74 65 	-win-crt-private
  0xcfc0	2d 6c 31 2d 31 2d 30 2e 64 6c 6c 00 35 00 47 65 	-l1-1-0.dll050Ge
  0xcfd0	74 46 75 6c 6c 50 61 74 68 4e 61 6d 65 57 00 00 	tFullPathNameW00
  0xcfe0	11 00 53 65 74 43 75 72 72 65 6e 74 44 69 72 65 	00SetCurrentDire
  0xcff0	63 74 6f 72 79 41 00 00 06 00 4d 75 6c 74 69 42 	ctoryA0000MultiB
  0xd000	79 74 65 54 6f 57 69 64 65 43 68 61 72 00 05 00 	yteToWideChar000
  0xd010	47 65 74 4c 61 73 74 45 72 72 6f 72 00 00 12 00 	GetLastError0000
  0xd020	53 65 74 43 75 72 72 65 6e 74 44 69 72 65 63 74 	SetCurrentDirect
  0xd030	6f 72 79 57 00 00 56 00 53 65 74 46 69 6c 65 50 	oryW00V0SetFileP
  0xd040	6f 69 6e 74 65 72 45 78 00 00 49 00 52 65 61 64 	ointerEx00I0Read
  0xd050	46 69 6c 65 00 00 0c 00 47 65 74 53 74 64 48 61 	File0000GetStdHa
  0xd060	6e 64 6c 65 00 00 5b 00 57 72 69 74 65 46 69 6c 	ndle00[0WriteFil
  0xd070	65 00 11 00 53 65 74 43 6f 6e 73 6f 6c 65 4d 6f 	e000SetConsoleMo
  0xd080	64 65 00 00 06 00 47 65 74 43 6f 6e 73 6f 6c 65 	de0000GetConsole
  0xd090	4d 6f 64 65 00 00 02 00 52 74 6c 43 61 70 74 75 	Mode0000RtlCaptu
  0xd0a0	72 65 43 6f 6e 74 65 78 74 00 0a 00 52 74 6c 4c 	reContext000RtlL
  0xd0b0	6f 6f 6b 75 70 46 75 6e 63 74 69 6f 6e 45 6e 74 	ookupFunctionEnt
  0xd0c0	72 79 00 00 10 00 52 74 6c 56 69 72 74 75 61 6c 	ry0000RtlVirtual
  0xd0d0	55 6e 77 69 6e 64 00 00 05 00 49 73 44 65 62 75 	Unwind0000IsDebu
  0xd0e0	67 67 65 72 50 72 65 73 65 6e 74 00 11 00 55 6e 	ggerPresent000Un
  0xd0f0	68 61 6e 64 6c 65 64 45 78 63 65 70 74 69 6f 6e 	handledException
  0xd100	46 69 6c 74 65 72 00 00 0f 00 53 65 74 55 6e 68 	Filter0000SetUnh
  0xd110	61 6e 64 6c 65 64 45 78 63 65 70 74 69 6f 6e 46 	andledExceptionF
  0xd120	69 6c 74 65 72 00 0c 00 47 65 74 43 75 72 72 65 	ilter000GetCurre
  0xd130	6e 74 50 72 6f 63 65 73 73 00 4f 00 54 65 72 6d 	ntProcess0O0Term
  0xd140	69 6e 61 74 65 50 72 6f 63 65 73 73 00 00 2f 00 	inateProcess00/0
  0xd150	49 73 50 72 6f 63 65 73 73 6f 72 46 65 61 74 75 	IsProcessorFeatu
  0xd160	72 65 50 72 65 73 65 6e 74 00 00 00 51 75 65 72 	rePresent000Quer
  0xd170	79 50 65 72 66 6f 72 6d 61 6e 63 65 43 6f 75 6e 	yPerformanceCoun
  0xd180	74 65 72 00 0d 00 47 65 74 43 75 72 72 65 6e 74 	ter000GetCurrent
  0xd190	50 72 6f 63 65 73 73 49 64 00 11 00 47 65 74 43 	ProcessId000GetC
  0xd1a0	75 72 72 65 6e 74 54 68 72 65 61 64 49 64 00 00 	urrentThreadId00
  0xd1b0	16 00 47 65 74 53 79 73 74 65 6d 54 69 6d 65 41 	00GetSystemTimeA
  0xd1c0	73 46 69 6c 65 54 69 6d 65 00 00 00 49 6e 69 74 	sFileTime000Init
  0xd1d0	69 61 6c 69 7a 65 53 4c 69 73 74 48 65 61 64 00 	ializeSListHead0
  0xd1e0	14 00 47 65 74 4d 6f 64 75 6c 65 48 61 6e 64 6c 	00GetModuleHandl
  0xd1f0	65 57 00 00 61 70 69 2d 6d 73 2d 77 69 6e 2d 63 	eW00api-ms-win-c
  0xd200	6f 72 65 2d 66 69 6c 65 2d 6c 31 2d 31 2d 30 2e 	ore-file-l1-1-0.
  0xd210	64 6c 6c 00 61 70 69 2d 6d 73 2d 77 69 6e 2d 63 	dll0api-ms-win-c
  0xd220	6f 72 65 2d 70 72 6f 63 65 73 73 65 6e 76 69 72 	ore-processenvir
  0xd230	6f 6e 6d 65 6e 74 2d 6c 31 2d 31 2d 30 2e 64 6c 	onment-l1-1-0.dl
  0xd240	6c 00 61 70 69 2d 6d 73 2d 77 69 6e 2d 63 6f 72 	l0api-ms-win-cor
  0xd250	65 2d 73 74 72 69 6e 67 2d 6c 31 2d 31 2d 30 2e 	e-string-l1-1-0.
  0xd260	64 6c 6c 00 61 70 69 2d 6d 73 2d 77 69 6e 2d 63 	dll0api-ms-win-c
  0xd270	6f 72 65 2d 65 72 72 6f 72 68 61 6e 64 6c 69 6e 	ore-errorhandlin
  0xd280	67 2d 6c 31 2d 31 2d 30 2e 64 6c 6c 00 00 61 70 	g-l1-1-0.dll00ap
  0xd290	69 2d 6d 73 2d 77 69 6e 2d 63 6f 72 65 2d 63 6f 	i-ms-win-core-co
  0xd2a0	6e 73 6f 6c 65 2d 6c 31 2d 31 2d 30 2e 64 6c 6c 	nsole-l1-1-0.dll
  0xd2b0	00 00 61 70 69 2d 6d 73 2d 77 69 6e 2d 63 6f 72 	00api-ms-win-cor
  0xd2c0	65 2d 72 74 6c 73 75 70 70 6f 72 74 2d 6c 31 2d 	e-rtlsupport-l1-
  0xd2d0	31 2d 30 2e 64 6c 6c 00 61 70 69 2d 6d 73 2d 77 	1-0.dll0api-ms-w
  0xd2e0	69 6e 2d 63 6f 72 65 2d 64 65 62 75 67 2d 6c 31 	in-core-debug-l1
  0xd2f0	2d 31 2d 30 2e 64 6c 6c 00 00 61 70 69 2d 6d 73 	-1-0.dll00api-ms
  0xd300	2d 77 69 6e 2d 63 6f 72 65 2d 70 72 6f 63 65 73 	-win-core-proces
  0xd310	73 74 68 72 65 61 64 73 2d 6c 31 2d 31 2d 30 2e 	sthreads-l1-1-0.
  0xd320	64 6c 6c 00 61 70 69 2d 6d 73 2d 77 69 6e 2d 63 	dll0api-ms-win-c
  0xd330	6f 72 65 2d 70 72 6f 63 65 73 73 74 68 72 65 61 	ore-processthrea
  0xd340	64 73 2d 6c 31 2d 31 2d 31 2e 64 6c 6c 00 61 70 	ds-l1-1-1.dll0ap
  0xd350	69 2d 6d 73 2d 77 69 6e 2d 63 6f 72 65 2d 70 72 	i-ms-win-core-pr
  0xd360	6f 66 69 6c 65 2d 6c 31 2d 31 2d 30 2e 64 6c 6c 	ofile-l1-1-0.dll
  0xd370	00 00 61 70 69 2d 6d 73 2d 77 69 6e 2d 63 6f 72 	00api-ms-win-cor
  0xd380	65 2d 73 79 73 69 6e 66 6f 2d 6c 31 2d 31 2d 30 	e-sysinfo-l1-1-0
  0xd390	2e 64 6c 6c 00 00 61 70 69 2d 6d 73 2d 77 69 6e 	.dll00api-ms-win
  0xd3a0	2d 63 6f 72 65 2d 69 6e 74 65 72 6c 6f 63 6b 65 	-core-interlocke
  0xd3b0	64 2d 6c 31 2d 31 2d 30 2e 64 6c 6c 00 00 61 70 	d-l1-1-0.dll00ap
  0xd3c0	69 2d 6d 73 2d 77 69 6e 2d 63 6f 72 65 2d 6c 69 	i-ms-win-core-li
  0xd3d0	62 72 61 72 79 6c 6f 61 64 65 72 2d 6c 31 2d 32 	braryloader-l1-2
  0xd3e0	2d 30 2e 64 6c 6c 00 00 ca 00 61 72 63 68 69 76 	-0.dll0000archiv
  0xd3f0	65 5f 6d 61 74 63 68 5f 73 65 74 5f 69 6e 63 6c 	e_match_set_incl
  0xd400	75 73 69 6f 6e 5f 72 65 63 75 72 73 69 6f 6e 00 	usion_recursion0
  0xd410	af 00 61 72 63 68 69 76 65 5f 6d 61 74 63 68 5f 	00archive_match_
  0xd420	65 78 63 6c 75 64 65 5f 70 61 74 74 65 72 6e 00 	exclude_pattern0
  0xd430	a2 00 61 72 63 68 69 76 65 5f 65 72 72 6f 72 5f 	00archive_error_
  0xd440	73 74 72 69 6e 67 00 00 bc 00 61 72 63 68 69 76 	string0000archiv
  0xd450	65 5f 6d 61 74 63 68 5f 69 6e 63 6c 75 64 65 5f 	e_match_include_
  0xd460	70 61 74 74 65 72 6e 00 c4 00 61 72 63 68 69 76 	pattern000archiv
  0xd470	65 5f 6d 61 74 63 68 5f 6e 65 77 00 b4 00 61 72 	e_match_new000ar
  0xd480	63 68 69 76 65 5f 6d 61 74 63 68 5f 66 72 65 65 	chive_match_free
  0xd490	00 00 b0 00 61 72 63 68 69 76 65 5f 6d 61 74 63 	0000archive_matc
  0xd4a0	68 5f 65 78 63 6c 75 64 65 5f 70 61 74 74 65 72 	h_exclude_patter
  0xd4b0	6e 5f 66 72 6f 6d 5f 66 69 6c 65 00 b7 00 61 72 	n_from_file000ar
  0xd4c0	63 68 69 76 65 5f 6d 61 74 63 68 5f 69 6e 63 6c 	chive_match_incl
  0xd4d0	75 64 65 5f 66 69 6c 65 5f 74 69 6d 65 00 49 01 	ude_file_time0I0
  0xd4e0	61 72 63 68 69 76 65 5f 76 65 72 73 69 6f 6e 5f 	archive_version_
  0xd4f0	64 65 74 61 69 6c 73 00 b5 00 61 72 63 68 69 76 	details000archiv
  0xd500	65 5f 6d 61 74 63 68 5f 69 6e 63 6c 75 64 65 5f 	e_match_include_
  0xd510	64 61 74 65 00 00 2c 01 61 72 63 68 69 76 65 5f 	date00,0archive_
  0xd520	72 65 61 64 5f 73 75 70 70 6f 72 74 5f 66 69 6c 	read_support_fil
  0xd530	74 65 72 5f 70 72 6f 67 72 61 6d 00 4e 01 61 72 	ter_program0N0ar
  0xd540	63 68 69 76 65 5f 77 72 69 74 65 5f 61 64 64 5f 	chive_write_add_
  0xd550	66 69 6c 74 65 72 5f 62 79 5f 6e 61 6d 65 00 00 	filter_by_name00
  0xd560	59 01 61 72 63 68 69 76 65 5f 77 72 69 74 65 5f 	Y0archive_write_
  0xd570	61 64 64 5f 66 69 6c 74 65 72 5f 70 72 6f 67 72 	add_filter_progr
  0xd580	61 6d 00 00 d7 00 61 72 63 68 69 76 65 5f 72 65 	am0000archive_re
  0xd590	61 64 5f 64 61 74 61 5f 69 6e 74 6f 5f 66 64 00 	ad_data_into_fd0
  0xd5a0	0e 01 61 72 63 68 69 76 65 5f 72 65 61 64 5f 73 	00archive_read_s
  0xd5b0	65 74 5f 6f 70 74 69 6f 6e 73 00 00 c8 00 61 72 	et_options0000ar
  0xd5c0	63 68 69 76 65 5f 6d 61 74 63 68 5f 70 61 74 68 	chive_match_path
  0xd5d0	5f 75 6e 6d 61 74 63 68 65 64 5f 69 6e 63 6c 75 	_unmatched_inclu
  0xd5e0	73 69 6f 6e 73 5f 6e 65 78 74 00 00 ef 00 61 72 	sions_next0000ar
  0xd5f0	63 68 69 76 65 5f 72 65 61 64 5f 65 78 74 72 61 	chive_read_extra
  0xd600	63 74 32 00 7c 00 61 72 63 68 69 76 65 5f 65 6e 	ct20|0archive_en
  0xd610	74 72 79 5f 73 65 74 5f 75 6e 61 6d 65 00 63 00 	try_set_uname0c0
  0xd620	61 72 63 68 69 76 65 5f 65 6e 74 72 79 5f 73 65 	archive_entry_se
  0xd630	74 5f 67 69 64 00 f0 00 61 72 63 68 69 76 65 5f 	t_gid000archive_
  0xd640	72 65 61 64 5f 65 78 74 72 61 63 74 5f 73 65 74 	read_extract_set
  0xd650	5f 70 72 6f 67 72 65 73 73 5f 63 61 6c 6c 62 61 	_progress_callba
  0xd660	63 6b 00 00 cf 00 61 72 63 68 69 76 65 5f 72 65 	ck0000archive_re
  0xd670	61 64 5f 61 64 64 5f 70 61 73 73 70 68 72 61 73 	ad_add_passphras
  0xd680	65 00 33 01 61 72 63 68 69 76 65 5f 72 65 61 64 	e030archive_read
  0xd690	5f 73 75 70 70 6f 72 74 5f 66 6f 72 6d 61 74 5f 	_support_format_
  0xd6a0	61 6c 6c 00 f7 00 61 72 63 68 69 76 65 5f 72 65 	all000archive_re
  0xd6b0	61 64 5f 6e 65 77 00 00 7b 00 61 72 63 68 69 76 	ad_new00{0archiv
  0xd6c0	65 5f 65 6e 74 72 79 5f 73 65 74 5f 75 69 64 00 	e_entry_set_uid0
  0xd6d0	20 01 61 72 63 68 69 76 65 5f 72 65 61 64 5f 73 	 0archive_read_s
  0xd6e0	75 70 70 6f 72 74 5f 66 69 6c 74 65 72 5f 61 6c 	upport_filter_al
  0xd6f0	6c 00 65 01 61 72 63 68 69 76 65 5f 77 72 69 74 	l0e0archive_writ
  0xd700	65 5f 64 69 73 6b 5f 73 65 74 5f 73 74 61 6e 64 	e_disk_set_stand
  0xd710	61 72 64 5f 6c 6f 6f 6b 75 70 00 00 7e 00 61 72 	ard_lookup00~0ar
  0xd720	63 68 69 76 65 5f 65 6e 74 72 79 5f 73 69 7a 65 	chive_entry_size
  0xd730	00 00 f4 00 61 72 63 68 69 76 65 5f 72 65 61 64 	0000archive_read
  0xd740	5f 66 72 65 65 00 bd 00 61 72 63 68 69 76 65 5f 	_free000archive_
  0xd750	6d 61 74 63 68 5f 69 6e 63 6c 75 64 65 5f 70 61 	match_include_pa
  0xd760	74 74 65 72 6e 5f 66 72 6f 6d 5f 66 69 6c 65 00 	ttern_from_file0
  0xd770	a4 00 61 72 63 68 69 76 65 5f 66 69 6c 74 65 72 	00archive_filter
  0xd780	5f 62 79 74 65 73 00 00 d8 00 61 72 63 68 69 76 	_bytes0000archiv
  0xd790	65 5f 72 65 61 64 5f 64 61 74 61 5f 73 6b 69 70 	e_read_data_skip
  0xd7a0	00 00 64 00 61 72 63 68 69 76 65 5f 65 6e 74 72 	00d0archive_entr
  0xd7b0	79 5f 73 65 74 5f 67 6e 61 6d 65 00 61 01 61 72 	y_set_gname0a0ar
  0xd7c0	63 68 69 76 65 5f 77 72 69 74 65 5f 64 69 73 6b 	chive_write_disk
  0xd7d0	5f 6e 65 77 00 00 6b 01 61 72 63 68 69 76 65 5f 	_new00k0archive_
  0xd7e0	77 72 69 74 65 5f 66 72 65 65 00 00 54 00 61 72 	write_free00T0ar
  0xd7f0	63 68 69 76 65 5f 65 6e 74 72 79 5f 70 61 74 68 	chive_entry_path
  0xd800	6e 61 6d 65 00 00 01 00 61 72 63 68 69 76 65 5f 	name0000archive_
  0xd810	63 6c 65 61 72 5f 65 72 72 6f 72 00 f8 00 61 72 	clear_error000ar
  0xd820	63 68 69 76 65 5f 72 65 61 64 5f 6e 65 78 74 5f 	chive_read_next_
  0xd830	68 65 61 64 65 72 00 00 63 01 61 72 63 68 69 76 	header00c0archiv
  0xd840	65 5f 77 72 69 74 65 5f 64 69 73 6b 5f 73 65 74 	e_write_disk_set
  0xd850	5f 6f 70 74 69 6f 6e 73 00 00 a7 00 61 72 63 68 	_options0000arch
  0xd860	69 76 65 5f 66 69 6c 74 65 72 5f 6e 61 6d 65 00 	ive_filter_name0
  0xd870	00 01 61 72 63 68 69 76 65 5f 72 65 61 64 5f 6f 	00archive_read_o
  0xd880	70 65 6e 5f 66 69 6c 65 6e 61 6d 65 00 00 b3 00 	pen_filename0000
  0xd890	61 72 63 68 69 76 65 5f 6d 61 74 63 68 5f 65 78 	archive_match_ex
  0xd8a0	63 6c 75 64 65 64 00 00 d4 00 61 72 63 68 69 76 	cluded0000archiv
  0xd8b0	65 5f 72 65 61 64 5f 63 6c 6f 73 65 00 00 a9 00 	e_read_close0000
  0xd8c0	61 72 63 68 69 76 65 5f 66 6f 72 6d 61 74 5f 6e 	archive_format_n
  0xd8d0	61 6d 65 00 c7 00 61 72 63 68 69 76 65 5f 6d 61 	ame000archive_ma
  0xd8e0	74 63 68 5f 70 61 74 68 5f 75 6e 6d 61 74 63 68 	tch_path_unmatch
  0xd8f0	65 64 5f 69 6e 63 6c 75 73 69 6f 6e 73 00 0f 01 	ed_inclusions000
  0xd900	61 72 63 68 69 76 65 5f 72 65 61 64 5f 73 65 74 	archive_read_set
  0xd910	5f 70 61 73 73 70 68 72 61 73 65 5f 63 61 6c 6c 	_passphrase_call
  0xd920	62 61 63 6b 00 00 59 00 61 72 63 68 69 76 65 5f 	back00Y0archive_
  0xd930	65 6e 74 72 79 5f 72 64 65 76 6d 61 6a 6f 72 00 	entry_rdevmajor0
  0xd940	3e 00 61 72 63 68 69 76 65 5f 65 6e 74 72 79 5f 	>0archive_entry_
  0xd950	68 61 72 64 6c 69 6e 6b 00 00 20 00 61 72 63 68 	hardlink00 0arch
  0xd960	69 76 65 5f 65 6e 74 72 79 5f 63 6f 70 79 5f 68 	ive_entry_copy_h
  0xd970	61 72 64 6c 69 6e 6b 00 88 00 61 72 63 68 69 76 	ardlink000archiv
  0xd980	65 5f 65 6e 74 72 79 5f 73 74 72 6d 6f 64 65 00 	e_entry_strmode0
  0xd990	25 00 61 72 63 68 69 76 65 5f 65 6e 74 72 79 5f 	%0archive_entry_
  0xd9a0	63 6f 70 79 5f 70 61 74 68 6e 61 6d 65 00 4d 00 	copy_pathname0M0
  0xd9b0	61 72 63 68 69 76 65 5f 65 6e 74 72 79 5f 6d 74 	archive_entry_mt
  0xd9c0	69 6d 65 00 89 00 61 72 63 68 69 76 65 5f 65 6e 	ime000archive_en
  0xd9d0	74 72 79 5f 73 79 6d 6c 69 6e 6b 00 38 00 61 72 	try_symlink080ar
  0xd9e0	63 68 69 76 65 5f 65 6e 74 72 79 5f 66 69 6c 65 	chive_entry_file
  0xd9f0	74 79 70 65 00 00 52 00 61 72 63 68 69 76 65 5f 	type00R0archive_
  0xda00	65 6e 74 72 79 5f 6e 6c 69 6e 6b 00 3a 00 61 72 	entry_nlink0:0ar
  0xda10	63 68 69 76 65 5f 65 6e 74 72 79 5f 67 69 64 00 	chive_entry_gid0
  0xda20	8e 00 61 72 63 68 69 76 65 5f 65 6e 74 72 79 5f 	00archive_entry_
  0xda30	75 6e 61 6d 65 00 5a 00 61 72 63 68 69 76 65 5f 	uname0Z0archive_
  0xda40	65 6e 74 72 79 5f 72 64 65 76 6d 69 6e 6f 72 00 	entry_rdevminor0
  0xda50	8d 00 61 72 63 68 69 76 65 5f 65 6e 74 72 79 5f 	00archive_entry_
  0xda60	75 69 64 00 3b 00 61 72 63 68 69 76 65 5f 65 6e 	uid0;0archive_en
  0xda70	74 72 79 5f 67 6e 61 6d 65 00 4a 00 61 72 63 68 	try_gname0J0arch
  0xda80	69 76 65 5f 65 6e 74 72 79 5f 6c 69 6e 6b 72 65 	ive_entry_linkre
  0xda90	73 6f 6c 76 65 72 5f 73 65 74 5f 73 74 72 61 74 	solver_set_strat
  0xdaa0	65 67 79 00 6e 01 61 72 63 68 69 76 65 5f 77 72 	egy0n0archive_wr
  0xdab0	69 74 65 5f 68 65 61 64 65 72 00 00 73 01 61 72 	ite_header00s0ar
  0xdac0	63 68 69 76 65 5f 77 72 69 74 65 5f 6f 70 65 6e 	chive_write_open
  0xdad0	5f 66 64 00 df 00 61 72 63 68 69 76 65 5f 72 65 	_fd000archive_re
  0xdae0	61 64 5f 64 69 73 6b 5f 67 6e 61 6d 65 00 a1 01 	ad_disk_gname000
  0xdaf0	61 72 63 68 69 76 65 5f 77 72 69 74 65 5f 73 65 	archive_write_se
  0xdb00	74 5f 70 61 73 73 70 68 72 61 73 65 5f 63 61 6c 	t_passphrase_cal
  0xdb10	6c 62 61 63 6b 00 40 01 61 72 63 68 69 76 65 5f 	lback0@0archive_
  0xdb20	72 65 61 64 5f 73 75 70 70 6f 72 74 5f 66 6f 72 	read_support_for
  0xdb30	6d 61 74 5f 74 61 72 00 e6 00 61 72 63 68 69 76 	mat_tar000archiv
  0xdb40	65 5f 72 65 61 64 5f 64 69 73 6b 5f 73 65 74 5f 	e_read_disk_set_
  0xdb50	6d 61 74 63 68 69 6e 67 00 00 a1 00 61 72 63 68 	matching0000arch
  0xdb60	69 76 65 5f 65 72 72 6e 6f 00 39 00 61 72 63 68 	ive_errno090arch
  0xdb70	69 76 65 5f 65 6e 74 72 79 5f 66 72 65 65 00 00 	ive_entry_free00
  0xdb80	87 01 61 72 63 68 69 76 65 5f 77 72 69 74 65 5f 	00archive_write_
  0xdb90	73 65 74 5f 66 6f 72 6d 61 74 5f 62 79 5f 6e 61 	set_format_by_na
  0xdba0	6d 65 00 00 9f 01 61 72 63 68 69 76 65 5f 77 72 	me0000archive_wr
  0xdbb0	69 74 65 5f 73 65 74 5f 6f 70 74 69 6f 6e 73 00 	ite_set_options0
  0xdbc0	5e 01 61 72 63 68 69 76 65 5f 77 72 69 74 65 5f 	^0archive_write_
  0xdbd0	64 61 74 61 00 00 e0 00 61 72 63 68 69 76 65 5f 	data0000archive_
  0xdbe0	72 65 61 64 5f 64 69 73 6b 5f 6e 65 77 00 39 01 	read_disk_new090
  0xdbf0	61 72 63 68 69 76 65 5f 72 65 61 64 5f 73 75 70 	archive_read_sup
  0xdc00	70 6f 72 74 5f 66 6f 72 6d 61 74 5f 67 6e 75 74 	port_format_gnut
  0xdc10	61 72 00 00 48 00 61 72 63 68 69 76 65 5f 65 6e 	ar00H0archive_en
  0xdc20	74 72 79 5f 6c 69 6e 6b 72 65 73 6f 6c 76 65 72 	try_linkresolver
  0xdc30	5f 66 72 65 65 00 47 00 61 72 63 68 69 76 65 5f 	_free0G0archive_
  0xdc40	65 6e 74 72 79 5f 6c 69 6e 6b 69 66 79 00 83 01 	entry_linkify000
  0xdc50	61 72 63 68 69 76 65 5f 77 72 69 74 65 5f 73 65 	archive_write_se
  0xdc60	74 5f 66 6f 72 6d 61 74 00 00 78 01 61 72 63 68 	t_format00x0arch
  0xdc70	69 76 65 5f 77 72 69 74 65 5f 73 65 74 5f 62 79 	ive_write_set_by
  0xdc80	74 65 73 5f 69 6e 5f 6c 61 73 74 5f 62 6c 6f 63 	tes_in_last_bloc
  0xdc90	6b 00 6f 01 61 72 63 68 69 76 65 5f 77 72 69 74 	k0o0archive_writ
  0xdca0	65 5f 6e 65 77 00 f9 00 61 72 63 68 69 76 65 5f 	e_new000archive_
  0xdcb0	72 65 61 64 5f 6e 65 78 74 5f 68 65 61 64 65 72 	read_next_header
  0xdcc0	32 00 d6 00 61 72 63 68 69 76 65 5f 72 65 61 64 	2000archive_read
  0xdcd0	5f 64 61 74 61 5f 62 6c 6f 63 6b 00 a5 00 61 72 	_data_block000ar
  0xdce0	63 68 69 76 65 5f 66 69 6c 74 65 72 5f 63 6f 64 	chive_filter_cod
  0xdcf0	65 00 77 00 61 72 63 68 69 76 65 5f 65 6e 74 72 	e0w0archive_entr
  0xdd00	79 5f 73 65 74 5f 73 69 7a 65 00 00 e9 00 61 72 	y_set_size0000ar
  0xdd10	63 68 69 76 65 5f 72 65 61 64 5f 64 69 73 6b 5f 	chive_read_disk_
  0xdd20	73 65 74 5f 73 79 6d 6c 69 6e 6b 5f 68 79 62 72 	set_symlink_hybr
  0xdd30	69 64 00 00 fe 00 61 72 63 68 69 76 65 5f 72 65 	id0000archive_re
  0xdd40	61 64 5f 6f 70 65 6e 5f 66 64 00 00 a8 00 61 72 	ad_open_fd0000ar
  0xdd50	63 68 69 76 65 5f 66 6f 72 6d 61 74 00 00 e1 00 	chive_format0000
  0xdd60	61 72 63 68 69 76 65 5f 72 65 61 64 5f 64 69 73 	archive_read_dis
  0xdd70	6b 5f 6f 70 65 6e 00 00 dd 00 61 72 63 68 69 76 	k_open0000archiv
  0xdd80	65 5f 72 65 61 64 5f 64 69 73 6b 5f 64 65 73 63 	e_read_disk_desc
  0xdd90	65 6e 64 00 49 00 61 72 63 68 69 76 65 5f 65 6e 	end0I0archive_en
  0xdda0	74 72 79 5f 6c 69 6e 6b 72 65 73 6f 6c 76 65 72 	try_linkresolver
  0xddb0	5f 6e 65 77 00 00 ae 00 61 72 63 68 69 76 65 5f 	_new0000archive_
  0xddc0	6d 61 74 63 68 5f 65 78 63 6c 75 64 65 5f 65 6e 	match_exclude_en
  0xddd0	74 72 79 00 a0 01 61 72 63 68 69 76 65 5f 77 72 	try000archive_wr
  0xdde0	69 74 65 5f 73 65 74 5f 70 61 73 73 70 68 72 61 	ite_set_passphra
  0xddf0	73 65 00 00 79 01 61 72 63 68 69 76 65 5f 77 72 	se00y0archive_wr
  0xde00	69 74 65 5f 73 65 74 5f 62 79 74 65 73 5f 70 65 	ite_set_bytes_pe
  0xde10	72 5f 62 6c 6f 63 6b 00 80 00 61 72 63 68 69 76 	r_block000archiv
  0xde20	65 5f 65 6e 74 72 79 5f 73 6f 75 72 63 65 70 61 	e_entry_sourcepa
  0xde30	74 68 00 00 95 01 61 72 63 68 69 76 65 5f 77 72 	th0000archive_wr
  0xde40	69 74 65 5f 73 65 74 5f 66 6f 72 6d 61 74 5f 70 	ite_set_format_p
  0xde50	61 78 5f 72 65 73 74 72 69 63 74 65 64 00 50 00 	ax_restricted0P0
  0xde60	61 72 63 68 69 76 65 5f 65 6e 74 72 79 5f 6e 65 	archive_entry_ne
  0xde70	77 00 d9 00 61 72 63 68 69 76 65 5f 72 65 61 64 	w000archive_read
  0xde80	5f 64 69 73 6b 5f 63 61 6e 5f 64 65 73 63 65 6e 	_disk_can_descen
  0xde90	64 00 38 01 61 72 63 68 69 76 65 5f 72 65 61 64 	d080archive_read
  0xdea0	5f 73 75 70 70 6f 72 74 5f 66 6f 72 6d 61 74 5f 	_support_format_
  0xdeb0	65 6d 70 74 79 00 e4 00 61 72 63 68 69 76 65 5f 	empty000archive_
  0xdec0	72 65 61 64 5f 64 69 73 6b 5f 73 65 74 5f 62 65 	read_disk_set_be
  0xded0	68 61 76 69 6f 72 00 00 eb 00 61 72 63 68 69 76 	havior0000archiv
  0xdee0	65 5f 72 65 61 64 5f 64 69 73 6b 5f 73 65 74 5f 	e_read_disk_set_
  0xdef0	73 79 6d 6c 69 6e 6b 5f 70 68 79 73 69 63 61 6c 	symlink_physical
  0xdf00	00 00 ea 00 61 72 63 68 69 76 65 5f 72 65 61 64 	0000archive_read
  0xdf10	5f 64 69 73 6b 5f 73 65 74 5f 73 79 6d 6c 69 6e 	_disk_set_symlin
  0xdf20	6b 5f 6c 6f 67 69 63 61 6c 00 e7 00 61 72 63 68 	k_logical000arch
  0xdf30	69 76 65 5f 72 65 61 64 5f 64 69 73 6b 5f 73 65 	ive_read_disk_se
  0xdf40	74 5f 6d 65 74 61 64 61 74 61 5f 66 69 6c 74 65 	t_metadata_filte
  0xdf50	72 5f 63 61 6c 6c 62 61 63 6b 00 00 f6 00 61 72 	r_callback0000ar
  0xdf60	63 68 69 76 65 5f 72 65 61 64 5f 68 65 61 64 65 	chive_read_heade
  0xdf70	72 5f 70 6f 73 69 74 69 6f 6e 00 00 e8 00 61 72 	r_position0000ar
  0xdf80	63 68 69 76 65 5f 72 65 61 64 5f 64 69 73 6b 5f 	chive_read_disk_
  0xdf90	73 65 74 5f 73 74 61 6e 64 61 72 64 5f 6c 6f 6f 	set_standard_loo
  0xdfa0	6b 75 70 00 5d 01 61 72 63 68 69 76 65 5f 77 72 	kup0]0archive_wr
  0xdfb0	69 74 65 5f 63 6c 6f 73 65 00 ed 00 61 72 63 68 	ite_close000arch
  0xdfc0	69 76 65 5f 72 65 61 64 5f 64 69 73 6b 5f 75 6e 	ive_read_disk_un
  0xdfd0	61 6d 65 00 75 01 61 72 63 68 69 76 65 5f 77 72 	ame0u0archive_wr
  0xdfe0	69 74 65 5f 6f 70 65 6e 5f 66 69 6c 65 6e 61 6d 	ite_open_filenam
  0xdff0	65 00 61 72 63 68 69 76 65 69 6e 74 2e 64 6c 6c 	e0archiveint.dll
  0xe000	00 00 86 00 73 74 72 63 6d 70 00 00 62 04 6d 65 	0000strcmp00b0me
  0xe010	6d 63 70 79 00 00 63 04 6d 65 6d 6d 6f 76 65 00 	mcpy00c0memmove0
  0xe020	00 00 00 00 00 00 00 00 00 00 00 00 00 00 00 00 	0000000000000000
  0xe030	00 00 00 00 00 00 00 00 00 00 00 00 00 00 00 00 	0000000000000000
  0xe040	00 00 00 00 00 00 00 00 00 00 00 00 00 00 00 00 	0000000000000000
  0xe050	00 00 00 00 00 00 00 00 00 00 00 00 00 00 00 00 	0000000000000000
  0xe060	00 00 00 00 00 00 00 00 00 00 00 00 00 00 00 00 	0000000000000000
  0xe070	00 00 00 00 00 00 00 00 00 00 00 00 00 00 00 00 	0000000000000000
  0xe080	00 00 00 00 00 00 00 00 00 00 00 00 00 00 00 00 	0000000000000000
  0xe090	00 00 00 00 00 00 00 00 00 00 00 00 00 00 00 00 	0000000000000000
  0xe0a0	00 00 00 00 00 00 00 00 00 00 00 00 00 00 00 00 	0000000000000000
  0xe0b0	00 00 00 00 00 00 00 00 00 00 00 00 00 00 00 00 	0000000000000000
  0xe0c0	00 00 00 00 00 00 00 00 00 00 00 00 00 00 00 00 	0000000000000000
  0xe0d0	00 00 00 00 00 00 00 00 00 00 00 00 00 00 00 00 	0000000000000000
  0xe0e0	00 00 00 00 00 00 00 00 00 00 00 00 00 00 00 00 	0000000000000000
  0xe0f0	00 00 00 00 00 00 00 00 00 00 00 00 00 00 00 00 	0000000000000000
  0xe100	00 00 00 00 00 00 00 00 00 00 00 00 00 00 00 00 	0000000000000000
  0xe110	00 00 00 00 00 00 00 00 00 00 00 00 00 00 00 00 	0000000000000000
  0xe120	00 00 00 00 00 00 00 00 00 00 00 00 00 00 00 00 	0000000000000000
  0xe130	00 00 00 00 00 00 00 00 00 00 00 00 00 00 00 00 	0000000000000000
  0xe140	00 00 00 00 00 00 00 00 00 00 00 00 00 00 00 00 	0000000000000000
  0xe150	00 00 00 00 00 00 00 00 00 00 00 00 00 00 00 00 	0000000000000000
  0xe160	00 00 00 00 00 00 00 00 00 00 00 00 00 00 00 00 	0000000000000000
  0xe170	00 00 00 00 00 00 00 00 00 00 00 00 00 00 00 00 	0000000000000000
  0xe180	00 00 00 00 00 00 00 00 00 00 00 00 00 00 00 00 	0000000000000000
  0xe190	00 00 00 00 00 00 00 00 00 00 00 00 00 00 00 00 	0000000000000000
  0xe1a0	00 00 00 00 00 00 00 00 00 00 00 00 00 00 00 00 	0000000000000000
  0xe1b0	00 00 00 00 00 00 00 00 00 00 00 00 00 00 00 00 	0000000000000000
  0xe1c0	00 00 00 00 00 00 00 00 00 00 00 00 00 00 00 00 	0000000000000000
  0xe1d0	00 00 00 00 00 00 00 00 00 00 00 00 00 00 00 00 	0000000000000000
  0xe1e0	00 00 00 00 00 00 00 00 00 00 00 00 00 00 00 00 	0000000000000000
  0xe1f0	00 00 00 00 00 00 00 00 00 00 00 00 00 00 00 00 	0000000000000000
=== DATA BLOCK END ===

=== DATA BLOCK ADDRESS 0xf000 ===
  0xf000	32 a2 df 2d 99 2b 00 00 cd 5d 20 d2 66 d4 ff ff 	200-0+000] 0f000
  0xf010	01 00 00 00 02 00 00 00 2f 20 00 00 00 00 00 00 	00000000/ 000000
  0xf020	01 00 00 00 00 00 00 00 00 00 00 00 00 00 00 00 	0000000000000000
  0xf030	00 00 00 00 00 00 00 00 00 00 00 00 00 00 00 00 	0000000000000000
  0xf040	00 00 00 00 00 00 00 00 00 00 00 00 00 00 00 00 	0000000000000000
  0xf050	00 00 00 00 00 00 00 00 00 00 00 00 00 00 00 00 	0000000000000000
  0xf060	00 00 00 00 00 00 00 00 00 00 00 00 00 00 00 00 	0000000000000000
  0xf070	00 00 00 00 00 00 00 00 00 00 00 00 00 00 00 00 	0000000000000000
  0xf080	00 00 00 00 00 00 00 00 00 00 00 00 00 00 00 00 	0000000000000000
  0xf090	00 00 00 00 00 00 00 00 00 00 00 00 00 00 00 00 	0000000000000000
  0xf0a0	00 00 00 00 00 00 00 00 00 00 00 00 00 00 00 00 	0000000000000000
  0xf0b0	00 00 00 00 00 00 00 00 00 00 00 00 00 00 00 00 	0000000000000000
  0xf0c0	00 00 00 00 00 00 00 00 00 00 00 00 00 00 00 00 	0000000000000000
  0xf0d0	00 00 00 00 00 00 00 00 00 00 00 00 00 00 00 00 	0000000000000000
  0xf0e0	00 00 00 00 00 00 00 00 00 00 00 00 00 00 00 00 	0000000000000000
  0xf0f0	00 00 00 00 00 00 00 00 00 00 00 00 00 00 00 00 	0000000000000000
  0xf100	00 00 00 00 00 00 00 00 00 00 00 00 00 00 00 00 	0000000000000000
  0xf110	00 00 00 00 00 00 00 00 00 00 00 00 00 00 00 00 	0000000000000000
  0xf120	00 00 00 00 00 00 00 00 00 00 00 00 00 00 00 00 	0000000000000000
  0xf130	00 00 00 00 00 00 00 00 00 00 00 00 00 00 00 00 	0000000000000000
  0xf140	00 00 00 00 00 00 00 00 00 00 00 00 00 00 00 00 	0000000000000000
  0xf150	00 00 00 00 00 00 00 00 00 00 00 00 00 00 00 00 	0000000000000000
  0xf160	00 00 00 00 00 00 00 00 00 00 00 00 00 00 00 00 	0000000000000000
  0xf170	00 00 00 00 00 00 00 00 00 00 00 00 00 00 00 00 	0000000000000000
  0xf180	00 00 00 00 00 00 00 00 00 00 00 00 00 00 00 00 	0000000000000000
  0xf190	00 00 00 00 00 00 00 00 00 00 00 00 00 00 00 00 	0000000000000000
  0xf1a0	00 00 00 00 00 00 00 00 00 00 00 00 00 00 00 00 	0000000000000000
  0xf1b0	00 00 00 00 00 00 00 00 00 00 00 00 00 00 00 00 	0000000000000000
  0xf1c0	00 00 00 00 00 00 00 00 00 00 00 00 00 00 00 00 	0000000000000000
  0xf1d0	00 00 00 00 00 00 00 00 00 00 00 00 00 00 00 00 	0000000000000000
  0xf1e0	00 00 00 00 00 00 00 00 00 00 00 00 00 00 00 00 	0000000000000000
  0xf1f0	00 00 00 00 00 00 00 00 00 00 00 00 00 00 00 00 	0000000000000000
=== DATA BLOCK END ===

=== DATA BLOCK ADDRESS 0x10000 ===
  0x10000	08 10 00 00 00 29 00 00 90 bf 00 00 08 29 00 00 	00000)0000000)00
  0x10010	3b 29 00 00 b8 bf 00 00 44 29 00 00 e5 29 00 00 	;)000000D)000)00
  0x10020	c0 bf 00 00 ec 29 00 00 21 2a 00 00 cc bf 00 00 	00000)00!*000000
  0x10030	28 2a 00 00 e8 2a 00 00 d4 bf 00 00 f0 2a 00 00 	(*000*0000000*00
  0x10040	98 2d 00 00 e4 bf 00 00 a0 2d 00 00 0f 2e 00 00 	0-0000000-000.00
  0x10050	00 c0 00 00 18 2e 00 00 1c 32 00 00 e4 bf 00 00 	00000.0002000000
  0x10060	24 32 00 00 84 32 00 00 08 c0 00 00 8c 32 00 00 	$200020000000200
  0x10070	28 33 00 00 10 c0 00 00 30 33 00 00 84 33 00 00 	(300000003000300
  0x10080	c0 bf 00 00 98 33 00 00 ec 33 00 00 d4 bf 00 00 	0000030003000000
  0x10090	f4 33 00 00 e9 35 00 00 24 c0 00 00 fc 35 00 00 	03000500$0000500
  0x100a0	f5 3e 00 00 3c c0 00 00 fc 3e 00 00 7f 3f 00 00 	0>00<0000>000?00
  0x100b0	54 c0 00 00 88 3f 00 00 d6 41 00 00 5c c0 00 00 	T0000?000A000000
  0x100c0	dc 41 00 00 bc 42 00 00 7c c0 00 00 c4 42 00 00 	0A000B00|0000B00
  0x100d0	dc 43 00 00 94 c0 00 00 e4 43 00 00 00 45 00 00 	0C0000000C000E00
  0x100e0	10 c0 00 00 08 45 00 00 e2 45 00 00 d4 bf 00 00 	00000E000E000000
  0x100f0	e8 45 00 00 3b 47 00 00 d4 bf 00 00 44 47 00 00 	0E00;G000000DG00
  0x10100	a4 48 00 00 24 c0 00 00 20 49 00 00 7f 49 00 00 	0H00$000 I000I00
  0x10110	00 c0 00 00 88 49 00 00 48 4d 00 00 a8 c0 00 00 	00000I00HM000000
  0x10120	50 4d 00 00 be 4e 00 00 7c c0 00 00 c4 4e 00 00 	PM000N00|0000N00
  0x10130	e9 4f 00 00 10 c0 00 00 f0 4f 00 00 38 52 00 00 	0O0000000O008R00
  0x10140	cc c0 00 00 40 52 00 00 61 55 00 00 e4 c0 00 00 	0000@R00aU000000
  0x10150	68 55 00 00 c1 58 00 00 f8 c0 00 00 c8 58 00 00 	hU000X0000000X00
  0x10160	86 5d 00 00 0c c1 00 00 8c 5d 00 00 80 5f 00 00 	0]0000000]000_00
  0x10170	20 c1 00 00 88 5f 00 00 28 61 00 00 7c c0 00 00 	 0000_00(a00|000
  0x10180	30 61 00 00 63 63 00 00 38 c1 00 00 6c 63 00 00 	0a00cc008000lc00
  0x10190	f1 64 00 00 50 c1 00 00 00 65 00 00 76 65 00 00 	0d00P0000e00ve00
  0x101a0	d4 bf 00 00 80 65 00 00 f1 65 00 00 c0 bf 00 00 	00000e000e000000
  0x101b0	f8 65 00 00 36 69 00 00 6c c1 00 00 3c 69 00 00 	0e006i00l000<i00
  0x101c0	a3 6a 00 00 7c c0 00 00 ac 6a 00 00 4e 6b 00 00 	0j00|0000j00Nk00
  0x101d0	80 c1 00 00 64 6b 00 00 0c 6c 00 00 d4 bf 00 00 	0000dk000l000000
  0x101e0	14 6c 00 00 36 6c 00 00 90 c1 00 00 3c 6c 00 00 	0l006l000000<l00
  0x101f0	70 6c 00 00 98 c1 00 00 78 6c 00 00 b6 6e 00 00 	pl000000xl000n00
  0x10200	a0 c1 00 00 bc 6e 00 00 37 70 00 00 b0 c1 00 00 	00000n007p000000
  0x10210	40 70 00 00 54 70 00 00 cc bf 00 00 70 70 00 00 	@p00Tp000000pp00
  0x10220	8d 70 00 00 cc bf 00 00 b0 70 00 00 cd 70 00 00 	0p0000000p000p00
  0x10230	cc bf 00 00 e0 70 00 00 81 71 00 00 00 c0 00 00 	00000p000q000000
  0x10240	90 71 00 00 a0 71 00 00 cc bf 00 00 b0 71 00 00 	0q000q0000000q00
  0x10250	c9 71 00 00 cc bf 00 00 d0 71 00 00 4c 73 00 00 	0q0000000q00Ls00
  0x10260	c0 c1 00 00 60 73 00 00 72 73 00 00 cc bf 00 00 	0000`s00rs000000
  0x10270	90 73 00 00 b1 73 00 00 00 c2 00 00 b8 73 00 00 	0s000s0000000s00
  0x10280	15 74 00 00 00 c0 00 00 20 74 00 00 f2 74 00 00 	0t000000 t000t00
  0x10290	0c c2 00 00 f8 74 00 00 0b 75 00 00 cc bf 00 00 	00000t000u000000
  0x102a0	14 75 00 00 b0 75 00 00 04 c2 00 00 b8 75 00 00 	0u000u0000000u00
  0x102b0	25 76 00 00 14 c2 00 00 2c 76 00 00 9d 76 00 00 	%v000000,v000v00
  0x102c0	20 c2 00 00 a4 76 00 00 dd 76 00 00 cc bf 00 00 	 0000v000v000000
  0x102d0	e4 76 00 00 2d 77 00 00 00 c0 00 00 34 77 00 00 	0v00-w0000004w00
  0x102e0	e4 77 00 00 00 c0 00 00 ec 77 00 00 84 78 00 00 	0w0000000w000x00
  0x102f0	2c c2 00 00 8c 78 00 00 b0 78 00 00 00 c0 00 00 	,0000x000x000000
  0x10300	b8 78 00 00 e1 78 00 00 00 c0 00 00 e8 78 00 00 	0x000x0000000x00
  0x10310	37 79 00 00 00 c0 00 00 40 79 00 00 57 79 00 00 	7y000000@y00Wy00
  0x10320	cc bf 00 00 60 79 00 00 0c 7a 00 00 54 c2 00 00 	0000`y000z00T000
  0x10330	6c 7a 00 00 87 7a 00 00 cc bf 00 00 c0 7a 00 00 	lz000z0000000z00
  0x10340	0b 7c 00 00 60 c2 00 00 20 7c 00 00 72 7c 00 00 	0|00`000 |00r|00
  0x10350	cc bf 00 00 90 7c 00 00 c8 7c 00 00 cc bf 00 00 	00000|000|000000
  0x10360	d0 7c 00 00 0c 7d 00 00 c0 bf 00 00 20 7d 00 00 	0|000}000000 }00
  0x10370	5c 7d 00 00 c0 bf 00 00 64 7d 00 00 df 7e 00 00 	0}000000d}000~00
  0x10380	70 c2 00 00 4c 80 00 00 8f 80 00 00 84 c2 00 00 	p000L00000000000
  0x10390	98 80 00 00 db 80 00 00 94 c2 00 00 e4 80 00 00 	0000000000000000
  0x103a0	32 81 00 00 a0 c2 00 00 38 81 00 00 9a 81 00 00 	2000000080000000
  0x103b0	ac c2 00 00 a0 81 00 00 f6 81 00 00 94 c2 00 00 	0000000000000000
  0x103c0	fc 81 00 00 19 82 00 00 cc bf 00 00 20 82 00 00 	000000000000 000
  0x103d0	7b 82 00 00 c0 c2 00 00 b0 82 00 00 b2 82 00 00 	{000000000000000
  0x103e0	80 c2 00 00 b8 82 00 00 d6 82 00 00 f8 c1 00 00 	0000000000000000
  0x103f0	dc 82 00 00 f4 82 00 00 4c c2 00 00 00 00 00 00 	00000000L0000000
=== DATA BLOCK END ===
