===== Assembly blocks =====

=== CODE BLOCK ADDRESS 0x1000 ===
  0x1000	int3   	
  0x1001	int3   	
  0x1002	int3   	
  0x1003	int3   	
  0x1004	int3   	
  === BLOCK LINK ===
    0x1005
=== CODE BLOCK END ===

=== CODE BLOCK ADDRESS 0x1005 ===
  0x1005	int3   	
  0x1006	int3   	
  0x1007	int3   	
  0x1008	jno    	0x1052
  === BLOCK LINK ===
    0x100a
    0x1052
=== CODE BLOCK END ===

=== CODE BLOCK ADDRESS 0x100a ===
  0x100a	ficom  	dword ptr [esi - 0x6a]
  0x100d	int1   	
  0x100f	test   	dword ptr [eax - 0x73], ecx
  0x1012	add    	eax, 0x3949
  0x1017	dec    	eax
  === BLOCK LINK ===
    0x1018
=== CODE BLOCK END ===

=== CODE BLOCK ADDRESS 0x1018 ===
  0x1018	mov    	dword ptr [0x976a], eax
  0x101e	dec    	eax
  0x101f	lea    	eax, [0x451b]
  0x1025	dec    	eax
  0x1026	mov    	dword ptr [0x977c], eax
  === BLOCK LINK ===
    0x102c
=== CODE BLOCK END ===

=== CODE BLOCK ADDRESS 0x102c ===
  0x102c	ret    	
  0x102d	int3   	
  0x102e	int3   	
  0x102f	int3   	
  0x1030	int3   	
  === BLOCK LINK ===
    0x1031
=== CODE BLOCK END ===

=== CODE BLOCK ADDRESS 0x1052 ===
=== CODE BLOCK END ===

=== CODE BLOCK ADDRESS 0x1031 ===
  0x1031	int3   	
  0x1032	int3   	
  0x1033	int3   	
  0x1034	int3   	
  0x1035	int3   	
  === BLOCK LINK ===
    0x1036
=== CODE BLOCK END ===

=== CODE BLOCK ADDRESS 0x1036 ===
  0x1036	int3   	
  0x1037	int3   	
  0x1038	jno    	0x1082
  === BLOCK LINK ===
    0x103a
    0x1082
=== CODE BLOCK END ===

=== CODE BLOCK ADDRESS 0x103a ===
  0x103a	ficom  	dword ptr [esi - 0x6a]
  0x103d	int1   	
  0x103f	test   	dword ptr [eax - 0x73], ecx
  0x1042	add    	eax, 0x2429
  0x1047	dec    	eax
  === BLOCK LINK ===
    0x1048
=== CODE BLOCK END ===

=== CODE BLOCK ADDRESS 0x1048 ===
  0x1048	mov    	dword ptr [0x9722], eax
  0x104e	dec    	eax
  0x104f	lea    	eax, [0x8fab]
  0x1055	dec    	eax
  0x1056	mov    	dword ptr [0x96bc], eax
  === BLOCK LINK ===
    0x105c
=== CODE BLOCK END ===

=== CODE BLOCK ADDRESS 0x105c ===
  0x105c	dec    	eax
  0x105d	lea    	eax, [0x905d]
  0x1063	dec    	eax
  0x1064	mov    	dword ptr [0x96d6], eax
  0x106a	ret    	
  === BLOCK LINK ===
    0x106b
=== CODE BLOCK END ===

=== CODE BLOCK ADDRESS 0x1082 ===
=== CODE BLOCK END ===

=== CODE BLOCK ADDRESS 0x106b ===
  0x106b	int3   	
  0x106c	int3   	
  0x106d	int3   	
  0x106e	int3   	
  0x106f	int3   	
  === BLOCK LINK ===
    0x1070
=== CODE BLOCK END ===

=== CODE BLOCK ADDRESS 0x1070 ===
  0x1070	int3   	
  0x1071	int3   	
  0x1072	int3   	
  0x1073	int3   	
  0x1074	int3   	
  === BLOCK LINK ===
    0x1075
=== CODE BLOCK END ===

=== CODE BLOCK ADDRESS 0x1075 ===
  0x1075	int3   	
  0x1076	int3   	
  0x1077	int3   	
  0x1078	jno    	0x10c2
  === BLOCK LINK ===
    0x107a
    0x10c2
=== CODE BLOCK END ===

=== CODE BLOCK ADDRESS 0x107a ===
  0x107a	ficom  	dword ptr [esi - 0x6a]
  0x107d	int1   	
  0x107f	test   	dword ptr [eax - 0x73], ecx
  0x1082	add    	eax, 0x2569
  0x1087	dec    	eax
  === BLOCK LINK ===
    0x1088
=== CODE BLOCK END ===

=== CODE BLOCK ADDRESS 0x1088 ===
  0x1088	mov    	dword ptr [0x972a], eax
  0x108e	dec    	eax
  0x108f	lea    	eax, [0x230b]
  0x1095	dec    	eax
  0x1096	mov    	dword ptr [0x96e4], eax
  === BLOCK LINK ===
    0x109c
=== CODE BLOCK END ===

=== CODE BLOCK ADDRESS 0x109c ===
  0x109c	dec    	eax
  0x109d	lea    	eax, [0x477d]
  0x10a3	dec    	eax
  0x10a4	mov    	dword ptr [0x9706], eax
  0x10aa	dec    	eax
  === BLOCK LINK ===
    0x10ab
=== CODE BLOCK END ===

=== CODE BLOCK ADDRESS 0x10ab ===
  0x10ab	lea    	eax, [0x39ef]
  0x10b1	dec    	eax
  0x10b2	mov    	dword ptr [0x96c0], eax
  0x10b8	dec    	eax
  0x10b9	lea    	eax, [0x3941]
  === BLOCK LINK ===
    0x10bf
=== CODE BLOCK END ===

=== CODE BLOCK ADDRESS 0x10bf ===
  0x10bf	dec    	eax
  0x10c0	mov    	dword ptr [0x96a2], eax
  === BLOCK LINK ===
    0x10c2
=== CODE BLOCK END ===

=== CODE BLOCK ADDRESS 0x10ce ===
  0x10ce	mov    	dword ptr [0x9684], eax
  0x10d4	dec    	eax
  0x10d5	lea    	eax, [0x3585]
  0x10db	dec    	eax
  0x10dc	mov    	dword ptr [0x9656], eax
  === BLOCK LINK ===
    0x10e2
=== CODE BLOCK END ===

=== CODE BLOCK ADDRESS 0x10e2 ===
  0x10e2	ret    	
  0x10e3	int3   	
  0x10e4	int3   	
  0x10e5	int3   	
  0x10e6	int3   	
  === BLOCK LINK ===
    0x10e7
=== CODE BLOCK END ===

=== CODE BLOCK ADDRESS 0x10c2 ===
  0x10c6	dec    	eax
  0x10c7	lea    	eax, [0x2303]
  0x10cd	dec    	eax
  === BLOCK LINK ===
    0x10ce
=== CODE BLOCK END ===

=== CODE BLOCK ADDRESS 0x10e7 ===
  0x10e7	int3   	
  0x10e8	jno    	0x1132
  === BLOCK LINK ===
    0x10ea
    0x1132
=== CODE BLOCK END ===

=== CODE BLOCK ADDRESS 0x10ea ===
  0x10ea	ficom  	dword ptr [esi - 0x6a]
  0x10ed	int1   	
  0x10ef	test   	dword ptr [eax - 0x73], ecx
  0x10f2	or     	eax, 0x5129
  0x10f7	jmp    	0x1830
  === BLOCK LINK ===
    0x10fc
    0x1830
=== CODE BLOCK END ===

=== CODE BLOCK ADDRESS 0x10fc ===
  0x10fc	int3   	
  0x10fd	int3   	
  0x10fe	int3   	
  0x10ff	int3   	
  0x1100	int3   	
  === BLOCK LINK ===
    0x1101
=== CODE BLOCK END ===

=== CODE BLOCK ADDRESS 0x1101 ===
  0x1101	int3   	
  0x1102	int3   	
  0x1103	int3   	
  0x1104	int3   	
  0x1105	int3   	
  === BLOCK LINK ===
    0x1106
=== CODE BLOCK END ===

=== CODE BLOCK ADDRESS 0x1106 ===
  0x1106	int3   	
  0x1107	int3   	
  0x1108	jno    	0x1152
  === BLOCK LINK ===
    0x110a
    0x1152
=== CODE BLOCK END ===

=== CODE BLOCK ADDRESS 0x110a ===
  0x110a	ficom  	dword ptr [esi - 0x6a]
  0x110d	int1   	
  0x110f	test   	dword ptr [eax - 0x73], ecx
  0x1112	or     	eax, 0x5139
  0x1117	jmp    	0x1830
  === BLOCK LINK ===
    0x111c
    0x1830
=== CODE BLOCK END ===

=== CODE BLOCK ADDRESS 0x111c ===
  0x111c	int3   	
  0x111d	int3   	
  0x111e	int3   	
  0x111f	int3   	
  0x1120	int3   	
  === BLOCK LINK ===
    0x1121
=== CODE BLOCK END ===

=== CODE BLOCK ADDRESS 0x1121 ===
  0x1121	int3   	
  0x1122	int3   	
  0x1123	int3   	
  0x1124	int3   	
  0x1125	int3   	
  === BLOCK LINK ===
    0x1126
=== CODE BLOCK END ===

=== CODE BLOCK ADDRESS 0x1126 ===
  0x1126	int3   	
  0x1127	int3   	
  0x1128	jno    	0x115a
  === BLOCK LINK ===
    0x112a
    0x115a
=== CODE BLOCK END ===

=== CODE BLOCK ADDRESS 0x112a ===
  0x112a	push   	edx
  0x112b	pop    	esi
  0x112c	inc    	edi
  0x112d	daa    	
  0x112e	add    	eax, 0xec8348d3
  === BLOCK LINK ===
    0x1133
=== CODE BLOCK END ===

=== CODE BLOCK ADDRESS 0x1133 ===
  0x1133	sub    	al, ch
  0x1135	pop    	ss
  0x1136	add    	byte ptr [eax], al
  0x1138	add    	byte ptr [eax - 0x7d], cl
  0x113b	or     	byte ptr [eax + ebp*8], al
  === BLOCK LINK ===
    0x113e
=== CODE BLOCK END ===

=== CODE BLOCK ADDRESS 0x113e ===
  0x113e	push   	ss
  0x113f	add    	byte ptr [eax], al
  0x1141	add    	byte ptr [eax - 0x7d], cl
  0x1144	or     	byte ptr [edx], al
  0x1146	xor    	eax, eax
  === BLOCK LINK ===
    0x1148
=== CODE BLOCK END ===

=== CODE BLOCK ADDRESS 0x1148 ===
  0x1148	dec    	eax
  0x1149	add    	esp, 0x28
  0x114c	ret    	
  0x114d	int3   	
  0x114e	int3   	
  === BLOCK LINK ===
    0x114f
=== CODE BLOCK END ===

=== CODE BLOCK ADDRESS 0x1132 ===
=== CODE BLOCK END ===

=== CODE BLOCK ADDRESS 0x114f ===
  0x114f	int3   	
  0x1150	dec    	eax
  0x1151	lea    	eax, [0x8fc9]
  === BLOCK LINK ===
    0x1152
=== CODE BLOCK END ===

=== CODE BLOCK ADDRESS 0x1830 ===
=== CODE BLOCK END ===

=== CODE BLOCK ADDRESS 0x1159 ===
  0x1159	lea    	eax, [0x8fc9]
  === BLOCK LINK ===
    0x115a
=== CODE BLOCK END ===

=== CODE BLOCK ADDRESS 0x1152 ===
  0x1157	ret    	
  0x1158	dec    	eax
  === BLOCK LINK ===
    0x1159
=== CODE BLOCK END ===

=== CODE BLOCK ADDRESS 0x1163 ===
  0x1163	int3   	
  0x1164	int3   	
  0x1165	int3   	
  0x1166	int3   	
  0x1167	int3   	
  === BLOCK LINK ===
    0x1168
=== CODE BLOCK END ===

=== CODE BLOCK ADDRESS 0x1168 ===
  0x1168	jno    	0x119a
  === BLOCK LINK ===
    0x116a
    0x119a
=== CODE BLOCK END ===

=== CODE BLOCK ADDRESS 0x116a ===
  0x116a	push   	edx
  0x116b	pop    	esi
  0x116c	inc    	edi
  0x116d	daa    	
  0x116e	add    	eax, 0xec8348d3
  === BLOCK LINK ===
    0x1173
=== CODE BLOCK END ===

=== CODE BLOCK ADDRESS 0x1173 ===
  0x1173	sub    	al, ch
  0x1175	xlatb  	
  0x1176	.byte  	0xff
  0x1177	.byte  	0xff
  0x1178	dec    	dword ptr [eax - 0x7d]
  === BLOCK LINK ===
    0x117b
=== CODE BLOCK END ===

=== CODE BLOCK ADDRESS 0x117b ===
  0x117b	or     	byte ptr [eax], bl
  0x117d	call   	0x1158
  === BLOCK LINK ===
    0x1182
    0x1158
=== CODE BLOCK END ===

=== CODE BLOCK ADDRESS 0x1182 ===
  0x1182	dec    	eax
  0x1183	or     	dword ptr [eax], 4
  0x1186	xor    	eax, eax
  0x1188	dec    	eax
  0x1189	add    	esp, 0x28
  === BLOCK LINK ===
    0x118c
=== CODE BLOCK END ===

=== CODE BLOCK ADDRESS 0x118c ===
  0x118c	ret    	
  0x118d	int3   	
  0x118e	int3   	
  0x118f	int3   	
  0x1190	int3   	
  === BLOCK LINK ===
    0x1191
=== CODE BLOCK END ===

=== CODE BLOCK ADDRESS 0x1191 ===
  0x1191	int3   	
  0x1192	int3   	
  0x1193	int3   	
  0x1194	int3   	
  0x1195	int3   	
  === BLOCK LINK ===
    0x1196
=== CODE BLOCK END ===

=== CODE BLOCK ADDRESS 0x1196 ===
  0x1196	int3   	
  0x1197	int3   	
  0x1198	jno    	0x11ca
  === BLOCK LINK ===
    0x119a
    0x11ca
=== CODE BLOCK END ===

=== CODE BLOCK ADDRESS 0x119a ===
  0x119a	push   	edx
  0x119b	pop    	esi
  0x119c	inc    	edi
  0x119d	daa    	
  0x119e	add    	eax, 0x485340d3
  === BLOCK LINK ===
    0x11a3
=== CODE BLOCK END ===

=== CODE BLOCK ADDRESS 0x11a3 ===
  0x11a3	sub    	esp, 0x20
  0x11a6	mov    	ecx, 1
  0x11ab	call   	0x1eb0
  === BLOCK LINK ===
    0x11b0
    0x1eb0
=== CODE BLOCK END ===

=== CODE BLOCK ADDRESS 0x11b0 ===
  0x11b0	call   	0x1940
  === BLOCK LINK ===
    0x11b5
    0x1940
=== CODE BLOCK END ===

=== CODE BLOCK ADDRESS 0x11b5 ===
  0x11b5	mov    	ecx, eax
  0x11b7	call   	0x1eb6
  === BLOCK LINK ===
    0x11bc
    0x1eb6
=== CODE BLOCK END ===

=== CODE BLOCK ADDRESS 0x11bc ===
  0x11bc	call   	0x193c
  === BLOCK LINK ===
    0x11c1
    0x193c
=== CODE BLOCK END ===

=== CODE BLOCK ADDRESS 0x11c1 ===
  0x11c1	mov    	ebx, eax
  0x11c3	call   	0x1e4a
  === BLOCK LINK ===
    0x11c8
    0x1e4a
=== CODE BLOCK END ===

=== CODE BLOCK ADDRESS 0x11c8 ===
  0x11c8	mov    	ecx, 1
  === BLOCK LINK ===
    0x11ca
    0x1680
=== CODE BLOCK END ===

=== CODE BLOCK ADDRESS 0x11d4 ===
  0x11d4	test   	al, al
  0x11d6	je     	0x1236
  === BLOCK LINK ===
    0x11d8
    0x1236
=== CODE BLOCK END ===

=== CODE BLOCK ADDRESS 0x11d8 ===
  0x11d8	call   	0x1bbc
  === BLOCK LINK ===
    0x11dd
    0x1bbc
=== CODE BLOCK END ===

=== CODE BLOCK ADDRESS 0x11dd ===
  0x11dd	dec    	eax
  0x11de	lea    	ecx, [0xa2c]
  0x11e4	call   	0x1830
  === BLOCK LINK ===
    0x11e9
    0x1830
=== CODE BLOCK END ===

=== CODE BLOCK ADDRESS 0x11e9 ===
  0x11e9	call   	0x1934
  === BLOCK LINK ===
    0x11ee
    0x1934
=== CODE BLOCK END ===

=== CODE BLOCK ADDRESS 0x11ee ===
  0x11ee	mov    	ecx, eax
  0x11f0	call   	0x1e7a
  === BLOCK LINK ===
    0x11f5
    0x1e7a
=== CODE BLOCK END ===

=== CODE BLOCK ADDRESS 0x11f5 ===
  0x11f5	test   	eax, eax
  0x11f7	jne    	0x1236
  === BLOCK LINK ===
    0x11f9
    0x1236
=== CODE BLOCK END ===

=== CODE BLOCK ADDRESS 0x11f9 ===
  0x11f9	call   	0x1948
  === BLOCK LINK ===
    0x11fe
    0x1948
=== CODE BLOCK END ===

=== CODE BLOCK ADDRESS 0x11fe ===
  0x11fe	call   	0x195c
  === BLOCK LINK ===
    0x1203
    0x195c
=== CODE BLOCK END ===

=== CODE BLOCK ADDRESS 0x1203 ===
  0x1203	call   	0x195c
  === BLOCK LINK ===
    0x1208
    0x195c
=== CODE BLOCK END ===

=== CODE BLOCK ADDRESS 0x1208 ===
  0x1208	call   	0x193c
  === BLOCK LINK ===
    0x120d
    0x193c
=== CODE BLOCK END ===

=== CODE BLOCK ADDRESS 0x120d ===
  0x120d	mov    	ecx, eax
  0x120f	call   	0x1e74
  === BLOCK LINK ===
    0x1214
    0x1e74
=== CODE BLOCK END ===

=== CODE BLOCK ADDRESS 0x1214 ===
  0x1214	call   	0x1958
  === BLOCK LINK ===
    0x1219
    0x1958
=== CODE BLOCK END ===

=== CODE BLOCK ADDRESS 0x1219 ===
  0x1219	test   	al, al
  0x121b	je     	0x1222
  === BLOCK LINK ===
    0x121d
    0x1222
=== CODE BLOCK END ===

=== CODE BLOCK ADDRESS 0x121d ===
  0x121d	call   	0x1e98
  === BLOCK LINK ===
    0x1222
    0x1e98
=== CODE BLOCK END ===

=== CODE BLOCK ADDRESS 0x1222 ===
  0x1222	call   	0x193c
  === BLOCK LINK ===
    0x1227
    0x193c
=== CODE BLOCK END ===

=== CODE BLOCK ADDRESS 0x1227 ===
  0x1227	call   	0x1ae0
  === BLOCK LINK ===
    0x122c
    0x1ae0
=== CODE BLOCK END ===

=== CODE BLOCK ADDRESS 0x122c ===
  0x122c	test   	eax, eax
  0x122e	jne    	0x1236
  === BLOCK LINK ===
    0x1230
    0x1236
=== CODE BLOCK END ===

=== CODE BLOCK ADDRESS 0x1230 ===
  0x1230	dec    	eax
  0x1231	add    	esp, 0x20
  0x1234	pop    	ebx
  0x1235	ret    	
  0x1236	mov    	ecx, 7
  === BLOCK LINK ===
    0x123b
=== CODE BLOCK END ===

=== CODE BLOCK ADDRESS 0x115a ===
  0x115f	ret    	
  0x1160	int3   	
  0x1161	int3   	
  0x1162	int3   	
  === BLOCK LINK ===
    0x1163
=== CODE BLOCK END ===

=== CODE BLOCK ADDRESS 0x123b ===
  0x123b	call   	0x1994
  === BLOCK LINK ===
    0x1240
    0x1994
=== CODE BLOCK END ===

=== CODE BLOCK ADDRESS 0x1240 ===
  0x1240	int3   	
  0x1241	int3   	
  0x1242	int3   	
  0x1243	int3   	
  0x1244	int3   	
  === BLOCK LINK ===
    0x1245
=== CODE BLOCK END ===

=== CODE BLOCK ADDRESS 0x1245 ===
  0x1245	int3   	
  0x1246	int3   	
  0x1247	int3   	
  0x1248	jno    	0x127a
  === BLOCK LINK ===
    0x124a
    0x127a
=== CODE BLOCK END ===

=== CODE BLOCK ADDRESS 0x124a ===
  0x124a	push   	edx
  0x124b	pop    	esi
  0x124c	inc    	edi
  0x124d	daa    	
  0x124e	add    	eax, 0xec8348d3
  === BLOCK LINK ===
    0x1253
=== CODE BLOCK END ===

=== CODE BLOCK ADDRESS 0x1253 ===
  0x1253	sub    	al, ch
  0x1255	pop    	es
  0x1256	pop    	es
  0x1257	add    	byte ptr [eax], al
  0x1259	xor    	eax, eax
  === BLOCK LINK ===
    0x125b
=== CODE BLOCK END ===

=== CODE BLOCK ADDRESS 0x125b ===
  0x125b	dec    	eax
  0x125c	add    	esp, 0x28
  0x125f	ret    	
  0x1260	int3   	
  0x1261	int3   	
  === BLOCK LINK ===
    0x1262
=== CODE BLOCK END ===

=== CODE BLOCK ADDRESS 0x1262 ===
  0x1262	int3   	
  0x1263	int3   	
  0x1264	int3   	
  0x1265	int3   	
  0x1266	int3   	
  === BLOCK LINK ===
    0x1267
=== CODE BLOCK END ===

=== CODE BLOCK ADDRESS 0x1267 ===
  0x1267	int3   	
  0x1268	jno    	0x12b2
  === BLOCK LINK ===
    0x126a
    0x12b2
=== CODE BLOCK END ===

=== CODE BLOCK ADDRESS 0x126a ===
  0x126a	ficom  	dword ptr [esi - 0x6a]
  0x126d	int1   	
  0x126f	test   	dword ptr [eax - 0x7d], ecx
  0x1272	in     	al, dx
  0x1273	sub    	al, ch
  === BLOCK LINK ===
    0x1275
=== CODE BLOCK END ===

=== CODE BLOCK ADDRESS 0x1275 ===
  0x1275	ret    	
  0x1276	or     	byte ptr [eax], al
  0x1278	add    	al, ch
  === BLOCK LINK ===
    0x127a
=== CODE BLOCK END ===

=== CODE BLOCK ADDRESS 0x1158 ===
=== CODE BLOCK END ===

=== CODE BLOCK ADDRESS 0x1283 ===
  0x1283	sub    	cl, ch
  0x1285	xor    	ecx, dword ptr [eax + eax]
  0x1288	add    	ah, cl
  0x128a	int3   	
  0x128b	int3   	
  === BLOCK LINK ===
    0x128c
=== CODE BLOCK END ===

=== CODE BLOCK ADDRESS 0x128c ===
  0x128c	dec    	eax
  0x128d	mov    	dword ptr [esp + 8], ebx
  0x1291	dec    	eax
  0x1292	mov    	dword ptr [esp + 0x10], esi
  0x1296	push   	edi
  === BLOCK LINK ===
    0x1297
=== CODE BLOCK END ===

=== CODE BLOCK ADDRESS 0x1297 ===
  0x1297	dec    	eax
  0x1298	sub    	esp, 0x30
  0x129b	mov    	ecx, 1
  0x12a0	call   	0x1634
  === BLOCK LINK ===
    0x12a5
    0x1634
=== CODE BLOCK END ===

=== CODE BLOCK ADDRESS 0x12a5 ===
  0x12a5	test   	al, al
  0x12a7	je     	0x13ed
  === BLOCK LINK ===
    0x12ad
    0x13ed
=== CODE BLOCK END ===

=== CODE BLOCK ADDRESS 0x12ad ===
  0x12ad	inc    	eax
  0x12ae	xor    	dh, dh
  0x12b0	inc    	eax
  0x12b1	mov    	byte ptr [esp + 0x20], dh
  === BLOCK LINK ===
    0x12b2
    0x15f8
=== CODE BLOCK END ===

=== CODE BLOCK ADDRESS 0x12ba ===
  0x12ba	mov    	bl, al
  0x12bc	mov    	ecx, dword ptr [0x9412]
  0x12c2	cmp    	ecx, 1
  0x12c5	je     	0x13f8
  === BLOCK LINK ===
    0x12cb
    0x13f8
=== CODE BLOCK END ===

=== CODE BLOCK ADDRESS 0x12cb ===
  0x12cb	test   	ecx, ecx
  0x12cd	jne    	0x1319
  === BLOCK LINK ===
    0x12cf
    0x1319
=== CODE BLOCK END ===

=== CODE BLOCK ADDRESS 0x12cf ===
  0x12cf	mov    	dword ptr [0x93fb], 1
  0x12d9	dec    	eax
  0x12da	lea    	edx, [0x6238]
  0x12e0	dec    	eax
  0x12e1	lea    	ecx, [0x6209]
  === BLOCK LINK ===
    0x12e7
=== CODE BLOCK END ===

=== CODE BLOCK ADDRESS 0x12e7 ===
  0x12e7	call   	0x1e26
  === BLOCK LINK ===
    0x12ec
    0x1e26
=== CODE BLOCK END ===

=== CODE BLOCK ADDRESS 0x12ec ===
  0x12ec	test   	eax, eax
  0x12ee	je     	0x12fa
  === BLOCK LINK ===
    0x12f0
    0x12fa
=== CODE BLOCK END ===

=== CODE BLOCK ADDRESS 0x12f0 ===
  0x12f0	mov    	eax, 0xff
  0x12f5	jmp    	0x13dd
  === BLOCK LINK ===
    0x12fa
    0x13dd
=== CODE BLOCK END ===

=== CODE BLOCK ADDRESS 0x12fa ===
  0x12fa	dec    	eax
  0x12fb	lea    	edx, [0x61e7]
  0x1301	dec    	eax
  0x1302	lea    	ecx, [0x61a8]
  0x1308	call   	0x1e20
  === BLOCK LINK ===
    0x130d
    0x1e20
=== CODE BLOCK END ===

=== CODE BLOCK ADDRESS 0x130d ===
  0x130d	mov    	dword ptr [0x93bd], 2
  0x1317	jmp    	0x1321
  === BLOCK LINK ===
    0x1319
    0x1321
=== CODE BLOCK END ===

=== CODE BLOCK ADDRESS 0x1319 ===
  0x1319	inc    	eax
  0x131a	mov    	dh, 1
  0x131c	inc    	eax
  0x131d	mov    	byte ptr [esp + 0x20], dh
  0x1321	mov    	cl, bl
  === BLOCK LINK ===
    0x1323
=== CODE BLOCK END ===

=== CODE BLOCK ADDRESS 0x1323 ===
  0x1323	call   	0x17a4
  === BLOCK LINK ===
    0x1328
    0x17a4
=== CODE BLOCK END ===

=== CODE BLOCK ADDRESS 0x1328 ===
  0x1328	call   	0x197c
  === BLOCK LINK ===
    0x132d
    0x197c
=== CODE BLOCK END ===

=== CODE BLOCK ADDRESS 0x132d ===
  0x132d	dec    	eax
  0x132e	mov    	ebx, eax
  0x1330	dec    	eax
  0x1331	cmp    	dword ptr [eax], 0
  0x1334	je     	0x135e
  === BLOCK LINK ===
    0x1336
    0x135e
=== CODE BLOCK END ===

=== CODE BLOCK ADDRESS 0x1336 ===
  0x1336	dec    	eax
  0x1337	mov    	ecx, eax
  0x1339	call   	0x170c
  === BLOCK LINK ===
    0x133e
    0x170c
=== CODE BLOCK END ===

=== CODE BLOCK ADDRESS 0x133e ===
  0x133e	test   	al, al
  0x1340	je     	0x135e
  === BLOCK LINK ===
    0x1342
    0x135e
=== CODE BLOCK END ===

=== CODE BLOCK ADDRESS 0x1342 ===
  0x1342	dec    	ecx
  0x1343	mov    	edx, 0x78d92870
  0x1348	inc    	ebp
  0x1349	add    	dword ptr cs:[ecx + 0x41c03345], ebx
  0x1350	lea    	edx, [eax + 2]
  === BLOCK LINK ===
    0x1353
=== CODE BLOCK END ===

=== CODE BLOCK ADDRESS 0x1353 ===
  0x1353	xor    	ecx, ecx
  0x1355	dec    	eax
  0x1356	mov    	eax, dword ptr [ebx]
  0x1358	call   	dword ptr [0x613a]
  === BLOCK LINK ===
    0x135e
=== CODE BLOCK END ===

=== CODE BLOCK ADDRESS 0x135e ===
  0x135e	call   	0x1984
  === BLOCK LINK ===
    0x1363
    0x1984
=== CODE BLOCK END ===

=== CODE BLOCK ADDRESS 0x1363 ===
  0x1363	dec    	eax
  0x1364	mov    	ebx, eax
  0x1366	dec    	eax
  0x1367	cmp    	dword ptr [eax], 0
  0x136a	je     	0x1380
  === BLOCK LINK ===
    0x136c
    0x1380
=== CODE BLOCK END ===

=== CODE BLOCK ADDRESS 0x136c ===
  0x136c	dec    	eax
  0x136d	mov    	ecx, eax
  0x136f	call   	0x170c
  === BLOCK LINK ===
    0x1374
    0x170c
=== CODE BLOCK END ===

=== CODE BLOCK ADDRESS 0x1374 ===
  0x1374	test   	al, al
  0x1376	je     	0x1380
  === BLOCK LINK ===
    0x1378
    0x1380
=== CODE BLOCK END ===

=== CODE BLOCK ADDRESS 0x1378 ===
  0x1378	dec    	eax
  0x1379	mov    	ecx, dword ptr [ebx]
  0x137b	call   	0x1e32
  === BLOCK LINK ===
    0x1380
    0x1e32
=== CODE BLOCK END ===

=== CODE BLOCK ADDRESS 0x1380 ===
  0x1380	call   	0x1e8c
  === BLOCK LINK ===
    0x1385
    0x1e8c
=== CODE BLOCK END ===

=== CODE BLOCK ADDRESS 0x1385 ===
  0x1385	dec    	eax
  0x1386	mov    	edi, eax
  0x1388	call   	0x1e44
  === BLOCK LINK ===
    0x138d
    0x1e44
=== CODE BLOCK END ===

=== CODE BLOCK ADDRESS 0x138d ===
  0x138d	dec    	eax
  0x138e	mov    	ebx, dword ptr [eax]
  0x1390	call   	0x1e3e
  === BLOCK LINK ===
    0x1395
    0x1e3e
=== CODE BLOCK END ===

=== CODE BLOCK ADDRESS 0x1395 ===
  0x1395	dec    	esp
  0x1396	mov    	eax, edi
  0x1398	dec    	eax
  0x1399	mov    	edx, ebx
  0x139b	mov    	ecx, dword ptr [eax]
  === BLOCK LINK ===
    0x139d
=== CODE BLOCK END ===

=== CODE BLOCK ADDRESS 0x139d ===
  0x139d	call   	0x5c90
  === BLOCK LINK ===
    0x13a2
    0x5c90
=== CODE BLOCK END ===

=== CODE BLOCK ADDRESS 0x13a2 ===
  0x13a2	mov    	ebx, eax
  0x13a4	call   	0x1ae8
  === BLOCK LINK ===
    0x13a9
    0x1ae8
=== CODE BLOCK END ===

=== CODE BLOCK ADDRESS 0x13a9 ===
  0x13a9	test   	al, al
  0x13ab	je     	0x1402
  === BLOCK LINK ===
    0x13ad
    0x1402
=== CODE BLOCK END ===

=== CODE BLOCK ADDRESS 0x13ad ===
  0x13ad	inc    	eax
  0x13ae	test   	dh, dh
  0x13b0	jne    	0x13b7
  === BLOCK LINK ===
    0x13b2
    0x13b7
=== CODE BLOCK END ===

=== CODE BLOCK ADDRESS 0x13b2 ===
  0x13b2	call   	0x1e6e
  === BLOCK LINK ===
    0x13b7
    0x1e6e
=== CODE BLOCK END ===

=== CODE BLOCK ADDRESS 0x13b7 ===
  0x13b7	xor    	edx, edx
  0x13b9	mov    	cl, 1
  0x13bb	call   	0x17c8
  === BLOCK LINK ===
    0x13c0
    0x17c8
=== CODE BLOCK END ===

=== CODE BLOCK ADDRESS 0x13c0 ===
  0x13c0	mov    	eax, ebx
  0x13c2	jmp    	0x13dd
  === BLOCK LINK ===
    0x13c4
    0x13dd
=== CODE BLOCK END ===

=== CODE BLOCK ADDRESS 0x13c4 ===
  0x13c4	mov    	ebx, eax
  0x13c6	call   	0x1ae8
  === BLOCK LINK ===
    0x13cb
    0x1ae8
=== CODE BLOCK END ===

=== CODE BLOCK ADDRESS 0x13cb ===
  0x13cb	test   	al, al
  0x13cd	je     	0x140a
  === BLOCK LINK ===
    0x13cf
    0x140a
=== CODE BLOCK END ===

=== CODE BLOCK ADDRESS 0x13cf ===
  0x13cf	cmp    	byte ptr [esp + 0x20], 0
  0x13d4	jne    	0x13db
  === BLOCK LINK ===
    0x13d6
    0x13db
=== CODE BLOCK END ===

=== CODE BLOCK ADDRESS 0x13d6 ===
  0x13d6	call   	0x1e2c
  === BLOCK LINK ===
    0x13db
    0x1e2c
=== CODE BLOCK END ===

=== CODE BLOCK ADDRESS 0x13db ===
  0x13db	mov    	eax, ebx
  === BLOCK LINK ===
    0x13dd
=== CODE BLOCK END ===

=== CODE BLOCK ADDRESS 0x13e7 ===
  0x13e7	dec    	eax
  0x13e8	add    	esp, 0x30
  0x13eb	pop    	edi
  0x13ec	ret    	
  0x13ed	mov    	ecx, 7
  === BLOCK LINK ===
    0x13f2
=== CODE BLOCK END ===

=== CODE BLOCK ADDRESS 0x11ca ===
  0x11cd	mov    	dword ptr [eax], ebx
  0x11cf	call   	0x1680
  === BLOCK LINK ===
    0x11d4
=== CODE BLOCK END ===

=== CODE BLOCK ADDRESS 0x13f2 ===
  0x13f2	call   	0x1994
  === BLOCK LINK ===
    0x13f7
    0x1994
=== CODE BLOCK END ===

=== CODE BLOCK ADDRESS 0x13f7 ===
  0x13f7	nop    	
  === BLOCK LINK ===
    0x13f8
    0x1994
=== CODE BLOCK END ===

=== CODE BLOCK ADDRESS 0x1402 ===
  0x1402	mov    	ecx, ebx
  0x1404	call   	0x1ec2
  === BLOCK LINK ===
    0x1409
    0x1ec2
=== CODE BLOCK END ===

=== CODE BLOCK ADDRESS 0x1409 ===
  0x1409	nop    	
  === BLOCK LINK ===
    0x140a
    0x1e86
=== CODE BLOCK END ===

=== CODE BLOCK ADDRESS 0x1411 ===
  0x1411	nop    	
  0x1412	int3   	
  0x1413	int3   	
  0x1414	int3   	
  0x1415	int3   	
  === BLOCK LINK ===
    0x1416
=== CODE BLOCK END ===

=== CODE BLOCK ADDRESS 0x1416 ===
  0x1416	int3   	
  0x1417	int3   	
  0x1418	jno    	0x13bc
  === BLOCK LINK ===
    0x141a
    0x13bc
=== CODE BLOCK END ===

=== CODE BLOCK ADDRESS 0x141a ===
  0x141a	fcom   	qword ptr [edx]
  0x141c	push   	-0x69
  0x141e	cdq    	
  0x141f	mov    	al, 0x48
  0x1421	sub    	esp, 0x28
  === BLOCK LINK ===
    0x1424
=== CODE BLOCK END ===

=== CODE BLOCK ADDRESS 0x1424 ===
  0x1424	call   	0x1888
  === BLOCK LINK ===
    0x1429
    0x1888
=== CODE BLOCK END ===

=== CODE BLOCK ADDRESS 0x1429 ===
  0x1429	dec    	eax
  0x142a	add    	esp, 0x28
  0x142d	jmp    	0x128c
  === BLOCK LINK ===
    0x1432
    0x128c
=== CODE BLOCK END ===

=== CODE BLOCK ADDRESS 0x1432 ===
  0x1432	int3   	
  0x1433	int3   	
  0x1434	int3   	
  0x1435	int3   	
  0x1436	int3   	
  === BLOCK LINK ===
    0x1437
=== CODE BLOCK END ===

=== CODE BLOCK ADDRESS 0x1437 ===
  0x1437	int3   	
  0x1438	int3   	
  0x1439	int3   	
  0x143a	int3   	
  0x143b	int3   	
  === BLOCK LINK ===
    0x143c
=== CODE BLOCK END ===

=== CODE BLOCK ADDRESS 0x143c ===
  0x143c	int3   	
  0x143d	int3   	
  0x143e	int3   	
  0x143f	int3   	
  0x1440	int3   	
  === BLOCK LINK ===
    0x1441
=== CODE BLOCK END ===

=== CODE BLOCK ADDRESS 0x1441 ===
  0x1441	int3   	
  0x1442	int3   	
  0x1443	int3   	
  0x1444	int3   	
  0x1445	int3   	
  === BLOCK LINK ===
    0x1446
=== CODE BLOCK END ===

=== CODE BLOCK ADDRESS 0x1446 ===
  0x1446	nop    	word ptr [eax + eax]
  0x1450	dec    	eax
  0x1451	cmp    	ecx, dword ptr [0x8c39]
  0x1457	jne    	0x1469
  === BLOCK LINK ===
    0x1459
    0x1469
=== CODE BLOCK END ===

=== CODE BLOCK ADDRESS 0x1459 ===
  0x1459	dec    	eax
  0x145a	rol    	ecx, 0x10
  0x145d	test   	cx, 0xffff
  0x1462	jne    	0x1465
  === BLOCK LINK ===
    0x1464
    0x1465
=== CODE BLOCK END ===

=== CODE BLOCK ADDRESS 0x1464 ===
  0x1464	ret    	
  === BLOCK LINK ===
    0x1465
    0x14b0
=== CODE BLOCK END ===

=== CODE BLOCK ADDRESS 0x1eb0 ===
  0x1eb0	jmp    	dword ptr [0x54f2]
  === BLOCK LINK ===
    0x1eb6
=== CODE BLOCK END ===

=== CODE BLOCK ADDRESS 0x146e ===
  0x146e	int3   	
  0x146f	int3   	
  === BLOCK LINK ===
    0x1470
=== CODE BLOCK END ===

=== CODE BLOCK ADDRESS 0x1473 ===
  0x1473	sub    	esp, 0x20
  === BLOCK LINK ===
    0x1474
=== CODE BLOCK END ===

=== CODE BLOCK ADDRESS 0x1481 ===
  0x1481	dec    	eax
  0x1482	mov    	ecx, ebx
  0x1484	call   	dword ptr [0x5d36]
  === BLOCK LINK ===
    0x148a
=== CODE BLOCK END ===

=== CODE BLOCK ADDRESS 0x148a ===
  0x148a	call   	dword ptr [0x5df0]
  === BLOCK LINK ===
    0x1490
=== CODE BLOCK END ===

=== CODE BLOCK ADDRESS 0x1490 ===
  0x1490	dec    	eax
  0x1491	mov    	ecx, eax
  0x1493	mov    	edx, 0xc0000409
  0x1498	dec    	eax
  0x1499	add    	esp, 0x20
  === BLOCK LINK ===
    0x149c
=== CODE BLOCK END ===

=== CODE BLOCK ADDRESS 0x149c ===
  0x149c	pop    	ebx
  0x149d	dec    	eax
  0x149e	jmp    	dword ptr [0x5de4]
  === BLOCK LINK ===
    0x14a4
=== CODE BLOCK END ===

=== CODE BLOCK ADDRESS 0x14a4 ===
  0x14a4	int3   	
  0x14a5	int3   	
  0x14a6	int3   	
  0x14a7	int3   	
  0x14a8	jno    	0x1474
  === BLOCK LINK ===
    0x14aa
    0x1474
=== CODE BLOCK END ===

=== CODE BLOCK ADDRESS 0x14aa ===
  0x14aa	ficomp  	dword ptr [edx]
  0x14ac	mov    	dh, 0x17
  0x14ae	mov    	eax, 0x4c894899
  === BLOCK LINK ===
    0x14b0
=== CODE BLOCK END ===

=== CODE BLOCK ADDRESS 0x14b6 ===
  0x14b6	sub    	esp, 0x38
  0x14b9	mov    	ecx, 0x17
  0x14be	call   	dword ptr [0x5ddc]
  === BLOCK LINK ===
    0x14c4
=== CODE BLOCK END ===

=== CODE BLOCK ADDRESS 0x14c4 ===
  0x14c4	test   	eax, eax
  0x14c6	je     	0x14cf
  === BLOCK LINK ===
    0x14c8
    0x14cf
=== CODE BLOCK END ===

=== CODE BLOCK ADDRESS 0x14c8 ===
  0x14c8	mov    	ecx, 2
  0x14cd	int    	0x29
  === BLOCK LINK ===
    0x14cf
    0x1584
=== CODE BLOCK END ===

=== CODE BLOCK ADDRESS 0x14db ===
  0x14db	dec    	eax
  0x14dc	mov    	eax, dword ptr [esp + 0x38]
  0x14e0	dec    	eax
  0x14e1	mov    	dword ptr [0x8de1], eax
  0x14e7	dec    	eax
  === BLOCK LINK ===
    0x14e8
=== CODE BLOCK END ===

=== CODE BLOCK ADDRESS 0x14e8 ===
  0x14e8	lea    	eax, [esp + 0x38]
  0x14ec	dec    	eax
  0x14ed	add    	eax, 8
  0x14f0	dec    	eax
  0x14f1	mov    	dword ptr [0x8d71], eax
  === BLOCK LINK ===
    0x14f7
=== CODE BLOCK END ===

=== CODE BLOCK ADDRESS 0x14f7 ===
  0x14f7	dec    	eax
  0x14f8	mov    	eax, dword ptr [0x8dca]
  0x14fe	dec    	eax
  0x14ff	mov    	dword ptr [0x8c3b], eax
  0x1505	dec    	eax
  === BLOCK LINK ===
    0x1506
=== CODE BLOCK END ===

=== CODE BLOCK ADDRESS 0x1506 ===
  0x1506	mov    	eax, dword ptr [esp + 0x40]
  0x150a	dec    	eax
  0x150b	mov    	dword ptr [0x8d3f], eax
  0x1511	mov    	dword ptr [0x8c15], 0xc0000409
  0x151b	mov    	dword ptr [0x8c0f], 1
  === BLOCK LINK ===
    0x1525
=== CODE BLOCK END ===

=== CODE BLOCK ADDRESS 0x1525 ===
  0x1525	mov    	dword ptr [0x8c19], 1
  0x152f	mov    	eax, 8
  0x1534	dec    	eax
  0x1535	imul   	eax, eax, 0
  0x1538	dec    	eax
  === BLOCK LINK ===
    0x1539
=== CODE BLOCK END ===

=== CODE BLOCK ADDRESS 0x1539 ===
  0x1539	lea    	ecx, [0x8c11]
  0x153f	dec    	eax
  0x1540	mov    	dword ptr [ecx + eax], 2
  0x1547	mov    	eax, 8
  0x154c	dec    	eax
  === BLOCK LINK ===
    0x154d
=== CODE BLOCK END ===

=== CODE BLOCK ADDRESS 0x154d ===
  0x154d	imul   	eax, eax, 0
  0x1550	dec    	eax
  0x1551	mov    	ecx, dword ptr [0x8b39]
  0x1557	dec    	eax
  0x1558	mov    	dword ptr [esp + eax + 0x20], ecx
  === BLOCK LINK ===
    0x155c
=== CODE BLOCK END ===

=== CODE BLOCK ADDRESS 0x155c ===
  0x155c	mov    	eax, 8
  0x1561	dec    	eax
  0x1562	imul   	eax, eax, 1
  0x1565	dec    	eax
  0x1566	mov    	ecx, dword ptr [0x8b2c]
  === BLOCK LINK ===
    0x156c
=== CODE BLOCK END ===

=== CODE BLOCK ADDRESS 0x156c ===
  0x156c	dec    	eax
  0x156d	mov    	dword ptr [esp + eax + 0x20], ecx
  0x1571	dec    	eax
  0x1572	lea    	ecx, [0x5a88]
  0x1578	call   	0x1470
  === BLOCK LINK ===
    0x157d
    0x1470
=== CODE BLOCK END ===

=== CODE BLOCK ADDRESS 0x157d ===
  0x157d	dec    	eax
  0x157e	add    	esp, 0x38
  0x1581	ret    	
  0x1582	int3   	
  0x1583	int3   	
  === BLOCK LINK ===
    0x1584
=== CODE BLOCK END ===

=== CODE BLOCK ADDRESS 0x1940 ===
=== CODE BLOCK END ===

=== CODE BLOCK ADDRESS 0x1584 ===
  0x1584	inc    	eax
  0x1585	push   	ebx
  0x1586	push   	esi
  0x1587	push   	edi
  0x1588	dec    	eax
  === BLOCK LINK ===
    0x1589
=== CODE BLOCK END ===

=== CODE BLOCK ADDRESS 0x1589 ===
  0x1589	sub    	esp, 0x40
  0x158c	dec    	eax
  0x158d	mov    	ebx, ecx
  0x158f	call   	dword ptr [0x5d33]
  === BLOCK LINK ===
    0x1595
=== CODE BLOCK END ===

=== CODE BLOCK ADDRESS 0x1595 ===
  0x1595	dec    	eax
  0x1596	mov    	esi, dword ptr [ebx + 0xf8]
  0x159c	xor    	edi, edi
  === BLOCK LINK ===
    0x159e
=== CODE BLOCK END ===

=== CODE BLOCK ADDRESS 0x15a1 ===
  0x15a1	dec    	eax
  0x15a2	lea    	edx, [esp + 0x60]
  0x15a6	dec    	eax
  0x15a7	mov    	ecx, esi
  0x15a9	call   	dword ptr [0x5d21]
  === BLOCK LINK ===
    0x15af
=== CODE BLOCK END ===

=== CODE BLOCK ADDRESS 0x15af ===
  0x15af	dec    	eax
  0x15b0	test   	eax, eax
  0x15b2	je     	0x15ed
  === BLOCK LINK ===
    0x15b4
    0x15ed
=== CODE BLOCK END ===

=== CODE BLOCK ADDRESS 0x15b4 ===
  0x15b4	dec    	eax
  0x15b5	and    	dword ptr [esp + 0x38], 0
  0x15ba	dec    	eax
  0x15bb	lea    	ecx, [esp + 0x68]
  0x15bf	dec    	eax
  === BLOCK LINK ===
    0x15c0
=== CODE BLOCK END ===

=== CODE BLOCK ADDRESS 0x15c0 ===
  0x15c0	mov    	edx, dword ptr [esp + 0x60]
  0x15c4	dec    	esp
  0x15c5	mov    	ecx, eax
  0x15c7	dec    	eax
  0x15c8	mov    	dword ptr [esp + 0x30], ecx
  === BLOCK LINK ===
    0x15cc
=== CODE BLOCK END ===

=== CODE BLOCK ADDRESS 0x15cc ===
  0x15cc	dec    	esp
  0x15cd	mov    	eax, esi
  0x15cf	dec    	eax
  0x15d0	lea    	ecx, [esp + 0x70]
  0x15d4	dec    	eax
  === BLOCK LINK ===
    0x15d5
=== CODE BLOCK END ===

=== CODE BLOCK ADDRESS 0x15d5 ===
  0x15d5	mov    	dword ptr [esp + 0x28], ecx
  0x15d9	xor    	ecx, ecx
  0x15db	dec    	eax
  0x15dc	mov    	dword ptr [esp + 0x20], ebx
  0x15e0	call   	dword ptr [0x5cda]
  === BLOCK LINK ===
    0x15e6
=== CODE BLOCK END ===

=== CODE BLOCK ADDRESS 0x15e6 ===
  0x15e6	inc    	edi
  0x15e8	cmp    	edi, 2
  0x15eb	jl     	0x159e
  === BLOCK LINK ===
    0x15ed
    0x159e
=== CODE BLOCK END ===

=== CODE BLOCK ADDRESS 0x15ed ===
  0x15ed	dec    	eax
  0x15ee	add    	esp, 0x40
  0x15f1	pop    	edi
  0x15f2	pop    	esi
  0x15f3	pop    	ebx
  === BLOCK LINK ===
    0x15f4
=== CODE BLOCK END ===

=== CODE BLOCK ADDRESS 0x15f4 ===
  0x15f4	ret    	
  0x15f5	int3   	
  0x15f6	int3   	
  0x15f7	int3   	
  0x15f8	dec    	eax
  === BLOCK LINK ===
    0x15f9
=== CODE BLOCK END ===

=== CODE BLOCK ADDRESS 0x1eb6 ===
  0x1eb6	jmp    	dword ptr [0x54f4]
  === BLOCK LINK ===
    0x1ebc
=== CODE BLOCK END ===

=== CODE BLOCK ADDRESS 0x15f9 ===
  0x15f9	sub    	esp, 0x28
  0x15fc	call   	0x1e08
  === BLOCK LINK ===
    0x1601
    0x1e08
=== CODE BLOCK END ===

=== CODE BLOCK ADDRESS 0x1601 ===
  0x1601	test   	eax, eax
  0x1603	je     	0x1626
  === BLOCK LINK ===
    0x1605
    0x1626
=== CODE BLOCK END ===

=== CODE BLOCK ADDRESS 0x1605 ===
  0x1605	dec    	eax
  0x1607	mov    	eax, dword ptr [0x30]
  0x160e	dec    	eax
  0x160f	mov    	ecx, dword ptr [eax + 8]
  0x1612	jmp    	0x1619
  === BLOCK LINK ===
    0x1614
    0x1619
=== CODE BLOCK END ===

=== CODE BLOCK ADDRESS 0x1614 ===
  0x1614	dec    	eax
  0x1615	cmp    	ecx, eax
  0x1617	je     	0x162d
  === BLOCK LINK ===
    0x1619
    0x162d
=== CODE BLOCK END ===

=== CODE BLOCK ADDRESS 0x1619 ===
  0x1619	xor    	eax, eax
  0x161b	.byte  	0xf0
  0x161c	dec    	eax
  0x161d	cmpxchg  	dword ptr [0x90b4], ecx
  0x1624	jne    	0x1614
  === BLOCK LINK ===
    0x1626
    0x1614
=== CODE BLOCK END ===

=== CODE BLOCK ADDRESS 0x1626 ===
  0x1626	xor    	al, al
  === BLOCK LINK ===
    0x1628
=== CODE BLOCK END ===

=== CODE BLOCK ADDRESS 0x193c ===
=== CODE BLOCK END ===

=== CODE BLOCK ADDRESS 0x162f ===
  0x162f	jmp    	0x1628
  === BLOCK LINK ===
    0x1631
    0x1628
=== CODE BLOCK END ===

=== CODE BLOCK ADDRESS 0x1631 ===
  0x1631	int3   	
  0x1632	int3   	
  0x1633	int3   	
  === BLOCK LINK ===
    0x1634
=== CODE BLOCK END ===

=== CODE BLOCK ADDRESS 0x1636 ===
  0x1636	dec    	eax
  0x1637	sub    	esp, 0x20
  0x163a	movzx  	eax, byte ptr [0x909f]
  0x1641	test   	ecx, ecx
  0x1643	mov    	ebx, 1
  === BLOCK LINK ===
    0x1648
=== CODE BLOCK END ===

=== CODE BLOCK ADDRESS 0x1648 ===
  0x1648	cmove  	eax, ebx
  0x164b	mov    	byte ptr [0x908f], al
  0x1651	call   	0x1c64
  === BLOCK LINK ===
    0x1656
    0x1c64
=== CODE BLOCK END ===

=== CODE BLOCK ADDRESS 0x1656 ===
  0x1656	call   	0x1958
  === BLOCK LINK ===
    0x165b
    0x1958
=== CODE BLOCK END ===

=== CODE BLOCK ADDRESS 0x165b ===
  0x165b	test   	al, al
  0x165d	jne    	0x1663
  === BLOCK LINK ===
    0x165f
    0x1663
=== CODE BLOCK END ===

=== CODE BLOCK ADDRESS 0x165f ===
  0x165f	xor    	al, al
  0x1661	jmp    	0x1677
  === BLOCK LINK ===
    0x1663
    0x1677
=== CODE BLOCK END ===

=== CODE BLOCK ADDRESS 0x1663 ===
  0x1663	call   	0x1958
  === BLOCK LINK ===
    0x1668
    0x1958
=== CODE BLOCK END ===

=== CODE BLOCK ADDRESS 0x1668 ===
  0x1668	test   	al, al
  0x166a	jne    	0x1675
  === BLOCK LINK ===
    0x166c
    0x1675
=== CODE BLOCK END ===

=== CODE BLOCK ADDRESS 0x166c ===
  0x166c	xor    	ecx, ecx
  0x166e	call   	0x200c
  === BLOCK LINK ===
    0x1673
    0x200c
=== CODE BLOCK END ===

=== CODE BLOCK ADDRESS 0x1673 ===
  0x1673	jmp    	0x165f
  === BLOCK LINK ===
    0x1675
    0x165f
=== CODE BLOCK END ===

=== CODE BLOCK ADDRESS 0x1675 ===
  0x1675	mov    	al, bl
  === BLOCK LINK ===
    0x1677
=== CODE BLOCK END ===

=== CODE BLOCK ADDRESS 0x1e4a ===
  0x1e4a	jmp    	dword ptr [0x55c8]
  === BLOCK LINK ===
    0x1e50
=== CODE BLOCK END ===

=== CODE BLOCK ADDRESS 0x167d ===
  0x167d	int3   	
  0x167e	int3   	
  0x167f	int3   	
  === BLOCK LINK ===
    0x1680
=== CODE BLOCK END ===

=== CODE BLOCK ADDRESS 0x1682 ===
  0x1682	dec    	eax
  0x1683	sub    	esp, 0x20
  0x1686	cmp    	byte ptr [0x9043], 0
  0x168d	mov    	ebx, ecx
  0x168f	jne    	0x16f8
  === BLOCK LINK ===
    0x1691
    0x16f8
=== CODE BLOCK END ===

=== CODE BLOCK ADDRESS 0x1691 ===
  0x1691	cmp    	ecx, 1
  0x1694	ja     	0x1700
  === BLOCK LINK ===
    0x1696
    0x1700
=== CODE BLOCK END ===

=== CODE BLOCK ADDRESS 0x1696 ===
  0x1696	call   	0x1e08
  === BLOCK LINK ===
    0x169b
    0x1e08
=== CODE BLOCK END ===

=== CODE BLOCK ADDRESS 0x169b ===
  0x169b	test   	eax, eax
  0x169d	je     	0x16c7
  === BLOCK LINK ===
    0x169f
    0x16c7
=== CODE BLOCK END ===

=== CODE BLOCK ADDRESS 0x169f ===
  0x169f	test   	ebx, ebx
  0x16a1	jne    	0x16c7
  === BLOCK LINK ===
    0x16a3
    0x16c7
=== CODE BLOCK END ===

=== CODE BLOCK ADDRESS 0x16a3 ===
  0x16a3	dec    	eax
  0x16a4	lea    	ecx, [0x8ff6]
  0x16aa	call   	0x1e92
  === BLOCK LINK ===
    0x16af
    0x1e92
=== CODE BLOCK END ===

=== CODE BLOCK ADDRESS 0x16af ===
  0x16af	test   	eax, eax
  0x16b1	jne    	0x16c3
  === BLOCK LINK ===
    0x16b3
    0x16c3
=== CODE BLOCK END ===

=== CODE BLOCK ADDRESS 0x16b3 ===
  0x16b3	dec    	eax
  0x16b4	lea    	ecx, [0x8ffe]
  0x16ba	call   	0x1e92
  === BLOCK LINK ===
    0x16bf
    0x1e92
=== CODE BLOCK END ===

=== CODE BLOCK ADDRESS 0x16bf ===
  0x16bf	test   	eax, eax
  0x16c1	je     	0x16f1
  === BLOCK LINK ===
    0x16c3
    0x16f1
=== CODE BLOCK END ===

=== CODE BLOCK ADDRESS 0x16c3 ===
  0x16c3	xor    	al, al
  0x16c5	jmp    	0x16fa
  === BLOCK LINK ===
    0x16c7
    0x16fa
=== CODE BLOCK END ===

=== CODE BLOCK ADDRESS 0x16c7 ===
  0x16c7	movdqa  	xmm0, xmmword ptr [0x5f31]
  0x16cf	dec    	eax
  0x16d0	or     	eax, 0xffffffff
  0x16d3	movdqu  	xmmword ptr [0x8fc5], xmm0
  0x16db	dec    	eax
  === BLOCK LINK ===
    0x16dc
=== CODE BLOCK END ===

=== CODE BLOCK ADDRESS 0x16dc ===
  0x16dc	mov    	dword ptr [0x8fce], eax
  0x16e2	movdqu  	xmmword ptr [0x8fce], xmm0
  0x16ea	dec    	eax
  0x16eb	mov    	dword ptr [0x8fd7], eax
  0x16f1	mov    	byte ptr [0x8fd8], 1
  === BLOCK LINK ===
    0x16f8
=== CODE BLOCK END ===

=== CODE BLOCK ADDRESS 0x16f8 ===
  0x16f8	mov    	al, 1
  === BLOCK LINK ===
    0x16fa
=== CODE BLOCK END ===

=== CODE BLOCK ADDRESS 0x1680 ===
  0x1680	inc    	eax
  0x1681	push   	ebx
  === BLOCK LINK ===
    0x1682
=== CODE BLOCK END ===

=== CODE BLOCK ADDRESS 0x1700 ===
  0x1700	mov    	ecx, 5
  0x1705	call   	0x1994
  === BLOCK LINK ===
    0x170a
    0x1994
=== CODE BLOCK END ===

=== CODE BLOCK ADDRESS 0x170a ===
  0x170a	int3   	
  0x170b	int3   	
  === BLOCK LINK ===
    0x170c
=== CODE BLOCK END ===

=== CODE BLOCK ADDRESS 0x1711 ===
  0x1711	mov    	eax, ecx
  0x1713	mov    	eax, 0x5a4d
  0x1718	cmp    	word ptr [0xffffe8e1], ax
  0x171f	jne    	0x1799
  === BLOCK LINK ===
    0x1721
    0x1799
=== CODE BLOCK END ===

=== CODE BLOCK ADDRESS 0x1721 ===
  0x1721	dec    	eax
  0x1722	arpl   	word ptr [0xffffe914], cx
  0x1728	dec    	eax
  0x1729	lea    	edx, [0xffffe8d1]
  0x172f	dec    	eax
  === BLOCK LINK ===
    0x1730
=== CODE BLOCK END ===

=== CODE BLOCK ADDRESS 0x1730 ===
  0x1730	add    	ecx, edx
  0x1732	cmp    	dword ptr [ecx], 0x4550
  0x1738	jne    	0x1799
  === BLOCK LINK ===
    0x173a
    0x1799
=== CODE BLOCK END ===

=== CODE BLOCK ADDRESS 0x173a ===
  0x173a	mov    	eax, 0x20b
  0x173f	cmp    	word ptr [ecx + 0x18], ax
  0x1743	jne    	0x1799
  === BLOCK LINK ===
    0x1745
    0x1799
=== CODE BLOCK END ===

=== CODE BLOCK ADDRESS 0x1745 ===
  0x1745	dec    	esp
  0x1746	sub    	eax, edx
  0x1748	movzx  	eax, word ptr [ecx + 0x14]
  0x174c	dec    	eax
  0x174d	lea    	edx, [ecx + 0x18]
  === BLOCK LINK ===
    0x1750
=== CODE BLOCK END ===

=== CODE BLOCK ADDRESS 0x1750 ===
  0x1750	dec    	eax
  0x1751	add    	edx, eax
  0x1753	movzx  	eax, word ptr [ecx + 6]
  0x1757	dec    	eax
  0x1758	lea    	ecx, [eax + eax*4]
  === BLOCK LINK ===
    0x175b
=== CODE BLOCK END ===

=== CODE BLOCK ADDRESS 0x175b ===
  0x175b	dec    	esp
  0x175c	lea    	ecx, [edx + ecx*8]
  === BLOCK LINK ===
    0x175f
=== CODE BLOCK END ===

=== CODE BLOCK ADDRESS 0x1764 ===
  0x1764	cmp    	edx, ecx
  0x1766	je     	0x1780
  === BLOCK LINK ===
    0x1768
    0x1780
=== CODE BLOCK END ===

=== CODE BLOCK ADDRESS 0x1768 ===
  0x1768	mov    	ecx, dword ptr [edx + 0xc]
  0x176b	dec    	esp
  0x176c	cmp    	eax, ecx
  0x176e	jb     	0x177a
  === BLOCK LINK ===
    0x1770
    0x177a
=== CODE BLOCK END ===

=== CODE BLOCK ADDRESS 0x1770 ===
  0x1770	mov    	eax, dword ptr [edx + 8]
  0x1773	add    	eax, ecx
  0x1775	dec    	esp
  0x1776	cmp    	eax, eax
  0x1778	jb     	0x1782
  === BLOCK LINK ===
    0x177a
    0x1782
=== CODE BLOCK END ===

=== CODE BLOCK ADDRESS 0x177a ===
  0x177a	dec    	eax
  0x177b	add    	edx, 0x28
  0x177e	jmp    	0x175f
  === BLOCK LINK ===
    0x1780
    0x175f
=== CODE BLOCK END ===

=== CODE BLOCK ADDRESS 0x1780 ===
  0x1780	xor    	edx, edx
  === BLOCK LINK ===
    0x1782
    0x178b
=== CODE BLOCK END ===

=== CODE BLOCK ADDRESS 0x1787 ===
  0x1787	xor    	al, al
  0x1789	jmp    	0x179f
  === BLOCK LINK ===
    0x178b
    0x179f
=== CODE BLOCK END ===

=== CODE BLOCK ADDRESS 0x178b ===
  0x178b	cmp    	dword ptr [edx + 0x24], 0
  0x178f	jge    	0x1795
  === BLOCK LINK ===
    0x1791
    0x1795
=== CODE BLOCK END ===

=== CODE BLOCK ADDRESS 0x1791 ===
  0x1791	xor    	al, al
  0x1793	jmp    	0x179f
  === BLOCK LINK ===
    0x1795
    0x179f
=== CODE BLOCK END ===

=== CODE BLOCK ADDRESS 0x1795 ===
  0x1795	mov    	al, 1
  0x1797	jmp    	0x179f
  === BLOCK LINK ===
    0x1799
    0x179f
=== CODE BLOCK END ===

=== CODE BLOCK ADDRESS 0x1799 ===
  0x1799	xor    	al, al
  0x179b	jmp    	0x179f
  === BLOCK LINK ===
    0x179d
    0x179f
=== CODE BLOCK END ===

=== CODE BLOCK ADDRESS 0x179d ===
  0x179d	xor    	al, al
  === BLOCK LINK ===
    0x179f
=== CODE BLOCK END ===

=== CODE BLOCK ADDRESS 0x1236 ===
=== CODE BLOCK END ===

=== CODE BLOCK ADDRESS 0x17a5 ===
  0x17a5	push   	ebx
  0x17a6	dec    	eax
  0x17a7	sub    	esp, 0x20
  0x17aa	mov    	bl, cl
  0x17ac	call   	0x1e08
  === BLOCK LINK ===
    0x17b1
=== CODE BLOCK END ===

=== CODE BLOCK ADDRESS 0x17b1 ===
  0x17b1	xor    	edx, edx
  0x17b3	test   	eax, eax
  0x17b5	je     	0x17c2
  === BLOCK LINK ===
    0x17b7
=== CODE BLOCK END ===

=== CODE BLOCK ADDRESS 0x17b7 ===
  0x17b7	test   	bl, bl
  0x17b9	jne    	0x17c2
  === BLOCK LINK ===
    0x17bb
=== CODE BLOCK END ===

=== CODE BLOCK ADDRESS 0x17bb ===
  0x17bb	dec    	eax
  0x17bc	xchg   	dword ptr [0x8f16], edx
  0x17c2	dec    	eax
  0x17c3	add    	esp, 0x20
  0x17c6	pop    	ebx
  === BLOCK LINK ===
    0x17c7
=== CODE BLOCK END ===

=== CODE BLOCK ADDRESS 0x17c7 ===
  0x17c7	ret    	
  === BLOCK LINK ===
    0x17c8
=== CODE BLOCK END ===

=== CODE BLOCK ADDRESS 0x1bbc ===
=== CODE BLOCK END ===

=== CODE BLOCK ADDRESS 0x17ce ===
  0x17ce	cmp    	byte ptr [0x8f0b], 0
  0x17d5	mov    	bl, cl
  0x17d7	je     	0x17dd
  === BLOCK LINK ===
    0x17d9
=== CODE BLOCK END ===

=== CODE BLOCK ADDRESS 0x17d9 ===
  0x17d9	test   	dl, dl
  0x17db	jne    	0x17e9
  === BLOCK LINK ===
    0x17dd
=== CODE BLOCK END ===

=== CODE BLOCK ADDRESS 0x17dd ===
  0x17dd	call   	0x200c
  === BLOCK LINK ===
    0x17e2
=== CODE BLOCK END ===

=== CODE BLOCK ADDRESS 0x17e2 ===
  0x17e2	mov    	cl, bl
  0x17e4	call   	0x200c
  === BLOCK LINK ===
    0x17e9
=== CODE BLOCK END ===

=== CODE BLOCK ADDRESS 0x17e9 ===
  0x17e9	mov    	al, 1
  0x17eb	dec    	eax
  0x17ec	add    	esp, 0x20
  0x17ef	pop    	ebx
  0x17f0	ret    	
  === BLOCK LINK ===
    0x17f1
=== CODE BLOCK END ===

=== CODE BLOCK ADDRESS 0x17f1 ===
  0x17f1	int3   	
  0x17f2	int3   	
  0x17f3	int3   	
  0x17f4	inc    	eax
  0x17f5	push   	ebx
  === BLOCK LINK ===
    0x17f6
=== CODE BLOCK END ===

=== CODE BLOCK ADDRESS 0x17f6 ===
  0x17f6	dec    	eax
  0x17f7	sub    	esp, 0x20
  0x17fa	dec    	eax
  0x17fb	cmp    	dword ptr [0x8e9e], -1
  0x1802	dec    	eax
  === BLOCK LINK ===
    0x1803
=== CODE BLOCK END ===

=== CODE BLOCK ADDRESS 0x1803 ===
  0x1803	mov    	ebx, ecx
  0x1805	jne    	0x180e
  === BLOCK LINK ===
    0x1807
=== CODE BLOCK END ===

=== CODE BLOCK ADDRESS 0x1807 ===
  0x1807	call   	0x1e80
  === BLOCK LINK ===
    0x180c
=== CODE BLOCK END ===

=== CODE BLOCK ADDRESS 0x180c ===
  0x180c	jmp    	0x181d
  === BLOCK LINK ===
    0x180e
=== CODE BLOCK END ===

=== CODE BLOCK ADDRESS 0x180e ===
  0x180e	dec    	eax
  0x180f	mov    	edx, ebx
  0x1811	dec    	eax
  0x1812	lea    	ecx, [0x8e88]
  0x1818	call   	0x1ea4
  === BLOCK LINK ===
    0x181d
=== CODE BLOCK END ===

=== CODE BLOCK ADDRESS 0x181d ===
  0x181d	xor    	edx, edx
  0x181f	test   	eax, eax
  0x1821	dec    	eax
  0x1822	cmove  	edx, ebx
  0x1825	dec    	eax
  === BLOCK LINK ===
    0x1826
=== CODE BLOCK END ===

=== CODE BLOCK ADDRESS 0x1826 ===
  0x1826	mov    	eax, edx
  0x1828	dec    	eax
  0x1829	add    	esp, 0x20
  0x182c	pop    	ebx
  0x182d	ret    	
  === BLOCK LINK ===
    0x182e
=== CODE BLOCK END ===

=== CODE BLOCK ADDRESS 0x1934 ===
  0x1934	mov    	eax, 1
  0x1939	ret    	
  0x193a	int3   	
  0x193b	int3   	
  0x193c	xor    	eax, eax
  === BLOCK LINK ===
    0x193e
=== CODE BLOCK END ===

=== CODE BLOCK ADDRESS 0x182e ===
  0x182e	int3   	
  0x182f	int3   	
  0x1830	dec    	eax
  0x1831	sub    	esp, 0x28
  0x1834	call   	0x17f4
  === BLOCK LINK ===
    0x1839
=== CODE BLOCK END ===

=== CODE BLOCK ADDRESS 0x1839 ===
  0x1839	dec    	eax
  0x183a	neg    	eax
  0x183c	sbb    	eax, eax
  0x183e	neg    	eax
  0x1840	dec    	eax
  === BLOCK LINK ===
    0x1842
=== CODE BLOCK END ===

=== CODE BLOCK ADDRESS 0x1842 ===
  0x1842	dec    	eax
  0x1843	add    	esp, 0x28
  0x1846	ret    	
  0x1847	int3   	
  0x1848	jmp    	0x1e14
  === BLOCK LINK ===
    0x184d
=== CODE BLOCK END ===

=== CODE BLOCK ADDRESS 0x1e7a ===
  0x1e7a	jmp    	dword ptr [0x54d8]
  === BLOCK LINK ===
    0x1e80
=== CODE BLOCK END ===

=== CODE BLOCK ADDRESS 0x184d ===
  0x184d	int3   	
  0x184e	int3   	
  0x184f	int3   	
  0x1850	int3   	
  0x1851	int3   	
  === BLOCK LINK ===
    0x1852
=== CODE BLOCK END ===

=== CODE BLOCK ADDRESS 0x1852 ===
  0x1852	int3   	
  0x1853	int3   	
  0x1854	int3   	
  0x1855	int3   	
  0x1856	int3   	
  === BLOCK LINK ===
    0x1857
=== CODE BLOCK END ===

=== CODE BLOCK ADDRESS 0x1857 ===
  0x1857	int3   	
  0x1858	jno    	0x181b
  === BLOCK LINK ===
    0x185a
=== CODE BLOCK END ===

=== CODE BLOCK ADDRESS 0x185a ===
  0x185a	pop    	edx
  0x185b	cmp    	byte ptr [ebx], bl
  0x185d	pop    	eax
  0x185f	nop    	
  0x1860	inc    	eax
  === BLOCK LINK ===
    0x1861
=== CODE BLOCK END ===

=== CODE BLOCK ADDRESS 0x1861 ===
  0x1861	push   	ebx
  0x1862	dec    	eax
  0x1863	sub    	esp, 0x20
  0x1866	dec    	eax
  0x1867	lea    	eax, [0x57ab]
  === BLOCK LINK ===
    0x186d
=== CODE BLOCK END ===

=== CODE BLOCK ADDRESS 0x186d ===
  0x186d	dec    	eax
  0x186e	mov    	ebx, ecx
  0x1870	dec    	eax
  0x1871	mov    	dword ptr [ecx], eax
  0x1873	test   	dl, 1
  === BLOCK LINK ===
    0x1876
=== CODE BLOCK END ===

=== CODE BLOCK ADDRESS 0x1876 ===
  0x1876	je     	0x187d
  === BLOCK LINK ===
    0x1878
=== CODE BLOCK END ===

=== CODE BLOCK ADDRESS 0x1878 ===
  0x1878	call   	0x1e14
  === BLOCK LINK ===
    0x187d
=== CODE BLOCK END ===

=== CODE BLOCK ADDRESS 0x187d ===
  0x187d	dec    	eax
  0x187e	mov    	eax, ebx
  0x1880	dec    	eax
  0x1881	add    	esp, 0x20
  0x1884	pop    	ebx
  === BLOCK LINK ===
    0x1885
=== CODE BLOCK END ===

=== CODE BLOCK ADDRESS 0x1885 ===
  0x1885	ret    	
  0x1886	int3   	
  0x1887	int3   	
  === BLOCK LINK ===
    0x1888
=== CODE BLOCK END ===

=== CODE BLOCK ADDRESS 0x188d ===
  0x188d	push   	ebp
  0x188e	dec    	eax
  0x188f	mov    	ebp, esp
  0x1891	dec    	eax
  0x1892	sub    	esp, 0x20
  === BLOCK LINK ===
    0x1895
=== CODE BLOCK END ===

=== CODE BLOCK ADDRESS 0x1895 ===
  0x1895	dec    	eax
  0x1896	mov    	eax, dword ptr [0x87f4]
  0x189c	dec    	eax
  0x189d	mov    	ebx, 0x2ddfa232
  0x18a2	cdq    	
  === BLOCK LINK ===
    0x18a3
=== CODE BLOCK END ===

=== CODE BLOCK ADDRESS 0x18a3 ===
  0x18a3	sub    	eax, dword ptr [eax]
  0x18a5	add    	byte ptr [eax + 0x3b], cl
  0x18a8	ret    	
  0x18a9	jne    	0x191f
  === BLOCK LINK ===
    0x18ab
=== CODE BLOCK END ===

=== CODE BLOCK ADDRESS 0x1948 ===
=== CODE BLOCK END ===

=== CODE BLOCK ADDRESS 0x18ab ===
  0x18ab	dec    	eax
  0x18ac	and    	dword ptr [ebp + 0x18], 0
  0x18b0	dec    	eax
  0x18b1	lea    	ecx, [ebp + 0x18]
  0x18b4	call   	dword ptr [0x5a6e]
  === BLOCK LINK ===
    0x18ba
=== CODE BLOCK END ===

=== CODE BLOCK ADDRESS 0x18ba ===
  0x18ba	dec    	eax
  0x18bb	mov    	eax, dword ptr [ebp + 0x18]
  0x18be	dec    	eax
  0x18bf	mov    	dword ptr [ebp + 0x10], eax
  0x18c2	call   	dword ptr [0x59b0]
  === BLOCK LINK ===
    0x18c8
=== CODE BLOCK END ===

=== CODE BLOCK ADDRESS 0x18c8 ===
  0x18c8	mov    	eax, eax
  0x18ca	dec    	eax
  0x18cb	xor    	dword ptr [ebp + 0x10], eax
  0x18ce	call   	dword ptr [0x599c]
  === BLOCK LINK ===
    0x18d4
=== CODE BLOCK END ===

=== CODE BLOCK ADDRESS 0x18d4 ===
  0x18d4	mov    	eax, eax
  0x18d6	dec    	eax
  0x18d7	lea    	ecx, [ebp + 0x20]
  0x18da	dec    	eax
  0x18db	xor    	dword ptr [ebp + 0x10], eax
  === BLOCK LINK ===
    0x18de
=== CODE BLOCK END ===

=== CODE BLOCK ADDRESS 0x18de ===
  0x18de	call   	dword ptr [0x59cc]
  === BLOCK LINK ===
    0x18e4
=== CODE BLOCK END ===

=== CODE BLOCK ADDRESS 0x18e4 ===
  0x18e4	mov    	eax, dword ptr [ebp + 0x20]
  0x18e7	dec    	eax
  0x18e8	lea    	ecx, [ebp + 0x10]
  0x18eb	dec    	eax
  0x18ec	shl    	eax, 0x20
  === BLOCK LINK ===
    0x18ef
=== CODE BLOCK END ===

=== CODE BLOCK ADDRESS 0x18ef ===
  0x18ef	dec    	eax
  0x18f0	xor    	eax, dword ptr [ebp + 0x20]
  0x18f3	dec    	eax
  0x18f4	xor    	eax, dword ptr [ebp + 0x10]
  0x18f7	dec    	eax
  === BLOCK LINK ===
    0x18f8
=== CODE BLOCK END ===

=== CODE BLOCK ADDRESS 0x18f8 ===
  0x18f8	xor    	eax, ecx
  0x18fa	dec    	eax
  0x18fb	mov    	ecx, 0xffffffff
  0x1900	.byte  	0xff
  0x1901	inc    	dword ptr [eax]
  === BLOCK LINK ===
    0x1903
=== CODE BLOCK END ===

=== CODE BLOCK ADDRESS 0x1903 ===
  0x1903	add    	byte ptr [eax + 0x23], cl
  0x1906	ror    	dword ptr [eax - 0x47], 0x33
  0x190a	mov    	byte ptr [0x2b992ddf], al
  0x190f	add    	byte ptr [eax], al
  0x1911	dec    	eax
  === BLOCK LINK ===
    0x1912
=== CODE BLOCK END ===

=== CODE BLOCK ADDRESS 0x1912 ===
  0x1912	cmp    	eax, ebx
  0x1914	dec    	eax
  0x1915	cmove  	eax, ecx
  0x1918	dec    	eax
  0x1919	mov    	dword ptr [0x8771], eax
  === BLOCK LINK ===
    0x191f
=== CODE BLOCK END ===

=== CODE BLOCK ADDRESS 0x191f ===
  0x191f	dec    	eax
  0x1920	mov    	ebx, dword ptr [esp + 0x48]
  0x1924	dec    	eax
  0x1925	not    	eax
  0x1927	dec    	eax
  === BLOCK LINK ===
    0x1928
=== CODE BLOCK END ===

=== CODE BLOCK ADDRESS 0x1928 ===
  0x1928	mov    	dword ptr [0x876a], eax
  0x192e	dec    	eax
  0x192f	add    	esp, 0x20
  0x1932	pop    	ebp
  0x1933	ret    	
  === BLOCK LINK ===
    0x1934
=== CODE BLOCK END ===

=== CODE BLOCK ADDRESS 0x195c ===
  0x195c	ret    	0
  0x195f	int3   	
  0x1960	dec    	eax
  0x1961	sub    	esp, 0x28
  0x1964	call   	0x1150
  === BLOCK LINK ===
    0x1969
=== CODE BLOCK END ===

=== CODE BLOCK ADDRESS 0x193e ===
  0x193e	ret    	
  0x193f	int3   	
  0x1940	mov    	eax, 0x4000
  0x1945	ret    	
  0x1946	int3   	
  === BLOCK LINK ===
    0x1947
=== CODE BLOCK END ===

=== CODE BLOCK ADDRESS 0x1e74 ===
  0x1e74	jmp    	dword ptr [0x54d6]
  === BLOCK LINK ===
    0x1e7a
=== CODE BLOCK END ===

=== CODE BLOCK ADDRESS 0x1947 ===
  0x1947	int3   	
  0x1948	dec    	eax
  0x1949	lea    	ecx, [0x8da1]
  0x194f	dec    	eax
  0x1950	jmp    	dword ptr [0x58c2]
  === BLOCK LINK ===
    0x1956
=== CODE BLOCK END ===

=== CODE BLOCK ADDRESS 0x1956 ===
  0x1956	int3   	
  0x1957	int3   	
  0x1958	mov    	al, 1
  0x195a	ret    	
  0x195b	int3   	
  === BLOCK LINK ===
    0x195c
=== CODE BLOCK END ===

=== CODE BLOCK ADDRESS 0x1958 ===
=== CODE BLOCK END ===

=== CODE BLOCK ADDRESS 0x1969 ===
  0x1969	dec    	eax
  0x196a	or     	dword ptr [eax], 0x24
  0x196d	call   	0x1158
  === BLOCK LINK ===
    0x1972
=== CODE BLOCK END ===

=== CODE BLOCK ADDRESS 0x1972 ===
  0x1972	dec    	eax
  0x1973	or     	dword ptr [eax], 2
  0x1976	dec    	eax
  0x1977	add    	esp, 0x28
  0x197a	ret    	
  === BLOCK LINK ===
    0x197b
=== CODE BLOCK END ===

=== CODE BLOCK ADDRESS 0x1e98 ===
  0x1e98	jmp    	dword ptr [0x54ea]
  === BLOCK LINK ===
    0x1e9e
=== CODE BLOCK END ===

=== CODE BLOCK ADDRESS 0x197b ===
  0x197b	int3   	
  === BLOCK LINK ===
    0x197c
=== CODE BLOCK END ===

=== CODE BLOCK ADDRESS 0x1985 ===
  0x1985	lea    	eax, [0x8edd]
  0x198b	ret    	
  0x198c	and    	dword ptr [0x8d6d], 0
  0x1993	ret    	
  0x1994	dec    	eax
  === BLOCK LINK ===
    0x1995
=== CODE BLOCK END ===

=== CODE BLOCK ADDRESS 0x1ae0 ===
=== CODE BLOCK END ===

=== CODE BLOCK ADDRESS 0x1995 ===
  0x1995	mov    	dword ptr [esp + 8], ebx
  0x1999	push   	ebp
  0x199a	dec    	eax
  0x199b	lea    	ebp, [esp - 0x4c0]
  0x19a2	dec    	eax
  === BLOCK LINK ===
    0x19a3
=== CODE BLOCK END ===

=== CODE BLOCK ADDRESS 0x19a3 ===
  0x19a3	sub    	esp, 0x5c0
  0x19a9	mov    	ebx, ecx
  0x19ab	mov    	ecx, 0x17
  0x19b0	call   	dword ptr [0x58ea]
  === BLOCK LINK ===
    0x19b6
=== CODE BLOCK END ===

=== CODE BLOCK ADDRESS 0x19b6 ===
  0x19b6	test   	eax, eax
  0x19b8	je     	0x19be
  === BLOCK LINK ===
    0x19ba
=== CODE BLOCK END ===

=== CODE BLOCK ADDRESS 0x19ba ===
  0x19ba	mov    	ecx, ebx
  0x19bc	int    	0x29
  0x19be	mov    	ecx, 3
  0x19c3	call   	0x198c
  === BLOCK LINK ===
    0x19c8
=== CODE BLOCK END ===

=== CODE BLOCK ADDRESS 0x19c8 ===
  0x19c8	xor    	edx, edx
  0x19ca	dec    	eax
  0x19cb	lea    	ecx, [ebp - 0x10]
  0x19ce	inc    	ecx
  0x19cf	mov    	eax, 0x4d0
  === BLOCK LINK ===
    0x19d4
=== CODE BLOCK END ===

=== CODE BLOCK ADDRESS 0x19d4 ===
  0x19d4	call   	0x1ee6
  === BLOCK LINK ===
    0x19d9
=== CODE BLOCK END ===

=== CODE BLOCK ADDRESS 0x19d9 ===
  0x19d9	dec    	eax
  0x19da	lea    	ecx, [ebp - 0x10]
  0x19dd	call   	dword ptr [0x58e5]
  === BLOCK LINK ===
    0x19e3
=== CODE BLOCK END ===

=== CODE BLOCK ADDRESS 0x19e3 ===
  0x19e3	dec    	eax
  0x19e4	mov    	ebx, dword ptr [ebp + 0xe8]
  0x19ea	dec    	eax
  0x19eb	lea    	edx, [ebp + 0x4d8]
  0x19f1	dec    	eax
  === BLOCK LINK ===
    0x19f2
=== CODE BLOCK END ===

=== CODE BLOCK ADDRESS 0x19f2 ===
  0x19f2	mov    	ecx, ebx
  0x19f4	inc    	ebp
  0x19f5	xor    	eax, eax
  0x19f7	call   	dword ptr [0x58d3]
  === BLOCK LINK ===
    0x19fd
=== CODE BLOCK END ===

=== CODE BLOCK ADDRESS 0x19fd ===
  0x19fd	dec    	eax
  0x19fe	test   	eax, eax
  0x1a00	je     	0x1a3e
  === BLOCK LINK ===
    0x1a02
=== CODE BLOCK END ===

=== CODE BLOCK ADDRESS 0x1a02 ===
  0x1a02	dec    	eax
  0x1a03	and    	dword ptr [esp + 0x38], 0
  0x1a08	dec    	eax
  0x1a09	lea    	ecx, [ebp + 0x4e0]
  0x1a0f	dec    	eax
  === BLOCK LINK ===
    0x1a10
=== CODE BLOCK END ===

=== CODE BLOCK ADDRESS 0x1a10 ===
  0x1a10	mov    	edx, dword ptr [ebp + 0x4d8]
  0x1a16	dec    	esp
  0x1a17	mov    	ecx, eax
  0x1a19	dec    	eax
  0x1a1a	mov    	dword ptr [esp + 0x30], ecx
  === BLOCK LINK ===
    0x1a1e
=== CODE BLOCK END ===

=== CODE BLOCK ADDRESS 0x1a1e ===
  0x1a1e	dec    	esp
  0x1a1f	mov    	eax, ebx
  0x1a21	dec    	eax
  0x1a22	lea    	ecx, [ebp + 0x4e8]
  0x1a28	dec    	eax
  === BLOCK LINK ===
    0x1a29
=== CODE BLOCK END ===

=== CODE BLOCK ADDRESS 0x1a29 ===
  0x1a29	mov    	dword ptr [esp + 0x28], ecx
  0x1a2d	dec    	eax
  0x1a2e	lea    	ecx, [ebp - 0x10]
  0x1a31	dec    	eax
  0x1a32	mov    	dword ptr [esp + 0x20], ecx
  === BLOCK LINK ===
    0x1a36
=== CODE BLOCK END ===

=== CODE BLOCK ADDRESS 0x1a36 ===
  0x1a36	xor    	ecx, ecx
  0x1a38	call   	dword ptr [0x5882]
  === BLOCK LINK ===
    0x1a3e
=== CODE BLOCK END ===

=== CODE BLOCK ADDRESS 0x1a3e ===
  0x1a3e	dec    	eax
  0x1a3f	mov    	eax, dword ptr [ebp + 0x4c8]
  0x1a45	dec    	eax
  0x1a46	lea    	ecx, [esp + 0x50]
  0x1a4a	dec    	eax
  === BLOCK LINK ===
    0x1a4b
=== CODE BLOCK END ===

=== CODE BLOCK ADDRESS 0x1a4b ===
  0x1a4b	mov    	dword ptr [ebp + 0xe8], eax
  0x1a51	xor    	edx, edx
  0x1a53	dec    	eax
  0x1a54	lea    	eax, [ebp + 0x4c8]
  0x1a5a	inc    	ecx
  === BLOCK LINK ===
    0x1a5b
=== CODE BLOCK END ===

=== CODE BLOCK ADDRESS 0x1a5b ===
  0x1a5b	mov    	eax, 0x98
  0x1a60	dec    	eax
  0x1a61	add    	eax, 8
  0x1a64	dec    	eax
  0x1a65	mov    	dword ptr [ebp + 0x88], eax
  === BLOCK LINK ===
    0x1a6b
=== CODE BLOCK END ===

=== CODE BLOCK ADDRESS 0x1a6b ===
  0x1a6b	call   	0x1ee6
  === BLOCK LINK ===
    0x1a70
=== CODE BLOCK END ===

=== CODE BLOCK ADDRESS 0x1a70 ===
  0x1a70	dec    	eax
  0x1a71	mov    	eax, dword ptr [ebp + 0x4c8]
  0x1a77	dec    	eax
  0x1a78	mov    	dword ptr [esp + 0x60], eax
  0x1a7c	mov    	dword ptr [esp + 0x50], 0x40000015
  === BLOCK LINK ===
    0x1a84
=== CODE BLOCK END ===

=== CODE BLOCK ADDRESS 0x1a84 ===
  0x1a84	mov    	dword ptr [esp + 0x54], 1
  0x1a8c	call   	dword ptr [0x570e]
  === BLOCK LINK ===
    0x1a92
=== CODE BLOCK END ===

=== CODE BLOCK ADDRESS 0x1a92 ===
  0x1a92	cmp    	eax, 1
  0x1a95	dec    	eax
  0x1a96	lea    	eax, [esp + 0x50]
  0x1a9a	dec    	eax
  0x1a9b	mov    	dword ptr [esp + 0x40], eax
  === BLOCK LINK ===
    0x1a9f
=== CODE BLOCK END ===

=== CODE BLOCK ADDRESS 0x1a9f ===
  0x1a9f	dec    	eax
  0x1aa0	lea    	eax, [ebp - 0x10]
  0x1aa3	sete   	bl
  0x1aa6	dec    	eax
  0x1aa7	mov    	dword ptr [esp + 0x48], eax
  === BLOCK LINK ===
    0x1aab
=== CODE BLOCK END ===

=== CODE BLOCK ADDRESS 0x1aab ===
  0x1aab	xor    	ecx, ecx
  0x1aad	call   	dword ptr [0x571d]
  === BLOCK LINK ===
    0x1ab3
=== CODE BLOCK END ===

=== CODE BLOCK ADDRESS 0x1ab3 ===
  0x1ab3	dec    	eax
  0x1ab4	lea    	ecx, [esp + 0x40]
  0x1ab8	call   	dword ptr [0x5702]
  === BLOCK LINK ===
    0x1abe
=== CODE BLOCK END ===

=== CODE BLOCK ADDRESS 0x1abe ===
  0x1abe	test   	eax, eax
  0x1ac0	jne    	0x1ace
  === BLOCK LINK ===
    0x1ac2
=== CODE BLOCK END ===

=== CODE BLOCK ADDRESS 0x1ac2 ===
  0x1ac2	test   	bl, bl
  0x1ac4	jne    	0x1ace
  === BLOCK LINK ===
    0x1ac6
=== CODE BLOCK END ===

=== CODE BLOCK ADDRESS 0x1ac6 ===
  0x1ac6	lea    	ecx, [eax + 3]
  0x1ac9	call   	0x198c
  === BLOCK LINK ===
    0x1ace
=== CODE BLOCK END ===

=== CODE BLOCK ADDRESS 0x1ace ===
  0x1ace	dec    	eax
  0x1acf	mov    	ebx, dword ptr [esp + 0x5d0]
  0x1ad6	dec    	eax
  0x1ad7	add    	esp, 0x5c0
  0x1add	pop    	ebp
  === BLOCK LINK ===
    0x1ade
=== CODE BLOCK END ===

=== CODE BLOCK ADDRESS 0x1ade ===
  0x1ade	ret    	
  0x1adf	int3   	
  0x1ae0	jmp    	0x193c
  === BLOCK LINK ===
    0x1ae5
=== CODE BLOCK END ===

=== CODE BLOCK ADDRESS 0x1994 ===
=== CODE BLOCK END ===

=== CODE BLOCK ADDRESS 0x1ae5 ===
  0x1ae5	int3   	
  0x1ae6	int3   	
  0x1ae7	int3   	
  === BLOCK LINK ===
    0x1ae8
=== CODE BLOCK END ===

=== CODE BLOCK ADDRESS 0x1aec ===
  0x1aec	xor    	ecx, ecx
  0x1aee	call   	dword ptr [0x574c]
  === BLOCK LINK ===
    0x1af4
=== CODE BLOCK END ===

=== CODE BLOCK ADDRESS 0x1af4 ===
  0x1af4	dec    	eax
  0x1af5	test   	eax, eax
  0x1af7	je     	0x1b32
  === BLOCK LINK ===
    0x1af9
=== CODE BLOCK END ===

=== CODE BLOCK ADDRESS 0x1af9 ===
  0x1af9	mov    	ecx, 0x5a4d
  0x1afe	cmp    	word ptr [eax], cx
  0x1b01	jne    	0x1b32
  === BLOCK LINK ===
    0x1b03
=== CODE BLOCK END ===

=== CODE BLOCK ADDRESS 0x1b03 ===
  0x1b03	dec    	eax
  0x1b04	arpl   	word ptr [eax + 0x3c], cx
  0x1b07	dec    	eax
  0x1b08	add    	ecx, eax
  0x1b0a	cmp    	dword ptr [ecx], 0x4550
  === BLOCK LINK ===
    0x1b10
=== CODE BLOCK END ===

=== CODE BLOCK ADDRESS 0x1b10 ===
  0x1b10	jne    	0x1b32
  === BLOCK LINK ===
    0x1b12
=== CODE BLOCK END ===

=== CODE BLOCK ADDRESS 0x1b12 ===
  0x1b12	mov    	eax, 0x20b
  0x1b17	cmp    	word ptr [ecx + 0x18], ax
  0x1b1b	jne    	0x1b32
  === BLOCK LINK ===
    0x1b1d
=== CODE BLOCK END ===

=== CODE BLOCK ADDRESS 0x1b1d ===
  0x1b1d	cmp    	dword ptr [ecx + 0x84], 0xe
  0x1b24	jbe    	0x1b32
  === BLOCK LINK ===
    0x1b26
=== CODE BLOCK END ===

=== CODE BLOCK ADDRESS 0x1b26 ===
  0x1b26	cmp    	dword ptr [ecx + 0xf8], 0
  0x1b2d	setne  	al
  0x1b30	jmp    	0x1b34
  === BLOCK LINK ===
    0x1b32
=== CODE BLOCK END ===

=== CODE BLOCK ADDRESS 0x1b32 ===
  0x1b32	xor    	al, al
  0x1b34	dec    	eax
  0x1b35	add    	esp, 0x28
  0x1b38	ret    	
  0x1b39	int3   	
  === BLOCK LINK ===
    0x1b3a
=== CODE BLOCK END ===

=== CODE BLOCK ADDRESS 0x127a ===
  0x127a	mov    	esi, 0x8b000006
  0x127f	enter  	-0x7cb8, -0x3c
  === BLOCK LINK ===
    0x1283
=== CODE BLOCK END ===

=== CODE BLOCK ADDRESS 0x1b3a ===
  0x1b3a	int3   	
  0x1b3b	int3   	
  0x1b3c	dec    	eax
  0x1b3d	lea    	ecx, [0x1d]
  0x1b43	dec    	eax
  === BLOCK LINK ===
    0x1b44
=== CODE BLOCK END ===

=== CODE BLOCK ADDRESS 0x1b44 ===
  0x1b44	jmp    	dword ptr [0x5686]
  === BLOCK LINK ===
    0x1b4a
=== CODE BLOCK END ===

=== CODE BLOCK ADDRESS 0x1b4a ===
  0x1b4a	int3   	
  0x1b4b	int3   	
  0x1b4c	int3   	
  0x1b4d	int3   	
  0x1b4e	int3   	
  === BLOCK LINK ===
    0x1b4f
=== CODE BLOCK END ===

=== CODE BLOCK ADDRESS 0x1b4f ===
  0x1b4f	int3   	
  0x1b50	int3   	
  0x1b51	int3   	
  0x1b52	int3   	
  0x1b53	int3   	
  === BLOCK LINK ===
    0x1b54
=== CODE BLOCK END ===

=== CODE BLOCK ADDRESS 0x1b54 ===
  0x1b54	int3   	
  0x1b55	int3   	
  0x1b56	int3   	
  0x1b57	int3   	
  0x1b58	jno    	0x1aed
  === BLOCK LINK ===
    0x1b5a
=== CODE BLOCK END ===

=== CODE BLOCK ADDRESS 0x1b5a ===
  0x1b5a	rcl    	dword ptr [edx], cl
  0x1b5c	sar    	dword ptr [edi], 0xc1
  0x1b5f	jecxz  	0x1ba9
  === BLOCK LINK ===
    0x1b61
=== CODE BLOCK END ===

=== CODE BLOCK ADDRESS 0x1b61 ===
  0x1b61	mov    	dword ptr [esp + 8], ebx
  0x1b65	push   	edi
  0x1b66	dec    	eax
  0x1b67	sub    	esp, 0x20
  0x1b6a	dec    	eax
  === BLOCK LINK ===
    0x1b6b
=== CODE BLOCK END ===

=== CODE BLOCK ADDRESS 0x1b6b ===
  0x1b6b	mov    	ebx, dword ptr [ecx]
  0x1b6d	dec    	eax
  0x1b6e	mov    	edi, ecx
  0x1b70	cmp    	dword ptr [ebx], 0xe06d7363
  0x1b76	jne    	0x1b94
  === BLOCK LINK ===
    0x1b78
=== CODE BLOCK END ===

=== CODE BLOCK ADDRESS 0x1b78 ===
  0x1b78	cmp    	dword ptr [ebx + 0x18], 4
  0x1b7c	jne    	0x1b94
  === BLOCK LINK ===
    0x1b7e
=== CODE BLOCK END ===

=== CODE BLOCK ADDRESS 0x1b7e ===
  0x1b7e	mov    	edx, dword ptr [ebx + 0x20]
  0x1b81	lea    	eax, [edx - 0x19930520]
  0x1b87	cmp    	eax, 2
  0x1b8a	jbe    	0x1ba1
  === BLOCK LINK ===
    0x1b8c
=== CODE BLOCK END ===

=== CODE BLOCK ADDRESS 0x1b8c ===
  0x1b8c	cmp    	edx, 0x1994000
  0x1b92	je     	0x1ba1
  === BLOCK LINK ===
    0x1b94
=== CODE BLOCK END ===

=== CODE BLOCK ADDRESS 0x1b94 ===
  0x1b94	dec    	eax
  0x1b95	mov    	ebx, dword ptr [esp + 0x30]
  0x1b99	xor    	eax, eax
  0x1b9b	dec    	eax
  0x1b9c	add    	esp, 0x20
  === BLOCK LINK ===
    0x1b9f
=== CODE BLOCK END ===

=== CODE BLOCK ADDRESS 0x1b9f ===
  0x1b9f	pop    	edi
  0x1ba0	ret    	
  0x1ba1	call   	0x1eda
  === BLOCK LINK ===
    0x1ba6
=== CODE BLOCK END ===

=== CODE BLOCK ADDRESS 0x12b2 ===
  0x12b5	call   	0x15f8
  === BLOCK LINK ===
    0x12ba
=== CODE BLOCK END ===

=== CODE BLOCK ADDRESS 0x1ba6 ===
  0x1ba6	dec    	eax
  0x1ba7	mov    	dword ptr [eax], ebx
  0x1ba9	dec    	eax
  0x1baa	mov    	ebx, dword ptr [edi + 8]
  0x1bad	call   	0x1ee0
  === BLOCK LINK ===
    0x1bb2
=== CODE BLOCK END ===

=== CODE BLOCK ADDRESS 0x1bb2 ===
  0x1bb2	dec    	eax
  0x1bb3	mov    	dword ptr [eax], ebx
  0x1bb5	call   	0x1ece
  === BLOCK LINK ===
    0x1bba
=== CODE BLOCK END ===

=== CODE BLOCK ADDRESS 0x1bba ===
  0x1bba	int3   	
  0x1bbb	int3   	
  0x1bbc	dec    	eax
  0x1bbd	mov    	dword ptr [esp + 8], ebx
  0x1bc1	push   	edi
  === BLOCK LINK ===
    0x1bc2
=== CODE BLOCK END ===

=== CODE BLOCK ADDRESS 0x1bc2 ===
  0x1bc2	dec    	eax
  0x1bc3	sub    	esp, 0x20
  0x1bc6	dec    	eax
  0x1bc7	lea    	ebx, [0x6703]
  0x1bcd	dec    	eax
  === BLOCK LINK ===
    0x1bce
=== CODE BLOCK END ===

=== CODE BLOCK ADDRESS 0x1bce ===
  0x1bce	lea    	edi, [0x66fc]
  0x1bd4	jmp    	0x1bf2
  === BLOCK LINK ===
    0x1bd6
=== CODE BLOCK END ===

=== CODE BLOCK ADDRESS 0x1bd6 ===
  0x1bd6	dec    	eax
  0x1bd7	mov    	eax, dword ptr [ebx]
  0x1bd9	dec    	eax
  0x1bda	test   	eax, eax
  0x1bdc	je     	0x1bee
  === BLOCK LINK ===
    0x1bde
=== CODE BLOCK END ===

=== CODE BLOCK ADDRESS 0x1bde ===
  0x1bde	dec    	ecx
  0x1bdf	mov    	edx, 0x56da4870
  0x1be4	xchg   	eax, esi
  0x1be5	int1   	
  0x1be7	test   	edi, edi
  === BLOCK LINK ===
    0x1be9
=== CODE BLOCK END ===

=== CODE BLOCK ADDRESS 0x1be9 ===
  0x1be9	adc    	eax, 0x58aa
  0x1bee	dec    	eax
  0x1bef	add    	ebx, 8
  0x1bf2	dec    	eax
  0x1bf3	cmp    	ebx, edi
  === BLOCK LINK ===
    0x1bf5
=== CODE BLOCK END ===

=== CODE BLOCK ADDRESS 0x1bf5 ===
  0x1bf5	jb     	0x1bd6
  === BLOCK LINK ===
    0x1bf7
=== CODE BLOCK END ===

=== CODE BLOCK ADDRESS 0x1bf7 ===
  0x1bf7	dec    	eax
  0x1bf8	mov    	ebx, dword ptr [esp + 0x30]
  0x1bfc	dec    	eax
  0x1bfd	add    	esp, 0x20
  0x1c00	pop    	edi
  === BLOCK LINK ===
    0x1c01
=== CODE BLOCK END ===

=== CODE BLOCK ADDRESS 0x1c01 ===
  0x1c01	ret    	
  0x1c02	int3   	
  0x1c03	int3   	
  0x1c04	int3   	
  0x1c05	int3   	
  === BLOCK LINK ===
    0x1c06
=== CODE BLOCK END ===

=== CODE BLOCK ADDRESS 0x1634 ===
  0x1634	inc    	eax
  0x1635	push   	ebx
  === BLOCK LINK ===
    0x1636
=== CODE BLOCK END ===

=== CODE BLOCK ADDRESS 0x1c06 ===
  0x1c06	int3   	
  0x1c07	int3   	
  0x1c08	jno    	0x1c52
  === BLOCK LINK ===
    0x1c0a
=== CODE BLOCK END ===

=== CODE BLOCK ADDRESS 0x1c0a ===
  0x1c0a	ficom  	dword ptr [esi - 0x6a]
  0x1c0d	int1   	
  0x1c0f	test   	dword ptr [eax - 0x77], ecx
  0x1c12	pop    	esp
  0x1c13	and    	al, 8
  === BLOCK LINK ===
    0x1c15
=== CODE BLOCK END ===

=== CODE BLOCK ADDRESS 0x1c15 ===
  0x1c15	push   	edi
  0x1c16	dec    	eax
  0x1c17	sub    	esp, 0x20
  0x1c1a	dec    	eax
  0x1c1b	lea    	ebx, [0x66bf]
  === BLOCK LINK ===
    0x1c21
=== CODE BLOCK END ===

=== CODE BLOCK ADDRESS 0x1c21 ===
  0x1c21	dec    	eax
  0x1c22	lea    	edi, [0x66b8]
  0x1c28	jmp    	0x1c46
  === BLOCK LINK ===
    0x1c2a
=== CODE BLOCK END ===

=== CODE BLOCK ADDRESS 0x1c2a ===
  0x1c2a	dec    	eax
  0x1c2b	mov    	eax, dword ptr [ebx]
  0x1c2d	dec    	eax
  0x1c2e	test   	eax, eax
  0x1c30	je     	0x1c42
  === BLOCK LINK ===
    0x1c32
=== CODE BLOCK END ===

=== CODE BLOCK ADDRESS 0x1c32 ===
  0x1c32	dec    	ecx
  0x1c33	mov    	edx, 0x56da4870
  0x1c38	xchg   	eax, esi
  0x1c39	int1   	
  0x1c3b	test   	edi, edi
  === BLOCK LINK ===
    0x1c3d
=== CODE BLOCK END ===

=== CODE BLOCK ADDRESS 0x1c3d ===
  0x1c3d	adc    	eax, 0x5856
  0x1c42	dec    	eax
  0x1c43	add    	ebx, 8
  0x1c46	dec    	eax
  0x1c47	cmp    	ebx, edi
  === BLOCK LINK ===
    0x1c49
=== CODE BLOCK END ===

=== CODE BLOCK ADDRESS 0x1c49 ===
  0x1c49	jb     	0x1c2a
  === BLOCK LINK ===
    0x1c4b
=== CODE BLOCK END ===

=== CODE BLOCK ADDRESS 0x1c4b ===
  0x1c4b	dec    	eax
  0x1c4c	mov    	ebx, dword ptr [esp + 0x30]
  0x1c50	dec    	eax
  0x1c51	add    	esp, 0x20
  0x1c54	pop    	edi
  === BLOCK LINK ===
    0x1c55
=== CODE BLOCK END ===

=== CODE BLOCK ADDRESS 0x1c55 ===
  0x1c55	ret    	
  0x1c56	int3   	
  0x1c57	int3   	
  0x1c58	jno    	0x1c24
  === BLOCK LINK ===
    0x1c5a
=== CODE BLOCK END ===

=== CODE BLOCK ADDRESS 0x13ed ===
=== CODE BLOCK END ===

=== CODE BLOCK ADDRESS 0x1c5a ===
  0x1c5a	ficomp  	dword ptr [edx]
  0x1c5c	mov    	dh, 0x17
  0x1c5e	mov    	eax, 0xc299
  0x1c63	int3   	
  0x1c64	dec    	eax
  === BLOCK LINK ===
    0x1c65
=== CODE BLOCK END ===

=== CODE BLOCK ADDRESS 0x1c65 ===
  0x1c65	mov    	dword ptr [esp + 0x10], ebx
  0x1c69	dec    	eax
  0x1c6a	mov    	dword ptr [esp + 0x18], esi
  0x1c6e	push   	edi
  0x1c6f	dec    	eax
  === BLOCK LINK ===
    0x1c70
=== CODE BLOCK END ===

=== CODE BLOCK ADDRESS 0x1c70 ===
  0x1c70	sub    	esp, 0x10
  0x1c73	xor    	eax, eax
  0x1c75	xor    	ecx, ecx
  0x1c77	cpuid  	
  0x1c79	inc    	esp
  === BLOCK LINK ===
    0x1c7a
=== CODE BLOCK END ===

=== CODE BLOCK ADDRESS 0x1c7a ===
  0x1c7a	mov    	eax, ecx
  0x1c7c	inc    	ebp
  0x1c7d	xor    	ebx, ebx
  0x1c7f	inc    	esp
  0x1c80	mov    	edx, edx
  === BLOCK LINK ===
    0x1c82
=== CODE BLOCK END ===

=== CODE BLOCK ADDRESS 0x1c82 ===
  0x1c82	inc    	ecx
  0x1c83	xor    	eax, 0x6c65746e
  0x1c89	inc    	ecx
  0x1c8a	xor    	edx, 0x49656e69
  0x1c90	inc    	esp
  === BLOCK LINK ===
    0x1c91
=== CODE BLOCK END ===

=== CODE BLOCK ADDRESS 0x1c91 ===
  0x1c91	mov    	ecx, ebx
  0x1c93	mov    	esi, eax
  0x1c95	xor    	ecx, ecx
  0x1c97	inc    	ecx
  0x1c98	lea    	eax, [ebx + 1]
  === BLOCK LINK ===
    0x1c9b
=== CODE BLOCK END ===

=== CODE BLOCK ADDRESS 0x1c9b ===
  0x1c9b	inc    	ebp
  0x1c9c	or     	edx, eax
  0x1c9e	cpuid  	
  0x1ca0	inc    	ecx
  0x1ca1	xor    	ecx, 0x756e6547
  === BLOCK LINK ===
    0x1ca7
=== CODE BLOCK END ===

=== CODE BLOCK ADDRESS 0x1ca7 ===
  0x1ca7	mov    	dword ptr [esp], eax
  0x1caa	inc    	ebp
  0x1cab	or     	edx, ecx
  0x1cad	mov    	dword ptr [esp + 4], ebx
  0x1cb1	mov    	edi, ecx
  === BLOCK LINK ===
    0x1cb3
=== CODE BLOCK END ===

=== CODE BLOCK ADDRESS 0x1cb3 ===
  0x1cb3	mov    	dword ptr [esp + 8], ecx
  0x1cb7	mov    	dword ptr [esp + 0xc], edx
  0x1cbb	jne    	0x1d0d
  === BLOCK LINK ===
    0x1cbd
=== CODE BLOCK END ===

=== CODE BLOCK ADDRESS 0x1cbd ===
  0x1cbd	dec    	eax
  0x1cbe	or     	dword ptr [0x83e3], 0xffffffff
  0x1cc5	and    	eax, 0xfff3ff0
  0x1cca	cmp    	eax, 0x106c0
  0x1ccf	je     	0x1cf9
  === BLOCK LINK ===
    0x1cd1
=== CODE BLOCK END ===

=== CODE BLOCK ADDRESS 0x1cd1 ===
  0x1cd1	cmp    	eax, 0x20660
  0x1cd6	je     	0x1cf9
  === BLOCK LINK ===
    0x1cd8
=== CODE BLOCK END ===

=== CODE BLOCK ADDRESS 0x1cd8 ===
  0x1cd8	cmp    	eax, 0x20670
  0x1cdd	je     	0x1cf9
  === BLOCK LINK ===
    0x1cdf
=== CODE BLOCK END ===

=== CODE BLOCK ADDRESS 0x1cdf ===
  0x1cdf	add    	eax, 0xfffcf9b0
  0x1ce4	cmp    	eax, 0x20
  0x1ce7	ja     	0x1d0d
  === BLOCK LINK ===
    0x1ce9
=== CODE BLOCK END ===

=== CODE BLOCK ADDRESS 0x1ce9 ===
  0x1ce9	dec    	eax
  0x1cea	mov    	ecx, 0x10001
  0x1cef	add    	dword ptr [eax], eax
  0x1cf1	add    	byte ptr [eax], al
  0x1cf3	dec    	eax
  === BLOCK LINK ===
    0x1cf4
=== CODE BLOCK END ===

=== CODE BLOCK ADDRESS 0x1cf4 ===
  0x1cf4	bt     	ecx, eax
  0x1cf7	jae    	0x1d0d
  === BLOCK LINK ===
    0x1cf9
=== CODE BLOCK END ===

=== CODE BLOCK ADDRESS 0x1cf9 ===
  0x1cf9	inc    	esp
  0x1cfa	mov    	eax, dword ptr [0x8a04]
  0x1d00	inc    	ecx
  0x1d01	or     	eax, 1
  0x1d04	inc    	esp
  === BLOCK LINK ===
    0x1d05
=== CODE BLOCK END ===

=== CODE BLOCK ADDRESS 0x1d05 ===
  0x1d05	mov    	dword ptr [0x89f9], eax
  0x1d0b	jmp    	0x1d14
  === BLOCK LINK ===
    0x1d0d
=== CODE BLOCK END ===

=== CODE BLOCK ADDRESS 0x1d0d ===
  0x1d0d	inc    	esp
  0x1d0e	mov    	eax, dword ptr [0x89f0]
  0x1d14	mov    	eax, 7
  0x1d19	inc    	esp
  0x1d1a	lea    	ecx, [eax - 5]
  === BLOCK LINK ===
    0x1d1d
=== CODE BLOCK END ===

=== CODE BLOCK ADDRESS 0x1d1d ===
  0x1d1d	cmp    	esi, eax
  0x1d1f	jl     	0x1d47
  === BLOCK LINK ===
    0x1d21
=== CODE BLOCK END ===

=== CODE BLOCK ADDRESS 0x1d21 ===
  0x1d21	xor    	ecx, ecx
  0x1d23	cpuid  	
  0x1d25	mov    	dword ptr [esp], eax
  0x1d28	inc    	esp
  0x1d29	mov    	ebx, ebx
  === BLOCK LINK ===
    0x1d2b
=== CODE BLOCK END ===

=== CODE BLOCK ADDRESS 0x1d2b ===
  0x1d2b	mov    	dword ptr [esp + 4], ebx
  0x1d2f	mov    	dword ptr [esp + 8], ecx
  0x1d33	mov    	dword ptr [esp + 0xc], edx
  0x1d37	bt     	ebx, 9
  0x1d3b	jae    	0x1d47
  === BLOCK LINK ===
    0x1d3d
=== CODE BLOCK END ===

=== CODE BLOCK ADDRESS 0x1d3d ===
  0x1d3d	inc    	ebp
  0x1d3e	or     	eax, ecx
  0x1d40	inc    	esp
  0x1d41	mov    	dword ptr [0x89bd], eax
  0x1d47	mov    	dword ptr [0x834f], 1
  === BLOCK LINK ===
    0x1d51
=== CODE BLOCK END ===

=== CODE BLOCK ADDRESS 0x1d51 ===
  0x1d51	inc    	esp
  0x1d52	mov    	dword ptr [0x834c], ecx
  0x1d58	bt     	edi, 0x14
  0x1d5c	jae    	0x1df3
  === BLOCK LINK ===
    0x1d62
=== CODE BLOCK END ===

=== CODE BLOCK ADDRESS 0x1d62 ===
  0x1d62	inc    	esp
  0x1d63	mov    	dword ptr [0x8337], ecx
  0x1d69	mov    	ebx, 6
  0x1d6e	mov    	dword ptr [0x8330], ebx
  0x1d74	bt     	edi, 0x1b
  === BLOCK LINK ===
    0x1d78
=== CODE BLOCK END ===

=== CODE BLOCK ADDRESS 0x1d78 ===
  0x1d78	jae    	0x1df3
  === BLOCK LINK ===
    0x1d7a
=== CODE BLOCK END ===

=== CODE BLOCK ADDRESS 0x1d7a ===
  0x1d7a	bt     	edi, 0x1c
  0x1d7e	jae    	0x1df3
  === BLOCK LINK ===
    0x1d80
=== CODE BLOCK END ===

=== CODE BLOCK ADDRESS 0x1d80 ===
  0x1d80	xor    	ecx, ecx
  0x1d82	xgetbv  	
  0x1d85	dec    	eax
  0x1d86	shl    	edx, 0x20
  0x1d89	dec    	eax
  === BLOCK LINK ===
    0x1d8a
=== CODE BLOCK END ===

=== CODE BLOCK ADDRESS 0x1d8a ===
  0x1d8a	or     	edx, eax
  0x1d8c	dec    	eax
  0x1d8d	mov    	dword ptr [esp + 0x20], edx
  0x1d91	dec    	eax
  0x1d92	mov    	eax, dword ptr [esp + 0x20]
  === BLOCK LINK ===
    0x1d96
=== CODE BLOCK END ===

=== CODE BLOCK ADDRESS 0x1d96 ===
  0x1d96	and    	al, bl
  0x1d98	cmp    	al, bl
  0x1d9a	jne    	0x1df3
  === BLOCK LINK ===
    0x1d9c
=== CODE BLOCK END ===

=== CODE BLOCK ADDRESS 0x1d9c ===
  0x1d9c	mov    	eax, dword ptr [0x8302]
  0x1da2	or     	eax, 8
  0x1da5	mov    	dword ptr [0x82f1], 3
  0x1daf	mov    	dword ptr [0x82ef], eax
  0x1db5	inc    	ecx
  === BLOCK LINK ===
    0x1db6
=== CODE BLOCK END ===

=== CODE BLOCK ADDRESS 0x1db6 ===
  0x1db6	test   	bl, 0x20
  0x1db9	je     	0x1df3
  === BLOCK LINK ===
    0x1dbb
=== CODE BLOCK END ===

=== CODE BLOCK ADDRESS 0x1dbb ===
  0x1dbb	or     	eax, 0x20
  0x1dbe	mov    	dword ptr [0x82d8], 5
  0x1dc8	mov    	dword ptr [0x82d6], eax
  0x1dce	mov    	eax, 0xd0030000
  0x1dd3	inc    	esp
  === BLOCK LINK ===
    0x1dd4
=== CODE BLOCK END ===

=== CODE BLOCK ADDRESS 0x1dd4 ===
  0x1dd4	and    	ebx, eax
  0x1dd6	inc    	esp
  0x1dd7	cmp    	ebx, eax
  0x1dd9	jne    	0x1df3
  === BLOCK LINK ===
    0x1ddb
=== CODE BLOCK END ===

=== CODE BLOCK ADDRESS 0x1ddb ===
  0x1ddb	dec    	eax
  0x1ddc	mov    	eax, dword ptr [esp + 0x20]
  0x1de0	and    	al, 0xe0
  0x1de2	cmp    	al, 0xe0
  0x1de4	jne    	0x1df3
  === BLOCK LINK ===
    0x1de6
=== CODE BLOCK END ===

=== CODE BLOCK ADDRESS 0x1de6 ===
  0x1de6	or     	dword ptr [0x82b7], 0x40
  0x1ded	mov    	dword ptr [0x82ad], ebx
  0x1df3	dec    	eax
  0x1df4	mov    	ebx, dword ptr [esp + 0x28]
  0x1df8	xor    	eax, eax
  === BLOCK LINK ===
    0x1dfa
=== CODE BLOCK END ===

=== CODE BLOCK ADDRESS 0x1dfa ===
  0x1dfa	dec    	eax
  0x1dfb	mov    	esi, dword ptr [esp + 0x30]
  0x1dff	dec    	eax
  0x1e00	add    	esp, 0x10
  0x1e03	pop    	edi
  === BLOCK LINK ===
    0x1e04
=== CODE BLOCK END ===

=== CODE BLOCK ADDRESS 0x1e04 ===
  0x1e04	ret    	
  0x1e05	int3   	
  0x1e06	int3   	
  0x1e07	int3   	
  0x1e08	xor    	eax, eax
  === BLOCK LINK ===
    0x1e0a
=== CODE BLOCK END ===

=== CODE BLOCK ADDRESS 0x15f8 ===
=== CODE BLOCK END ===

=== CODE BLOCK ADDRESS 0x1e0a ===
  0x1e0a	cmp    	dword ptr [0x82a0], eax
  0x1e10	setne  	al
  0x1e13	ret    	
  0x1e14	jmp    	0x1ec8
  === BLOCK LINK ===
    0x1e19
=== CODE BLOCK END ===

=== CODE BLOCK ADDRESS 0x13f8 ===
  0x13f8	mov    	ecx, 7
  0x13fd	call   	0x1994
  === BLOCK LINK ===
    0x1402
=== CODE BLOCK END ===

=== CODE BLOCK ADDRESS 0x1e19 ===
  0x1e19	int3   	
  0x1e1a	int3   	
  0x1e1b	int3   	
  0x1e1c	int3   	
  0x1e1d	int3   	
  === BLOCK LINK ===
    0x1e1e
=== CODE BLOCK END ===

=== CODE BLOCK ADDRESS 0x1e1e ===
  0x1e1e	int3   	
  0x1e1f	int3   	
  0x1e20	jmp    	dword ptr [0x5632]
  === BLOCK LINK ===
    0x1e26
=== CODE BLOCK END ===

=== CODE BLOCK ADDRESS 0x1e26 ===
  0x1e26	jmp    	dword ptr [0x561c]
  === BLOCK LINK ===
    0x1e2c
=== CODE BLOCK END ===

=== CODE BLOCK ADDRESS 0x1e2c ===
  0x1e2c	jmp    	dword ptr [0x561e]
  === BLOCK LINK ===
    0x1e32
=== CODE BLOCK END ===

=== CODE BLOCK ADDRESS 0x1e32 ===
  0x1e32	jmp    	dword ptr [0x5628]
  === BLOCK LINK ===
    0x1e38
=== CODE BLOCK END ===

=== CODE BLOCK ADDRESS 0x1e38 ===
  0x1e38	jmp    	dword ptr [0x55f2]
  === BLOCK LINK ===
    0x1e3e
=== CODE BLOCK END ===

=== CODE BLOCK ADDRESS 0x1e3e ===
  0x1e3e	jmp    	dword ptr [0x55e4]
  === BLOCK LINK ===
    0x1e44
=== CODE BLOCK END ===

=== CODE BLOCK ADDRESS 0x1e44 ===
  0x1e44	jmp    	dword ptr [0x55d6]
  === BLOCK LINK ===
    0x1e4a
=== CODE BLOCK END ===

=== CODE BLOCK ADDRESS 0x1e50 ===
  0x1e50	jmp    	dword ptr [0x55ba]
  === BLOCK LINK ===
    0x1e56
=== CODE BLOCK END ===

=== CODE BLOCK ADDRESS 0x1e56 ===
  0x1e56	jmp    	dword ptr [0x55ac]
  === BLOCK LINK ===
    0x1e5c
=== CODE BLOCK END ===

=== CODE BLOCK ADDRESS 0x1e5c ===
  0x1e5c	jmp    	dword ptr [0x559e]
  === BLOCK LINK ===
    0x1e62
=== CODE BLOCK END ===

=== CODE BLOCK ADDRESS 0x1e62 ===
  0x1e62	jmp    	dword ptr [0x54d0]
  === BLOCK LINK ===
    0x1e68
=== CODE BLOCK END ===

=== CODE BLOCK ADDRESS 0x1e68 ===
  0x1e68	jmp    	dword ptr [0x54d2]
  === BLOCK LINK ===
    0x1e6e
=== CODE BLOCK END ===

=== CODE BLOCK ADDRESS 0x1e6e ===
  0x1e6e	jmp    	dword ptr [0x54d4]
  === BLOCK LINK ===
    0x1e74
=== CODE BLOCK END ===

=== CODE BLOCK ADDRESS 0x1e80 ===
  0x1e80	jmp    	dword ptr [0x54da]
  === BLOCK LINK ===
    0x1e86
=== CODE BLOCK END ===

=== CODE BLOCK ADDRESS 0x1e86 ===
  0x1e86	jmp    	dword ptr [0x54e4]
  === BLOCK LINK ===
    0x1e8c
=== CODE BLOCK END ===

=== CODE BLOCK ADDRESS 0x1e8c ===
  0x1e8c	jmp    	dword ptr [0x54e6]
  === BLOCK LINK ===
    0x1e92
=== CODE BLOCK END ===

=== CODE BLOCK ADDRESS 0x1e92 ===
  0x1e92	jmp    	dword ptr [0x54e8]
  === BLOCK LINK ===
    0x1e98
=== CODE BLOCK END ===

=== CODE BLOCK ADDRESS 0x1e9e ===
  0x1e9e	jmp    	dword ptr [0x54ec]
  === BLOCK LINK ===
    0x1ea4
=== CODE BLOCK END ===

=== CODE BLOCK ADDRESS 0x1ea4 ===
  0x1ea4	jmp    	dword ptr [0x54ee]
  === BLOCK LINK ===
    0x1eaa
=== CODE BLOCK END ===

=== CODE BLOCK ADDRESS 0x1eaa ===
  0x1eaa	jmp    	dword ptr [0x54f0]
  === BLOCK LINK ===
    0x1eb0
=== CODE BLOCK END ===

=== CODE BLOCK ADDRESS 0x1ebc ===
  0x1ebc	jmp    	dword ptr [0x54f6]
  === BLOCK LINK ===
    0x1ec2
=== CODE BLOCK END ===

=== CODE BLOCK ADDRESS 0x1ec2 ===
  0x1ec2	jmp    	dword ptr [0x5500]
  === BLOCK LINK ===
    0x1ec8
=== CODE BLOCK END ===

=== CODE BLOCK ADDRESS 0x1ec8 ===
  0x1ec8	jmp    	dword ptr [0x5502]
  === BLOCK LINK ===
    0x1ece
=== CODE BLOCK END ===

=== CODE BLOCK ADDRESS 0x1ece ===
  0x1ece	jmp    	dword ptr [0x5504]
  === BLOCK LINK ===
    0x1ed4
=== CODE BLOCK END ===

=== CODE BLOCK ADDRESS 0x1ed4 ===
  0x1ed4	jmp    	dword ptr [0x550e]
  === BLOCK LINK ===
    0x1eda
=== CODE BLOCK END ===

=== CODE BLOCK ADDRESS 0x1eda ===
  0x1eda	jmp    	dword ptr [0x5510]
  === BLOCK LINK ===
    0x1ee0
=== CODE BLOCK END ===

=== CODE BLOCK ADDRESS 0x1ee0 ===
  0x1ee0	jmp    	dword ptr [0x5512]
  === BLOCK LINK ===
    0x1ee6
=== CODE BLOCK END ===

=== CODE BLOCK ADDRESS 0x1ee6 ===
  0x1ee6	jmp    	dword ptr [0x5584]
  === BLOCK LINK ===
    0x1eec
=== CODE BLOCK END ===

=== CODE BLOCK ADDRESS 0x1eec ===
  0x1eec	dec    	eax
  0x1eed	mov    	dword ptr [esp + 8], ebx
  0x1ef1	dec    	eax
  0x1ef2	mov    	dword ptr [esp + 0x10], ebp
  0x1ef6	dec    	eax
  === BLOCK LINK ===
    0x1ef7
=== CODE BLOCK END ===

=== CODE BLOCK ADDRESS 0x1ef7 ===
  0x1ef7	mov    	dword ptr [esp + 0x18], esi
  0x1efb	push   	edi
  0x1efc	dec    	eax
  0x1efd	sub    	esp, 0x30
  0x1f00	dec    	ecx
  === BLOCK LINK ===
    0x1f01
=== CODE BLOCK END ===

=== CODE BLOCK ADDRESS 0x1f01 ===
  0x1f01	mov    	ebx, ecx
  0x1f03	dec    	ecx
  0x1f04	mov    	edi, eax
  0x1f06	dec    	eax
  0x1f07	mov    	esi, edx
  === BLOCK LINK ===
    0x1f09
=== CODE BLOCK END ===

=== CODE BLOCK ADDRESS 0x1f09 ===
  0x1f09	dec    	eax
  0x1f0a	mov    	ebp, ecx
  0x1f0c	call   	0x1150
  === BLOCK LINK ===
    0x1f11
=== CODE BLOCK END ===

=== CODE BLOCK ADDRESS 0x1f11 ===
  0x1f11	dec    	eax
  0x1f12	mov    	dword ptr [esp + 0x28], ebx
  0x1f16	dec    	esp
  0x1f17	mov    	ecx, edi
  0x1f19	dec    	eax
  === BLOCK LINK ===
    0x1f1a
=== CODE BLOCK END ===

=== CODE BLOCK ADDRESS 0x1f1a ===
  0x1f1a	and    	dword ptr [esp + 0x20], 0
  0x1f1f	dec    	esp
  0x1f20	mov    	eax, esi
  0x1f22	dec    	eax
  0x1f23	mov    	edx, ebp
  === BLOCK LINK ===
    0x1f25
=== CODE BLOCK END ===

=== CODE BLOCK ADDRESS 0x1f25 ===
  0x1f25	dec    	eax
  0x1f26	mov    	ecx, dword ptr [eax]
  0x1f28	dec    	eax
  0x1f29	or     	ecx, 1
  0x1f2c	call   	0x1e62
  === BLOCK LINK ===
    0x1f31
=== CODE BLOCK END ===

=== CODE BLOCK ADDRESS 0x1f31 ===
  0x1f31	dec    	eax
  0x1f32	mov    	ebx, dword ptr [esp + 0x40]
  0x1f36	or     	ecx, 0xffffffff
  0x1f39	dec    	eax
  0x1f3a	mov    	ebp, dword ptr [esp + 0x48]
  === BLOCK LINK ===
    0x1f3e
=== CODE BLOCK END ===

=== CODE BLOCK ADDRESS 0x1f3e ===
  0x1f3e	test   	eax, eax
  0x1f40	dec    	eax
  0x1f41	mov    	esi, dword ptr [esp + 0x50]
  0x1f45	cmovs  	eax, ecx
  0x1f48	dec    	eax
  === BLOCK LINK ===
    0x1f49
=== CODE BLOCK END ===

=== CODE BLOCK ADDRESS 0x1f49 ===
  0x1f49	add    	esp, 0x30
  0x1f4c	pop    	edi
  0x1f4d	ret    	
  0x1f4e	int3   	
  0x1f4f	int3   	
  === BLOCK LINK ===
    0x1f50
=== CODE BLOCK END ===

=== CODE BLOCK ADDRESS 0x1f50 ===
  0x1f50	dec    	esp
  0x1f51	mov    	dword ptr [esp + 0x18], eax
  0x1f55	dec    	esp
  0x1f56	mov    	dword ptr [esp + 0x20], ecx
  0x1f5a	push   	ebx
  === BLOCK LINK ===
    0x1f5b
=== CODE BLOCK END ===

=== CODE BLOCK ADDRESS 0x1f5b ===
  0x1f5b	push   	ebp
  0x1f5c	push   	esi
  0x1f5d	push   	edi
  0x1f5e	dec    	eax
  0x1f5f	sub    	esp, 0x38
  === BLOCK LINK ===
    0x1f62
=== CODE BLOCK END ===

=== CODE BLOCK ADDRESS 0x1f62 ===
  0x1f62	dec    	ecx
  0x1f63	mov    	esi, eax
  0x1f65	dec    	eax
  0x1f66	lea    	ebp, [esp + 0x78]
  0x1f6a	dec    	eax
  === BLOCK LINK ===
    0x1f6b
=== CODE BLOCK END ===

=== CODE BLOCK ADDRESS 0x1f6b ===
  0x1f6b	mov    	ebx, edx
  0x1f6d	dec    	eax
  0x1f6e	mov    	edi, ecx
  0x1f70	call   	0x1150
  === BLOCK LINK ===
    0x1f75
=== CODE BLOCK END ===

=== CODE BLOCK ADDRESS 0x1f75 ===
  0x1f75	dec    	eax
  0x1f76	mov    	dword ptr [esp + 0x28], ebp
  0x1f7a	dec    	esp
  0x1f7b	mov    	ecx, esi
  0x1f7d	dec    	eax
  === BLOCK LINK ===
    0x1f7e
=== CODE BLOCK END ===

=== CODE BLOCK ADDRESS 0x1f7e ===
  0x1f7e	and    	dword ptr [esp + 0x20], 0
  0x1f83	dec    	esp
  0x1f84	mov    	eax, ebx
  0x1f86	dec    	eax
  0x1f87	mov    	edx, edi
  === BLOCK LINK ===
    0x1f89
=== CODE BLOCK END ===

=== CODE BLOCK ADDRESS 0x1f89 ===
  0x1f89	dec    	eax
  0x1f8a	mov    	ecx, dword ptr [eax]
  0x1f8c	call   	0x1e68
  === BLOCK LINK ===
    0x1f91
=== CODE BLOCK END ===

=== CODE BLOCK ADDRESS 0x1f91 ===
  0x1f91	or     	ecx, 0xffffffff
  0x1f94	test   	eax, eax
  0x1f96	cmovs  	eax, ecx
  0x1f99	dec    	eax
  0x1f9a	add    	esp, 0x38
  === BLOCK LINK ===
    0x1f9d
=== CODE BLOCK END ===

=== CODE BLOCK ADDRESS 0x1f9d ===
  0x1f9d	pop    	edi
  0x1f9e	pop    	esi
  0x1f9f	pop    	ebp
  0x1fa0	pop    	ebx
  0x1fa1	ret    	
  === BLOCK LINK ===
    0x1fa2
=== CODE BLOCK END ===

=== CODE BLOCK ADDRESS 0x1fa2 ===
  0x1fa2	int3   	
  0x1fa3	int3   	
  0x1fa4	dec    	eax
  0x1fa5	mov    	dword ptr [esp + 8], ebx
  0x1fa9	dec    	eax
  === BLOCK LINK ===
    0x1faa
=== CODE BLOCK END ===

=== CODE BLOCK ADDRESS 0x1faa ===
  0x1faa	mov    	dword ptr [esp + 0x10], ebp
  0x1fae	dec    	eax
  0x1faf	mov    	dword ptr [esp + 0x18], esi
  0x1fb3	push   	edi
  0x1fb4	dec    	eax
  === BLOCK LINK ===
    0x1fb5
=== CODE BLOCK END ===

=== CODE BLOCK ADDRESS 0x1fb5 ===
  0x1fb5	sub    	esp, 0x40
  0x1fb8	dec    	ecx
  0x1fb9	mov    	ebx, ecx
  0x1fbb	dec    	ecx
  0x1fbc	mov    	edi, eax
  === BLOCK LINK ===
    0x1fbe
=== CODE BLOCK END ===

=== CODE BLOCK ADDRESS 0x1fbe ===
  0x1fbe	dec    	eax
  0x1fbf	mov    	esi, edx
  0x1fc1	dec    	eax
  0x1fc2	mov    	ebp, ecx
  0x1fc4	call   	0x1150
  === BLOCK LINK ===
    0x1fc9
=== CODE BLOCK END ===

=== CODE BLOCK ADDRESS 0x1fc9 ===
  0x1fc9	dec    	esp
  0x1fca	mov    	edx, dword ptr [esp + 0x70]
  0x1fce	dec    	esp
  0x1fcf	mov    	ecx, edi
  0x1fd1	dec    	esp
  === BLOCK LINK ===
    0x1fd2
=== CODE BLOCK END ===

=== CODE BLOCK ADDRESS 0x1fd2 ===
  0x1fd2	mov    	dword ptr [esp + 0x30], edx
  0x1fd6	dec    	esp
  0x1fd7	mov    	eax, esi
  0x1fd9	dec    	eax
  0x1fda	and    	dword ptr [esp + 0x28], 0
  === BLOCK LINK ===
    0x1fdf
=== CODE BLOCK END ===

=== CODE BLOCK ADDRESS 0x1fdf ===
  0x1fdf	dec    	eax
  0x1fe0	mov    	edx, ebp
  0x1fe2	dec    	eax
  0x1fe3	mov    	ecx, dword ptr [eax]
  0x1fe5	dec    	eax
  === BLOCK LINK ===
    0x1fe6
=== CODE BLOCK END ===

=== CODE BLOCK ADDRESS 0x1fe6 ===
  0x1fe6	mov    	dword ptr [esp + 0x20], ebx
  0x1fea	call   	0x1e5c
  === BLOCK LINK ===
    0x1fef
=== CODE BLOCK END ===

=== CODE BLOCK ADDRESS 0x1fef ===
  0x1fef	dec    	eax
  0x1ff0	mov    	ebx, dword ptr [esp + 0x50]
  0x1ff4	or     	ecx, 0xffffffff
  0x1ff7	dec    	eax
  0x1ff8	mov    	ebp, dword ptr [esp + 0x58]
  === BLOCK LINK ===
    0x1ffc
=== CODE BLOCK END ===

=== CODE BLOCK ADDRESS 0x1ffc ===
  0x1ffc	test   	eax, eax
  0x1ffe	dec    	eax
  0x1fff	mov    	esi, dword ptr [esp + 0x60]
  0x2003	cmovs  	eax, ecx
  0x2006	dec    	eax
  === BLOCK LINK ===
    0x2007
=== CODE BLOCK END ===

=== CODE BLOCK ADDRESS 0x2007 ===
  0x2007	add    	esp, 0x40
  0x200a	pop    	edi
  0x200b	ret    	
  === BLOCK LINK ===
    0x200c
=== CODE BLOCK END ===

=== CODE BLOCK ADDRESS 0x13dd ===
  0x13dd	dec    	eax
  0x13de	mov    	ebx, dword ptr [esp + 0x40]
  0x13e2	dec    	eax
  0x13e3	mov    	esi, dword ptr [esp + 0x48]
  === BLOCK LINK ===
    0x13e7
=== CODE BLOCK END ===

=== CODE BLOCK ADDRESS 0x200f ===
  0x200f	int3   	
  0x2010	jmp    	0x272c
  === BLOCK LINK ===
    0x2015
=== CODE BLOCK END ===

=== CODE BLOCK ADDRESS 0x2015 ===
  0x2015	int3   	
  0x2016	int3   	
  0x2017	int3   	
  0x2018	dec    	esp
  0x2019	mov    	ebx, esp
  === BLOCK LINK ===
    0x201b
=== CODE BLOCK END ===

=== CODE BLOCK ADDRESS 0x201b ===
  0x201b	dec    	eax
  0x201c	sub    	esp, 0x58
  0x201f	dec    	ecx
  0x2020	and    	dword ptr [ebx - 0x20], 0
  0x2024	dec    	eax
  === BLOCK LINK ===
    0x2025
=== CODE BLOCK END ===

=== CODE BLOCK ADDRESS 0x2025 ===
  0x2025	mov    	eax, dword ptr [esp + 0x90]
  0x202c	dec    	ecx
  0x202d	mov    	dword ptr [ebx - 0x28], eax
  0x2030	dec    	eax
  0x2031	mov    	eax, dword ptr [esp + 0x88]
  === BLOCK LINK ===
    0x2038
=== CODE BLOCK END ===

=== CODE BLOCK ADDRESS 0x2038 ===
  0x2038	dec    	ecx
  0x2039	mov    	dword ptr [ebx - 0x30], eax
  0x203c	dec    	eax
  0x203d	mov    	eax, dword ptr [esp + 0x80]
  0x2044	dec    	ecx
  === BLOCK LINK ===
    0x2045
=== CODE BLOCK END ===

=== CODE BLOCK ADDRESS 0x2045 ===
  0x2045	mov    	dword ptr [ebx - 0x38], eax
  0x2048	call   	0x2a30
  === BLOCK LINK ===
    0x204d
=== CODE BLOCK END ===

=== CODE BLOCK ADDRESS 0x204d ===
  0x204d	dec    	eax
  0x204e	add    	esp, 0x58
  0x2051	ret    	
  0x2052	int3   	
  0x2053	int3   	
  === BLOCK LINK ===
    0x2054
=== CODE BLOCK END ===

=== CODE BLOCK ADDRESS 0x1e20 ===
=== CODE BLOCK END ===

=== CODE BLOCK ADDRESS 0x2054 ===
  0x2054	dec    	eax
  0x2055	sub    	esp, 0x58
  0x2058	dec    	eax
  0x2059	mov    	eax, dword ptr [esp + 0x90]
  0x2060	dec    	eax
  === BLOCK LINK ===
    0x2061
=== CODE BLOCK END ===

=== CODE BLOCK ADDRESS 0x2061 ===
  0x2061	mov    	dword ptr [esp + 0x30], eax
  0x2065	dec    	eax
  0x2066	mov    	eax, dword ptr [esp + 0x88]
  0x206d	dec    	eax
  0x206e	mov    	dword ptr [esp + 0x28], eax
  === BLOCK LINK ===
    0x2072
=== CODE BLOCK END ===

=== CODE BLOCK ADDRESS 0x2072 ===
  0x2072	call   	0x245c
  === BLOCK LINK ===
    0x2077
=== CODE BLOCK END ===

=== CODE BLOCK ADDRESS 0x2077 ===
  0x2077	int3   	
  0x2078	dec    	eax
  0x2079	mov    	dword ptr [esp + 8], ebx
  0x207d	dec    	eax
  0x207e	mov    	dword ptr [esp + 0x10], esi
  === BLOCK LINK ===
    0x2082
=== CODE BLOCK END ===

=== CODE BLOCK ADDRESS 0x2082 ===
  0x2082	push   	edi
  0x2083	dec    	eax
  0x2084	sub    	esp, 0x70
  0x2087	dec    	eax
  0x2088	mov    	esi, dword ptr [esp + 0xa8]
  === BLOCK LINK ===
    0x208f
=== CODE BLOCK END ===

=== CODE BLOCK ADDRESS 0x208f ===
  0x208f	dec    	esp
  0x2090	lea    	eax, [0x574a]
  0x2096	dec    	eax
  0x2097	mov    	dword ptr [esp + 0x28], esi
  0x209b	mov    	ebx, edx
  === BLOCK LINK ===
    0x209d
=== CODE BLOCK END ===

=== CODE BLOCK ADDRESS 0x209d ===
  0x209d	dec    	eax
  0x209e	mov    	edi, ecx
  0x20a0	call   	0x38f4
  === BLOCK LINK ===
    0x20a5
=== CODE BLOCK END ===

=== CODE BLOCK ADDRESS 0x20a5 ===
  0x20a5	test   	eax, eax
  0x20a7	jle    	0x20b1
  === BLOCK LINK ===
    0x20a9
=== CODE BLOCK END ===

=== CODE BLOCK ADDRESS 0x20a9 ===
  0x20a9	movzx  	eax, ax
  0x20ac	or     	eax, 0x80070000
  0x20b1	mov    	edx, eax
  0x20b3	dec    	eax
  0x20b4	lea    	ecx, [esp + 0x60]
  === BLOCK LINK ===
    0x20b8
=== CODE BLOCK END ===

=== CODE BLOCK ADDRESS 0x20b8 ===
  0x20b8	call   	0x3440
  === BLOCK LINK ===
    0x20bd
=== CODE BLOCK END ===

=== CODE BLOCK ADDRESS 0x20bd ===
  0x20bd	mov    	edx, ebx
  0x20bf	dec    	eax
  0x20c0	mov    	ecx, edi
  0x20c2	movsd  	xmm0, qword ptr [eax]
  0x20c6	mov    	eax, dword ptr [eax + 8]
  === BLOCK LINK ===
    0x20c9
=== CODE BLOCK END ===

=== CODE BLOCK ADDRESS 0x20c9 ===
  0x20c9	mov    	dword ptr [esp + 0x58], eax
  0x20cd	dec    	eax
  0x20ce	lea    	eax, [esp + 0x50]
  0x20d2	dec    	eax
  0x20d3	mov    	dword ptr [esp + 0x30], eax
  === BLOCK LINK ===
    0x20d7
=== CODE BLOCK END ===

=== CODE BLOCK ADDRESS 0x20d7 ===
  0x20d7	dec    	eax
  0x20d8	mov    	dword ptr [esp + 0x28], esi
  0x20dc	movsd  	qword ptr [esp + 0x50], xmm0
  0x20e2	call   	0x2054
  === BLOCK LINK ===
    0x20e7
=== CODE BLOCK END ===

=== CODE BLOCK ADDRESS 0x20e7 ===
  0x20e7	int3   	
  0x20e8	dec    	eax
  0x20e9	mov    	eax, esp
  0x20eb	inc    	ecx
  0x20ec	push   	esi
  === BLOCK LINK ===
    0x20ed
=== CODE BLOCK END ===

=== CODE BLOCK ADDRESS 0x20ed ===
  0x20ed	dec    	eax
  0x20ee	sub    	esp, 0x80
  0x20f4	dec    	eax
  0x20f5	mov    	dword ptr [eax - 0x38], 0xfffffffe
  0x20fc	dec    	eax
  === BLOCK LINK ===
    0x20fd
=== CODE BLOCK END ===

=== CODE BLOCK ADDRESS 0x20fd ===
  0x20fd	mov    	dword ptr [eax + 8], ebx
  0x2100	dec    	eax
  0x2101	mov    	dword ptr [eax + 0x10], ebp
  0x2104	dec    	eax
  0x2105	mov    	dword ptr [eax + 0x18], esi
  === BLOCK LINK ===
    0x2108
=== CODE BLOCK END ===

=== CODE BLOCK ADDRESS 0x2108 ===
  0x2108	dec    	eax
  0x2109	mov    	dword ptr [eax + 0x20], edi
  0x210c	dec    	ecx
  0x210d	mov    	edi, eax
  0x210f	mov    	esi, edx
  === BLOCK LINK ===
    0x2111
=== CODE BLOCK END ===

=== CODE BLOCK ADDRESS 0x2111 ===
  0x2111	dec    	eax
  0x2112	mov    	ebp, ecx
  0x2114	call   	dword ptr [0x50ae]
  === BLOCK LINK ===
    0x211a
=== CODE BLOCK END ===

=== CODE BLOCK ADDRESS 0x211a ===
  0x211a	mov    	ebx, eax
  0x211c	dec    	esp
  0x211d	mov    	esi, dword ptr [esp + 0xb8]
  0x2124	test   	eax, eax
  0x2126	jne    	0x2150
  === BLOCK LINK ===
    0x2128
=== CODE BLOCK END ===

=== CODE BLOCK ADDRESS 0x2128 ===
  0x2128	mov    	dword ptr [esp + 0x30], 0x8007029c
  0x2130	dec    	esp
  0x2131	mov    	dword ptr [esp + 0x28], esi
  0x2135	dec    	eax
  0x2136	and    	dword ptr [esp + 0x20], 0
  === BLOCK LINK ===
    0x213b
=== CODE BLOCK END ===

=== CODE BLOCK ADDRESS 0x213b ===
  0x213b	inc    	ebp
  0x213c	xor    	ecx, ecx
  0x213e	dec    	esp
  0x213f	mov    	eax, edi
  0x2141	mov    	edx, esi
  === BLOCK LINK ===
    0x2143
=== CODE BLOCK END ===

=== CODE BLOCK ADDRESS 0x2143 ===
  0x2143	dec    	eax
  0x2144	mov    	ecx, ebp
  0x2146	call   	0x222c
  === BLOCK LINK ===
    0x214b
=== CODE BLOCK END ===

=== CODE BLOCK ADDRESS 0x214b ===
  0x214b	mov    	ebx, 0x29c
  0x2150	test   	ebx, ebx
  0x2152	jle    	0x215d
  === BLOCK LINK ===
    0x2154
=== CODE BLOCK END ===

=== CODE BLOCK ADDRESS 0x2154 ===
  0x2154	movzx  	ebx, bx
  0x2157	or     	ebx, 0x80070000
  0x215d	mov    	dword ptr [esp + 0x58], ebx
  0x2161	mov    	ecx, ebx
  0x2163	call   	0x3df0
  === BLOCK LINK ===
    0x2168
=== CODE BLOCK END ===

=== CODE BLOCK ADDRESS 0x2168 ===
  0x2168	mov    	dword ptr [esp + 0x5c], eax
  0x216c	mov    	byte ptr [esp + 0x60], 0
  0x2171	movsd  	xmm0, qword ptr [esp + 0x58]
  0x2177	movsd  	qword ptr [esp + 0x68], xmm0
  0x217d	mov    	ecx, dword ptr [esp + 0x60]
  === BLOCK LINK ===
    0x2181
=== CODE BLOCK END ===

=== CODE BLOCK ADDRESS 0x2181 ===
  0x2181	mov    	dword ptr [esp + 0x70], ecx
  0x2185	dec    	eax
  0x2186	and    	dword ptr [esp + 0x38], 0
  0x218b	dec    	eax
  0x218c	lea    	eax, [esp + 0x68]
  === BLOCK LINK ===
    0x2190
=== CODE BLOCK END ===

=== CODE BLOCK ADDRESS 0x2190 ===
  0x2190	dec    	eax
  0x2191	mov    	dword ptr [esp + 0x30], eax
  0x2195	dec    	esp
  0x2196	mov    	dword ptr [esp + 0x28], esi
  0x219a	dec    	esp
  === BLOCK LINK ===
    0x219b
=== CODE BLOCK END ===

=== CODE BLOCK ADDRESS 0x219b ===
  0x219b	mov    	eax, edi
  0x219d	mov    	edx, esi
  0x219f	dec    	eax
  0x21a0	mov    	ecx, ebp
  0x21a2	call   	0x2010
  === BLOCK LINK ===
    0x21a7
=== CODE BLOCK END ===

=== CODE BLOCK ADDRESS 0x21a7 ===
  0x21a7	mov    	eax, ebx
  0x21a9	dec    	esp
  0x21aa	lea    	ebx, [esp + 0x80]
  0x21b1	dec    	ecx
  0x21b2	mov    	ebx, dword ptr [ebx + 0x10]
  === BLOCK LINK ===
    0x21b5
=== CODE BLOCK END ===

=== CODE BLOCK ADDRESS 0x21b5 ===
  0x21b5	dec    	ecx
  0x21b6	mov    	ebp, dword ptr [ebx + 0x18]
  0x21b9	dec    	ecx
  0x21ba	mov    	esi, dword ptr [ebx + 0x20]
  0x21bd	dec    	ecx
  === BLOCK LINK ===
    0x21be
=== CODE BLOCK END ===

=== CODE BLOCK ADDRESS 0x21be ===
  0x21be	mov    	edi, dword ptr [ebx + 0x28]
  0x21c1	dec    	ecx
  0x21c2	mov    	esp, ebx
  0x21c4	inc    	ecx
  0x21c5	pop    	esi
  === BLOCK LINK ===
    0x21c6
=== CODE BLOCK END ===

=== CODE BLOCK ADDRESS 0x21c6 ===
  0x21c6	ret    	
  0x21c7	int3   	
  0x21c8	dec    	eax
  0x21c9	sub    	esp, 0x78
  0x21cc	dec    	esp
  === BLOCK LINK ===
    0x21cd
=== CODE BLOCK END ===

=== CODE BLOCK ADDRESS 0x1321 ===
=== CODE BLOCK END ===

=== CODE BLOCK ADDRESS 0x21cd ===
  0x21cd	mov    	edx, ecx
  0x21cf	inc    	esp
  0x21d0	mov    	ecx, edx
  0x21d2	mov    	ecx, dword ptr [esp + 0xb0]
  0x21d9	mov    	dword ptr [esp + 0x50], ecx
  === BLOCK LINK ===
    0x21dd
=== CODE BLOCK END ===

=== CODE BLOCK ADDRESS 0x21dd ===
  0x21dd	call   	0x3df0
  === BLOCK LINK ===
    0x21e2
=== CODE BLOCK END ===

=== CODE BLOCK ADDRESS 0x21e2 ===
  0x21e2	dec    	eax
  0x21e3	and    	dword ptr [esp + 0x38], 0
  0x21e8	inc    	ecx
  0x21e9	mov    	edx, ecx
  0x21eb	mov    	dword ptr [esp + 0x54], eax
  === BLOCK LINK ===
    0x21ef
=== CODE BLOCK END ===

=== CODE BLOCK ADDRESS 0x21ef ===
  0x21ef	dec    	ecx
  0x21f0	mov    	ecx, edx
  0x21f2	movsd  	xmm0, qword ptr [esp + 0x50]
  0x21f8	mov    	byte ptr [esp + 0x58], 0
  0x21fd	mov    	eax, dword ptr [esp + 0x58]
  === BLOCK LINK ===
    0x2201
=== CODE BLOCK END ===

=== CODE BLOCK ADDRESS 0x2201 ===
  0x2201	mov    	dword ptr [esp + 0x68], eax
  0x2205	dec    	eax
  0x2206	lea    	eax, [esp + 0x60]
  0x220a	dec    	eax
  0x220b	mov    	dword ptr [esp + 0x30], eax
  === BLOCK LINK ===
    0x220f
=== CODE BLOCK END ===

=== CODE BLOCK ADDRESS 0x220f ===
  0x220f	dec    	eax
  0x2210	mov    	eax, dword ptr [esp + 0xa8]
  0x2217	dec    	eax
  0x2218	mov    	dword ptr [esp + 0x28], eax
  0x221c	movsd  	qword ptr [esp + 0x60], xmm0
  === BLOCK LINK ===
    0x2222
=== CODE BLOCK END ===

=== CODE BLOCK ADDRESS 0x2222 ===
  0x2222	call   	0x2010
  === BLOCK LINK ===
    0x2227
=== CODE BLOCK END ===

=== CODE BLOCK ADDRESS 0x2227 ===
  0x2227	dec    	eax
  0x2228	add    	esp, 0x78
  0x222b	ret    	
  0x222c	dec    	eax
  0x222d	sub    	esp, 0x78
  === BLOCK LINK ===
    0x2230
=== CODE BLOCK END ===

=== CODE BLOCK ADDRESS 0x17a4 ===
=== CODE BLOCK END ===

=== CODE BLOCK ADDRESS 0x2230 ===
  0x2230	dec    	esp
  0x2231	mov    	ebx, ecx
  0x2233	inc    	esp
  0x2234	mov    	edx, edx
  0x2236	mov    	ecx, dword ptr [esp + 0xb0]
  === BLOCK LINK ===
    0x223d
=== CODE BLOCK END ===

=== CODE BLOCK ADDRESS 0x223d ===
  0x223d	mov    	dword ptr [esp + 0x50], ecx
  0x2241	call   	0x3df0
  === BLOCK LINK ===
    0x2246
=== CODE BLOCK END ===

=== CODE BLOCK ADDRESS 0x2246 ===
  0x2246	mov    	dword ptr [esp + 0x54], eax
  0x224a	inc    	ecx
  0x224b	mov    	edx, edx
  0x224d	movsd  	xmm0, qword ptr [esp + 0x50]
  0x2253	dec    	ecx
  === BLOCK LINK ===
    0x2254
=== CODE BLOCK END ===

=== CODE BLOCK ADDRESS 0x2254 ===
  0x2254	mov    	ecx, ebx
  0x2256	mov    	byte ptr [esp + 0x58], 0
  0x225b	mov    	eax, dword ptr [esp + 0x58]
  0x225f	mov    	dword ptr [esp + 0x68], eax
  0x2263	dec    	eax
  === BLOCK LINK ===
    0x2264
=== CODE BLOCK END ===

=== CODE BLOCK ADDRESS 0x2264 ===
  0x2264	lea    	eax, [esp + 0x60]
  0x2268	dec    	eax
  0x2269	mov    	dword ptr [esp + 0x30], eax
  0x226d	dec    	eax
  0x226e	mov    	eax, dword ptr [esp + 0xa8]
  === BLOCK LINK ===
    0x2275
=== CODE BLOCK END ===

=== CODE BLOCK ADDRESS 0x2275 ===
  0x2275	dec    	eax
  0x2276	mov    	dword ptr [esp + 0x28], eax
  0x227a	dec    	eax
  0x227b	mov    	eax, dword ptr [esp + 0xa0]
  0x2282	dec    	eax
  === BLOCK LINK ===
    0x2283
=== CODE BLOCK END ===

=== CODE BLOCK ADDRESS 0x2283 ===
  0x2283	mov    	dword ptr [esp + 0x20], eax
  0x2287	movsd  	qword ptr [esp + 0x60], xmm0
  0x228d	call   	0x2018
  === BLOCK LINK ===
    0x2292
=== CODE BLOCK END ===

=== CODE BLOCK ADDRESS 0x2292 ===
  0x2292	dec    	eax
  0x2293	add    	esp, 0x78
  0x2296	ret    	
  0x2297	int3   	
  0x2298	dec    	eax
  === BLOCK LINK ===
    0x2299
=== CODE BLOCK END ===

=== CODE BLOCK ADDRESS 0x197c ===
  0x197c	dec    	eax
  0x197d	lea    	eax, [0x8eed]
  0x1983	ret    	
  0x1984	dec    	eax
  === BLOCK LINK ===
    0x1985
=== CODE BLOCK END ===

=== CODE BLOCK ADDRESS 0x2299 ===
  0x2299	sub    	esp, 0x78
  0x229c	dec    	esp
  0x229d	mov    	ecx, ecx
  0x229f	mov    	edx, 0x8000ffff
  0x22a4	dec    	eax
  === BLOCK LINK ===
    0x22a5
=== CODE BLOCK END ===

=== CODE BLOCK ADDRESS 0x22a5 ===
  0x22a5	lea    	ecx, [esp + 0x60]
  0x22a9	call   	0x3440
  === BLOCK LINK ===
    0x22ae
=== CODE BLOCK END ===

=== CODE BLOCK ADDRESS 0x22ae ===
  0x22ae	mov    	edx, 0xb6d
  0x22b3	dec    	ecx
  0x22b4	mov    	ecx, ecx
  0x22b6	movsd  	xmm0, qword ptr [eax]
  0x22ba	mov    	eax, dword ptr [eax + 8]
  === BLOCK LINK ===
    0x22bd
=== CODE BLOCK END ===

=== CODE BLOCK ADDRESS 0x22bd ===
  0x22bd	mov    	dword ptr [esp + 0x58], eax
  0x22c1	dec    	eax
  0x22c2	lea    	eax, [esp + 0x50]
  0x22c6	dec    	eax
  0x22c7	mov    	dword ptr [esp + 0x30], eax
  === BLOCK LINK ===
    0x22cb
=== CODE BLOCK END ===

=== CODE BLOCK ADDRESS 0x22cb ===
  0x22cb	dec    	eax
  0x22cc	mov    	eax, dword ptr [esp + 0xa8]
  0x22d3	dec    	eax
  0x22d4	mov    	dword ptr [esp + 0x28], eax
  0x22d8	movsd  	qword ptr [esp + 0x50], xmm0
  === BLOCK LINK ===
    0x22de
=== CODE BLOCK END ===

=== CODE BLOCK ADDRESS 0x22de ===
  0x22de	call   	0x2054
  === BLOCK LINK ===
    0x22e3
=== CODE BLOCK END ===

=== CODE BLOCK ADDRESS 0x22e3 ===
  0x22e3	int3   	
  0x22e4	dec    	eax
  0x22e5	sub    	esp, 0x78
  0x22e8	dec    	esp
  0x22e9	mov    	edx, ecx
  === BLOCK LINK ===
    0x22eb
=== CODE BLOCK END ===

=== CODE BLOCK ADDRESS 0x22eb ===
  0x22eb	inc    	esp
  0x22ec	mov    	ecx, edx
  0x22ee	mov    	ecx, dword ptr [esp + 0xb0]
  0x22f5	mov    	dword ptr [esp + 0x50], ecx
  0x22f9	call   	0x3df0
  === BLOCK LINK ===
    0x22fe
=== CODE BLOCK END ===

=== CODE BLOCK ADDRESS 0x22fe ===
  0x22fe	mov    	dword ptr [esp + 0x54], eax
  0x2302	inc    	ecx
  0x2303	mov    	edx, ecx
  0x2305	movsd  	xmm0, qword ptr [esp + 0x50]
  0x230b	dec    	ecx
  === BLOCK LINK ===
    0x230c
=== CODE BLOCK END ===

=== CODE BLOCK ADDRESS 0x230c ===
  0x230c	mov    	ecx, edx
  0x230e	mov    	byte ptr [esp + 0x58], 0
  0x2313	mov    	eax, dword ptr [esp + 0x58]
  0x2317	mov    	dword ptr [esp + 0x68], eax
  0x231b	dec    	eax
  === BLOCK LINK ===
    0x231c
=== CODE BLOCK END ===

=== CODE BLOCK ADDRESS 0x231c ===
  0x231c	mov    	eax, dword ptr [esp + 0xc0]
  0x2323	dec    	eax
  0x2324	mov    	dword ptr [esp + 0x40], eax
  0x2328	dec    	eax
  0x2329	mov    	eax, dword ptr [esp + 0xb8]
  === BLOCK LINK ===
    0x2330
=== CODE BLOCK END ===

=== CODE BLOCK ADDRESS 0x2330 ===
  0x2330	dec    	eax
  0x2331	mov    	dword ptr [esp + 0x38], eax
  0x2335	dec    	eax
  0x2336	lea    	eax, [esp + 0x60]
  0x233a	dec    	eax
  === BLOCK LINK ===
    0x233b
=== CODE BLOCK END ===

=== CODE BLOCK ADDRESS 0x233b ===
  0x233b	mov    	dword ptr [esp + 0x30], eax
  0x233f	dec    	eax
  0x2340	mov    	eax, dword ptr [esp + 0xa8]
  0x2347	dec    	eax
  0x2348	mov    	dword ptr [esp + 0x28], eax
  === BLOCK LINK ===
    0x234c
=== CODE BLOCK END ===

=== CODE BLOCK ADDRESS 0x234c ===
  0x234c	movsd  	qword ptr [esp + 0x60], xmm0
  0x2352	call   	0x235c
  === BLOCK LINK ===
    0x2357
=== CODE BLOCK END ===

=== CODE BLOCK ADDRESS 0x2357 ===
  0x2357	dec    	eax
  0x2358	add    	esp, 0x78
  0x235b	ret    	
  0x235c	inc    	eax
  0x235d	push   	ebx
  === BLOCK LINK ===
    0x235e
=== CODE BLOCK END ===

=== CODE BLOCK ADDRESS 0x235e ===
  0x235e	push   	ebp
  0x235f	push   	esi
  0x2360	push   	edi
  0x2361	inc    	ecx
  0x2362	push   	esp
  === BLOCK LINK ===
    0x2363
=== CODE BLOCK END ===

=== CODE BLOCK ADDRESS 0x2363 ===
  0x2363	inc    	ecx
  0x2364	push   	esi
  0x2365	inc    	ecx
  0x2366	push   	edi
  0x2367	mov    	eax, 0x2060
  === BLOCK LINK ===
    0x236c
=== CODE BLOCK END ===

=== CODE BLOCK ADDRESS 0x236c ===
  0x236c	call   	0x6110
  === BLOCK LINK ===
    0x2371
=== CODE BLOCK END ===

=== CODE BLOCK ADDRESS 0x2371 ===
  0x2371	dec    	eax
  0x2372	sub    	esp, eax
  0x2374	dec    	eax
  0x2375	mov    	eax, dword ptr [0x7d15]
  0x237b	dec    	eax
  === BLOCK LINK ===
    0x237c
=== CODE BLOCK END ===

=== CODE BLOCK ADDRESS 0x237c ===
  0x237c	xor    	eax, esp
  0x237e	dec    	eax
  0x237f	mov    	dword ptr [esp + 0x2050], eax
  0x2386	dec    	esp
  0x2387	mov    	ecx, dword ptr [esp + 0x20d8]
  === BLOCK LINK ===
    0x238e
=== CODE BLOCK END ===

=== CODE BLOCK ADDRESS 0x238e ===
  0x238e	inc    	ebp
  0x238f	xor    	esp, esp
  0x2391	dec    	esp
  0x2392	mov    	esi, dword ptr [esp + 0x20c8]
  0x2399	dec    	ecx
  === BLOCK LINK ===
    0x239a
=== CODE BLOCK END ===

=== CODE BLOCK ADDRESS 0x239a ===
  0x239a	mov    	ebp, eax
  0x239c	dec    	esp
  0x239d	mov    	edi, dword ptr [esp + 0x20d0]
  0x23a4	mov    	esi, edx
  0x23a6	dec    	eax
  === BLOCK LINK ===
    0x23a7
=== CODE BLOCK END ===

=== CODE BLOCK ADDRESS 0x23a7 ===
  0x23a7	mov    	ebx, dword ptr [esp + 0x20e0]
  0x23ae	dec    	eax
  0x23af	mov    	edi, ecx
  0x23b1	dec    	ebp
  0x23b2	test   	ecx, ecx
  === BLOCK LINK ===
    0x23b4
=== CODE BLOCK END ===

=== CODE BLOCK ADDRESS 0x23b4 ===
  0x23b4	jne    	0x23be
  === BLOCK LINK ===
    0x23b6
=== CODE BLOCK END ===

=== CODE BLOCK ADDRESS 0x23b6 ===
  0x23b6	inc    	sp
  0x23b8	mov    	dword ptr [esp + 0x50], esp
  0x23bc	jmp    	0x2418
  === BLOCK LINK ===
    0x23be
=== CODE BLOCK END ===

=== CODE BLOCK ADDRESS 0x23be ===
  0x23be	dec    	esp
  0x23bf	lea    	eax, [0x540b]
  0x23c5	mov    	edx, 0x800
  0x23ca	dec    	eax
  0x23cb	test   	ebx, ebx
  === BLOCK LINK ===
    0x23cd
=== CODE BLOCK END ===

=== CODE BLOCK ADDRESS 0x23cd ===
  0x23cd	jne    	0x23db
  === BLOCK LINK ===
    0x23cf
=== CODE BLOCK END ===

=== CODE BLOCK ADDRESS 0x23cf ===
  0x23cf	dec    	eax
  0x23d0	lea    	ecx, [esp + 0x50]
  0x23d4	call   	0x54cc
  === BLOCK LINK ===
    0x23d9
=== CODE BLOCK END ===

=== CODE BLOCK ADDRESS 0x23d9 ===
  0x23d9	jmp    	0x2418
  === BLOCK LINK ===
    0x23db
=== CODE BLOCK END ===

=== CODE BLOCK ADDRESS 0x23db ===
  0x23db	dec    	eax
  0x23dc	lea    	ecx, [esp + 0x1050]
  0x23e3	call   	0x54cc
  === BLOCK LINK ===
    0x23e8
=== CODE BLOCK END ===

=== CODE BLOCK ADDRESS 0x23e8 ===
  0x23e8	dec    	esp
  0x23e9	mov    	ecx, ebx
  0x23eb	dec    	esp
  0x23ec	lea    	eax, [esp + 0x1050]
  0x23f3	mov    	ebx, 0x7ff
  === BLOCK LINK ===
    0x23f8
=== CODE BLOCK END ===

=== CODE BLOCK ADDRESS 0x23f8 ===
  0x23f8	dec    	eax
  0x23f9	lea    	ecx, [esp + 0x50]
  0x23fd	mov    	edx, ebx
  0x23ff	call   	0x1eec
  === BLOCK LINK ===
    0x2404
=== CODE BLOCK END ===

=== CODE BLOCK ADDRESS 0x2404 ===
  0x2404	test   	eax, eax
  0x2406	js     	0x240f
  === BLOCK LINK ===
    0x2408
=== CODE BLOCK END ===

=== CODE BLOCK ADDRESS 0x2408 ===
  0x2408	dec    	eax
  0x2409	cwde   	
  0x240a	dec    	eax
  0x240b	cmp    	eax, ebx
  0x240d	jb     	0x2418
  === BLOCK LINK ===
    0x240f
=== CODE BLOCK END ===

=== CODE BLOCK ADDRESS 0x240f ===
  0x240f	inc    	sp
  0x2411	mov    	dword ptr [esp + 0x104e], esp
  0x2418	dec    	eax
  0x2419	lea    	eax, [esp + 0x50]
  0x241d	dec    	esp
  === BLOCK LINK ===
    0x241e
=== CODE BLOCK END ===

=== CODE BLOCK ADDRESS 0x241e ===
  0x241e	mov    	eax, ebp
  0x2420	dec    	eax
  0x2421	mov    	dword ptr [esp + 0x38], eax
  0x2425	mov    	edx, esi
  0x2427	dec    	esp
  === BLOCK LINK ===
    0x2428
=== CODE BLOCK END ===

=== CODE BLOCK ADDRESS 0x2428 ===
  0x2428	mov    	dword ptr [esp + 0x30], edi
  0x242c	dec    	eax
  0x242d	mov    	ecx, edi
  0x242f	dec    	esp
  0x2430	mov    	dword ptr [esp + 0x28], esi
  === BLOCK LINK ===
    0x2434
=== CODE BLOCK END ===

=== CODE BLOCK ADDRESS 0x2434 ===
  0x2434	call   	0x2010
  === BLOCK LINK ===
    0x2439
=== CODE BLOCK END ===

=== CODE BLOCK ADDRESS 0x2439 ===
  0x2439	dec    	eax
  0x243a	mov    	ecx, dword ptr [esp + 0x2050]
  0x2441	dec    	eax
  0x2442	xor    	ecx, esp
  0x2444	call   	0x1450
  === BLOCK LINK ===
    0x2449
=== CODE BLOCK END ===

=== CODE BLOCK ADDRESS 0x2449 ===
  0x2449	dec    	eax
  0x244a	add    	esp, 0x2060
  0x2450	inc    	ecx
  0x2451	pop    	edi
  0x2452	inc    	ecx
  === BLOCK LINK ===
    0x2453
=== CODE BLOCK END ===

=== CODE BLOCK ADDRESS 0x2453 ===
  0x2453	pop    	esi
  0x2454	inc    	ecx
  0x2455	pop    	esp
  0x2456	pop    	edi
  0x2457	pop    	esi
  === BLOCK LINK ===
    0x2458
=== CODE BLOCK END ===

=== CODE BLOCK ADDRESS 0x2458 ===
  0x2458	pop    	ebp
  0x2459	pop    	ebx
  0x245a	ret    	
  0x245b	int3   	
  0x245c	inc    	eax
  === BLOCK LINK ===
    0x245d
=== CODE BLOCK END ===

=== CODE BLOCK ADDRESS 0x170c ===
  0x170c	dec    	eax
  0x170d	sub    	esp, 0x18
  0x1710	dec    	esp
  === BLOCK LINK ===
    0x1711
=== CODE BLOCK END ===

=== CODE BLOCK ADDRESS 0x245d ===
  0x245d	push   	ebp
  0x245e	push   	edi
  0x245f	inc    	ecx
  0x2460	push   	esp
  0x2461	inc    	ecx
  === BLOCK LINK ===
    0x2462
=== CODE BLOCK END ===

=== CODE BLOCK ADDRESS 0x2462 ===
  0x2462	push   	esi
  0x2463	inc    	ecx
  0x2464	push   	edi
  0x2465	dec    	eax
  0x2466	lea    	ebp, [esp - 0x13d0]
  === BLOCK LINK ===
    0x246d
=== CODE BLOCK END ===

=== CODE BLOCK ADDRESS 0x246d ===
  0x246d	mov    	eax, 0x14d0
  0x2472	call   	0x6110
  === BLOCK LINK ===
    0x2477
=== CODE BLOCK END ===

=== CODE BLOCK ADDRESS 0x2477 ===
  0x2477	dec    	eax
  0x2478	sub    	esp, eax
  0x247a	dec    	eax
  0x247b	mov    	dword ptr [ebp - 0x40], 0xfffffffe
  0x2482	dec    	eax
  === BLOCK LINK ===
    0x2483
=== CODE BLOCK END ===

=== CODE BLOCK ADDRESS 0x2483 ===
  0x2483	mov    	dword ptr [esp + 0x1510], ebx
  0x248a	dec    	eax
  0x248b	mov    	dword ptr [esp + 0x1518], esi
  0x2492	inc    	esp
  0x2493	mov    	esi, edx
  === BLOCK LINK ===
    0x2495
=== CODE BLOCK END ===

=== CODE BLOCK ADDRESS 0x2495 ===
  0x2495	dec    	esp
  0x2496	mov    	edi, ecx
  0x2498	dec    	eax
  0x2499	mov    	esi, dword ptr [ebp + 0x1428]
  0x249f	inc    	ebp
  === BLOCK LINK ===
    0x24a0
=== CODE BLOCK END ===

=== CODE BLOCK ADDRESS 0x24a0 ===
  0x24a0	xor    	esp, esp
  0x24a2	inc    	sp
  0x24a4	mov    	dword ptr [ebp + 0x3d0], esp
  0x24aa	inc    	esp
  0x24ab	mov    	byte ptr [ebp - 0x30], ah
  === BLOCK LINK ===
    0x24ae
=== CODE BLOCK END ===

=== CODE BLOCK ADDRESS 0x24ae ===
  0x24ae	dec    	eax
  0x24af	mov    	ebx, dword ptr [ebp + 0x1430]
  0x24b5	mov    	ecx, dword ptr [ebx]
  0x24b7	mov    	dword ptr [esp + 0x28], ecx
  0x24bb	mov    	eax, dword ptr [ebx + 4]
  === BLOCK LINK ===
    0x24be
=== CODE BLOCK END ===

=== CODE BLOCK ADDRESS 0x24be ===
  0x24be	mov    	dword ptr [esp + 0x2c], eax
  0x24c2	call   	0x4780
  === BLOCK LINK ===
    0x24c7
=== CODE BLOCK END ===

=== CODE BLOCK ADDRESS 0x24c7 ===
  0x24c7	mov    	edi, eax
  0x24c9	mov    	dword ptr [esp + 0x20], 3
  0x24d1	inc    	ecx
  0x24d2	mov    	ecx, esp
  0x24d4	inc    	ecx
  === BLOCK LINK ===
    0x24d5
=== CODE BLOCK END ===

=== CODE BLOCK ADDRESS 0x24d5 ===
  0x24d5	lea    	eax, [esp + 8]
  0x24d9	inc    	esp
  0x24da	cmp    	byte ptr [ebx + 8], ah
  0x24dd	cmovne  	ecx, eax
  0x24e0	mov    	dword ptr [esp + 0x24], ecx
  === BLOCK LINK ===
    0x24e4
=== CODE BLOCK END ===

=== CODE BLOCK ADDRESS 0x24e4 ===
  0x24e4	lea    	ecx, [eax - 7]
  0x24e7	lock xadd  	dword ptr [0x8219], ecx
  0x24ef	inc    	ecx
  0x24f1	mov    	dword ptr [esp + 0x30], ecx
  0x24f5	dec    	esp
  === BLOCK LINK ===
    0x24f6
=== CODE BLOCK END ===

=== CODE BLOCK ADDRESS 0x24f6 ===
  0x24f6	mov    	dword ptr [esp + 0x38], esp
  0x24fa	call   	dword ptr [0x4d78]
  === BLOCK LINK ===
    0x2500
=== CODE BLOCK END ===

=== CODE BLOCK ADDRESS 0x2500 ===
  0x2500	mov    	dword ptr [esp + 0x40], eax
  0x2504	dec    	eax
  0x2505	lea    	eax, [0x52d5]
  0x250b	dec    	eax
  0x250c	mov    	dword ptr [esp + 0x58], eax
  === BLOCK LINK ===
    0x2510
=== CODE BLOCK END ===

=== CODE BLOCK ADDRESS 0x2510 ===
  0x2510	inc    	esp
  0x2511	mov    	dword ptr [esp + 0x60], esi
  0x2515	mov    	dword ptr [esp + 0x64], edi
  0x2519	dec    	esp
  0x251a	mov    	dword ptr [esp + 0x48], esp
  === BLOCK LINK ===
    0x251e
=== CODE BLOCK END ===

=== CODE BLOCK ADDRESS 0x251e ===
  0x251e	dec    	esp
  0x251f	mov    	dword ptr [esp + 0x50], esp
  0x2523	dec    	eax
  0x2524	mov    	dword ptr [ebp - 0x58], esi
  0x2527	dec    	esp
  === BLOCK LINK ===
    0x2528
=== CODE BLOCK END ===

=== CODE BLOCK ADDRESS 0x2528 ===
  0x2528	mov    	dword ptr [ebp - 0x50], edi
  0x252b	xorps  	xmm0, xmm0
  0x252e	xor    	eax, eax
  0x2530	movups  	xmmword ptr [ebp - 0x78], xmm0
  0x2534	dec    	eax
  === BLOCK LINK ===
    0x2535
=== CODE BLOCK END ===

=== CODE BLOCK ADDRESS 0x2535 ===
  0x2535	mov    	dword ptr [ebp - 0x68], eax
  0x2538	xorps  	xmm1, xmm1
  0x253b	movups  	xmmword ptr [esp + 0x68], xmm1
  0x2540	movups  	xmmword ptr [esp + 0x78], xmm1
  0x2545	dec    	eax
  === BLOCK LINK ===
    0x2546
=== CODE BLOCK END ===

=== CODE BLOCK ADDRESS 0x2546 ===
  0x2546	mov    	eax, dword ptr [0x826c]
  0x254c	dec    	eax
  0x254d	test   	eax, eax
  0x254f	je     	0x2567
  === BLOCK LINK ===
    0x2551
=== CODE BLOCK END ===

=== CODE BLOCK ADDRESS 0x2551 ===
  0x2551	dec    	ecx
  0x2552	mov    	edx, 0x5ed9c370
  0x2557	adc    	al, 0x27
  0x2559	sub    	ebp, eax
  0x255b	call   	dword ptr [0x4f37]
  === BLOCK LINK ===
    0x2561
=== CODE BLOCK END ===

=== CODE BLOCK ADDRESS 0x2561 ===
  0x2561	dec    	eax
  0x2562	mov    	dword ptr [ebp - 0x60], eax
  0x2565	jmp    	0x256b
  === BLOCK LINK ===
    0x2567
=== CODE BLOCK END ===

=== CODE BLOCK ADDRESS 0x2567 ===
  0x2567	dec    	esp
  0x2568	mov    	dword ptr [ebp - 0x60], esp
  0x256b	dec    	eax
  0x256c	mov    	eax, dword ptr [0x81c6]
  0x2572	dec    	eax
  === BLOCK LINK ===
    0x2573
=== CODE BLOCK END ===

=== CODE BLOCK ADDRESS 0x2573 ===
  0x2573	test   	eax, eax
  0x2575	je     	0x258c
  === BLOCK LINK ===
    0x2577
=== CODE BLOCK END ===

=== CODE BLOCK ADDRESS 0x2577 ===
  0x2577	dec    	ecx
  0x2578	mov    	edx, 0x5e56ba70
  0x257d	add    	eax, 0x48d8113e
  0x2582	lea    	ecx, [esp + 0x20]
  0x2586	call   	dword ptr [0x4f0c]
  === BLOCK LINK ===
    0x258c
=== CODE BLOCK END ===

=== CODE BLOCK ADDRESS 0x258c ===
  0x258c	dec    	eax
  0x258d	mov    	eax, dword ptr [0x81dd]
  0x2593	dec    	eax
  0x2594	test   	eax, eax
  0x2596	je     	0x25b7
  === BLOCK LINK ===
    0x2598
=== CODE BLOCK END ===

=== CODE BLOCK ADDRESS 0x2598 ===
  0x2598	dec    	ecx
  0x2599	mov    	edx, 0x58da1a70
  0x259e	or     	cl, byte ptr [esi]
  0x25a0	sbb    	edx, ebp
  0x25a2	inc    	ecx
  === BLOCK LINK ===
    0x25a3
=== CODE BLOCK END ===

=== CODE BLOCK ADDRESS 0x25a3 ===
  0x25a3	mov    	eax, 0x400
  0x25a8	dec    	eax
  0x25a9	lea    	edx, [ebp - 0x30]
  0x25ac	dec    	eax
  0x25ad	lea    	ecx, [esp + 0x20]
  === BLOCK LINK ===
    0x25b1
=== CODE BLOCK END ===

=== CODE BLOCK ADDRESS 0x25b1 ===
  0x25b1	call   	dword ptr [0x4ee1]
  === BLOCK LINK ===
    0x25b7
=== CODE BLOCK END ===

=== CODE BLOCK ADDRESS 0x25b7 ===
  0x25b7	dec    	eax
  0x25b8	mov    	eax, dword ptr [0x81a2]
  0x25be	dec    	eax
  0x25bf	test   	eax, eax
  0x25c1	je     	0x25d8
  === BLOCK LINK ===
    0x25c3
=== CODE BLOCK END ===

=== CODE BLOCK ADDRESS 0x25c3 ===
  0x25c3	dec    	ecx
  0x25c4	mov    	edx, 0x3cd18a70
  0x25c9	mov    	bh, byte ptr [edi - 0x72b74c68]
  0x25cf	dec    	esp
  0x25d0	and    	al, 0x20
  === BLOCK LINK ===
    0x25d2
=== CODE BLOCK END ===

=== CODE BLOCK ADDRESS 0x25d2 ===
  0x25d2	call   	dword ptr [0x4ec0]
  === BLOCK LINK ===
    0x25d8
=== CODE BLOCK END ===

=== CODE BLOCK ADDRESS 0x25d8 ===
  0x25d8	dec    	eax
  0x25d9	mov    	eax, dword ptr [0x81b1]
  0x25df	dec    	eax
  0x25e0	test   	eax, eax
  0x25e2	je     	0x2600
  === BLOCK LINK ===
    0x25e4
=== CODE BLOCK END ===

=== CODE BLOCK ADDRESS 0x25e4 ===
  0x25e4	test   	byte ptr [esp + 0x24], 2
  0x25e9	jne    	0x2600
  === BLOCK LINK ===
    0x25eb
=== CODE BLOCK END ===

=== CODE BLOCK ADDRESS 0x25eb ===
  0x25eb	dec    	ecx
  0x25ec	mov    	edx, 0x3cd18a70
  0x25f1	mov    	bh, byte ptr [edi - 0x72b74c68]
  0x25f7	dec    	esp
  0x25f8	and    	al, 0x20
  === BLOCK LINK ===
    0x25fa
=== CODE BLOCK END ===

=== CODE BLOCK ADDRESS 0x25fa ===
  0x25fa	call   	dword ptr [0x4e98]
  === BLOCK LINK ===
    0x2600
=== CODE BLOCK END ===

=== CODE BLOCK ADDRESS 0x2600 ===
  0x2600	inc    	esp
  0x2601	cmp    	dword ptr [esp + 0x28], esp
  0x2605	jl     	0x2619
  === BLOCK LINK ===
    0x2607
=== CODE BLOCK END ===

=== CODE BLOCK ADDRESS 0x2607 ===
  0x2607	mov    	ecx, 0x8000ffff
  0x260c	mov    	dword ptr [esp + 0x28], ecx
  0x2610	call   	0x3df0
  === BLOCK LINK ===
    0x2615
=== CODE BLOCK END ===

=== CODE BLOCK ADDRESS 0x2615 ===
  0x2615	mov    	dword ptr [esp + 0x2c], eax
  0x2619	inc    	esp
  0x261a	cmp    	byte ptr [0x8100], ah
  0x2620	jne    	0x264d
  === BLOCK LINK ===
    0x2622
=== CODE BLOCK END ===

=== CODE BLOCK ADDRESS 0x2622 ===
  0x2622	dec    	eax
  0x2623	mov    	eax, dword ptr [0x80e7]
  0x2629	dec    	eax
  0x262a	test   	eax, eax
  0x262c	je     	0x2643
  === BLOCK LINK ===
    0x262e
=== CODE BLOCK END ===

=== CODE BLOCK ADDRESS 0x262e ===
  0x262e	dec    	ecx
  0x262f	mov    	edx, 0x5c5ca270
  0x2634	les    	ebx, ptr [esi + 0x15ffdf94]
  0x263a	pop    	edx
  0x263b	dec    	esi
  === BLOCK LINK ===
    0x263c
=== CODE BLOCK END ===

=== CODE BLOCK ADDRESS 0x263c ===
  0x263c	add    	byte ptr [eax], al
  0x263e	movzx  	eax, al
  0x2641	jmp    	0x2649
  === BLOCK LINK ===
    0x2643
=== CODE BLOCK END ===

=== CODE BLOCK ADDRESS 0x2643 ===
  0x2643	call   	dword ptr [0x4b57]
  === BLOCK LINK ===
    0x2649
=== CODE BLOCK END ===

=== CODE BLOCK ADDRESS 0x2649 ===
  0x2649	test   	eax, eax
  0x264b	je     	0x2654
  === BLOCK LINK ===
    0x264d
=== CODE BLOCK END ===

=== CODE BLOCK ADDRESS 0x264d ===
  0x264d	test   	byte ptr [esp + 0x24], 2
  0x2652	je     	0x268d
  === BLOCK LINK ===
    0x2654
=== CODE BLOCK END ===

=== CODE BLOCK ADDRESS 0x2654 ===
  0x2654	dec    	eax
  0x2655	mov    	eax, dword ptr [0x80cd]
  0x265b	dec    	eax
  0x265c	test   	eax, eax
  0x265e	je     	0x26f1
  === BLOCK LINK ===
    0x2664
=== CODE BLOCK END ===

=== CODE BLOCK ADDRESS 0x2664 ===
  0x2664	inc    	esp
  0x2665	cmp    	byte ptr [0x80dd], ah
  0x266b	jne    	0x26f1
  === BLOCK LINK ===
    0x2671
=== CODE BLOCK END ===

=== CODE BLOCK ADDRESS 0x2671 ===
  0x2671	dec    	ecx
  0x2672	mov    	edx, 0x7ede8170
  0x2677	out    	0xb6, al
  0x2679	nop    	
  0x267a	stc    	
  === BLOCK LINK ===
    0x267b
=== CODE BLOCK END ===

=== CODE BLOCK ADDRESS 0x267b ===
  0x267b	inc    	ebp
  0x267c	xor    	eax, eax
  0x267e	xor    	edx, edx
  0x2680	dec    	eax
  0x2681	lea    	ecx, [esp + 0x20]
  === BLOCK LINK ===
    0x2685
=== CODE BLOCK END ===

=== CODE BLOCK ADDRESS 0x2685 ===
  0x2685	call   	dword ptr [0x4e0d]
  === BLOCK LINK ===
    0x268b
=== CODE BLOCK END ===

=== CODE BLOCK ADDRESS 0x268b ===
  0x268b	jmp    	0x26f1
  === BLOCK LINK ===
    0x268d
=== CODE BLOCK END ===

=== CODE BLOCK ADDRESS 0x268d ===
  0x268d	mov    	ebx, 0x800
  0x2692	dec    	eax
  0x2693	mov    	eax, dword ptr [0x808f]
  0x2699	dec    	eax
  0x269a	test   	eax, eax
  === BLOCK LINK ===
    0x269c
=== CODE BLOCK END ===

=== CODE BLOCK ADDRESS 0x269c ===
  0x269c	je     	0x26c6
  === BLOCK LINK ===
    0x269e
=== CODE BLOCK END ===

=== CODE BLOCK ADDRESS 0x269e ===
  0x269e	inc    	esp
  0x269f	cmp    	byte ptr [0x80a3], ah
  0x26a5	jne    	0x26c6
  === BLOCK LINK ===
    0x26a7
=== CODE BLOCK END ===

=== CODE BLOCK ADDRESS 0x26a7 ===
  0x26a7	dec    	ecx
  0x26a8	mov    	edx, 0x7ede8170
  0x26ad	out    	0xb6, al
  0x26af	nop    	
  0x26b0	stc    	
  === BLOCK LINK ===
    0x26b1
=== CODE BLOCK END ===

=== CODE BLOCK ADDRESS 0x26b1 ===
  0x26b1	inc    	esp
  0x26b2	mov    	eax, ebx
  0x26b4	dec    	eax
  0x26b5	lea    	edx, [ebp + 0x3d0]
  0x26bb	dec    	eax
  === BLOCK LINK ===
    0x26bc
=== CODE BLOCK END ===

=== CODE BLOCK ADDRESS 0x26bc ===
  0x26bc	lea    	ecx, [esp + 0x20]
  0x26c0	call   	dword ptr [0x4dd2]
  === BLOCK LINK ===
    0x26c6
=== CODE BLOCK END ===

=== CODE BLOCK ADDRESS 0x26c6 ===
  0x26c6	inc    	sp
  0x26c8	cmp    	dword ptr [ebp + 0x3d0], esp
  0x26ce	jne    	0x26e4
  === BLOCK LINK ===
    0x26d0
=== CODE BLOCK END ===

=== CODE BLOCK ADDRESS 0x26d0 ===
  0x26d0	dec    	esp
  0x26d1	lea    	eax, [esp + 0x20]
  0x26d5	dec    	eax
  0x26d6	mov    	edx, ebx
  0x26d8	dec    	eax
  === BLOCK LINK ===
    0x26d9
=== CODE BLOCK END ===

=== CODE BLOCK ADDRESS 0x26d9 ===
  0x26d9	lea    	ecx, [ebp + 0x3d0]
  0x26df	call   	0x362c
  === BLOCK LINK ===
    0x26e4
=== CODE BLOCK END ===

=== CODE BLOCK ADDRESS 0x26e4 ===
  0x26e4	dec    	eax
  0x26e5	lea    	ecx, [ebp + 0x3d0]
  0x26eb	call   	dword ptr [0x4abf]
  === BLOCK LINK ===
    0x26f1
=== CODE BLOCK END ===

=== CODE BLOCK ADDRESS 0x26f1 ===
  0x26f1	test   	byte ptr [esp + 0x24], 4
  0x26f6	jne    	0x2701
  === BLOCK LINK ===
    0x26f8
=== CODE BLOCK END ===

=== CODE BLOCK ADDRESS 0x26f8 ===
  0x26f8	inc    	esp
  0x26f9	cmp    	byte ptr [0x8031], ah
  0x26ff	je     	0x271e
  === BLOCK LINK ===
    0x2701
=== CODE BLOCK END ===

=== CODE BLOCK ADDRESS 0x2701 ===
  0x2701	dec    	eax
  0x2702	mov    	eax, dword ptr [0x8078]
  0x2708	dec    	eax
  0x2709	test   	eax, eax
  0x270b	je     	0x271e
  === BLOCK LINK ===
    0x270d
=== CODE BLOCK END ===

=== CODE BLOCK ADDRESS 0x270d ===
  0x270d	dec    	ecx
  0x270e	mov    	edx, 0x56da4870
  0x2713	xchg   	eax, esi
  0x2714	int1   	
  0x2716	test   	edi, edi
  === BLOCK LINK ===
    0x2718
=== CODE BLOCK END ===

=== CODE BLOCK ADDRESS 0x2718 ===
  0x2718	adc    	eax, 0x4d7b
  0x271d	nop    	
  0x271e	dec    	eax
  0x271f	lea    	ecx, [esp + 0x20]
  0x2723	call   	0x5884
  === BLOCK LINK ===
    0x2728
=== CODE BLOCK END ===

=== CODE BLOCK ADDRESS 0x2728 ===
  0x2728	int3   	
  0x2729	int3   	
  0x272a	int3   	
  0x272b	int3   	
  0x272c	inc    	eax
  === BLOCK LINK ===
    0x272d
=== CODE BLOCK END ===

=== CODE BLOCK ADDRESS 0x272d ===
  0x272d	push   	ebp
  0x272e	push   	ebx
  0x272f	push   	esi
  0x2730	push   	edi
  0x2731	inc    	ecx
  === BLOCK LINK ===
    0x2732
=== CODE BLOCK END ===

=== CODE BLOCK ADDRESS 0x2732 ===
  0x2732	push   	esp
  0x2733	inc    	ecx
  0x2734	push   	esi
  0x2735	inc    	ecx
  0x2736	push   	edi
  === BLOCK LINK ===
    0x2737
=== CODE BLOCK END ===

=== CODE BLOCK ADDRESS 0x2737 ===
  0x2737	dec    	eax
  0x2738	lea    	ebp, [esp - 0x13e0]
  0x273f	mov    	eax, 0x14e0
  0x2744	call   	0x6110
  === BLOCK LINK ===
    0x2749
=== CODE BLOCK END ===

=== CODE BLOCK ADDRESS 0x2749 ===
  0x2749	dec    	eax
  0x274a	sub    	esp, eax
  0x274c	dec    	eax
  0x274d	mov    	dword ptr [ebp - 0x40], 0xfffffffe
  0x2754	dec    	eax
  === BLOCK LINK ===
    0x2755
=== CODE BLOCK END ===

=== CODE BLOCK ADDRESS 0x2755 ===
  0x2755	mov    	eax, dword ptr [0x7935]
  0x275b	dec    	eax
  0x275c	xor    	eax, esp
  0x275e	dec    	eax
  0x275f	mov    	dword ptr [ebp + 0x13d0], eax
  === BLOCK LINK ===
    0x2765
=== CODE BLOCK END ===

=== CODE BLOCK ADDRESS 0x2765 ===
  0x2765	dec    	ecx
  0x2766	mov    	esi, eax
  0x2768	mov    	edi, edx
  0x276a	dec    	eax
  0x276b	mov    	ebx, ecx
  === BLOCK LINK ===
    0x276d
=== CODE BLOCK END ===

=== CODE BLOCK ADDRESS 0x276d ===
  0x276d	dec    	esp
  0x276e	mov    	esi, dword ptr [ebp + 0x1448]
  0x2774	inc    	ebp
  0x2775	xor    	esp, esp
  0x2777	inc    	sp
  === BLOCK LINK ===
    0x2779
=== CODE BLOCK END ===

=== CODE BLOCK ADDRESS 0x2779 ===
  0x2779	mov    	dword ptr [ebp + 0x3d0], esp
  0x277f	inc    	esp
  0x2780	mov    	byte ptr [ebp - 0x30], ah
  0x2783	dec    	eax
  0x2784	mov    	edx, dword ptr [ebp + 0x1450]
  === BLOCK LINK ===
    0x278a
=== CODE BLOCK END ===

=== CODE BLOCK ADDRESS 0x278a ===
  0x278a	mov    	ecx, dword ptr [edx]
  0x278c	mov    	dword ptr [esp + 0x28], ecx
  0x2790	mov    	eax, dword ptr [edx + 4]
  0x2793	mov    	dword ptr [esp + 0x2c], eax
  0x2797	call   	0x47a4
  === BLOCK LINK ===
    0x279c
=== CODE BLOCK END ===

=== CODE BLOCK ADDRESS 0x279c ===
  0x279c	inc    	esp
  0x279d	mov    	edi, eax
  0x279f	mov    	dword ptr [esp + 0x20], 1
  0x27a7	inc    	ecx
  0x27a8	mov    	ecx, esp
  === BLOCK LINK ===
    0x27aa
=== CODE BLOCK END ===

=== CODE BLOCK ADDRESS 0x27aa ===
  0x27aa	inc    	ecx
  0x27ab	lea    	eax, [esp + 8]
  0x27af	inc    	esp
  0x27b0	cmp    	byte ptr [edx + 8], ah
  0x27b3	cmovne  	ecx, eax
  === BLOCK LINK ===
    0x27b6
=== CODE BLOCK END ===

=== CODE BLOCK ADDRESS 0x27b6 ===
  0x27b6	mov    	dword ptr [esp + 0x24], ecx
  0x27ba	lea    	ecx, [eax - 7]
  0x27bd	lock xadd  	dword ptr [0x7f43], ecx
  0x27c5	inc    	ecx
  0x27c7	mov    	dword ptr [esp + 0x30], ecx
  === BLOCK LINK ===
    0x27cb
=== CODE BLOCK END ===

=== CODE BLOCK ADDRESS 0x27cb ===
  0x27cb	dec    	eax
  0x27cc	mov    	ecx, dword ptr [ebp + 0x1458]
  0x27d2	dec    	eax
  0x27d3	test   	ecx, ecx
  0x27d5	je     	0x27e2
  === BLOCK LINK ===
    0x27d7
=== CODE BLOCK END ===

=== CODE BLOCK ADDRESS 0x27d7 ===
  0x27d7	inc    	sp
  0x27d9	cmp    	dword ptr [ecx], esp
  0x27db	dec    	eax
  0x27dc	mov    	dword ptr [esp + 0x38], ecx
  0x27e0	jne    	0x27e7
  === BLOCK LINK ===
    0x27e2
=== CODE BLOCK END ===

=== CODE BLOCK ADDRESS 0x27e2 ===
  0x27e2	dec    	esp
  0x27e3	mov    	dword ptr [esp + 0x38], esp
  0x27e7	call   	dword ptr [0x4a8b]
  === BLOCK LINK ===
    0x27ed
=== CODE BLOCK END ===

=== CODE BLOCK ADDRESS 0x27ed ===
  0x27ed	mov    	dword ptr [esp + 0x40], eax
  0x27f1	dec    	eax
  0x27f2	mov    	dword ptr [esp + 0x58], esi
  0x27f6	mov    	dword ptr [esp + 0x60], edi
  0x27fa	inc    	esp
  === BLOCK LINK ===
    0x27fb
=== CODE BLOCK END ===

=== CODE BLOCK ADDRESS 0x27fb ===
  0x27fb	mov    	dword ptr [esp + 0x64], edi
  0x27ff	dec    	esp
  0x2800	mov    	dword ptr [esp + 0x48], esp
  0x2804	dec    	esp
  0x2805	mov    	dword ptr [esp + 0x50], esp
  === BLOCK LINK ===
    0x2809
=== CODE BLOCK END ===

=== CODE BLOCK ADDRESS 0x2809 ===
  0x2809	dec    	esp
  0x280a	mov    	dword ptr [ebp - 0x58], esi
  0x280d	dec    	eax
  0x280e	mov    	dword ptr [ebp - 0x50], ebx
  0x2811	xorps  	xmm0, xmm0
  === BLOCK LINK ===
    0x2814
=== CODE BLOCK END ===

=== CODE BLOCK ADDRESS 0x2814 ===
  0x2814	xor    	eax, eax
  0x2816	movups  	xmmword ptr [ebp - 0x78], xmm0
  0x281a	dec    	eax
  0x281b	mov    	dword ptr [ebp - 0x68], eax
  0x281e	xorps  	xmm1, xmm1
  === BLOCK LINK ===
    0x2821
=== CODE BLOCK END ===

=== CODE BLOCK ADDRESS 0x2821 ===
  0x2821	movups  	xmmword ptr [esp + 0x68], xmm1
  0x2826	movups  	xmmword ptr [esp + 0x78], xmm1
  0x282b	dec    	eax
  0x282c	mov    	eax, dword ptr [0x7f86]
  0x2832	dec    	eax
  === BLOCK LINK ===
    0x2833
=== CODE BLOCK END ===

=== CODE BLOCK ADDRESS 0x2833 ===
  0x2833	test   	eax, eax
  0x2835	je     	0x284d
  === BLOCK LINK ===
    0x2837
=== CODE BLOCK END ===

=== CODE BLOCK ADDRESS 0x2837 ===
  0x2837	dec    	ecx
  0x2838	mov    	edx, 0x5ed9c370
  0x283d	adc    	al, 0x27
  0x283f	sub    	ebp, eax
  0x2841	call   	dword ptr [0x4c51]
  === BLOCK LINK ===
    0x2847
=== CODE BLOCK END ===

=== CODE BLOCK ADDRESS 0x2847 ===
  0x2847	dec    	eax
  0x2848	mov    	dword ptr [ebp - 0x60], eax
  0x284b	jmp    	0x2851
  === BLOCK LINK ===
    0x284d
=== CODE BLOCK END ===

=== CODE BLOCK ADDRESS 0x284d ===
  0x284d	dec    	esp
  0x284e	mov    	dword ptr [ebp - 0x60], esp
  0x2851	dec    	eax
  0x2852	mov    	eax, dword ptr [0x7ee0]
  0x2858	dec    	eax
  === BLOCK LINK ===
    0x2859
=== CODE BLOCK END ===

=== CODE BLOCK ADDRESS 0x2859 ===
  0x2859	test   	eax, eax
  0x285b	je     	0x2872
  === BLOCK LINK ===
    0x285d
=== CODE BLOCK END ===

=== CODE BLOCK ADDRESS 0x285d ===
  0x285d	dec    	ecx
  0x285e	mov    	edx, 0x5e56ba70
  0x2863	add    	eax, 0x48d8113e
  0x2868	lea    	ecx, [esp + 0x20]
  0x286c	call   	dword ptr [0x4c26]
  === BLOCK LINK ===
    0x2872
=== CODE BLOCK END ===

=== CODE BLOCK ADDRESS 0x2872 ===
  0x2872	dec    	eax
  0x2873	mov    	eax, dword ptr [0x7ef7]
  0x2879	dec    	eax
  0x287a	test   	eax, eax
  0x287c	je     	0x289d
  === BLOCK LINK ===
    0x287e
=== CODE BLOCK END ===

=== CODE BLOCK ADDRESS 0x287e ===
  0x287e	dec    	ecx
  0x287f	mov    	edx, 0x58da1a70
  0x2884	or     	cl, byte ptr [esi]
  0x2886	sbb    	edx, ebp
  0x2888	inc    	ecx
  === BLOCK LINK ===
    0x2889
=== CODE BLOCK END ===

=== CODE BLOCK ADDRESS 0x2889 ===
  0x2889	mov    	eax, 0x400
  0x288e	dec    	eax
  0x288f	lea    	edx, [ebp - 0x30]
  0x2892	dec    	eax
  0x2893	lea    	ecx, [esp + 0x20]
  === BLOCK LINK ===
    0x2897
=== CODE BLOCK END ===

=== CODE BLOCK ADDRESS 0x2897 ===
  0x2897	call   	dword ptr [0x4bfb]
  === BLOCK LINK ===
    0x289d
=== CODE BLOCK END ===

=== CODE BLOCK ADDRESS 0x289d ===
  0x289d	dec    	eax
  0x289e	mov    	eax, dword ptr [0x7ebc]
  0x28a4	dec    	eax
  0x28a5	test   	eax, eax
  0x28a7	je     	0x28be
  === BLOCK LINK ===
    0x28a9
=== CODE BLOCK END ===

=== CODE BLOCK ADDRESS 0x28a9 ===
  0x28a9	dec    	ecx
  0x28aa	mov    	edx, 0x3cd18a70
  0x28af	mov    	bh, byte ptr [edi - 0x72b74c68]
  0x28b5	dec    	esp
  0x28b6	and    	al, 0x20
  === BLOCK LINK ===
    0x28b8
=== CODE BLOCK END ===

=== CODE BLOCK ADDRESS 0x28b8 ===
  0x28b8	call   	dword ptr [0x4bda]
  === BLOCK LINK ===
    0x28be
=== CODE BLOCK END ===

=== CODE BLOCK ADDRESS 0x28be ===
  0x28be	dec    	eax
  0x28bf	mov    	eax, dword ptr [0x7ecb]
  0x28c5	dec    	eax
  0x28c6	test   	eax, eax
  0x28c8	je     	0x28e6
  === BLOCK LINK ===
    0x28ca
=== CODE BLOCK END ===

=== CODE BLOCK ADDRESS 0x28ca ===
  0x28ca	test   	byte ptr [esp + 0x24], 2
  0x28cf	jne    	0x28e6
  === BLOCK LINK ===
    0x28d1
=== CODE BLOCK END ===

=== CODE BLOCK ADDRESS 0x28d1 ===
  0x28d1	dec    	ecx
  0x28d2	mov    	edx, 0x3cd18a70
  0x28d7	mov    	bh, byte ptr [edi - 0x72b74c68]
  0x28dd	dec    	esp
  0x28de	and    	al, 0x20
  === BLOCK LINK ===
    0x28e0
=== CODE BLOCK END ===

=== CODE BLOCK ADDRESS 0x28e0 ===
  0x28e0	call   	dword ptr [0x4bb2]
  === BLOCK LINK ===
    0x28e6
=== CODE BLOCK END ===

=== CODE BLOCK ADDRESS 0x28e6 ===
  0x28e6	inc    	esp
  0x28e7	cmp    	dword ptr [esp + 0x28], esp
  0x28eb	jge    	0x2a29
  === BLOCK LINK ===
    0x28f1
=== CODE BLOCK END ===

=== CODE BLOCK ADDRESS 0x28f1 ===
  0x28f1	inc    	esp
  0x28f2	cmp    	byte ptr [0x7e28], ah
  0x28f8	jne    	0x2925
  === BLOCK LINK ===
    0x28fa
=== CODE BLOCK END ===

=== CODE BLOCK ADDRESS 0x28fa ===
  0x28fa	dec    	eax
  0x28fb	mov    	eax, dword ptr [0x7e0f]
  0x2901	dec    	eax
  0x2902	test   	eax, eax
  0x2904	je     	0x291b
  === BLOCK LINK ===
    0x2906
=== CODE BLOCK END ===

=== CODE BLOCK ADDRESS 0x2906 ===
  0x2906	dec    	ecx
  0x2907	mov    	edx, 0x5c5ca270
  0x290c	les    	ebx, ptr [esi + 0x15ffdf94]
  0x2912	or     	byte ptr [ebx], 0
  0x2916	movzx  	eax, al
  === BLOCK LINK ===
    0x2919
=== CODE BLOCK END ===

=== CODE BLOCK ADDRESS 0x2919 ===
  0x2919	jmp    	0x2921
  === BLOCK LINK ===
    0x291b
=== CODE BLOCK END ===

=== CODE BLOCK ADDRESS 0x291b ===
  0x291b	call   	dword ptr [0x487f]
  === BLOCK LINK ===
    0x2921
=== CODE BLOCK END ===

=== CODE BLOCK ADDRESS 0x2921 ===
  0x2921	test   	eax, eax
  0x2923	je     	0x292c
  === BLOCK LINK ===
    0x2925
=== CODE BLOCK END ===

=== CODE BLOCK ADDRESS 0x2925 ===
  0x2925	test   	byte ptr [esp + 0x24], 2
  0x292a	je     	0x2965
  === BLOCK LINK ===
    0x292c
=== CODE BLOCK END ===

=== CODE BLOCK ADDRESS 0x292c ===
  0x292c	dec    	eax
  0x292d	mov    	eax, dword ptr [0x7df5]
  0x2933	dec    	eax
  0x2934	test   	eax, eax
  0x2936	je     	0x29c9
  === BLOCK LINK ===
    0x293c
=== CODE BLOCK END ===

=== CODE BLOCK ADDRESS 0x293c ===
  0x293c	inc    	esp
  0x293d	cmp    	byte ptr [0x7e05], ah
  0x2943	jne    	0x29c9
  === BLOCK LINK ===
    0x2949
=== CODE BLOCK END ===

=== CODE BLOCK ADDRESS 0x2949 ===
  0x2949	dec    	ecx
  0x294a	mov    	edx, 0x7ede8170
  0x294f	out    	0xb6, al
  0x2951	nop    	
  0x2952	stc    	
  === BLOCK LINK ===
    0x2953
=== CODE BLOCK END ===

=== CODE BLOCK ADDRESS 0x2953 ===
  0x2953	inc    	ebp
  0x2954	xor    	eax, eax
  0x2956	xor    	edx, edx
  0x2958	dec    	eax
  0x2959	lea    	ecx, [esp + 0x20]
  === BLOCK LINK ===
    0x295d
=== CODE BLOCK END ===

=== CODE BLOCK ADDRESS 0x295d ===
  0x295d	call   	dword ptr [0x4b35]
  === BLOCK LINK ===
    0x2963
=== CODE BLOCK END ===

=== CODE BLOCK ADDRESS 0x2963 ===
  0x2963	jmp    	0x29c9
  === BLOCK LINK ===
    0x2965
=== CODE BLOCK END ===

=== CODE BLOCK ADDRESS 0x2965 ===
  0x2965	mov    	ebx, 0x800
  0x296a	dec    	eax
  0x296b	mov    	eax, dword ptr [0x7db7]
  0x2971	dec    	eax
  0x2972	test   	eax, eax
  === BLOCK LINK ===
    0x2974
=== CODE BLOCK END ===

=== CODE BLOCK ADDRESS 0x2974 ===
  0x2974	je     	0x299e
  === BLOCK LINK ===
    0x2976
=== CODE BLOCK END ===

=== CODE BLOCK ADDRESS 0x2976 ===
  0x2976	inc    	esp
  0x2977	cmp    	byte ptr [0x7dcb], ah
  0x297d	jne    	0x299e
  === BLOCK LINK ===
    0x297f
=== CODE BLOCK END ===

=== CODE BLOCK ADDRESS 0x297f ===
  0x297f	dec    	ecx
  0x2980	mov    	edx, 0x7ede8170
  0x2985	out    	0xb6, al
  0x2987	nop    	
  0x2988	stc    	
  === BLOCK LINK ===
    0x2989
=== CODE BLOCK END ===

=== CODE BLOCK ADDRESS 0x2989 ===
  0x2989	inc    	esp
  0x298a	mov    	eax, ebx
  0x298c	dec    	eax
  0x298d	lea    	edx, [ebp + 0x3d0]
  0x2993	dec    	eax
  === BLOCK LINK ===
    0x2994
=== CODE BLOCK END ===

=== CODE BLOCK ADDRESS 0x2994 ===
  0x2994	lea    	ecx, [esp + 0x20]
  0x2998	call   	dword ptr [0x4afa]
  === BLOCK LINK ===
    0x299e
=== CODE BLOCK END ===

=== CODE BLOCK ADDRESS 0x299e ===
  0x299e	inc    	sp
  0x29a0	cmp    	dword ptr [ebp + 0x3d0], esp
  0x29a6	jne    	0x29bc
  === BLOCK LINK ===
    0x29a8
=== CODE BLOCK END ===

=== CODE BLOCK ADDRESS 0x29a8 ===
  0x29a8	dec    	esp
  0x29a9	lea    	eax, [esp + 0x20]
  0x29ad	dec    	eax
  0x29ae	mov    	edx, ebx
  0x29b0	dec    	eax
  === BLOCK LINK ===
    0x29b1
=== CODE BLOCK END ===

=== CODE BLOCK ADDRESS 0x29b1 ===
  0x29b1	lea    	ecx, [ebp + 0x3d0]
  0x29b7	call   	0x362c
  === BLOCK LINK ===
    0x29bc
=== CODE BLOCK END ===

=== CODE BLOCK ADDRESS 0x29bc ===
  0x29bc	dec    	eax
  0x29bd	lea    	ecx, [ebp + 0x3d0]
  0x29c3	call   	dword ptr [0x47e7]
  === BLOCK LINK ===
    0x29c9
=== CODE BLOCK END ===

=== CODE BLOCK ADDRESS 0x29c9 ===
  0x29c9	test   	byte ptr [esp + 0x24], 4
  0x29ce	jne    	0x29d9
  === BLOCK LINK ===
    0x29d0
=== CODE BLOCK END ===

=== CODE BLOCK ADDRESS 0x29d0 ===
  0x29d0	inc    	esp
  0x29d1	cmp    	byte ptr [0x7d59], ah
  0x29d7	je     	0x29f6
  === BLOCK LINK ===
    0x29d9
=== CODE BLOCK END ===

=== CODE BLOCK ADDRESS 0x29d9 ===
  0x29d9	dec    	eax
  0x29da	mov    	eax, dword ptr [0x7da0]
  0x29e0	dec    	eax
  0x29e1	test   	eax, eax
  0x29e3	je     	0x29f6
  === BLOCK LINK ===
    0x29e5
=== CODE BLOCK END ===

=== CODE BLOCK ADDRESS 0x29e5 ===
  0x29e5	dec    	ecx
  0x29e6	mov    	edx, 0x56da4870
  0x29eb	xchg   	eax, esi
  0x29ec	int1   	
  0x29ee	test   	edi, edi
  === BLOCK LINK ===
    0x29f0
=== CODE BLOCK END ===

=== CODE BLOCK ADDRESS 0x29f0 ===
  0x29f0	adc    	eax, 0x4aa3
  0x29f5	nop    	
  0x29f6	test   	byte ptr [esp + 0x24], 1
  0x29fb	jne    	0x2a1e
  === BLOCK LINK ===
    0x29fd
=== CODE BLOCK END ===

=== CODE BLOCK ADDRESS 0x29fd ===
  0x29fd	dec    	eax
  0x29fe	mov    	ecx, dword ptr [ebp + 0x13d0]
  0x2a04	dec    	eax
  0x2a05	xor    	ecx, esp
  0x2a07	call   	0x1450
  === BLOCK LINK ===
    0x2a0c
=== CODE BLOCK END ===

=== CODE BLOCK ADDRESS 0x2a0c ===
  0x2a0c	dec    	eax
  0x2a0d	add    	esp, 0x14e0
  0x2a13	inc    	ecx
  0x2a14	pop    	edi
  0x2a15	inc    	ecx
  === BLOCK LINK ===
    0x2a16
=== CODE BLOCK END ===

=== CODE BLOCK ADDRESS 0x2a16 ===
  0x2a16	pop    	esi
  0x2a17	inc    	ecx
  0x2a18	pop    	esp
  0x2a19	pop    	edi
  0x2a1a	pop    	esi
  === BLOCK LINK ===
    0x2a1b
=== CODE BLOCK END ===

=== CODE BLOCK ADDRESS 0x2a1b ===
  0x2a1b	pop    	ebx
  0x2a1c	pop    	ebp
  0x2a1d	ret    	
  0x2a1e	dec    	eax
  0x2a1f	lea    	ecx, [esp + 0x20]
  === BLOCK LINK ===
    0x2a23
=== CODE BLOCK END ===

=== CODE BLOCK ADDRESS 0x2a23 ===
  0x2a23	call   	0x5884
  === BLOCK LINK ===
    0x2a28
=== CODE BLOCK END ===

=== CODE BLOCK ADDRESS 0x2a28 ===
  0x2a28	nop    	
  0x2a29	call   	0x5974
  === BLOCK LINK ===
    0x2a2e
=== CODE BLOCK END ===

=== CODE BLOCK ADDRESS 0x2a2e ===
  0x2a2e	nop    	
  0x2a2f	int3   	
  0x2a30	inc    	eax
  0x2a31	push   	ebx
  0x2a32	push   	edi
  === BLOCK LINK ===
    0x2a33
=== CODE BLOCK END ===

=== CODE BLOCK ADDRESS 0x2a33 ===
  0x2a33	mov    	eax, 0x1538
  0x2a38	call   	0x6110
  === BLOCK LINK ===
    0x2a3d
=== CODE BLOCK END ===

=== CODE BLOCK ADDRESS 0x2a3d ===
  0x2a3d	dec    	eax
  0x2a3e	sub    	esp, eax
  0x2a40	dec    	eax
  0x2a41	mov    	eax, dword ptr [0x7649]
  0x2a47	dec    	eax
  === BLOCK LINK ===
    0x2a48
=== CODE BLOCK END ===

=== CODE BLOCK ADDRESS 0x2a48 ===
  0x2a48	xor    	eax, esp
  0x2a4a	dec    	eax
  0x2a4b	mov    	dword ptr [esp + 0x1520], eax
  0x2a52	dec    	eax
  0x2a53	mov    	eax, dword ptr [esp + 0x1588]
  === BLOCK LINK ===
    0x2a5a
=== CODE BLOCK END ===

=== CODE BLOCK ADDRESS 0x2a5a ===
  0x2a5a	dec    	eax
  0x2a5b	lea    	edi, [esp + 0x80]
  0x2a62	dec    	esp
  0x2a63	mov    	edx, dword ptr [esp + 0x1580]
  0x2a6a	dec    	esp
  === BLOCK LINK ===
    0x2a6b
=== CODE BLOCK END ===

=== CODE BLOCK ADDRESS 0x2a6b ===
  0x2a6b	mov    	ebx, dword ptr [esp + 0x1578]
  0x2a72	dec    	eax
  0x2a73	mov    	ebx, dword ptr [esp + 0x1570]
  0x2a7a	dec    	eax
  0x2a7b	mov    	dword ptr [esp + 0x70], edi
  === BLOCK LINK ===
    0x2a7f
=== CODE BLOCK END ===

=== CODE BLOCK ADDRESS 0x2a7f ===
  0x2a7f	dec    	eax
  0x2a80	lea    	edi, [esp + 0x120]
  0x2a87	dec    	eax
  0x2a88	mov    	dword ptr [esp + 0x68], 0x400
  0x2a90	dec    	eax
  === BLOCK LINK ===
    0x2a91
=== CODE BLOCK END ===

=== CODE BLOCK ADDRESS 0x2a91 ===
  0x2a91	mov    	dword ptr [esp + 0x60], edi
  0x2a95	dec    	eax
  0x2a96	lea    	edi, [esp + 0x520]
  0x2a9d	dec    	eax
  0x2a9e	mov    	dword ptr [esp + 0x58], 0x800
  === BLOCK LINK ===
    0x2aa6
=== CODE BLOCK END ===

=== CODE BLOCK ADDRESS 0x2aa6 ===
  0x2aa6	dec    	eax
  0x2aa7	mov    	dword ptr [esp + 0x50], edi
  0x2aab	mov    	byte ptr [esp + 0x48], 0
  0x2ab0	dec    	eax
  0x2ab1	mov    	dword ptr [esp + 0x40], eax
  === BLOCK LINK ===
    0x2ab5
=== CODE BLOCK END ===

=== CODE BLOCK ADDRESS 0x2ab5 ===
  0x2ab5	dec    	esp
  0x2ab6	mov    	dword ptr [esp + 0x38], edx
  0x2aba	mov    	dword ptr [esp + 0x30], 2
  0x2ac2	dec    	esp
  0x2ac3	mov    	dword ptr [esp + 0x28], ebx
  === BLOCK LINK ===
    0x2ac7
=== CODE BLOCK END ===

=== CODE BLOCK ADDRESS 0x2ac7 ===
  0x2ac7	dec    	eax
  0x2ac8	mov    	dword ptr [esp + 0x20], ebx
  0x2acc	call   	0x3fbc
  === BLOCK LINK ===
    0x2ad1
=== CODE BLOCK END ===

=== CODE BLOCK ADDRESS 0x2ad1 ===
  0x2ad1	test   	byte ptr [esp + 0x84], 1
  0x2ad9	jne    	0x2af5
  === BLOCK LINK ===
    0x2adb
=== CODE BLOCK END ===

=== CODE BLOCK ADDRESS 0x2adb ===
  0x2adb	dec    	eax
  0x2adc	mov    	ecx, dword ptr [esp + 0x1520]
  0x2ae3	dec    	eax
  0x2ae4	xor    	ecx, esp
  0x2ae6	call   	0x1450
  === BLOCK LINK ===
    0x2aeb
=== CODE BLOCK END ===

=== CODE BLOCK ADDRESS 0x2aeb ===
  0x2aeb	dec    	eax
  0x2aec	add    	esp, 0x1538
  0x2af2	pop    	edi
  0x2af3	pop    	ebx
  0x2af4	ret    	
  === BLOCK LINK ===
    0x2af5
=== CODE BLOCK END ===

=== CODE BLOCK ADDRESS 0x1984 ===
=== CODE BLOCK END ===

=== CODE BLOCK ADDRESS 0x2af5 ===
  0x2af5	dec    	eax
  0x2af6	lea    	ecx, [esp + 0x80]
  0x2afd	call   	0x5884
  === BLOCK LINK ===
    0x2b02
=== CODE BLOCK END ===

=== CODE BLOCK ADDRESS 0x2b02 ===
  0x2b02	int3   	
  0x2b03	int3   	
  0x2b04	dec    	eax
  0x2b05	mov    	dword ptr [esp + 8], ebx
  0x2b09	dec    	eax
  === BLOCK LINK ===
    0x2b0a
=== CODE BLOCK END ===

=== CODE BLOCK ADDRESS 0x2b0a ===
  0x2b0a	mov    	dword ptr [esp + 0x10], ebp
  0x2b0e	dec    	eax
  0x2b0f	mov    	dword ptr [esp + 0x18], esi
  0x2b13	push   	edi
  0x2b14	dec    	eax
  === BLOCK LINK ===
    0x2b15
=== CODE BLOCK END ===

=== CODE BLOCK ADDRESS 0x2b15 ===
  0x2b15	sub    	esp, 0x20
  0x2b18	xor    	ebp, ebp
  0x2b1a	dec    	ecx
  0x2b1b	mov    	ebx, ecx
  0x2b1d	dec    	eax
  === BLOCK LINK ===
    0x2b1e
=== CODE BLOCK END ===

=== CODE BLOCK ADDRESS 0x2b1e ===
  0x2b1e	mov    	edi, ecx
  0x2b20	dec    	eax
  0x2b21	cmp    	ecx, edx
  0x2b23	je     	0x2b64
  === BLOCK LINK ===
    0x2b25
=== CODE BLOCK END ===

=== CODE BLOCK ADDRESS 0x2b25 ===
  0x2b25	dec    	ebp
  0x2b26	test   	eax, eax
  0x2b28	je     	0x2b64
  === BLOCK LINK ===
    0x2b2a
=== CODE BLOCK END ===

=== CODE BLOCK ADDRESS 0x2b2a ===
  0x2b2a	inc    	cx
  0x2b2c	cmp    	dword ptr [eax], ebp
  0x2b2e	je     	0x2b64
  === BLOCK LINK ===
    0x2b30
=== CODE BLOCK END ===

=== CODE BLOCK ADDRESS 0x2b30 ===
  0x2b30	dec    	eax
  0x2b31	or     	eax, 0xffffffff
  0x2b34	dec    	eax
  0x2b35	inc    	eax
  0x2b37	inc    	cx
  === BLOCK LINK ===
    0x2b39
=== CODE BLOCK END ===

=== CODE BLOCK ADDRESS 0x2b39 ===
  0x2b39	cmp    	dword ptr [eax + eax*2], ebp
  0x2b3c	jne    	0x2b34
  === BLOCK LINK ===
    0x2b3e
=== CODE BLOCK END ===

=== CODE BLOCK ADDRESS 0x2b3e ===
  0x2b3e	dec    	eax
  0x2b3f	lea    	esi, [eax*2 + 2]
  0x2b46	dec    	eax
  0x2b47	sub    	edx, edi
  0x2b49	dec    	eax
  === BLOCK LINK ===
    0x2b4a
=== CODE BLOCK END ===

=== CODE BLOCK ADDRESS 0x2b4a ===
  0x2b4a	cmp    	edx, esi
  0x2b4c	jb     	0x2b64
  === BLOCK LINK ===
    0x2b4e
=== CODE BLOCK END ===

=== CODE BLOCK ADDRESS 0x2b4e ===
  0x2b4e	dec    	esp
  0x2b4f	mov    	ecx, esi
  0x2b51	call   	0x5c04
  === BLOCK LINK ===
    0x2b56
=== CODE BLOCK END ===

=== CODE BLOCK ADDRESS 0x2b56 ===
  0x2b56	dec    	eax
  0x2b57	test   	ebx, ebx
  0x2b59	je     	0x2b5e
  === BLOCK LINK ===
    0x2b5b
=== CODE BLOCK END ===

=== CODE BLOCK ADDRESS 0x2b5b ===
  0x2b5b	dec    	eax
  0x2b5c	mov    	dword ptr [ebx], edi
  0x2b5e	dec    	eax
  0x2b5f	lea    	eax, [esi + edi]
  0x2b62	jmp    	0x2b6f
  === BLOCK LINK ===
    0x2b64
=== CODE BLOCK END ===

=== CODE BLOCK ADDRESS 0x2b64 ===
  0x2b64	dec    	eax
  0x2b65	test   	ebx, ebx
  0x2b67	je     	0x2b6c
  === BLOCK LINK ===
    0x2b69
=== CODE BLOCK END ===

=== CODE BLOCK ADDRESS 0x2b69 ===
  0x2b69	dec    	ecx
  0x2b6a	mov    	dword ptr [ecx], ebp
  0x2b6c	dec    	eax
  0x2b6d	mov    	eax, edi
  0x2b6f	dec    	eax
  === BLOCK LINK ===
    0x2b70
=== CODE BLOCK END ===

=== CODE BLOCK ADDRESS 0x2b70 ===
  0x2b70	mov    	ebx, dword ptr [esp + 0x30]
  0x2b74	dec    	eax
  0x2b75	mov    	ebp, dword ptr [esp + 0x38]
  0x2b79	dec    	eax
  0x2b7a	mov    	esi, dword ptr [esp + 0x40]
  === BLOCK LINK ===
    0x2b7e
=== CODE BLOCK END ===

=== CODE BLOCK ADDRESS 0x2b7e ===
  0x2b7e	dec    	eax
  0x2b7f	add    	esp, 0x20
  0x2b82	pop    	edi
  0x2b83	ret    	
  0x2b84	inc    	eax
  === BLOCK LINK ===
    0x2b85
=== CODE BLOCK END ===

=== CODE BLOCK ADDRESS 0x2b85 ===
  0x2b85	push   	ebx
  0x2b86	dec    	eax
  0x2b87	sub    	esp, 0x20
  0x2b8a	xorps  	xmm0, xmm0
  0x2b8d	dec    	eax
  === BLOCK LINK ===
    0x2b8e
=== CODE BLOCK END ===

=== CODE BLOCK ADDRESS 0x2b8e ===
  0x2b8e	lea    	eax, [0x449c]
  0x2b94	movups  	xmmword ptr [ecx + 8], xmm0
  0x2b98	dec    	eax
  0x2b99	mov    	dword ptr [ecx], eax
  0x2b9b	dec    	eax
  === BLOCK LINK ===
    0x2b9c
=== CODE BLOCK END ===

=== CODE BLOCK ADDRESS 0x2b9c ===
  0x2b9c	mov    	ebx, ecx
  0x2b9e	dec    	eax
  0x2b9f	and    	dword ptr [ecx + 0xb0], 0
  0x2ba6	dec    	eax
  0x2ba7	add    	ecx, 0x18
  === BLOCK LINK ===
    0x2baa
=== CODE BLOCK END ===

=== CODE BLOCK ADDRESS 0x2baa ===
  0x2baa	dec    	eax
  0x2bab	and    	dword ptr [ecx + 0xa0], 0
  0x2bb2	call   	0x4d5c
  === BLOCK LINK ===
    0x2bb7
=== CODE BLOCK END ===

=== CODE BLOCK ADDRESS 0x2bb7 ===
  0x2bb7	dec    	eax
  0x2bb8	and    	dword ptr [ebx + 0xc0], 0
  0x2bbf	dec    	eax
  0x2bc0	mov    	eax, ebx
  0x2bc2	dec    	eax
  === BLOCK LINK ===
    0x2bc3
=== CODE BLOCK END ===

=== CODE BLOCK ADDRESS 0x2bc3 ===
  0x2bc3	and    	dword ptr [ebx + 0xc8], 0
  0x2bca	dec    	eax
  0x2bcb	add    	esp, 0x20
  0x2bce	pop    	ebx
  0x2bcf	ret    	
  === BLOCK LINK ===
    0x2bd0
=== CODE BLOCK END ===

=== CODE BLOCK ADDRESS 0x2bd0 ===
  0x2bd0	dec    	eax
  0x2bd1	mov    	dword ptr [esp + 8], ebx
  0x2bd5	push   	edi
  0x2bd6	dec    	eax
  0x2bd7	sub    	esp, 0x20
  === BLOCK LINK ===
    0x2bda
=== CODE BLOCK END ===

=== CODE BLOCK ADDRESS 0x2bda ===
  0x2bda	dec    	eax
  0x2bdb	mov    	edi, edx
  0x2bdd	dec    	eax
  0x2bde	lea    	eax, [0x443c]
  0x2be4	dec    	eax
  === BLOCK LINK ===
    0x2be5
=== CODE BLOCK END ===

=== CODE BLOCK ADDRESS 0x2be5 ===
  0x2be5	mov    	dword ptr [ecx], eax
  0x2be7	dec    	eax
  0x2be8	lea    	edx, [ecx + 8]
  0x2beb	dec    	eax
  0x2bec	mov    	ebx, ecx
  === BLOCK LINK ===
    0x2bee
=== CODE BLOCK END ===

=== CODE BLOCK ADDRESS 0x2bee ===
  0x2bee	xorps  	xmm0, xmm0
  0x2bf1	movups  	xmmword ptr [edx], xmm0
  0x2bf4	dec    	eax
  0x2bf5	lea    	ecx, [edi + 8]
  0x2bf8	call   	0x1e50
  === BLOCK LINK ===
    0x2bfd
=== CODE BLOCK END ===

=== CODE BLOCK ADDRESS 0x2bfd ===
  0x2bfd	inc    	ecx
  0x2bfe	mov    	ecx, 0x80
  0x2c03	dec    	eax
  0x2c04	lea    	eax, [0x4426]
  0x2c0a	dec    	eax
  === BLOCK LINK ===
    0x2c0b
=== CODE BLOCK END ===

=== CODE BLOCK ADDRESS 0x2c0b ===
  0x2c0b	mov    	dword ptr [ebx], eax
  0x2c0d	movups  	xmm0, xmmword ptr [edi + 0x18]
  0x2c11	movups  	xmmword ptr [ebx + 0x18], xmm0
  0x2c15	movups  	xmm1, xmmword ptr [edi + 0x28]
  0x2c19	movups  	xmmword ptr [ebx + 0x28], xmm1
  === BLOCK LINK ===
    0x2c1d
=== CODE BLOCK END ===

=== CODE BLOCK ADDRESS 0x2c1d ===
  0x2c1d	movups  	xmm0, xmmword ptr [edi + 0x38]
  0x2c21	movups  	xmmword ptr [ebx + 0x38], xmm0
  0x2c25	movups  	xmm1, xmmword ptr [edi + 0x48]
  0x2c29	movups  	xmmword ptr [ebx + 0x48], xmm1
  0x2c2d	movups  	xmm0, xmmword ptr [edi + 0x58]
  === BLOCK LINK ===
    0x2c31
=== CODE BLOCK END ===

=== CODE BLOCK ADDRESS 0x2c31 ===
  0x2c31	movups  	xmmword ptr [ebx + 0x58], xmm0
  0x2c35	movups  	xmm1, xmmword ptr [edi + 0x68]
  0x2c39	movups  	xmmword ptr [ebx + 0x68], xmm1
  0x2c3d	movups  	xmm0, xmmword ptr [edi + 0x78]
  0x2c41	movups  	xmmword ptr [ebx + 0x78], xmm0
  === BLOCK LINK ===
    0x2c45
=== CODE BLOCK END ===

=== CODE BLOCK ADDRESS 0x2c45 ===
  0x2c45	movups  	xmm0, xmmword ptr [edi + 0x88]
  0x2c4c	inc    	edx
  0x2c4d	movups  	xmmword ptr [ebx + ecx + 8], xmm0
  0x2c52	inc    	edx
  0x2c53	movups  	xmm1, xmmword ptr [edi + ecx + 0x18]
  === BLOCK LINK ===
    0x2c58
=== CODE BLOCK END ===

=== CODE BLOCK ADDRESS 0x2c58 ===
  0x2c58	inc    	edx
  0x2c59	movups  	xmmword ptr [ebx + ecx + 0x18], xmm1
  0x2c5e	dec    	edx
  0x2c5f	mov    	eax, dword ptr [edi + ecx + 0x28]
  0x2c63	dec    	edx
  === BLOCK LINK ===
    0x2c64
=== CODE BLOCK END ===

=== CODE BLOCK ADDRESS 0x2c64 ===
  0x2c64	mov    	dword ptr [ebx + ecx + 0x28], eax
  0x2c68	inc    	ebp
  0x2c69	xor    	ecx, ecx
  0x2c6b	dec    	esp
  0x2c6c	mov    	dword ptr [ebx + 0xb0], ecx
  === BLOCK LINK ===
    0x2c72
=== CODE BLOCK END ===

=== CODE BLOCK ADDRESS 0x2c72 ===
  0x2c72	dec    	esp
  0x2c73	mov    	dword ptr [ebx + 0xb8], ecx
  0x2c79	dec    	eax
  0x2c7a	mov    	eax, dword ptr [edi + 0xb0]
  0x2c80	dec    	eax
  === BLOCK LINK ===
    0x2c81
=== CODE BLOCK END ===

=== CODE BLOCK ADDRESS 0x2c81 ===
  0x2c81	mov    	ecx, dword ptr [edi + 0xb8]
  0x2c87	dec    	eax
  0x2c88	test   	eax, eax
  0x2c8a	je     	0x2c9d
  === BLOCK LINK ===
    0x2c8c
=== CODE BLOCK END ===

=== CODE BLOCK ADDRESS 0x2c8c ===
  0x2c8c	dec    	eax
  0x2c8d	mov    	dword ptr [ebx + 0xb0], eax
  0x2c93	dec    	eax
  0x2c94	mov    	dword ptr [ebx + 0xb8], ecx
  0x2c9a	lock inc  	dword ptr [eax]
  === BLOCK LINK ===
    0x2c9d
=== CODE BLOCK END ===

=== CODE BLOCK ADDRESS 0x2c9d ===
  0x2c9d	dec    	esp
  0x2c9e	mov    	dword ptr [ebx + 0xc0], ecx
  0x2ca4	dec    	esp
  0x2ca5	mov    	dword ptr [ebx + 0xc8], ecx
  0x2cab	dec    	eax
  === BLOCK LINK ===
    0x2cac
=== CODE BLOCK END ===

=== CODE BLOCK ADDRESS 0x2cac ===
  0x2cac	mov    	eax, dword ptr [edi + 0xc0]
  0x2cb2	dec    	eax
  0x2cb3	mov    	ecx, dword ptr [edi + 0xc8]
  0x2cb9	dec    	eax
  0x2cba	test   	eax, eax
  === BLOCK LINK ===
    0x2cbc
=== CODE BLOCK END ===

=== CODE BLOCK ADDRESS 0x2cbc ===
  0x2cbc	je     	0x2ccf
  === BLOCK LINK ===
    0x2cbe
=== CODE BLOCK END ===

=== CODE BLOCK ADDRESS 0x2cbe ===
  0x2cbe	dec    	eax
  0x2cbf	mov    	dword ptr [ebx + 0xc0], eax
  0x2cc5	dec    	eax
  0x2cc6	mov    	dword ptr [ebx + 0xc8], ecx
  0x2ccc	lock inc  	dword ptr [eax]
  === BLOCK LINK ===
    0x2ccf
=== CODE BLOCK END ===

=== CODE BLOCK ADDRESS 0x2ccf ===
  0x2ccf	dec    	eax
  0x2cd0	mov    	eax, ebx
  0x2cd2	dec    	eax
  0x2cd3	mov    	ebx, dword ptr [esp + 0x30]
  0x2cd7	dec    	eax
  === BLOCK LINK ===
    0x2cd8
=== CODE BLOCK END ===

=== CODE BLOCK ADDRESS 0x2cd8 ===
  0x2cd8	add    	esp, 0x20
  0x2cdb	pop    	edi
  0x2cdc	ret    	
  0x2cdd	int3   	
  0x2cde	int3   	
  === BLOCK LINK ===
    0x2cdf
=== CODE BLOCK END ===

=== CODE BLOCK ADDRESS 0x2cdf ===
  0x2cdf	int3   	
  0x2ce0	inc    	eax
  0x2ce1	push   	ebx
  0x2ce2	dec    	eax
  0x2ce3	sub    	esp, 0x20
  === BLOCK LINK ===
    0x2ce6
=== CODE BLOCK END ===

=== CODE BLOCK ADDRESS 0x2ce6 ===
  0x2ce6	dec    	eax
  0x2ce7	mov    	ebx, ecx
  0x2ce9	dec    	eax
  0x2cea	mov    	eax, edx
  0x2cec	dec    	eax
  === BLOCK LINK ===
    0x2ced
=== CODE BLOCK END ===

=== CODE BLOCK ADDRESS 0x2ced ===
  0x2ced	lea    	ecx, [0x432d]
  0x2cf3	xorps  	xmm0, xmm0
  0x2cf6	dec    	eax
  0x2cf7	mov    	dword ptr [ebx], ecx
  0x2cf9	dec    	eax
  === BLOCK LINK ===
    0x2cfa
=== CODE BLOCK END ===

=== CODE BLOCK ADDRESS 0x2cfa ===
  0x2cfa	lea    	edx, [ebx + 8]
  0x2cfd	dec    	eax
  0x2cfe	lea    	ecx, [eax + 8]
  0x2d01	movups  	xmmword ptr [edx], xmm0
  0x2d04	call   	0x1e50
  === BLOCK LINK ===
    0x2d09
=== CODE BLOCK END ===

=== CODE BLOCK ADDRESS 0x2d09 ===
  0x2d09	dec    	eax
  0x2d0a	mov    	eax, ebx
  0x2d0c	dec    	eax
  0x2d0d	add    	esp, 0x20
  0x2d10	pop    	ebx
  === BLOCK LINK ===
    0x2d11
=== CODE BLOCK END ===

=== CODE BLOCK ADDRESS 0x2d11 ===
  0x2d11	ret    	
  0x2d12	int3   	
  0x2d13	int3   	
  0x2d14	inc    	eax
  0x2d15	push   	ebx
  === BLOCK LINK ===
    0x2d16
=== CODE BLOCK END ===

=== CODE BLOCK ADDRESS 0x2d16 ===
  0x2d16	dec    	eax
  0x2d17	sub    	esp, 0x20
  0x2d1a	dec    	eax
  0x2d1b	mov    	ebx, ecx
  0x2d1d	dec    	eax
  === BLOCK LINK ===
    0x2d1e
=== CODE BLOCK END ===

=== CODE BLOCK ADDRESS 0x2d1e ===
  0x2d1e	add    	ecx, 0x28
  0x2d21	call   	0x2e00
  === BLOCK LINK ===
    0x2d26
=== CODE BLOCK END ===

=== CODE BLOCK ADDRESS 0x2d26 ===
  0x2d26	dec    	eax
  0x2d27	mov    	ecx, dword ptr [ebx + 0x18]
  0x2d2a	dec    	eax
  0x2d2b	test   	ecx, ecx
  0x2d2d	je     	0x2d39
  === BLOCK LINK ===
    0x2d2f
=== CODE BLOCK END ===

=== CODE BLOCK ADDRESS 0x2d2f ===
  0x2d2f	call   	dword ptr [0x44b3]
  === BLOCK LINK ===
    0x2d35
=== CODE BLOCK END ===

=== CODE BLOCK ADDRESS 0x2d35 ===
  0x2d35	test   	eax, eax
  0x2d37	je     	0x2d75
  === BLOCK LINK ===
    0x2d39
=== CODE BLOCK END ===

=== CODE BLOCK ADDRESS 0x2d39 ===
  0x2d39	dec    	eax
  0x2d3a	mov    	ecx, dword ptr [ebx + 0x10]
  0x2d3d	dec    	eax
  0x2d3e	test   	ecx, ecx
  0x2d40	je     	0x2d4c
  === BLOCK LINK ===
    0x2d42
=== CODE BLOCK END ===

=== CODE BLOCK ADDRESS 0x2d42 ===
  0x2d42	call   	dword ptr [0x44a0]
  === BLOCK LINK ===
    0x2d48
=== CODE BLOCK END ===

=== CODE BLOCK ADDRESS 0x2d48 ===
  0x2d48	test   	eax, eax
  0x2d4a	je     	0x2d85
  === BLOCK LINK ===
    0x2d4c
=== CODE BLOCK END ===

=== CODE BLOCK ADDRESS 0x2d4c ===
  0x2d4c	dec    	eax
  0x2d4d	mov    	ecx, dword ptr [ebx + 8]
  0x2d50	dec    	eax
  0x2d51	test   	ecx, ecx
  0x2d53	je     	0x2d5f
  === BLOCK LINK ===
    0x2d55
=== CODE BLOCK END ===

=== CODE BLOCK ADDRESS 0x2d55 ===
  0x2d55	call   	dword ptr [0x448d]
  === BLOCK LINK ===
    0x2d5b
=== CODE BLOCK END ===

=== CODE BLOCK ADDRESS 0x2d5b ===
  0x2d5b	test   	eax, eax
  0x2d5d	je     	0x2d65
  === BLOCK LINK ===
    0x2d5f
=== CODE BLOCK END ===

=== CODE BLOCK ADDRESS 0x2d5f ===
  0x2d5f	dec    	eax
  0x2d60	add    	esp, 0x20
  0x2d63	pop    	ebx
  0x2d64	ret    	
  0x2d65	dec    	eax
  === BLOCK LINK ===
    0x2d66
=== CODE BLOCK END ===

=== CODE BLOCK ADDRESS 0x2d66 ===
  0x2d66	mov    	ecx, dword ptr [esp + 0x28]
  0x2d6a	mov    	edx, 0x937
  0x2d6f	call   	0x597c
  === BLOCK LINK ===
    0x2d74
=== CODE BLOCK END ===

=== CODE BLOCK ADDRESS 0x2d74 ===
  0x2d74	int3   	
  0x2d75	dec    	eax
  0x2d76	mov    	ecx, dword ptr [esp + 0x28]
  0x2d7a	mov    	edx, 0x937
  0x2d7f	call   	0x597c
  === BLOCK LINK ===
    0x2d84
=== CODE BLOCK END ===

=== CODE BLOCK ADDRESS 0x2d84 ===
  0x2d84	int3   	
  0x2d85	dec    	eax
  0x2d86	mov    	ecx, dword ptr [esp + 0x28]
  0x2d8a	mov    	edx, 0x937
  0x2d8f	call   	0x597c
  === BLOCK LINK ===
    0x2d94
=== CODE BLOCK END ===

=== CODE BLOCK ADDRESS 0x2d94 ===
  0x2d94	int3   	
  0x2d95	int3   	
  0x2d96	int3   	
  0x2d97	int3   	
  0x2d98	dec    	eax
  === BLOCK LINK ===
    0x2d99
=== CODE BLOCK END ===

=== CODE BLOCK ADDRESS 0x2d99 ===
  0x2d99	mov    	dword ptr [esp + 8], ebx
  0x2d9d	dec    	eax
  0x2d9e	mov    	dword ptr [esp + 0x10], ebp
  0x2da2	dec    	eax
  0x2da3	mov    	dword ptr [esp + 0x18], esi
  === BLOCK LINK ===
    0x2da7
=== CODE BLOCK END ===

=== CODE BLOCK ADDRESS 0x2da7 ===
  0x2da7	push   	edi
  0x2da8	dec    	eax
  0x2da9	sub    	esp, 0x20
  0x2dac	dec    	eax
  0x2dad	lea    	ebp, [ecx + 0x50]
  === BLOCK LINK ===
    0x2db0
=== CODE BLOCK END ===

=== CODE BLOCK ADDRESS 0x2db0 ===
  0x2db0	dec    	eax
  0x2db1	mov    	edi, ecx
  0x2db3	dec    	eax
  0x2db4	cmp    	ecx, ebp
  0x2db6	je     	0x2de9
  === BLOCK LINK ===
    0x2db8
=== CODE BLOCK END ===

=== CODE BLOCK ADDRESS 0x2db8 ===
  0x2db8	dec    	eax
  0x2db9	mov    	esi, dword ptr [edi]
  0x2dbb	jmp    	0x2dd8
  === BLOCK LINK ===
    0x2dbd
=== CODE BLOCK END ===

=== CODE BLOCK ADDRESS 0x2dbd ===
  0x2dbd	dec    	eax
  0x2dbe	mov    	ebx, esi
  0x2dc0	dec    	eax
  0x2dc1	mov    	esi, dword ptr [esi + 8]
  0x2dc4	call   	dword ptr [0x443e]
  === BLOCK LINK ===
    0x2dca
=== CODE BLOCK END ===

=== CODE BLOCK ADDRESS 0x2dca ===
  0x2dca	dec    	esp
  0x2dcb	mov    	eax, ebx
  0x2dcd	xor    	edx, edx
  0x2dcf	dec    	eax
  0x2dd0	mov    	ecx, eax
  === BLOCK LINK ===
    0x2dd2
=== CODE BLOCK END ===

=== CODE BLOCK ADDRESS 0x2dd2 ===
  0x2dd2	call   	dword ptr [0x4428]
  === BLOCK LINK ===
    0x2dd8
=== CODE BLOCK END ===

=== CODE BLOCK ADDRESS 0x2dd8 ===
  0x2dd8	dec    	eax
  0x2dd9	test   	esi, esi
  0x2ddb	jne    	0x2dbd
  === BLOCK LINK ===
    0x2ddd
=== CODE BLOCK END ===

=== CODE BLOCK ADDRESS 0x2ddd ===
  0x2ddd	dec    	eax
  0x2dde	mov    	dword ptr [edi], esi
  0x2de0	dec    	eax
  0x2de1	add    	edi, 8
  0x2de4	dec    	eax
  === BLOCK LINK ===
    0x2de5
=== CODE BLOCK END ===

=== CODE BLOCK ADDRESS 0x2de5 ===
  0x2de5	cmp    	edi, ebp
  0x2de7	jne    	0x2db8
  === BLOCK LINK ===
    0x2de9
=== CODE BLOCK END ===

=== CODE BLOCK ADDRESS 0x2de9 ===
  0x2de9	dec    	eax
  0x2dea	mov    	ebx, dword ptr [esp + 0x30]
  0x2dee	dec    	eax
  0x2def	mov    	ebp, dword ptr [esp + 0x38]
  0x2df3	dec    	eax
  === BLOCK LINK ===
    0x2df4
=== CODE BLOCK END ===

=== CODE BLOCK ADDRESS 0x2df4 ===
  0x2df4	mov    	esi, dword ptr [esp + 0x40]
  0x2df8	dec    	eax
  0x2df9	add    	esp, 0x20
  0x2dfc	pop    	edi
  0x2dfd	ret    	
  === BLOCK LINK ===
    0x2dfe
=== CODE BLOCK END ===

=== CODE BLOCK ADDRESS 0x2dfe ===
  0x2dfe	int3   	
  0x2dff	int3   	
  0x2e00	dec    	eax
  0x2e01	mov    	dword ptr [esp + 8], ebx
  0x2e05	dec    	eax
  === BLOCK LINK ===
    0x2e06
=== CODE BLOCK END ===

=== CODE BLOCK ADDRESS 0x2e06 ===
  0x2e06	mov    	dword ptr [esp + 0x10], ebp
  0x2e0a	dec    	eax
  0x2e0b	mov    	dword ptr [esp + 0x18], esi
  0x2e0f	push   	edi
  0x2e10	dec    	eax
  === BLOCK LINK ===
    0x2e11
=== CODE BLOCK END ===

=== CODE BLOCK ADDRESS 0x2e11 ===
  0x2e11	sub    	esp, 0x20
  0x2e14	dec    	eax
  0x2e15	lea    	ebp, [ecx + 0x50]
  0x2e18	dec    	eax
  0x2e19	mov    	edi, ecx
  === BLOCK LINK ===
    0x2e1b
=== CODE BLOCK END ===

=== CODE BLOCK ADDRESS 0x2e1b ===
  0x2e1b	dec    	eax
  0x2e1c	cmp    	ecx, ebp
  0x2e1e	je     	0x2e5a
  === BLOCK LINK ===
    0x2e20
=== CODE BLOCK END ===

=== CODE BLOCK ADDRESS 0x2e20 ===
  0x2e20	dec    	eax
  0x2e21	mov    	esi, dword ptr [edi]
  0x2e23	jmp    	0x2e49
  === BLOCK LINK ===
    0x2e25
=== CODE BLOCK END ===

=== CODE BLOCK ADDRESS 0x2e25 ===
  0x2e25	dec    	eax
  0x2e26	mov    	ebx, esi
  0x2e28	dec    	eax
  0x2e29	mov    	esi, dword ptr [esi + 8]
  0x2e2c	dec    	eax
  === BLOCK LINK ===
    0x2e2d
=== CODE BLOCK END ===

=== CODE BLOCK ADDRESS 0x2e2d ===
  0x2e2d	lea    	ecx, [ebx + 0x10]
  0x2e30	call   	0x2fa8
  === BLOCK LINK ===
    0x2e35
=== CODE BLOCK END ===

=== CODE BLOCK ADDRESS 0x2e35 ===
  0x2e35	call   	dword ptr [0x43cd]
  === BLOCK LINK ===
    0x2e3b
=== CODE BLOCK END ===

=== CODE BLOCK ADDRESS 0x2e3b ===
  0x2e3b	dec    	esp
  0x2e3c	mov    	eax, ebx
  0x2e3e	xor    	edx, edx
  0x2e40	dec    	eax
  0x2e41	mov    	ecx, eax
  === BLOCK LINK ===
    0x2e43
=== CODE BLOCK END ===

=== CODE BLOCK ADDRESS 0x2e43 ===
  0x2e43	call   	dword ptr [0x43b7]
  === BLOCK LINK ===
    0x2e49
=== CODE BLOCK END ===

=== CODE BLOCK ADDRESS 0x2e49 ===
  0x2e49	dec    	eax
  0x2e4a	test   	esi, esi
  0x2e4c	jne    	0x2e25
  === BLOCK LINK ===
    0x2e4e
=== CODE BLOCK END ===

=== CODE BLOCK ADDRESS 0x2e4e ===
  0x2e4e	dec    	eax
  0x2e4f	mov    	dword ptr [edi], esi
  0x2e51	dec    	eax
  0x2e52	add    	edi, 8
  0x2e55	dec    	eax
  === BLOCK LINK ===
    0x2e56
=== CODE BLOCK END ===

=== CODE BLOCK ADDRESS 0x2e56 ===
  0x2e56	cmp    	edi, ebp
  0x2e58	jne    	0x2e20
  === BLOCK LINK ===
    0x2e5a
=== CODE BLOCK END ===

=== CODE BLOCK ADDRESS 0x2e5a ===
  0x2e5a	dec    	eax
  0x2e5b	mov    	ebx, dword ptr [esp + 0x30]
  0x2e5f	dec    	eax
  0x2e60	mov    	ebp, dword ptr [esp + 0x38]
  0x2e64	dec    	eax
  === BLOCK LINK ===
    0x2e65
=== CODE BLOCK END ===

=== CODE BLOCK ADDRESS 0x2e65 ===
  0x2e65	mov    	esi, dword ptr [esp + 0x40]
  0x2e69	dec    	eax
  0x2e6a	add    	esp, 0x20
  0x2e6d	pop    	edi
  0x2e6e	ret    	
  === BLOCK LINK ===
    0x2e6f
=== CODE BLOCK END ===

=== CODE BLOCK ADDRESS 0x2e6f ===
  0x2e6f	int3   	
  0x2e70	dec    	eax
  0x2e71	sub    	esp, 0x28
  0x2e74	dec    	eax
  0x2e75	mov    	ecx, dword ptr [ecx]
  === BLOCK LINK ===
    0x2e77
=== CODE BLOCK END ===

=== CODE BLOCK ADDRESS 0x2e77 ===
  0x2e77	dec    	eax
  0x2e78	test   	ecx, ecx
  0x2e7a	je     	0x2e86
  === BLOCK LINK ===
    0x2e7c
=== CODE BLOCK END ===

=== CODE BLOCK ADDRESS 0x2e7c ===
  0x2e7c	call   	dword ptr [0x4366]
  === BLOCK LINK ===
    0x2e82
=== CODE BLOCK END ===

=== CODE BLOCK ADDRESS 0x2e82 ===
  0x2e82	test   	eax, eax
  0x2e84	je     	0x2e8b
  === BLOCK LINK ===
    0x2e86
=== CODE BLOCK END ===

=== CODE BLOCK ADDRESS 0x2e86 ===
  0x2e86	dec    	eax
  0x2e87	add    	esp, 0x28
  0x2e8a	ret    	
  0x2e8b	dec    	eax
  0x2e8c	mov    	ecx, dword ptr [esp + 0x28]
  === BLOCK LINK ===
    0x2e90
=== CODE BLOCK END ===

=== CODE BLOCK ADDRESS 0x5c90 ===
=== CODE BLOCK END ===

=== CODE BLOCK ADDRESS 0x2e90 ===
  0x2e90	mov    	edx, 0x937
  0x2e95	call   	0x597c
  === BLOCK LINK ===
    0x2e9a
=== CODE BLOCK END ===

=== CODE BLOCK ADDRESS 0x2e9a ===
  0x2e9a	int3   	
  0x2e9b	int3   	
  0x2e9c	dec    	eax
  0x2e9d	sub    	esp, 0x28
  0x2ea0	dec    	eax
  === BLOCK LINK ===
    0x2ea1
=== CODE BLOCK END ===

=== CODE BLOCK ADDRESS 0x2ea1 ===
  0x2ea1	mov    	ecx, dword ptr [ecx]
  0x2ea3	dec    	eax
  0x2ea4	test   	ecx, ecx
  0x2ea6	je     	0x2eae
  === BLOCK LINK ===
    0x2ea8
=== CODE BLOCK END ===

=== CODE BLOCK ADDRESS 0x2ea8 ===
  0x2ea8	call   	dword ptr [0x42e2]
  === BLOCK LINK ===
    0x2eae
=== CODE BLOCK END ===

=== CODE BLOCK ADDRESS 0x2eae ===
  0x2eae	dec    	eax
  0x2eaf	add    	esp, 0x28
  0x2eb2	ret    	
  0x2eb3	int3   	
  0x2eb4	dec    	eax
  === BLOCK LINK ===
    0x2eb5
=== CODE BLOCK END ===

=== CODE BLOCK ADDRESS 0x1ae8 ===
  0x1ae8	dec    	eax
  0x1ae9	sub    	esp, 0x28
  === BLOCK LINK ===
    0x1aec
=== CODE BLOCK END ===

=== CODE BLOCK ADDRESS 0x2eb5 ===
  0x2eb5	sub    	esp, 0x28
  0x2eb8	dec    	eax
  0x2eb9	mov    	ecx, dword ptr [ecx]
  0x2ebb	dec    	eax
  0x2ebc	test   	ecx, ecx
  === BLOCK LINK ===
    0x2ebe
=== CODE BLOCK END ===

=== CODE BLOCK ADDRESS 0x2ebe ===
  0x2ebe	je     	0x2ec6
  === BLOCK LINK ===
    0x2ec0
=== CODE BLOCK END ===

=== CODE BLOCK ADDRESS 0x2ec0 ===
  0x2ec0	call   	dword ptr [0x4362]
  === BLOCK LINK ===
    0x2ec6
=== CODE BLOCK END ===

=== CODE BLOCK ADDRESS 0x2ec6 ===
  0x2ec6	dec    	eax
  0x2ec7	add    	esp, 0x28
  0x2eca	ret    	
  0x2ecb	int3   	
  0x2ecc	dec    	eax
  === BLOCK LINK ===
    0x2ecd
=== CODE BLOCK END ===

=== CODE BLOCK ADDRESS 0x2ecd ===
  0x2ecd	sub    	esp, 0x28
  0x2ed0	dec    	eax
  0x2ed1	mov    	ecx, dword ptr [ecx]
  0x2ed3	dec    	eax
  0x2ed4	test   	ecx, ecx
  === BLOCK LINK ===
    0x2ed6
=== CODE BLOCK END ===

=== CODE BLOCK ADDRESS 0x2ed6 ===
  0x2ed6	je     	0x2ee2
  === BLOCK LINK ===
    0x2ed8
=== CODE BLOCK END ===

=== CODE BLOCK ADDRESS 0x2ed8 ===
  0x2ed8	call   	dword ptr [0x4432]
  === BLOCK LINK ===
    0x2ede
=== CODE BLOCK END ===

=== CODE BLOCK ADDRESS 0x2ede ===
  0x2ede	test   	eax, eax
  0x2ee0	je     	0x2ee7
  === BLOCK LINK ===
    0x2ee2
=== CODE BLOCK END ===

=== CODE BLOCK ADDRESS 0x2ee2 ===
  0x2ee2	dec    	eax
  0x2ee3	add    	esp, 0x28
  0x2ee6	ret    	
  0x2ee7	dec    	eax
  0x2ee8	mov    	ecx, dword ptr [esp + 0x28]
  === BLOCK LINK ===
    0x2eec
=== CODE BLOCK END ===

=== CODE BLOCK ADDRESS 0x2eec ===
  0x2eec	mov    	edx, 0x941
  0x2ef1	call   	0x597c
  === BLOCK LINK ===
    0x2ef6
=== CODE BLOCK END ===

=== CODE BLOCK ADDRESS 0x2ef6 ===
  0x2ef6	int3   	
  0x2ef7	int3   	
  0x2ef8	dec    	eax
  0x2ef9	mov    	dword ptr [esp + 8], ebx
  0x2efd	push   	edi
  === BLOCK LINK ===
    0x2efe
=== CODE BLOCK END ===

=== CODE BLOCK ADDRESS 0x2efe ===
  0x2efe	dec    	eax
  0x2eff	sub    	esp, 0x20
  0x2f02	dec    	eax
  0x2f03	mov    	edi, ecx
  0x2f05	dec    	eax
  === BLOCK LINK ===
    0x2f06
=== CODE BLOCK END ===

=== CODE BLOCK ADDRESS 0x2f06 ===
  0x2f06	mov    	ecx, dword ptr [ecx + 0xc0]
  0x2f0c	dec    	eax
  0x2f0d	test   	ecx, ecx
  0x2f0f	je     	0x2f48
  === BLOCK LINK ===
    0x2f11
=== CODE BLOCK END ===

=== CODE BLOCK ADDRESS 0x2f11 ===
  0x2f11	or     	eax, 0xffffffff
  0x2f14	lock xadd  	dword ptr [ecx], eax
  0x2f18	cmp    	eax, 1
  0x2f1b	jne    	0x2f38
  === BLOCK LINK ===
    0x2f1d
=== CODE BLOCK END ===

=== CODE BLOCK ADDRESS 0x2f1d ===
  0x2f1d	dec    	eax
  0x2f1e	mov    	ebx, dword ptr [edi + 0xc0]
  0x2f24	call   	dword ptr [0x42de]
  === BLOCK LINK ===
    0x2f2a
=== CODE BLOCK END ===

=== CODE BLOCK ADDRESS 0x2f2a ===
  0x2f2a	dec    	esp
  0x2f2b	mov    	eax, ebx
  0x2f2d	xor    	edx, edx
  0x2f2f	dec    	eax
  0x2f30	mov    	ecx, eax
  === BLOCK LINK ===
    0x2f32
=== CODE BLOCK END ===

=== CODE BLOCK ADDRESS 0x2f32 ===
  0x2f32	call   	dword ptr [0x42c8]
  === BLOCK LINK ===
    0x2f38
=== CODE BLOCK END ===

=== CODE BLOCK ADDRESS 0x2f38 ===
  0x2f38	dec    	eax
  0x2f39	and    	dword ptr [edi + 0xc0], 0
  0x2f40	dec    	eax
  0x2f41	and    	dword ptr [edi + 0xc8], 0
  0x2f48	dec    	eax
  === BLOCK LINK ===
    0x2f49
=== CODE BLOCK END ===

=== CODE BLOCK ADDRESS 0x2f49 ===
  0x2f49	mov    	ecx, dword ptr [edi + 0xb0]
  0x2f4f	dec    	eax
  0x2f50	test   	ecx, ecx
  0x2f52	je     	0x2f8b
  === BLOCK LINK ===
    0x2f54
=== CODE BLOCK END ===

=== CODE BLOCK ADDRESS 0x2f54 ===
  0x2f54	or     	eax, 0xffffffff
  0x2f57	lock xadd  	dword ptr [ecx], eax
  0x2f5b	cmp    	eax, 1
  0x2f5e	jne    	0x2f7b
  === BLOCK LINK ===
    0x2f60
=== CODE BLOCK END ===

=== CODE BLOCK ADDRESS 0x2f60 ===
  0x2f60	dec    	eax
  0x2f61	mov    	ebx, dword ptr [edi + 0xb0]
  0x2f67	call   	dword ptr [0x429b]
  === BLOCK LINK ===
    0x2f6d
=== CODE BLOCK END ===

=== CODE BLOCK ADDRESS 0x2f6d ===
  0x2f6d	dec    	esp
  0x2f6e	mov    	eax, ebx
  0x2f70	xor    	edx, edx
  0x2f72	dec    	eax
  0x2f73	mov    	ecx, eax
  === BLOCK LINK ===
    0x2f75
=== CODE BLOCK END ===

=== CODE BLOCK ADDRESS 0x2f75 ===
  0x2f75	call   	dword ptr [0x4285]
  === BLOCK LINK ===
    0x2f7b
=== CODE BLOCK END ===

=== CODE BLOCK ADDRESS 0x2f7b ===
  0x2f7b	dec    	eax
  0x2f7c	and    	dword ptr [edi + 0xb0], 0
  0x2f83	dec    	eax
  0x2f84	and    	dword ptr [edi + 0xb8], 0
  0x2f8b	dec    	eax
  === BLOCK LINK ===
    0x2f8c
=== CODE BLOCK END ===

=== CODE BLOCK ADDRESS 0x2f8c ===
  0x2f8c	lea    	eax, [0x408e]
  0x2f92	dec    	eax
  0x2f93	lea    	ecx, [edi + 8]
  0x2f96	dec    	eax
  0x2f97	mov    	dword ptr [edi], eax
  === BLOCK LINK ===
    0x2f99
=== CODE BLOCK END ===

=== CODE BLOCK ADDRESS 0x2f99 ===
  0x2f99	dec    	eax
  0x2f9a	mov    	ebx, dword ptr [esp + 0x30]
  0x2f9e	dec    	eax
  0x2f9f	add    	esp, 0x20
  0x2fa2	pop    	edi
  === BLOCK LINK ===
    0x2fa3
=== CODE BLOCK END ===

=== CODE BLOCK ADDRESS 0x2fa3 ===
  0x2fa3	jmp    	0x1e56
  === BLOCK LINK ===
    0x2fa8
=== CODE BLOCK END ===

=== CODE BLOCK ADDRESS 0x2fa8 ===
  0x2fa8	dec    	eax
  0x2fa9	mov    	eax, esp
  0x2fab	dec    	eax
  0x2fac	mov    	dword ptr [eax + 8], ebx
  0x2faf	dec    	eax
  === BLOCK LINK ===
    0x2fb0
=== CODE BLOCK END ===

=== CODE BLOCK ADDRESS 0x2fb0 ===
  0x2fb0	mov    	dword ptr [eax + 0x10], ebp
  0x2fb3	dec    	eax
  0x2fb4	mov    	dword ptr [eax + 0x18], esi
  0x2fb7	dec    	eax
  0x2fb8	mov    	dword ptr [eax + 0x20], edi
  === BLOCK LINK ===
    0x2fbb
=== CODE BLOCK END ===

=== CODE BLOCK ADDRESS 0x2fbb ===
  0x2fbb	inc    	ecx
  0x2fbc	push   	esi
  0x2fbd	dec    	eax
  0x2fbe	sub    	esp, 0x20
  0x2fc1	dec    	eax
  === BLOCK LINK ===
    0x2fc2
=== CODE BLOCK END ===

=== CODE BLOCK ADDRESS 0x2fc2 ===
  0x2fc2	mov    	edi, dword ptr [ecx + 0x18]
  0x2fc5	inc    	ebp
  0x2fc6	xor    	esi, esi
  0x2fc8	movzx  	eax, word ptr [ecx + 0x20]
  0x2fcc	dec    	eax
  === BLOCK LINK ===
    0x2fcd
=== CODE BLOCK END ===

=== CODE BLOCK ADDRESS 0x2fcd ===
  0x2fcd	mov    	ebp, ecx
  0x2fcf	dec    	eax
  0x2fd0	lea    	esi, [eax + eax*4]
  0x2fd3	dec    	eax
  0x2fd4	shl    	esi, 4
  === BLOCK LINK ===
    0x2fd7
=== CODE BLOCK END ===

=== CODE BLOCK ADDRESS 0x2fd7 ===
  0x2fd7	dec    	eax
  0x2fd8	add    	esi, edi
  0x2fda	dec    	eax
  0x2fdb	cmp    	edi, esi
  0x2fdd	je     	0x300e
  === BLOCK LINK ===
    0x2fdf
=== CODE BLOCK END ===

=== CODE BLOCK ADDRESS 0x2fdf ===
  0x2fdf	dec    	eax
  0x2fe0	add    	edi, 0x40
  0x2fe3	dec    	eax
  0x2fe4	mov    	ebx, dword ptr [edi]
  0x2fe6	call   	dword ptr [0x421c]
  === BLOCK LINK ===
    0x2fec
=== CODE BLOCK END ===

=== CODE BLOCK ADDRESS 0x2fec ===
  0x2fec	dec    	esp
  0x2fed	mov    	eax, ebx
  0x2fef	xor    	edx, edx
  0x2ff1	dec    	eax
  0x2ff2	mov    	ecx, eax
  === BLOCK LINK ===
    0x2ff4
=== CODE BLOCK END ===

=== CODE BLOCK ADDRESS 0x2ff4 ===
  0x2ff4	call   	dword ptr [0x4206]
  === BLOCK LINK ===
    0x2ffa
=== CODE BLOCK END ===

=== CODE BLOCK ADDRESS 0x2ffa ===
  0x2ffa	dec    	esp
  0x2ffb	mov    	dword ptr [edi], esi
  0x2ffd	dec    	esp
  0x2ffe	mov    	dword ptr [edi + 8], esi
  0x3001	dec    	eax
  === BLOCK LINK ===
    0x3002
=== CODE BLOCK END ===

=== CODE BLOCK ADDRESS 0x3002 ===
  0x3002	lea    	edi, [edi + 0x50]
  0x3005	dec    	eax
  0x3006	lea    	eax, [edi - 0x40]
  0x3009	dec    	eax
  0x300a	cmp    	eax, esi
  === BLOCK LINK ===
    0x300c
=== CODE BLOCK END ===

=== CODE BLOCK ADDRESS 0x300c ===
  0x300c	jne    	0x2fe3
  === BLOCK LINK ===
    0x300e
=== CODE BLOCK END ===

=== CODE BLOCK ADDRESS 0x300e ===
  0x300e	dec    	eax
  0x300f	mov    	ebx, dword ptr [ebp + 0x18]
  0x3012	call   	dword ptr [0x41f0]
  === BLOCK LINK ===
    0x3018
=== CODE BLOCK END ===

=== CODE BLOCK ADDRESS 0x3018 ===
  0x3018	dec    	esp
  0x3019	mov    	eax, ebx
  0x301b	xor    	edx, edx
  0x301d	dec    	eax
  0x301e	mov    	ecx, eax
  === BLOCK LINK ===
    0x3020
=== CODE BLOCK END ===

=== CODE BLOCK ADDRESS 0x3020 ===
  0x3020	call   	dword ptr [0x41da]
  === BLOCK LINK ===
    0x3026
=== CODE BLOCK END ===

=== CODE BLOCK ADDRESS 0x3026 ===
  0x3026	dec    	eax
  0x3027	mov    	ebx, dword ptr [esp + 0x30]
  0x302b	dec    	eax
  0x302c	mov    	esi, dword ptr [esp + 0x40]
  0x3030	dec    	eax
  === BLOCK LINK ===
    0x3031
=== CODE BLOCK END ===

=== CODE BLOCK ADDRESS 0x3031 ===
  0x3031	mov    	edi, dword ptr [esp + 0x48]
  0x3035	inc    	esp
  0x3036	mov    	dword ptr [ebp + 0x20], esi
  0x3039	dec    	esp
  0x303a	mov    	dword ptr [ebp + 0x18], esi
  === BLOCK LINK ===
    0x303d
=== CODE BLOCK END ===

=== CODE BLOCK ADDRESS 0x303d ===
  0x303d	dec    	eax
  0x303e	mov    	ebp, dword ptr [esp + 0x38]
  0x3042	dec    	eax
  0x3043	add    	esp, 0x20
  0x3046	inc    	ecx
  === BLOCK LINK ===
    0x3047
=== CODE BLOCK END ===

=== CODE BLOCK ADDRESS 0x3047 ===
  0x3047	pop    	esi
  0x3048	ret    	
  0x3049	int3   	
  0x304a	int3   	
  0x304b	int3   	
  === BLOCK LINK ===
    0x304c
=== CODE BLOCK END ===

=== CODE BLOCK ADDRESS 0x304c ===
  0x304c	int3   	
  0x304d	int3   	
  0x304e	int3   	
  0x304f	int3   	
  0x3050	int3   	
  === BLOCK LINK ===
    0x3051
=== CODE BLOCK END ===

=== CODE BLOCK ADDRESS 0x3051 ===
  0x3051	int3   	
  0x3052	int3   	
  0x3053	int3   	
  0x3054	int3   	
  0x3055	int3   	
  === BLOCK LINK ===
    0x3056
=== CODE BLOCK END ===

=== CODE BLOCK ADDRESS 0x3056 ===
  0x3056	int3   	
  0x3057	int3   	
  0x3058	jno    	0x2ff4
  === BLOCK LINK ===
    0x305a
=== CODE BLOCK END ===

=== CODE BLOCK ADDRESS 0x305a ===
  0x305a	pop    	ebp
  0x305b	adc    	byte ptr [ebx + 0x26], cl
  0x305e	cmp    	ch, ch
  0x3060	dec    	eax
  0x3061	mov    	dword ptr [esp + 8], ebx
  === BLOCK LINK ===
    0x3065
=== CODE BLOCK END ===

=== CODE BLOCK ADDRESS 0x3065 ===
  0x3065	push   	edi
  0x3066	dec    	eax
  0x3067	sub    	esp, 0x20
  0x306a	mov    	ebx, edx
  0x306c	dec    	eax
  === BLOCK LINK ===
    0x306d
=== CODE BLOCK END ===

=== CODE BLOCK ADDRESS 0x306d ===
  0x306d	mov    	edi, ecx
  0x306f	call   	0x2ef8
  === BLOCK LINK ===
    0x3074
=== CODE BLOCK END ===

=== CODE BLOCK ADDRESS 0x3074 ===
  0x3074	test   	bl, 1
  0x3077	je     	0x3086
  === BLOCK LINK ===
    0x3079
=== CODE BLOCK END ===

=== CODE BLOCK ADDRESS 0x3079 ===
  0x3079	mov    	edx, 0xd0
  0x307e	dec    	eax
  0x307f	mov    	ecx, edi
  0x3081	call   	0x1848
  === BLOCK LINK ===
    0x3086
=== CODE BLOCK END ===

=== CODE BLOCK ADDRESS 0x3086 ===
  0x3086	dec    	eax
  0x3087	mov    	ebx, dword ptr [esp + 0x30]
  0x308b	dec    	eax
  0x308c	mov    	eax, edi
  0x308e	dec    	eax
  === BLOCK LINK ===
    0x308f
=== CODE BLOCK END ===

=== CODE BLOCK ADDRESS 0x308f ===
  0x308f	add    	esp, 0x20
  0x3092	pop    	edi
  0x3093	ret    	
  0x3094	int3   	
  0x3095	int3   	
  === BLOCK LINK ===
    0x3096
=== CODE BLOCK END ===

=== CODE BLOCK ADDRESS 0x17c8 ===
  0x17c8	inc    	eax
  0x17c9	push   	ebx
  0x17ca	dec    	eax
  0x17cb	sub    	esp, 0x20
  === BLOCK LINK ===
    0x17ce
=== CODE BLOCK END ===

=== CODE BLOCK ADDRESS 0x3096 ===
  0x3096	int3   	
  0x3097	int3   	
  0x3098	jno    	0x3034
  === BLOCK LINK ===
    0x309a
=== CODE BLOCK END ===

=== CODE BLOCK ADDRESS 0x309a ===
  0x309a	pop    	ebp
  0x309b	adc    	byte ptr [ebx + 0x26], cl
  0x309e	cmp    	ch, ch
  0x30a0	dec    	eax
  0x30a1	mov    	dword ptr [esp + 8], ebx
  === BLOCK LINK ===
    0x30a5
=== CODE BLOCK END ===

=== CODE BLOCK ADDRESS 0x30a5 ===
  0x30a5	push   	edi
  0x30a6	dec    	eax
  0x30a7	sub    	esp, 0x20
  0x30aa	dec    	eax
  0x30ab	lea    	eax, [0x3f6f]
  === BLOCK LINK ===
    0x30b1
=== CODE BLOCK END ===

=== CODE BLOCK ADDRESS 0x30b1 ===
  0x30b1	dec    	eax
  0x30b2	mov    	edi, ecx
  0x30b4	dec    	eax
  0x30b5	mov    	dword ptr [ecx], eax
  0x30b7	mov    	ebx, edx
  === BLOCK LINK ===
    0x30b9
=== CODE BLOCK END ===

=== CODE BLOCK ADDRESS 0x30b9 ===
  0x30b9	dec    	eax
  0x30ba	add    	ecx, 8
  0x30bd	call   	0x1e56
  === BLOCK LINK ===
    0x30c2
=== CODE BLOCK END ===

=== CODE BLOCK ADDRESS 0x30c2 ===
  0x30c2	test   	bl, 1
  0x30c5	je     	0x30d4
  === BLOCK LINK ===
    0x30c7
=== CODE BLOCK END ===

=== CODE BLOCK ADDRESS 0x30c7 ===
  0x30c7	mov    	edx, 0x18
  0x30cc	dec    	eax
  0x30cd	mov    	ecx, edi
  0x30cf	call   	0x1848
  === BLOCK LINK ===
    0x30d4
=== CODE BLOCK END ===

=== CODE BLOCK ADDRESS 0x30d4 ===
  0x30d4	dec    	eax
  0x30d5	mov    	ebx, dword ptr [esp + 0x30]
  0x30d9	dec    	eax
  0x30da	mov    	eax, edi
  0x30dc	dec    	eax
  === BLOCK LINK ===
    0x30dd
=== CODE BLOCK END ===

=== CODE BLOCK ADDRESS 0x30dd ===
  0x30dd	add    	esp, 0x20
  0x30e0	pop    	edi
  0x30e1	ret    	
  0x30e2	int3   	
  0x30e3	int3   	
  === BLOCK LINK ===
    0x30e4
=== CODE BLOCK END ===

=== CODE BLOCK ADDRESS 0x30e4 ===
  0x30e4	dec    	eax
  0x30e5	mov    	eax, esp
  0x30e7	push   	ebp
  0x30e8	push   	edi
  0x30e9	inc    	ecx
  === BLOCK LINK ===
    0x30ea
=== CODE BLOCK END ===

=== CODE BLOCK ADDRESS 0x30ea ===
  0x30ea	push   	esi
  0x30eb	dec    	eax
  0x30ec	lea    	ebp, [eax - 0x188]
  0x30f2	dec    	eax
  0x30f3	sub    	esp, 0x270
  === BLOCK LINK ===
    0x30f9
=== CODE BLOCK END ===

=== CODE BLOCK ADDRESS 0x30f9 ===
  0x30f9	dec    	eax
  0x30fa	mov    	dword ptr [esp + 0x40], 0xfffffffe
  0x3102	dec    	eax
  0x3103	mov    	dword ptr [eax + 0x18], ebx
  0x3106	dec    	eax
  === BLOCK LINK ===
    0x3107
=== CODE BLOCK END ===

=== CODE BLOCK ADDRESS 0x3107 ===
  0x3107	mov    	dword ptr [eax + 0x20], esi
  0x310a	dec    	eax
  0x310b	mov    	eax, dword ptr [0x6f7f]
  0x3111	dec    	eax
  0x3112	xor    	eax, esp
  === BLOCK LINK ===
    0x3114
=== CODE BLOCK END ===

=== CODE BLOCK ADDRESS 0x3114 ===
  0x3114	dec    	eax
  0x3115	mov    	dword ptr [ebp + 0x160], eax
  0x311b	dec    	esp
  0x311c	mov    	esi, edx
  0x311e	dec    	eax
  === BLOCK LINK ===
    0x311f
=== CODE BLOCK END ===

=== CODE BLOCK ADDRESS 0x311f ===
  0x311f	mov    	ebx, ecx
  0x3121	dec    	eax
  0x3122	and    	dword ptr [edx], 0
  0x3125	call   	dword ptr [0x4145]
  === BLOCK LINK ===
    0x312b
=== CODE BLOCK END ===

=== CODE BLOCK ADDRESS 0x312b ===
  0x312b	inc    	esp
  0x312c	mov    	ecx, eax
  0x312e	dec    	eax
  0x312f	mov    	dword ptr [esp + 0x28], ebx
  0x3133	mov    	dword ptr [esp + 0x20], 0x78
  === BLOCK LINK ===
    0x313b
=== CODE BLOCK END ===

=== CODE BLOCK ADDRESS 0x313b ===
  0x313b	dec    	esp
  0x313c	lea    	eax, [0x4836]
  0x3142	mov    	edx, 0x104
  0x3147	dec    	eax
  0x3148	lea    	ecx, [esp + 0x50]
  === BLOCK LINK ===
    0x314c
=== CODE BLOCK END ===

=== CODE BLOCK ADDRESS 0x314c ===
  0x314c	call   	0x54cc
  === BLOCK LINK ===
    0x3151
=== CODE BLOCK END ===

=== CODE BLOCK ADDRESS 0x3151 ===
  0x3151	nop    	
  0x3152	inc    	ecx
  0x3153	mov    	ecx, 0x1f0001
  0x3158	inc    	ebp
  0x3159	xor    	eax, eax
  === BLOCK LINK ===
    0x315b
=== CODE BLOCK END ===

=== CODE BLOCK ADDRESS 0x315b ===
  0x315b	dec    	eax
  0x315c	lea    	edx, [esp + 0x50]
  0x3160	xor    	ecx, ecx
  0x3162	call   	dword ptr [0x4198]
  === BLOCK LINK ===
    0x3168
=== CODE BLOCK END ===

=== CODE BLOCK ADDRESS 0x3168 ===
  0x3168	dec    	eax
  0x3169	mov    	edi, eax
  0x316b	dec    	eax
  0x316c	mov    	dword ptr [esp + 0x30], eax
  0x3170	dec    	eax
  === BLOCK LINK ===
    0x3171
=== CODE BLOCK END ===

=== CODE BLOCK ADDRESS 0x3171 ===
  0x3171	test   	eax, eax
  0x3173	jne    	0x3180
  === BLOCK LINK ===
    0x3175
=== CODE BLOCK END ===

=== CODE BLOCK ADDRESS 0x3175 ===
  0x3175	call   	0x3960
  === BLOCK LINK ===
    0x317a
=== CODE BLOCK END ===

=== CODE BLOCK ADDRESS 0x317a ===
  0x317a	nop    	
  0x317b	jmp    	0x32a1
  === BLOCK LINK ===
    0x3180
=== CODE BLOCK END ===

=== CODE BLOCK ADDRESS 0x3180 ===
  0x3180	inc    	ebp
  0x3181	xor    	eax, eax
  0x3183	or     	edx, 0xffffffff
  0x3186	dec    	eax
  0x3187	mov    	ecx, edi
  === BLOCK LINK ===
    0x3189
=== CODE BLOCK END ===

=== CODE BLOCK ADDRESS 0x3189 ===
  0x3189	call   	dword ptr [0x4161]
  === BLOCK LINK ===
    0x318f
=== CODE BLOCK END ===

=== CODE BLOCK ADDRESS 0x318f ===
  0x318f	cmp    	eax, 0x102
  0x3194	je     	0x31a6
  === BLOCK LINK ===
    0x3196
=== CODE BLOCK END ===

=== CODE BLOCK ADDRESS 0x3196 ===
  0x3196	test   	eax, 0xffffff7f
  0x319b	jne    	0x3342
  === BLOCK LINK ===
    0x31a1
=== CODE BLOCK END ===

=== CODE BLOCK ADDRESS 0x31a1 ===
  0x31a1	dec    	eax
  0x31a2	mov    	ebx, edi
  0x31a4	jmp    	0x31a8
  === BLOCK LINK ===
    0x31a6
=== CODE BLOCK END ===

=== CODE BLOCK ADDRESS 0x31a6 ===
  0x31a6	xor    	ebx, ebx
  0x31a8	dec    	eax
  0x31a9	mov    	dword ptr [esp + 0x48], ebx
  0x31ad	dec    	eax
  0x31ae	and    	dword ptr [esp + 0x38], 0
  === BLOCK LINK ===
    0x31b3
=== CODE BLOCK END ===

=== CODE BLOCK ADDRESS 0x31b3 ===
  0x31b3	dec    	esp
  0x31b4	lea    	eax, [esp + 0x38]
  0x31b8	dec    	eax
  0x31b9	lea    	ecx, [esp + 0x50]
  0x31bd	call   	0x5568
  === BLOCK LINK ===
    0x31c2
=== CODE BLOCK END ===

=== CODE BLOCK ADDRESS 0x31c2 ===
  0x31c2	mov    	esi, eax
  0x31c4	test   	eax, eax
  0x31c6	jns    	0x3250
  === BLOCK LINK ===
    0x31cc
=== CODE BLOCK END ===

=== CODE BLOCK ADDRESS 0x31cc ===
  0x31cc	dec    	eax
  0x31cd	mov    	ecx, dword ptr [ebp + 0x188]
  0x31d3	inc    	esp
  0x31d4	mov    	ecx, eax
  0x31d6	dec    	esp
  === BLOCK LINK ===
    0x31d7
=== CODE BLOCK END ===

=== CODE BLOCK ADDRESS 0x31d7 ===
  0x31d7	lea    	eax, [0x45ff]
  0x31dd	mov    	edx, 0x62
  0x31e2	call   	0x4994
  === BLOCK LINK ===
    0x31e7
=== CODE BLOCK END ===

=== CODE BLOCK ADDRESS 0x31e7 ===
  0x31e7	dec    	eax
  0x31e8	mov    	ecx, dword ptr [ebp + 0x188]
  0x31ee	inc    	esp
  0x31ef	mov    	ecx, esi
  0x31f1	dec    	esp
  === BLOCK LINK ===
    0x31f2
=== CODE BLOCK END ===

=== CODE BLOCK ADDRESS 0x31f2 ===
  0x31f2	lea    	eax, [0x45e4]
  0x31f8	mov    	edx, 0x6b
  0x31fd	call   	0x4994
  === BLOCK LINK ===
    0x3202
=== CODE BLOCK END ===

=== CODE BLOCK ADDRESS 0x3202 ===
  0x3202	dec    	eax
  0x3203	mov    	ecx, dword ptr [ebp + 0x188]
  0x3209	inc    	esp
  0x320a	mov    	ecx, esi
  0x320c	dec    	esp
  === BLOCK LINK ===
    0x320d
=== CODE BLOCK END ===

=== CODE BLOCK ADDRESS 0x320d ===
  0x320d	lea    	eax, [0x45c9]
  0x3213	mov    	edx, 0x128
  0x3218	call   	0x4994
  === BLOCK LINK ===
    0x321d
=== CODE BLOCK END ===

=== CODE BLOCK ADDRESS 0x321d ===
  0x321d	nop    	
  0x321e	dec    	eax
  0x321f	test   	ebx, ebx
  0x3221	je     	0x323b
  === BLOCK LINK ===
    0x3223
=== CODE BLOCK END ===

=== CODE BLOCK ADDRESS 0x3223 ===
  0x3223	dec    	eax
  0x3224	mov    	ecx, ebx
  0x3226	call   	dword ptr [0x40e4]
  === BLOCK LINK ===
    0x322c
=== CODE BLOCK END ===

=== CODE BLOCK ADDRESS 0x322c ===
  0x322c	dec    	eax
  0x322d	mov    	ecx, dword ptr [ebp + 0x188]
  0x3233	test   	eax, eax
  0x3235	je     	0x334f
  === BLOCK LINK ===
    0x323b
=== CODE BLOCK END ===

=== CODE BLOCK ADDRESS 0x323b ===
  0x323b	dec    	eax
  0x323c	mov    	ecx, edi
  0x323e	call   	dword ptr [0x3fa4]
  === BLOCK LINK ===
    0x3244
=== CODE BLOCK END ===

=== CODE BLOCK ADDRESS 0x3244 ===
  0x3244	test   	eax, eax
  0x3246	je     	0x335a
  === BLOCK LINK ===
    0x324c
=== CODE BLOCK END ===

=== CODE BLOCK ADDRESS 0x324c ===
  0x324c	mov    	eax, esi
  0x324e	jmp    	0x32a1
  === BLOCK LINK ===
    0x3250
=== CODE BLOCK END ===

=== CODE BLOCK ADDRESS 0x3250 ===
  0x3250	dec    	eax
  0x3251	mov    	eax, dword ptr [esp + 0x38]
  0x3255	dec    	eax
  0x3256	shl    	eax, 2
  0x3259	dec    	eax
  === BLOCK LINK ===
    0x325a
=== CODE BLOCK END ===

=== CODE BLOCK ADDRESS 0x325a ===
  0x325a	test   	eax, eax
  0x325c	je     	0x32c8
  === BLOCK LINK ===
    0x325e
=== CODE BLOCK END ===

=== CODE BLOCK ADDRESS 0x325e ===
  0x325e	dec    	ecx
  0x325f	mov    	dword ptr [esi], eax
  0x3261	mov    	ecx, dword ptr [eax]
  0x3263	inc    	ecx
  0x3265	dec    	ecx
  === BLOCK LINK ===
    0x3266
=== CODE BLOCK END ===

=== CODE BLOCK ADDRESS 0x3266 ===
  0x3266	mov    	eax, dword ptr [esi]
  0x3268	mov    	dword ptr [eax], ecx
  0x326a	dec    	eax
  0x326b	test   	ebx, ebx
  0x326d	je     	0x3287
  === BLOCK LINK ===
    0x326f
=== CODE BLOCK END ===

=== CODE BLOCK ADDRESS 0x326f ===
  0x326f	dec    	eax
  0x3270	mov    	ecx, ebx
  0x3272	call   	dword ptr [0x4098]
  === BLOCK LINK ===
    0x3278
=== CODE BLOCK END ===

=== CODE BLOCK ADDRESS 0x3278 ===
  0x3278	dec    	eax
  0x3279	mov    	ecx, dword ptr [ebp + 0x188]
  0x327f	test   	eax, eax
  0x3281	je     	0x336c
  === BLOCK LINK ===
    0x3287
=== CODE BLOCK END ===

=== CODE BLOCK ADDRESS 0x3287 ===
  0x3287	dec    	eax
  0x3288	mov    	ecx, dword ptr [esp + 0x30]
  0x328c	dec    	eax
  0x328d	test   	ecx, ecx
  0x328f	je     	0x329f
  === BLOCK LINK ===
    0x3291
=== CODE BLOCK END ===

=== CODE BLOCK ADDRESS 0x3291 ===
  0x3291	call   	dword ptr [0x3f51]
  === BLOCK LINK ===
    0x3297
=== CODE BLOCK END ===

=== CODE BLOCK ADDRESS 0x3297 ===
  0x3297	test   	eax, eax
  0x3299	je     	0x3330
  === BLOCK LINK ===
    0x329f
=== CODE BLOCK END ===

=== CODE BLOCK ADDRESS 0x329f ===
  0x329f	xor    	eax, eax
  0x32a1	dec    	eax
  0x32a2	mov    	ecx, dword ptr [ebp + 0x160]
  0x32a8	dec    	eax
  0x32a9	xor    	ecx, esp
  === BLOCK LINK ===
    0x32ab
=== CODE BLOCK END ===

=== CODE BLOCK ADDRESS 0x32ab ===
  0x32ab	call   	0x1450
  === BLOCK LINK ===
    0x32b0
=== CODE BLOCK END ===

=== CODE BLOCK ADDRESS 0x32b0 ===
  0x32b0	dec    	esp
  0x32b1	lea    	ebx, [esp + 0x270]
  0x32b8	dec    	ecx
  0x32b9	mov    	ebx, dword ptr [ebx + 0x30]
  0x32bc	dec    	ecx
  === BLOCK LINK ===
    0x32bd
=== CODE BLOCK END ===

=== CODE BLOCK ADDRESS 0x32bd ===
  0x32bd	mov    	esi, dword ptr [ebx + 0x38]
  0x32c0	dec    	ecx
  0x32c1	mov    	esp, ebx
  0x32c3	inc    	ecx
  0x32c4	pop    	esi
  === BLOCK LINK ===
    0x32c5
=== CODE BLOCK END ===

=== CODE BLOCK ADDRESS 0x32c5 ===
  0x32c5	pop    	edi
  0x32c6	pop    	ebp
  0x32c7	ret    	
  0x32c8	dec    	ebp
  0x32c9	mov    	eax, esi
  === BLOCK LINK ===
    0x32cb
=== CODE BLOCK END ===

=== CODE BLOCK ADDRESS 0x32cb ===
  0x32cb	dec    	eax
  0x32cc	lea    	edx, [esp + 0x30]
  0x32d0	dec    	eax
  0x32d1	lea    	ecx, [esp + 0x50]
  0x32d5	call   	0x4390
  === BLOCK LINK ===
    0x32da
=== CODE BLOCK END ===

=== CODE BLOCK ADDRESS 0x32da ===
  0x32da	mov    	edi, eax
  0x32dc	test   	eax, eax
  0x32de	jns    	0x326a
  === BLOCK LINK ===
    0x32e0
=== CODE BLOCK END ===

=== CODE BLOCK ADDRESS 0x32e0 ===
  0x32e0	dec    	eax
  0x32e1	mov    	ecx, dword ptr [ebp + 0x188]
  0x32e7	inc    	esp
  0x32e8	mov    	ecx, eax
  0x32ea	dec    	esp
  === BLOCK LINK ===
    0x32eb
=== CODE BLOCK END ===

=== CODE BLOCK ADDRESS 0x32eb ===
  0x32eb	lea    	eax, [0x44eb]
  0x32f1	mov    	edx, 0x130
  0x32f6	call   	0x4994
  === BLOCK LINK ===
    0x32fb
=== CODE BLOCK END ===

=== CODE BLOCK ADDRESS 0x32fb ===
  0x32fb	nop    	
  0x32fc	dec    	eax
  0x32fd	test   	ebx, ebx
  0x32ff	je     	0x3315
  === BLOCK LINK ===
    0x3301
=== CODE BLOCK END ===

=== CODE BLOCK ADDRESS 0x3301 ===
  0x3301	dec    	eax
  0x3302	mov    	ecx, ebx
  0x3304	call   	dword ptr [0x4006]
  === BLOCK LINK ===
    0x330a
=== CODE BLOCK END ===

=== CODE BLOCK ADDRESS 0x330a ===
  0x330a	dec    	eax
  0x330b	mov    	ecx, dword ptr [ebp + 0x188]
  0x3311	test   	eax, eax
  0x3313	je     	0x3377
  === BLOCK LINK ===
    0x3315
=== CODE BLOCK END ===

=== CODE BLOCK ADDRESS 0x3315 ===
  0x3315	dec    	eax
  0x3316	mov    	ecx, dword ptr [esp + 0x30]
  0x331a	dec    	eax
  0x331b	test   	ecx, ecx
  0x331d	je     	0x3329
  === BLOCK LINK ===
    0x331f
=== CODE BLOCK END ===

=== CODE BLOCK ADDRESS 0x331f ===
  0x331f	call   	dword ptr [0x3ec3]
  === BLOCK LINK ===
    0x3325
=== CODE BLOCK END ===

=== CODE BLOCK ADDRESS 0x3325 ===
  0x3325	test   	eax, eax
  0x3327	je     	0x3382
  === BLOCK LINK ===
    0x3329
=== CODE BLOCK END ===

=== CODE BLOCK ADDRESS 0x3329 ===
  0x3329	mov    	eax, edi
  0x332b	jmp    	0x32a1
  === BLOCK LINK ===
    0x3330
=== CODE BLOCK END ===

=== CODE BLOCK ADDRESS 0x3330 ===
  0x3330	dec    	eax
  0x3331	mov    	ecx, dword ptr [ebp + 0x188]
  0x3337	mov    	edx, 0x937
  0x333c	call   	0x597c
  === BLOCK LINK ===
    0x3341
=== CODE BLOCK END ===

=== CODE BLOCK ADDRESS 0x3341 ===
  0x3341	nop    	
  0x3342	dec    	eax
  0x3343	mov    	ecx, dword ptr [ebp + 0x188]
  0x3349	call   	0x33a8
  === BLOCK LINK ===
    0x334e
=== CODE BLOCK END ===

=== CODE BLOCK ADDRESS 0x334e ===
  0x334e	int3   	
  0x334f	mov    	edx, 0x941
  0x3354	call   	0x597c
  === BLOCK LINK ===
    0x3359
=== CODE BLOCK END ===

=== CODE BLOCK ADDRESS 0x3359 ===
  0x3359	nop    	
  0x335a	dec    	eax
  0x335b	mov    	ecx, dword ptr [ebp + 0x188]
  0x3361	mov    	edx, 0x937
  0x3366	call   	0x597c
  === BLOCK LINK ===
    0x336b
=== CODE BLOCK END ===

=== CODE BLOCK ADDRESS 0x336b ===
  0x336b	nop    	
  0x336c	mov    	edx, 0x941
  0x3371	call   	0x597c
  === BLOCK LINK ===
    0x3376
=== CODE BLOCK END ===

=== CODE BLOCK ADDRESS 0x3376 ===
  0x3376	int3   	
  0x3377	mov    	edx, 0x941
  0x337c	call   	0x597c
  === BLOCK LINK ===
    0x3381
=== CODE BLOCK END ===

=== CODE BLOCK ADDRESS 0x3381 ===
  0x3381	nop    	
  0x3382	dec    	eax
  0x3383	mov    	ecx, dword ptr [ebp + 0x188]
  0x3389	mov    	edx, 0x937
  0x338e	call   	0x597c
  === BLOCK LINK ===
    0x3393
=== CODE BLOCK END ===

=== CODE BLOCK ADDRESS 0x3393 ===
  0x3393	int3   	
  0x3394	int3   	
  0x3395	int3   	
  0x3396	int3   	
  0x3397	int3   	
  === BLOCK LINK ===
    0x3398
=== CODE BLOCK END ===

=== CODE BLOCK ADDRESS 0x3398 ===
  0x3398	jno    	0x33e2
  === BLOCK LINK ===
    0x339a
=== CODE BLOCK END ===

=== CODE BLOCK ADDRESS 0x339a ===
  0x339a	ficom  	dword ptr [esi - 0x6a]
  0x339d	int1   	
  0x339f	test   	dword ptr [eax - 1], ecx
  0x33a2	and    	eax, 0x3e01
  0x33a7	int3   	
  === BLOCK LINK ===
    0x33a8
=== CODE BLOCK END ===

=== CODE BLOCK ADDRESS 0x33a8 ===
  0x33a8	dec    	eax
  0x33a9	sub    	esp, 0x58
  0x33ac	dec    	eax
  0x33ad	mov    	dword ptr [esp + 0x40], 0xfffffffe
  0x33b5	dec    	eax
  === BLOCK LINK ===
    0x33b6
=== CODE BLOCK END ===

=== CODE BLOCK ADDRESS 0x33b6 ===
  0x33b6	mov    	eax, dword ptr [esp + 0x58]
  0x33ba	dec    	eax
  0x33bb	mov    	dword ptr [esp + 0x28], eax
  0x33bf	call   	0x2298
  === BLOCK LINK ===
    0x33c4
=== CODE BLOCK END ===

=== CODE BLOCK ADDRESS 0x33c4 ===
  0x33c4	int3   	
  0x33c5	int3   	
  0x33c6	int3   	
  0x33c7	int3   	
  0x33c8	jno    	0x33a5
  === BLOCK LINK ===
    0x33ca
=== CODE BLOCK END ===

=== CODE BLOCK ADDRESS 0x33ca ===
  0x33ca	sal    	dword ptr [edi], cl
  0x33cd	xchg   	dword ptr [eax - 0x75], esp
  0x33d0	dec    	eax
  0x33d1	mov    	dword ptr [esp + 8], ebx
  0x33d5	dec    	eax
  === BLOCK LINK ===
    0x33d6
=== CODE BLOCK END ===

=== CODE BLOCK ADDRESS 0x33d6 ===
  0x33d6	mov    	dword ptr [esp + 0x10], esi
  0x33da	push   	edi
  0x33db	dec    	eax
  0x33dc	sub    	esp, 0x40
  0x33df	dec    	eax
  === BLOCK LINK ===
    0x33e0
=== CODE BLOCK END ===

=== CODE BLOCK ADDRESS 0x33e0 ===
  0x33e0	mov    	eax, dword ptr [0x7452]
  0x33e6	inc    	ecx
  0x33e7	mov    	ebx, eax
  0x33e9	dec    	eax
  0x33ea	mov    	edi, edx
  === BLOCK LINK ===
    0x33ec
=== CODE BLOCK END ===

=== CODE BLOCK ADDRESS 0x33ec ===
  0x33ec	mov    	esi, ecx
  0x33ee	dec    	eax
  0x33ef	test   	eax, eax
  0x33f1	jne    	0x3407
  === BLOCK LINK ===
    0x33f3
=== CODE BLOCK END ===

=== CODE BLOCK ADDRESS 0x33f3 ===
  0x33f3	dec    	eax
  0x33f4	lea    	ecx, [0x441e]
  0x33fa	call   	dword ptr [0x3e40]
  === BLOCK LINK ===
    0x3400
=== CODE BLOCK END ===

=== CODE BLOCK ADDRESS 0x3400 ===
  0x3400	dec    	eax
  0x3401	mov    	dword ptr [0x7431], eax
  0x3407	dec    	eax
  0x3408	and    	dword ptr [esp + 0x30], 0
  0x340d	inc    	ecx
  === BLOCK LINK ===
    0x340e
=== CODE BLOCK END ===

=== CODE BLOCK ADDRESS 0x340e ===
  0x340e	mov    	ecx, 0x400
  0x3413	mov    	dword ptr [esp + 0x28], ebx
  0x3417	inc    	esp
  0x3418	mov    	eax, esi
  0x341a	dec    	eax
  === BLOCK LINK ===
    0x341b
=== CODE BLOCK END ===

=== CODE BLOCK ADDRESS 0x341b ===
  0x341b	mov    	edx, eax
  0x341d	dec    	eax
  0x341e	mov    	dword ptr [esp + 0x20], edi
  0x3422	mov    	ecx, 0x1a00
  0x3427	call   	dword ptr [0x3e33]
  === BLOCK LINK ===
    0x342d
=== CODE BLOCK END ===

=== CODE BLOCK ADDRESS 0x342d ===
  0x342d	dec    	eax
  0x342e	mov    	ebx, dword ptr [esp + 0x50]
  0x3432	dec    	eax
  0x3433	mov    	esi, dword ptr [esp + 0x58]
  0x3437	dec    	eax
  === BLOCK LINK ===
    0x3438
=== CODE BLOCK END ===

=== CODE BLOCK ADDRESS 0x3438 ===
  0x3438	add    	esp, 0x40
  0x343b	pop    	edi
  0x343c	ret    	
  0x343d	int3   	
  0x343e	int3   	
  === BLOCK LINK ===
    0x343f
=== CODE BLOCK END ===

=== CODE BLOCK ADDRESS 0x140a ===
  0x140a	mov    	ecx, ebx
  0x140c	call   	0x1e86
  === BLOCK LINK ===
    0x1411
=== CODE BLOCK END ===

=== CODE BLOCK ADDRESS 0x343f ===
  0x343f	int3   	
  0x3440	dec    	eax
  0x3441	sub    	esp, 0x28
  0x3444	dec    	esp
  0x3445	mov    	eax, ecx
  === BLOCK LINK ===
    0x3447
=== CODE BLOCK END ===

=== CODE BLOCK ADDRESS 0x3447 ===
  0x3447	mov    	dword ptr [ecx], edx
  0x3449	mov    	ecx, edx
  0x344b	call   	0x3df0
  === BLOCK LINK ===
    0x3450
=== CODE BLOCK END ===

=== CODE BLOCK ADDRESS 0x3450 ===
  0x3450	inc    	ecx
  0x3451	mov    	dword ptr [eax + 4], eax
  0x3454	dec    	ecx
  0x3455	mov    	eax, eax
  0x3457	inc    	ecx
  === BLOCK LINK ===
    0x3458
=== CODE BLOCK END ===

=== CODE BLOCK ADDRESS 0x3458 ===
  0x3458	mov    	byte ptr [eax + 8], 0
  0x345c	dec    	eax
  0x345d	add    	esp, 0x28
  0x3460	ret    	
  0x3461	int3   	
  === BLOCK LINK ===
    0x3462
=== CODE BLOCK END ===

=== CODE BLOCK ADDRESS 0x3462 ===
  0x3462	int3   	
  0x3463	int3   	
  0x3464	int3   	
  0x3465	int3   	
  0x3466	int3   	
  === BLOCK LINK ===
    0x3467
=== CODE BLOCK END ===

=== CODE BLOCK ADDRESS 0x3467 ===
  0x3467	int3   	
  0x3468	jno    	0x3484
  === BLOCK LINK ===
    0x346a
=== CODE BLOCK END ===

=== CODE BLOCK ADDRESS 0x346a ===
  0x346a	ficomp  	dword ptr [eax + 0xa]
  0x346d	push   	cs
  0x346e	sbb    	edx, ebp
  0x3470	dec    	eax
  0x3471	mov    	eax, esp
  === BLOCK LINK ===
    0x3473
=== CODE BLOCK END ===

=== CODE BLOCK ADDRESS 0x3473 ===
  0x3473	inc    	ecx
  0x3474	push   	esi
  0x3475	dec    	eax
  0x3476	sub    	esp, 0x30
  0x3479	dec    	eax
  === BLOCK LINK ===
    0x347a
=== CODE BLOCK END ===

=== CODE BLOCK ADDRESS 0x347a ===
  0x347a	mov    	dword ptr [eax - 0x18], 0xfffffffe
  0x3481	dec    	eax
  0x3482	mov    	dword ptr [eax + 8], ebx
  0x3485	dec    	eax
  0x3486	mov    	dword ptr [eax + 0x10], ebp
  === BLOCK LINK ===
    0x3489
=== CODE BLOCK END ===

=== CODE BLOCK ADDRESS 0x3489 ===
  0x3489	dec    	eax
  0x348a	mov    	dword ptr [eax + 0x18], esi
  0x348d	dec    	eax
  0x348e	mov    	dword ptr [eax + 0x20], edi
  0x3491	dec    	ebp
  === BLOCK LINK ===
    0x3492
=== CODE BLOCK END ===

=== CODE BLOCK ADDRESS 0x3492 ===
  0x3492	mov    	esi, eax
  0x3494	dec    	eax
  0x3495	mov    	esi, edx
  0x3497	dec    	eax
  0x3498	mov    	edi, ecx
  === BLOCK LINK ===
    0x349a
=== CODE BLOCK END ===

=== CODE BLOCK ADDRESS 0x349a ===
  0x349a	mov    	byte ptr [edx], 0
  0x349d	inc    	eax
  0x349e	xor    	ch, ch
  0x34a0	dec    	eax
  0x34a1	mov    	ebx, dword ptr [0x7299]
  === BLOCK LINK ===
    0x34a7
=== CODE BLOCK END ===

=== CODE BLOCK ADDRESS 0x34a7 ===
  0x34a7	dec    	eax
  0x34a8	test   	ebx, ebx
  0x34aa	je     	0x353e
  === BLOCK LINK ===
    0x34b0
=== CODE BLOCK END ===

=== CODE BLOCK ADDRESS 0x34b0 ===
  0x34b0	call   	dword ptr [0x3dc2]
  === BLOCK LINK ===
    0x34b6
=== CODE BLOCK END ===

=== CODE BLOCK ADDRESS 0x34b6 ===
  0x34b6	inc    	esp
  0x34b7	mov    	ecx, eax
  0x34b9	inc    	esp
  0x34ba	mov    	eax, eax
  0x34bc	dec    	eax
  === BLOCK LINK ===
    0x34bd
=== CODE BLOCK END ===

=== CODE BLOCK ADDRESS 0x34bd ===
  0x34bd	mov    	eax, 0xcccccccd
  0x34c2	int3   	
  0x34c3	int3   	
  0x34c4	int3   	
  0x34c5	int3   	
  === BLOCK LINK ===
    0x34c6
=== CODE BLOCK END ===

=== CODE BLOCK ADDRESS 0x34c6 ===
  0x34c6	dec    	ecx
  0x34c7	mul    	ecx
  0x34c9	dec    	eax
  0x34ca	shr    	edx, 3
  0x34cd	dec    	eax
  === BLOCK LINK ===
    0x34ce
=== CODE BLOCK END ===

=== CODE BLOCK ADDRESS 0x34ce ===
  0x34ce	lea    	ecx, [edx + edx*4]
  0x34d1	dec    	eax
  0x34d2	add    	ecx, ecx
  0x34d4	dec    	esp
  0x34d5	sub    	eax, ecx
  === BLOCK LINK ===
    0x34d7
=== CODE BLOCK END ===

=== CODE BLOCK ADDRESS 0x34d7 ===
  0x34d7	dec    	edx
  0x34d8	mov    	ebx, dword ptr [ebx + eax*8]
  0x34db	jmp    	0x34e6
  === BLOCK LINK ===
    0x34dd
=== CODE BLOCK END ===

=== CODE BLOCK ADDRESS 0x34dd ===
  0x34dd	inc    	esp
  0x34de	cmp    	dword ptr [ebx], ecx
  0x34e0	je     	0x3559
  === BLOCK LINK ===
    0x34e2
=== CODE BLOCK END ===

=== CODE BLOCK ADDRESS 0x34e2 ===
  0x34e2	dec    	eax
  0x34e3	mov    	ebx, dword ptr [ebx + 8]
  0x34e6	dec    	eax
  0x34e7	test   	ebx, ebx
  0x34e9	jne    	0x34dd
  === BLOCK LINK ===
    0x34eb
=== CODE BLOCK END ===

=== CODE BLOCK ADDRESS 0x34eb ===
  0x34eb	dec    	eax
  0x34ec	test   	ebx, ebx
  0x34ee	je     	0x353e
  === BLOCK LINK ===
    0x34f0
=== CODE BLOCK END ===

=== CODE BLOCK ADDRESS 0x34f0 ===
  0x34f0	dec    	eax
  0x34f1	cmp    	dword ptr [ebx], 0
  0x34f4	je     	0x353e
  === BLOCK LINK ===
    0x34f6
=== CODE BLOCK END ===

=== CODE BLOCK ADDRESS 0x34f6 ===
  0x34f6	mov    	byte ptr [esi], 0
  0x34f9	dec    	ebp
  0x34fa	mov    	ecx, esi
  0x34fc	dec    	esp
  0x34fd	mov    	eax, esi
  === BLOCK LINK ===
    0x34ff
=== CODE BLOCK END ===

=== CODE BLOCK ADDRESS 0x34ff ===
  0x34ff	dec    	eax
  0x3500	mov    	edx, dword ptr [ebx]
  0x3502	dec    	eax
  0x3503	mov    	ecx, edi
  0x3505	call   	0x3ae8
  === BLOCK LINK ===
    0x350a
=== CODE BLOCK END ===

=== CODE BLOCK ADDRESS 0x350a ===
  0x350a	test   	al, al
  0x350c	je     	0x3512
  === BLOCK LINK ===
    0x350e
=== CODE BLOCK END ===

=== CODE BLOCK ADDRESS 0x350e ===
  0x350e	dec    	eax
  0x350f	mov    	dword ptr [edi + 0x48], esi
  0x3512	dec    	eax
  0x3513	mov    	ebx, dword ptr [ebx]
  0x3515	dec    	eax
  === BLOCK LINK ===
    0x3516
=== CODE BLOCK END ===

=== CODE BLOCK ADDRESS 0x3516 ===
  0x3516	mov    	ecx, dword ptr [ebx + 8]
  0x3519	dec    	eax
  0x351a	mov    	eax, dword ptr [ecx]
  0x351c	dec    	ecx
  0x351d	mov    	edx, 0x7a5fe970
  === BLOCK LINK ===
    0x3522
=== CODE BLOCK END ===

=== CODE BLOCK ADDRESS 0x3522 ===
  0x3522	cli    	
  0x3523	push   	es
  0x3524	adc    	esi, eax
  0x3526	dec    	eax
  0x3527	mov    	edx, edi
  === BLOCK LINK ===
    0x3529
=== CODE BLOCK END ===

=== CODE BLOCK ADDRESS 0x3529 ===
  0x3529	dec    	eax
  0x352a	mov    	eax, dword ptr [eax]
  0x352c	call   	dword ptr [0x3f66]
  === BLOCK LINK ===
    0x3532
=== CODE BLOCK END ===

=== CODE BLOCK ADDRESS 0x3532 ===
  0x3532	inc    	eax
  0x3533	or     	ch, al
  0x3535	dec    	eax
  0x3536	mov    	ebx, dword ptr [ebx + 0x10]
  0x3539	dec    	eax
  === BLOCK LINK ===
    0x353a
=== CODE BLOCK END ===

=== CODE BLOCK ADDRESS 0x353a ===
  0x353a	test   	ebx, ebx
  0x353c	jne    	0x3515
  === BLOCK LINK ===
    0x353e
=== CODE BLOCK END ===

=== CODE BLOCK ADDRESS 0x353e ===
  0x353e	dec    	eax
  0x353f	mov    	eax, dword ptr [0x720b]
  0x3545	dec    	eax
  0x3546	test   	eax, eax
  0x3548	je     	0x3575
  === BLOCK LINK ===
    0x354a
=== CODE BLOCK END ===

=== CODE BLOCK ADDRESS 0x354a ===
  0x354a	inc    	eax
  0x354b	test   	ch, ch
  0x354d	jne    	0x355f
  === BLOCK LINK ===
    0x354f
=== CODE BLOCK END ===

=== CODE BLOCK ADDRESS 0x354f ===
  0x354f	test   	byte ptr [edi + 4], 2
  0x3553	jne    	0x355f
  === BLOCK LINK ===
    0x3555
=== CODE BLOCK END ===

=== CODE BLOCK ADDRESS 0x3555 ===
  0x3555	xor    	ecx, ecx
  0x3557	jmp    	0x3561
  === BLOCK LINK ===
    0x3559
=== CODE BLOCK END ===

=== CODE BLOCK ADDRESS 0x3559 ===
  0x3559	dec    	eax
  0x355a	add    	ebx, 0x10
  0x355d	jmp    	0x34eb
  === BLOCK LINK ===
    0x355f
=== CODE BLOCK END ===

=== CODE BLOCK ADDRESS 0x355f ===
  0x355f	mov    	cl, 1
  0x3561	dec    	ecx
  0x3562	mov    	edx, 0x7a558170
  0x3567	add    	cl, byte ptr [edi - 0x74b77b6c]
  0x356d	xlatb  	
  === BLOCK LINK ===
    0x356e
=== CODE BLOCK END ===

=== CODE BLOCK ADDRESS 0x356e ===
  0x356e	call   	dword ptr [0x3f24]
  === BLOCK LINK ===
    0x3574
=== CODE BLOCK END ===

=== CODE BLOCK ADDRESS 0x3574 ===
  0x3574	nop    	
  0x3575	call   	dword ptr [0x3cfd]
  === BLOCK LINK ===
    0x357b
=== CODE BLOCK END ===

=== CODE BLOCK ADDRESS 0x357b ===
  0x357b	mov    	ecx, dword ptr [0x7257]
  0x3581	cmp    	ecx, eax
  0x3583	je     	0x35c5
  === BLOCK LINK ===
    0x3585
=== CODE BLOCK END ===

=== CODE BLOCK ADDRESS 0x3585 ===
  0x3585	mov    	ecx, 1
  0x358a	lock xadd  	dword ptr [0x724a], ecx
  0x3592	inc    	ecx
  0x3594	cmp    	ecx, 4
  0x3597	jge    	0x35be
  === BLOCK LINK ===
    0x3599
=== CODE BLOCK END ===

=== CODE BLOCK ADDRESS 0x3599 ===
  0x3599	mov    	dword ptr [0x7239], eax
  0x359f	call   	0x3bdc
  === BLOCK LINK ===
    0x35a4
=== CODE BLOCK END ===

=== CODE BLOCK ADDRESS 0x35a4 ===
  0x35a4	dec    	eax
  0x35a5	test   	eax, eax
  0x35a7	je     	0x35b4
  === BLOCK LINK ===
    0x35a9
=== CODE BLOCK END ===

=== CODE BLOCK ADDRESS 0x35a9 ===
  0x35a9	dec    	eax
  0x35aa	mov    	edx, edi
  0x35ac	dec    	eax
  0x35ad	mov    	ecx, eax
  0x35af	call   	0x5278
  === BLOCK LINK ===
    0x35b4
=== CODE BLOCK END ===

=== CODE BLOCK ADDRESS 0x35b4 ===
  0x35b4	mov    	dword ptr [0x721a], 0
  0x35be	lock dec  	dword ptr [0x7217]
  0x35c5	dec    	eax
  0x35c6	mov    	ebx, dword ptr [esp + 0x40]
  0x35ca	dec    	eax
  === BLOCK LINK ===
    0x35cb
=== CODE BLOCK END ===

=== CODE BLOCK ADDRESS 0x35cb ===
  0x35cb	mov    	ebp, dword ptr [esp + 0x48]
  0x35cf	dec    	eax
  0x35d0	mov    	esi, dword ptr [esp + 0x50]
  0x35d4	dec    	eax
  0x35d5	mov    	edi, dword ptr [esp + 0x58]
  === BLOCK LINK ===
    0x35d9
=== CODE BLOCK END ===

=== CODE BLOCK ADDRESS 0x35d9 ===
  0x35d9	dec    	eax
  0x35da	add    	esp, 0x30
  0x35dd	inc    	ecx
  0x35de	pop    	esi
  0x35df	ret    	
  === BLOCK LINK ===
    0x35e0
=== CODE BLOCK END ===

=== CODE BLOCK ADDRESS 0x35e0 ===
  0x35e0	int3   	
  0x35e1	int3   	
  0x35e2	int3   	
  0x35e3	int3   	
  0x35e4	int3   	
  === BLOCK LINK ===
    0x35e5
=== CODE BLOCK END ===

=== CODE BLOCK ADDRESS 0x35e5 ===
  0x35e5	int3   	
  0x35e6	int3   	
  0x35e7	int3   	
  0x35e8	jno    	0x35ad
  === BLOCK LINK ===
    0x35ea
=== CODE BLOCK END ===

=== CODE BLOCK ADDRESS 0x35ea ===
  0x35ea	fstp   	dword ptr [esi + 0x14]
  0x35ed	daa    	
  0x35ee	sub    	ebp, eax
  0x35f0	dec    	eax
  0x35f1	sub    	esp, 0x28
  === BLOCK LINK ===
    0x35f4
=== CODE BLOCK END ===

=== CODE BLOCK ADDRESS 0x35f4 ===
  0x35f4	mov    	cl, byte ptr [0x71d6]
  0x35fa	test   	cl, cl
  0x35fc	jne    	0x3620
  === BLOCK LINK ===
    0x35fe
=== CODE BLOCK END ===

=== CODE BLOCK ADDRESS 0x35fe ===
  0x35fe	inc    	ecx
  0x35ff	mov    	ecx, 0x40
  0x3604	dec    	esp
  0x3605	lea    	eax, [0x71e5]
  0x360b	xor    	edx, edx
  === BLOCK LINK ===
    0x360d
=== CODE BLOCK END ===

=== CODE BLOCK ADDRESS 0x360d ===
  0x360d	dec    	eax
  0x360e	lea    	ecx, [0x116c]
  0x3614	call   	0x39b8
  === BLOCK LINK ===
    0x3619
=== CODE BLOCK END ===

=== CODE BLOCK ADDRESS 0x3619 ===
  0x3619	mov    	byte ptr [0x71b0], 1
  0x3620	dec    	eax
  0x3621	lea    	eax, [0x71c9]
  0x3627	dec    	eax
  0x3628	add    	esp, 0x28
  === BLOCK LINK ===
    0x362b
=== CODE BLOCK END ===

=== CODE BLOCK ADDRESS 0x362b ===
  0x362b	ret    	
  0x362c	dec    	eax
  0x362d	mov    	eax, esp
  0x362f	push   	ebp
  0x3630	push   	esi
  === BLOCK LINK ===
    0x3631
=== CODE BLOCK END ===

=== CODE BLOCK ADDRESS 0x3631 ===
  0x3631	push   	edi
  0x3632	inc    	ecx
  0x3633	push   	esi
  0x3634	inc    	ecx
  0x3635	push   	edi
  === BLOCK LINK ===
    0x3636
=== CODE BLOCK END ===

=== CODE BLOCK ADDRESS 0x3636 ===
  0x3636	dec    	eax
  0x3637	sub    	esp, 0x260
  0x363d	dec    	eax
  0x363e	mov    	dword ptr [esp + 0x40], 0xfffffffe
  0x3646	dec    	eax
  === BLOCK LINK ===
    0x3647
=== CODE BLOCK END ===

=== CODE BLOCK ADDRESS 0x3647 ===
  0x3647	mov    	dword ptr [eax + 0x20], ebx
  0x364a	dec    	eax
  0x364b	mov    	eax, dword ptr [0x6a3f]
  0x3651	dec    	eax
  0x3652	xor    	eax, esp
  === BLOCK LINK ===
    0x3654
=== CODE BLOCK END ===

=== CODE BLOCK ADDRESS 0x3654 ===
  0x3654	dec    	eax
  0x3655	mov    	dword ptr [esp + 0x250], eax
  0x365c	dec    	ecx
  0x365d	mov    	ebx, eax
  0x365f	dec    	eax
  === BLOCK LINK ===
    0x3660
=== CODE BLOCK END ===

=== CODE BLOCK ADDRESS 0x3660 ===
  0x3660	mov    	edi, edx
  0x3662	dec    	esp
  0x3663	mov    	esi, ecx
  0x3665	inc    	ebp
  0x3666	xor    	edi, edi
  === BLOCK LINK ===
    0x3668
=== CODE BLOCK END ===

=== CODE BLOCK ADDRESS 0x3668 ===
  0x3668	dec    	eax
  0x3669	test   	edx, edx
  0x366b	je     	0x38c9
  === BLOCK LINK ===
    0x3671
=== CODE BLOCK END ===

=== CODE BLOCK ADDRESS 0x3671 ===
  0x3671	dec    	eax
  0x3672	test   	ecx, ecx
  0x3674	je     	0x38c9
  === BLOCK LINK ===
    0x367a
=== CODE BLOCK END ===

=== CODE BLOCK ADDRESS 0x367a ===
  0x367a	inc    	sp
  0x367c	mov    	dword ptr [ecx], edi
  0x367e	dec    	eax
  0x367f	mov    	eax, dword ptr [0x70a3]
  0x3685	dec    	eax
  === BLOCK LINK ===
    0x3686
=== CODE BLOCK END ===

=== CODE BLOCK ADDRESS 0x3686 ===
  0x3686	test   	eax, eax
  0x3688	je     	0x36b6
  === BLOCK LINK ===
    0x368a
=== CODE BLOCK END ===

=== CODE BLOCK ADDRESS 0x368a ===
  0x368a	inc    	esp
  0x368b	cmp    	byte ptr [0x70b7], bh
  0x3691	je     	0x36b6
  === BLOCK LINK ===
    0x3693
=== CODE BLOCK END ===

=== CODE BLOCK ADDRESS 0x3693 ===
  0x3693	dec    	ecx
  0x3694	mov    	edx, 0x7ede8170
  0x3699	out    	0xb6, al
  0x369b	nop    	
  0x369c	stc    	
  === BLOCK LINK ===
    0x369d
=== CODE BLOCK END ===

=== CODE BLOCK ADDRESS 0x369d ===
  0x369d	dec    	esp
  0x369e	mov    	eax, edx
  0x36a0	dec    	eax
  0x36a1	mov    	edx, ecx
  0x36a3	dec    	eax
  === BLOCK LINK ===
    0x36a4
=== CODE BLOCK END ===

=== CODE BLOCK ADDRESS 0x36a4 ===
  0x36a4	mov    	ecx, ebx
  0x36a6	call   	dword ptr [0x3dec]
  === BLOCK LINK ===
    0x36ac
=== CODE BLOCK END ===

=== CODE BLOCK ADDRESS 0x36ac ===
  0x36ac	inc    	bp
  0x36ae	cmp    	dword ptr [esi], edi
  0x36b0	jne    	0x38c9
  === BLOCK LINK ===
    0x36b6
=== CODE BLOCK END ===

=== CODE BLOCK ADDRESS 0x36b6 ===
  0x36b6	dec    	eax
  0x36b7	lea    	esi, [0x3f53]
  0x36bd	mov    	ecx, dword ptr [ebx]
  0x36bf	mov    	dl, 8
  0x36c1	test   	ecx, ecx
  === BLOCK LINK ===
    0x36c3
=== CODE BLOCK END ===

=== CODE BLOCK ADDRESS 0x36c3 ===
  0x36c3	je     	0x3704
  === BLOCK LINK ===
    0x36c5
=== CODE BLOCK END ===

=== CODE BLOCK ADDRESS 0x36c5 ===
  0x36c5	sub    	ecx, 1
  0x36c8	je     	0x36ed
  === BLOCK LINK ===
    0x36ca
=== CODE BLOCK END ===

=== CODE BLOCK ADDRESS 0x36ca ===
  0x36ca	sub    	ecx, 1
  0x36cd	je     	0x36dd
  === BLOCK LINK ===
    0x36cf
=== CODE BLOCK END ===

=== CODE BLOCK ADDRESS 0x36cf ===
  0x36cf	cmp    	ecx, 1
  0x36d2	jne    	0x370b
  === BLOCK LINK ===
    0x36d4
=== CODE BLOCK END ===

=== CODE BLOCK ADDRESS 0x36d4 ===
  0x36d4	dec    	eax
  0x36d5	lea    	esi, [0x3f95]
  0x36db	jmp    	0x370b
  === BLOCK LINK ===
    0x36dd
=== CODE BLOCK END ===

=== CODE BLOCK ADDRESS 0x36dd ===
  0x36dd	dec    	eax
  0x36de	lea    	eax, [0x3f80]
  0x36e4	dec    	eax
  0x36e5	lea    	esi, [0x3f71]
  0x36eb	jmp    	0x36fb
  === BLOCK LINK ===
    0x36ed
=== CODE BLOCK END ===

=== CODE BLOCK ADDRESS 0x36ed ===
  0x36ed	dec    	eax
  0x36ee	lea    	eax, [0x3f5c]
  0x36f4	dec    	eax
  0x36f5	lea    	esi, [0x3f45]
  0x36fb	test   	byte ptr [ebx + 4], dl
  === BLOCK LINK ===
    0x36fe
=== CODE BLOCK END ===

=== CODE BLOCK ADDRESS 0x36fe ===
  0x36fe	dec    	eax
  0x36ff	cmove  	esi, eax
  0x3702	jmp    	0x370b
  === BLOCK LINK ===
    0x3704
=== CODE BLOCK END ===

=== CODE BLOCK ADDRESS 0x3704 ===
  0x3704	dec    	eax
  0x3705	lea    	esi, [0x3f25]
  0x370b	inc    	sp
  0x370d	mov    	dword ptr [esp + 0x50], edi
  0x3711	test   	byte ptr [ebx + 4], dl
  === BLOCK LINK ===
    0x3714
=== CODE BLOCK END ===

=== CODE BLOCK ADDRESS 0x3714 ===
  0x3714	je     	0x3744
  === BLOCK LINK ===
    0x3716
=== CODE BLOCK END ===

=== CODE BLOCK ADDRESS 0x3716 ===
  0x3716	mov    	ebp, dword ptr [ebx + 0xc]
  0x3719	dec    	eax
  0x371a	mov    	eax, dword ptr [0x7038]
  0x3720	dec    	eax
  0x3721	test   	eax, eax
  === BLOCK LINK ===
    0x3723
=== CODE BLOCK END ===

=== CODE BLOCK ADDRESS 0x3723 ===
  0x3723	je     	0x3774
  === BLOCK LINK ===
    0x3725
=== CODE BLOCK END ===

=== CODE BLOCK ADDRESS 0x3725 ===
  0x3725	dec    	ecx
  0x3726	mov    	edx, 0x34d3db70
  0x372b	daa    	
  0x372c	xchg   	dword ptr [eax - 0x75], esp
  0x372f	inc    	ecx
  === BLOCK LINK ===
    0x3730
=== CODE BLOCK END ===

=== CODE BLOCK ADDRESS 0x3730 ===
  0x3730	mov    	eax, 0x100
  0x3735	dec    	eax
  0x3736	lea    	edx, [esp + 0x50]
  0x373a	mov    	ecx, ebp
  0x373c	call   	dword ptr [0x3d56]
  === BLOCK LINK ===
    0x3742
=== CODE BLOCK END ===

=== CODE BLOCK ADDRESS 0x3742 ===
  0x3742	jmp    	0x3774
  === BLOCK LINK ===
    0x3744
=== CODE BLOCK END ===

=== CODE BLOCK ADDRESS 0x3744 ===
  0x3744	mov    	ebp, dword ptr [ebx + 8]
  0x3747	dec    	esp
  0x3748	mov    	dword ptr [esp + 0x30], edi
  0x374c	mov    	dword ptr [esp + 0x28], 0x100
  0x3754	dec    	eax
  === BLOCK LINK ===
    0x3755
=== CODE BLOCK END ===

=== CODE BLOCK ADDRESS 0x3755 ===
  0x3755	lea    	eax, [esp + 0x50]
  0x3759	dec    	eax
  0x375a	mov    	dword ptr [esp + 0x20], eax
  0x375e	inc    	ecx
  0x375f	mov    	ecx, 0x400
  === BLOCK LINK ===
    0x3764
=== CODE BLOCK END ===

=== CODE BLOCK ADDRESS 0x3764 ===
  0x3764	inc    	esp
  0x3765	mov    	eax, ebp
  0x3767	xor    	edx, edx
  0x3769	mov    	ecx, 0x1200
  0x376e	call   	dword ptr [0x3aec]
  === BLOCK LINK ===
    0x3774
=== CODE BLOCK END ===

=== CODE BLOCK ADDRESS 0x3774 ===
  0x3774	dec    	ecx
  0x3775	lea    	edi, [esi + edi*2]
  0x3778	dec    	esp
  0x3779	mov    	ecx, dword ptr [ebx + 0x38]
  0x377c	dec    	eax
  === BLOCK LINK ===
    0x377d
=== CODE BLOCK END ===

=== CODE BLOCK ADDRESS 0x377d ===
  0x377d	mov    	eax, dword ptr [ebx + 0x88]
  0x3783	dec    	eax
  0x3784	mov    	ecx, dword ptr [ebx + 0x80]
  0x378a	dec    	eax
  0x378b	mov    	edx, edi
  === BLOCK LINK ===
    0x378d
=== CODE BLOCK END ===

=== CODE BLOCK ADDRESS 0x378d ===
  0x378d	dec    	ebp
  0x378e	test   	ecx, ecx
  0x3790	je     	0x37b4
  === BLOCK LINK ===
    0x3792
=== CODE BLOCK END ===

=== CODE BLOCK ADDRESS 0x3792 ===
  0x3792	dec    	eax
  0x3793	mov    	dword ptr [esp + 0x30], eax
  0x3797	dec    	eax
  0x3798	mov    	dword ptr [esp + 0x28], ecx
  0x379c	mov    	eax, dword ptr [ebx + 0x40]
  === BLOCK LINK ===
    0x379f
=== CODE BLOCK END ===

=== CODE BLOCK ADDRESS 0x379f ===
  0x379f	mov    	dword ptr [esp + 0x20], eax
  0x37a3	dec    	esp
  0x37a4	lea    	eax, [0x3ed6]
  0x37aa	dec    	ecx
  0x37ab	mov    	ecx, esi
  === BLOCK LINK ===
    0x37ad
=== CODE BLOCK END ===

=== CODE BLOCK ADDRESS 0x37ad ===
  0x37ad	call   	0x4318
  === BLOCK LINK ===
    0x37b2
=== CODE BLOCK END ===

=== CODE BLOCK ADDRESS 0x37b2 ===
  0x37b2	jmp    	0x37cb
  === BLOCK LINK ===
    0x37b4
=== CODE BLOCK END ===

=== CODE BLOCK ADDRESS 0x37b4 ===
  0x37b4	dec    	eax
  0x37b5	mov    	dword ptr [esp + 0x20], eax
  0x37b9	dec    	esp
  0x37ba	mov    	ecx, ecx
  0x37bc	dec    	esp
  === BLOCK LINK ===
    0x37bd
=== CODE BLOCK END ===

=== CODE BLOCK ADDRESS 0x37bd ===
  0x37bd	lea    	eax, [0x3ee5]
  0x37c3	dec    	ecx
  0x37c4	mov    	ecx, esi
  0x37c6	call   	0x4318
  === BLOCK LINK ===
    0x37cb
=== CODE BLOCK END ===

=== CODE BLOCK ADDRESS 0x37cb ===
  0x37cb	dec    	esp
  0x37cc	mov    	esi, eax
  0x37ce	dec    	esp
  0x37cf	mov    	ecx, dword ptr [ebx + 0x90]
  0x37d5	dec    	ebp
  === BLOCK LINK ===
    0x37d6
=== CODE BLOCK END ===

=== CODE BLOCK ADDRESS 0x37d6 ===
  0x37d6	test   	ecx, ecx
  0x37d8	je     	0x37ef
  === BLOCK LINK ===
    0x37da
=== CODE BLOCK END ===

=== CODE BLOCK ADDRESS 0x37da ===
  0x37da	dec    	esp
  0x37db	lea    	eax, [0x3edf]
  0x37e1	dec    	eax
  0x37e2	mov    	edx, edi
  0x37e4	dec    	eax
  === BLOCK LINK ===
    0x37e5
=== CODE BLOCK END ===

=== CODE BLOCK ADDRESS 0x37e5 ===
  0x37e5	mov    	ecx, eax
  0x37e7	call   	0x4318
  === BLOCK LINK ===
    0x37ec
=== CODE BLOCK END ===

=== CODE BLOCK ADDRESS 0x37ec ===
  0x37ec	dec    	esp
  0x37ed	mov    	esi, eax
  0x37ef	call   	dword ptr [0x3a83]
  === BLOCK LINK ===
    0x37f5
=== CODE BLOCK END ===

=== CODE BLOCK ADDRESS 0x37f5 ===
  0x37f5	mov    	ecx, dword ptr [ebx + 0x44]
  0x37f8	dec    	eax
  0x37f9	lea    	edx, [esp + 0x50]
  0x37fd	dec    	eax
  0x37fe	mov    	dword ptr [esp + 0x38], edx
  === BLOCK LINK ===
    0x3802
=== CODE BLOCK END ===

=== CODE BLOCK ADDRESS 0x3802 ===
  0x3802	mov    	dword ptr [esp + 0x30], ebp
  0x3806	mov    	dword ptr [esp + 0x28], eax
  0x380a	mov    	dword ptr [esp + 0x20], ecx
  0x380e	dec    	esp
  0x380f	mov    	ecx, esi
  === BLOCK LINK ===
    0x3811
=== CODE BLOCK END ===

=== CODE BLOCK ADDRESS 0x3811 ===
  0x3811	dec    	esp
  0x3812	lea    	eax, [0x3ec8]
  0x3818	dec    	eax
  0x3819	mov    	edx, edi
  0x381b	dec    	ecx
  === BLOCK LINK ===
    0x381c
=== CODE BLOCK END ===

=== CODE BLOCK ADDRESS 0x381c ===
  0x381c	mov    	ecx, esi
  0x381e	call   	0x4318
  === BLOCK LINK ===
    0x3823
=== CODE BLOCK END ===

=== CODE BLOCK ADDRESS 0x3823 ===
  0x3823	dec    	esp
  0x3824	cmp    	dword ptr [ebx + 0x18], edi
  0x3827	jne    	0x3839
  === BLOCK LINK ===
    0x3829
=== CODE BLOCK END ===

=== CODE BLOCK ADDRESS 0x3829 ===
  0x3829	dec    	esp
  0x382a	cmp    	dword ptr [ebx + 0x48], edi
  0x382d	jne    	0x3839
  === BLOCK LINK ===
    0x382f
=== CODE BLOCK END ===

=== CODE BLOCK ADDRESS 0x382f ===
  0x382f	dec    	esp
  0x3830	cmp    	dword ptr [ebx + 0x30], edi
  0x3833	je     	0x38c9
  === BLOCK LINK ===
    0x3839
=== CODE BLOCK END ===

=== CODE BLOCK ADDRESS 0x3839 ===
  0x3839	dec    	esp
  0x383a	lea    	eax, [0x3ed8]
  0x3840	dec    	eax
  0x3841	mov    	edx, edi
  0x3843	dec    	eax
  === BLOCK LINK ===
    0x3844
=== CODE BLOCK END ===

=== CODE BLOCK ADDRESS 0x3844 ===
  0x3844	mov    	ecx, eax
  0x3846	call   	0x4318
  === BLOCK LINK ===
    0x384b
=== CODE BLOCK END ===

=== CODE BLOCK ADDRESS 0x384b ===
  0x384b	dec    	esp
  0x384c	mov    	ecx, dword ptr [ebx + 0x18]
  0x384f	dec    	ebp
  0x3850	test   	ecx, ecx
  0x3852	je     	0x3866
  === BLOCK LINK ===
    0x3854
=== CODE BLOCK END ===

=== CODE BLOCK ADDRESS 0x3854 ===
  0x3854	dec    	esp
  0x3855	lea    	eax, [0x3ecd]
  0x385b	dec    	eax
  0x385c	mov    	edx, edi
  0x385e	dec    	eax
  === BLOCK LINK ===
    0x385f
=== CODE BLOCK END ===

=== CODE BLOCK ADDRESS 0x385f ===
  0x385f	mov    	ecx, eax
  0x3861	call   	0x4318
  === BLOCK LINK ===
    0x3866
=== CODE BLOCK END ===

=== CODE BLOCK ADDRESS 0x3866 ===
  0x3866	dec    	esp
  0x3867	mov    	ecx, dword ptr [ebx + 0x48]
  0x386a	dec    	ebp
  0x386b	test   	ecx, ecx
  0x386d	je     	0x3881
  === BLOCK LINK ===
    0x386f
=== CODE BLOCK END ===

=== CODE BLOCK ADDRESS 0x386f ===
  0x386f	dec    	esp
  0x3870	lea    	eax, [0x3eca]
  0x3876	dec    	eax
  0x3877	mov    	edx, edi
  0x3879	dec    	eax
  === BLOCK LINK ===
    0x387a
=== CODE BLOCK END ===

=== CODE BLOCK ADDRESS 0x387a ===
  0x387a	mov    	ecx, eax
  0x387c	call   	0x4318
  === BLOCK LINK ===
    0x3881
=== CODE BLOCK END ===

=== CODE BLOCK ADDRESS 0x3881 ===
  0x3881	dec    	eax
  0x3882	mov    	ecx, dword ptr [ebx + 0x28]
  0x3885	dec    	esp
  0x3886	mov    	ecx, dword ptr [ebx + 0x30]
  0x3889	dec    	eax
  === BLOCK LINK ===
    0x388a
=== CODE BLOCK END ===

=== CODE BLOCK ADDRESS 0x388a ===
  0x388a	mov    	edx, edi
  0x388c	dec    	eax
  0x388d	test   	ecx, ecx
  0x388f	je     	0x38a7
  === BLOCK LINK ===
    0x3891
=== CODE BLOCK END ===

=== CODE BLOCK ADDRESS 0x3891 ===
  0x3891	dec    	eax
  0x3892	mov    	dword ptr [esp + 0x20], ecx
  0x3896	dec    	esp
  0x3897	lea    	eax, [0x3ecb]
  0x389d	dec    	eax
  === BLOCK LINK ===
    0x389e
=== CODE BLOCK END ===

=== CODE BLOCK ADDRESS 0x389e ===
  0x389e	mov    	ecx, eax
  0x38a0	call   	0x4318
  === BLOCK LINK ===
    0x38a5
=== CODE BLOCK END ===

=== CODE BLOCK ADDRESS 0x38a5 ===
  0x38a5	jmp    	0x38c9
  === BLOCK LINK ===
    0x38a7
=== CODE BLOCK END ===

=== CODE BLOCK ADDRESS 0x38a7 ===
  0x38a7	dec    	eax
  0x38a8	mov    	ecx, eax
  0x38aa	dec    	ebp
  0x38ab	test   	ecx, ecx
  0x38ad	je     	0x38bd
  === BLOCK LINK ===
    0x38af
=== CODE BLOCK END ===

=== CODE BLOCK ADDRESS 0x38af ===
  0x38af	dec    	esp
  0x38b0	lea    	eax, [0x3eca]
  0x38b6	call   	0x4318
  === BLOCK LINK ===
    0x38bb
=== CODE BLOCK END ===

=== CODE BLOCK ADDRESS 0x38bb ===
  0x38bb	jmp    	0x38c9
  === BLOCK LINK ===
    0x38bd
=== CODE BLOCK END ===

=== CODE BLOCK ADDRESS 0x38bd ===
  0x38bd	dec    	esp
  0x38be	lea    	eax, [0x3ecc]
  0x38c4	call   	0x4318
  === BLOCK LINK ===
    0x38c9
=== CODE BLOCK END ===

=== CODE BLOCK ADDRESS 0x38c9 ===
  0x38c9	xor    	eax, eax
  0x38cb	dec    	eax
  0x38cc	mov    	ecx, dword ptr [esp + 0x250]
  0x38d3	dec    	eax
  0x38d4	xor    	ecx, esp
  === BLOCK LINK ===
    0x38d6
=== CODE BLOCK END ===

=== CODE BLOCK ADDRESS 0x38d6 ===
  0x38d6	call   	0x1450
  === BLOCK LINK ===
    0x38db
=== CODE BLOCK END ===

=== CODE BLOCK ADDRESS 0x38db ===
  0x38db	dec    	eax
  0x38dc	mov    	ebx, dword ptr [esp + 0x2a8]
  0x38e3	dec    	eax
  0x38e4	add    	esp, 0x260
  0x38ea	inc    	ecx
  === BLOCK LINK ===
    0x38eb
=== CODE BLOCK END ===

=== CODE BLOCK ADDRESS 0x38eb ===
  0x38eb	pop    	edi
  0x38ec	inc    	ecx
  0x38ed	pop    	esi
  0x38ee	pop    	edi
  0x38ef	pop    	esi
  === BLOCK LINK ===
    0x38f0
=== CODE BLOCK END ===

=== CODE BLOCK ADDRESS 0x38f0 ===
  0x38f0	pop    	ebp
  0x38f1	ret    	
  0x38f2	int3   	
  0x38f3	int3   	
  0x38f4	inc    	eax
  === BLOCK LINK ===
    0x38f5
=== CODE BLOCK END ===

=== CODE BLOCK ADDRESS 0x38f5 ===
  0x38f5	push   	edi
  0x38f6	dec    	eax
  0x38f7	sub    	esp, 0x50
  0x38fa	dec    	eax
  0x38fb	mov    	dword ptr [esp + 0x40], 0xfffffffe
  === BLOCK LINK ===
    0x3903
=== CODE BLOCK END ===

=== CODE BLOCK ADDRESS 0x3903 ===
  0x3903	dec    	eax
  0x3904	mov    	dword ptr [esp + 0x60], ebx
  0x3908	dec    	eax
  0x3909	mov    	dword ptr [esp + 0x68], esi
  0x390d	dec    	ecx
  === BLOCK LINK ===
    0x390e
=== CODE BLOCK END ===

=== CODE BLOCK ADDRESS 0x390e ===
  0x390e	mov    	ebx, eax
  0x3910	mov    	edi, edx
  0x3912	dec    	eax
  0x3913	mov    	esi, ecx
  0x3915	call   	dword ptr [0x38ad]
  === BLOCK LINK ===
    0x391b
=== CODE BLOCK END ===

=== CODE BLOCK ADDRESS 0x391b ===
  0x391b	test   	eax, eax
  0x391d	jne    	0x394f
  === BLOCK LINK ===
    0x391f
=== CODE BLOCK END ===

=== CODE BLOCK ADDRESS 0x391f ===
  0x391f	mov    	dword ptr [esp + 0x30], 0x8007029c
  0x3927	dec    	eax
  0x3928	mov    	eax, dword ptr [esp + 0x88]
  0x392f	dec    	eax
  0x3930	mov    	dword ptr [esp + 0x28], eax
  === BLOCK LINK ===
    0x3934
=== CODE BLOCK END ===

=== CODE BLOCK ADDRESS 0x3934 ===
  0x3934	dec    	eax
  0x3935	and    	dword ptr [esp + 0x20], 0
  0x393a	inc    	ebp
  0x393b	xor    	ecx, ecx
  0x393d	dec    	esp
  === BLOCK LINK ===
    0x393e
=== CODE BLOCK END ===

=== CODE BLOCK ADDRESS 0x393e ===
  0x393e	mov    	eax, ebx
  0x3940	mov    	edx, edi
  0x3942	dec    	eax
  0x3943	mov    	ecx, esi
  0x3945	call   	0x222c
  === BLOCK LINK ===
    0x394a
=== CODE BLOCK END ===

=== CODE BLOCK ADDRESS 0x394a ===
  0x394a	mov    	eax, 0x29c
  0x394f	dec    	eax
  0x3950	mov    	ebx, dword ptr [esp + 0x60]
  0x3954	dec    	eax
  0x3955	mov    	esi, dword ptr [esp + 0x68]
  === BLOCK LINK ===
    0x3959
=== CODE BLOCK END ===

=== CODE BLOCK ADDRESS 0x3959 ===
  0x3959	dec    	eax
  0x395a	add    	esp, 0x50
  0x395d	pop    	edi
  0x395e	ret    	
  0x395f	int3   	
  === BLOCK LINK ===
    0x3960
=== CODE BLOCK END ===

=== CODE BLOCK ADDRESS 0x3960 ===
  0x3960	inc    	eax
  0x3961	push   	ebx
  0x3962	dec    	eax
  0x3963	sub    	esp, 0x50
  0x3966	dec    	eax
  === BLOCK LINK ===
    0x3967
=== CODE BLOCK END ===

=== CODE BLOCK ADDRESS 0x3967 ===
  0x3967	mov    	dword ptr [esp + 0x40], 0xfffffffe
  0x396f	dec    	eax
  0x3970	mov    	ebx, dword ptr [esp + 0x58]
  0x3974	call   	dword ptr [0x384e]
  === BLOCK LINK ===
    0x397a
=== CODE BLOCK END ===

=== CODE BLOCK ADDRESS 0x397a ===
  0x397a	test   	eax, eax
  0x397c	jne    	0x39a5
  === BLOCK LINK ===
    0x397e
=== CODE BLOCK END ===

=== CODE BLOCK ADDRESS 0x397e ===
  0x397e	mov    	dword ptr [esp + 0x30], 0x8007029c
  0x3986	dec    	eax
  0x3987	mov    	dword ptr [esp + 0x28], ebx
  0x398b	dec    	eax
  0x398c	and    	dword ptr [esp + 0x20], 0
  === BLOCK LINK ===
    0x3991
=== CODE BLOCK END ===

=== CODE BLOCK ADDRESS 0x3991 ===
  0x3991	inc    	ebp
  0x3992	xor    	ecx, ecx
  0x3994	inc    	ebp
  0x3995	xor    	eax, eax
  0x3997	xor    	edx, edx
  === BLOCK LINK ===
    0x3999
=== CODE BLOCK END ===

=== CODE BLOCK ADDRESS 0x3999 ===
  0x3999	xor    	ecx, ecx
  0x399b	call   	0x222c
  === BLOCK LINK ===
    0x39a0
=== CODE BLOCK END ===

=== CODE BLOCK ADDRESS 0x39a0 ===
  0x39a0	mov    	eax, 0x29c
  0x39a5	test   	eax, eax
  0x39a7	jle    	0x39b1
  === BLOCK LINK ===
    0x39a9
=== CODE BLOCK END ===

=== CODE BLOCK ADDRESS 0x39a9 ===
  0x39a9	movzx  	eax, ax
  0x39ac	or     	eax, 0x80070000
  0x39b1	dec    	eax
  0x39b2	add    	esp, 0x50
  0x39b5	pop    	ebx
  === BLOCK LINK ===
    0x39b6
=== CODE BLOCK END ===

=== CODE BLOCK ADDRESS 0x39b6 ===
  0x39b6	ret    	
  0x39b7	int3   	
  0x39b8	dec    	eax
  0x39b9	mov    	dword ptr [esp + 0x20], ebx
  0x39bd	push   	esi
  === BLOCK LINK ===
    0x39be
=== CODE BLOCK END ===

=== CODE BLOCK ADDRESS 0x39be ===
  0x39be	push   	edi
  0x39bf	inc    	ecx
  0x39c0	push   	esi
  0x39c1	dec    	eax
  0x39c2	sub    	esp, 0x150
  === BLOCK LINK ===
    0x39c8
=== CODE BLOCK END ===

=== CODE BLOCK ADDRESS 0x39c8 ===
  0x39c8	dec    	eax
  0x39c9	mov    	eax, dword ptr [0x66c1]
  0x39cf	dec    	eax
  0x39d0	xor    	eax, esp
  0x39d2	dec    	eax
  === BLOCK LINK ===
    0x39d3
=== CODE BLOCK END ===

=== CODE BLOCK ADDRESS 0x39d3 ===
  0x39d3	mov    	dword ptr [esp + 0x140], eax
  0x39da	dec    	eax
  0x39db	mov    	edi, ecx
  0x39dd	dec    	ecx
  0x39de	mov    	esi, ecx
  === BLOCK LINK ===
    0x39e0
=== CODE BLOCK END ===

=== CODE BLOCK ADDRESS 0x39e0 ===
  0x39e0	xor    	ecx, ecx
  0x39e2	dec    	ecx
  0x39e3	mov    	ebx, eax
  0x39e5	dec    	eax
  0x39e6	mov    	dword ptr [esp + 0x20], ecx
  === BLOCK LINK ===
    0x39ea
=== CODE BLOCK END ===

=== CODE BLOCK ADDRESS 0x39ea ===
  0x39ea	dec    	esp
  0x39eb	mov    	esi, edx
  0x39ed	dec    	eax
  0x39ee	test   	edi, edi
  0x39f0	je     	0x3a18
  === BLOCK LINK ===
    0x39f2
=== CODE BLOCK END ===

=== CODE BLOCK ADDRESS 0x39f2 ===
  0x39f2	dec    	esp
  0x39f3	lea    	eax, [esp + 0x20]
  0x39f7	dec    	eax
  0x39f8	mov    	edx, edi
  0x39fa	mov    	ecx, 6
  === BLOCK LINK ===
    0x39ff
=== CODE BLOCK END ===

=== CODE BLOCK ADDRESS 0x39ff ===
  0x39ff	call   	dword ptr [0x384b]
  === BLOCK LINK ===
    0x3a05
=== CODE BLOCK END ===

=== CODE BLOCK ADDRESS 0x3a05 ===
  0x3a05	test   	eax, eax
  0x3a07	jne    	0x3a13
  === BLOCK LINK ===
    0x3a09
=== CODE BLOCK END ===

=== CODE BLOCK ADDRESS 0x3a09 ===
  0x3a09	dec    	ebp
  0x3a0a	test   	esi, esi
  0x3a0c	je     	0x3a45
  === BLOCK LINK ===
    0x3a0e
=== CODE BLOCK END ===

=== CODE BLOCK ADDRESS 0x3a0e ===
  0x3a0e	inc    	ecx
  0x3a0f	and    	dword ptr [esi], eax
  0x3a11	jmp    	0x3a45
  === BLOCK LINK ===
    0x3a13
=== CODE BLOCK END ===

=== CODE BLOCK ADDRESS 0x3a13 ===
  0x3a13	dec    	eax
  0x3a14	mov    	ecx, dword ptr [esp + 0x20]
  0x3a18	dec    	ebp
  0x3a19	test   	esi, esi
  0x3a1b	je     	0x3a27
  === BLOCK LINK ===
    0x3a1d
=== CODE BLOCK END ===

=== CODE BLOCK ADDRESS 0x3a1d ===
  0x3a1d	dec    	eax
  0x3a1e	test   	edi, edi
  0x3a20	je     	0x3a24
  === BLOCK LINK ===
    0x3a22
=== CODE BLOCK END ===

=== CODE BLOCK ADDRESS 0x3a22 ===
  0x3a22	sub    	edi, ecx
  0x3a24	inc    	ecx
  0x3a25	mov    	dword ptr [esi], edi
  0x3a27	dec    	eax
  0x3a28	test   	ebx, ebx
  === BLOCK LINK ===
    0x3a2a
=== CODE BLOCK END ===

=== CODE BLOCK ADDRESS 0x3a2a ===
  0x3a2a	je     	0x3ac0
  === BLOCK LINK ===
    0x3a30
=== CODE BLOCK END ===

=== CODE BLOCK ADDRESS 0x3a30 ===
  0x3a30	inc    	ecx
  0x3a31	mov    	eax, 0x104
  0x3a36	dec    	eax
  0x3a37	lea    	edx, [esp + 0x30]
  0x3a3b	call   	dword ptr [0x37ef]
  === BLOCK LINK ===
    0x3a41
=== CODE BLOCK END ===

=== CODE BLOCK ADDRESS 0x3a41 ===
  0x3a41	test   	eax, eax
  0x3a43	jne    	0x3a49
  === BLOCK LINK ===
    0x3a45
=== CODE BLOCK END ===

=== CODE BLOCK ADDRESS 0x3a45 ===
  0x3a45	xor    	al, al
  0x3a47	jmp    	0x3ac2
  === BLOCK LINK ===
    0x3a49
=== CODE BLOCK END ===

=== CODE BLOCK ADDRESS 0x3a49 ===
  0x3a49	dec    	eax
  0x3a4a	lea    	ecx, [esp + 0x30]
  0x3a4e	dec    	eax
  0x3a4f	or     	eax, 0xffffffff
  0x3a52	dec    	eax
  === BLOCK LINK ===
    0x3a53
=== CODE BLOCK END ===

=== CODE BLOCK ADDRESS 0x3a53 ===
  0x3a53	inc    	eax
  0x3a55	cmp    	byte ptr [ecx + eax], 0
  0x3a59	jne    	0x3a52
  === BLOCK LINK ===
    0x3a5b
=== CODE BLOCK END ===

=== CODE BLOCK ADDRESS 0x3a5b ===
  0x3a5b	dec    	eax
  0x3a5c	lea    	ecx, [esp + 0x30]
  0x3a60	dec    	eax
  0x3a61	add    	ecx, eax
  0x3a63	jmp    	0x3a6e
  === BLOCK LINK ===
    0x3a65
=== CODE BLOCK END ===

=== CODE BLOCK ADDRESS 0x3a65 ===
  0x3a65	cmp    	byte ptr [ecx - 1], 0x5c
  0x3a69	je     	0x3a78
  === BLOCK LINK ===
    0x3a6b
=== CODE BLOCK END ===

=== CODE BLOCK ADDRESS 0x3a6b ===
  0x3a6b	dec    	eax
  0x3a6c	dec    	ecx
  0x3a6e	dec    	eax
  0x3a6f	lea    	eax, [esp + 0x30]
  0x3a73	dec    	eax
  === BLOCK LINK ===
    0x3a74
=== CODE BLOCK END ===

=== CODE BLOCK ADDRESS 0x3a74 ===
  0x3a74	cmp    	ecx, eax
  0x3a76	ja     	0x3a65
  === BLOCK LINK ===
    0x3a78
=== CODE BLOCK END ===

=== CODE BLOCK ADDRESS 0x3a78 ===
  0x3a78	dec    	eax
  0x3a79	test   	esi, esi
  0x3a7b	je     	0x3ac0
  === BLOCK LINK ===
    0x3a7d
=== CODE BLOCK END ===

=== CODE BLOCK ADDRESS 0x3a7d ===
  0x3a7d	dec    	eax
  0x3a7e	cmp    	esi, 0x7fffffff
  0x3a84	jbe    	0x3a8b
  === BLOCK LINK ===
    0x3a86
=== CODE BLOCK END ===

=== CODE BLOCK ADDRESS 0x3a86 ===
  0x3a86	mov    	byte ptr [ebx], 0
  0x3a89	jmp    	0x3ac0
  === BLOCK LINK ===
    0x3a8b
=== CODE BLOCK END ===

=== CODE BLOCK ADDRESS 0x3a8b ===
  0x3a8b	inc    	ecx
  0x3a8c	mov    	eax, 0x7ffffffe
  0x3a91	dec    	esp
  0x3a92	sub    	eax, esi
  0x3a94	dec    	eax
  === BLOCK LINK ===
    0x3a95
=== CODE BLOCK END ===

=== CODE BLOCK ADDRESS 0x3a95 ===
  0x3a95	sub    	ecx, ebx
  0x3a97	dec    	ecx
  0x3a98	lea    	eax, [eax + esi]
  0x3a9b	dec    	eax
  0x3a9c	test   	eax, eax
  === BLOCK LINK ===
    0x3a9e
=== CODE BLOCK END ===

=== CODE BLOCK ADDRESS 0x3a9e ===
  0x3a9e	je     	0x3ab2
  === BLOCK LINK ===
    0x3aa0
=== CODE BLOCK END ===

=== CODE BLOCK ADDRESS 0x3aa0 ===
  0x3aa0	mov    	dl, byte ptr [ecx + ebx]
  0x3aa3	test   	dl, dl
  0x3aa5	je     	0x3ab2
  === BLOCK LINK ===
    0x3aa7
=== CODE BLOCK END ===

=== CODE BLOCK ADDRESS 0x3aa7 ===
  0x3aa7	mov    	byte ptr [ebx], dl
  0x3aa9	dec    	eax
  0x3aaa	inc    	ebx
  0x3aac	dec    	eax
  0x3aad	sub    	esi, 1
  === BLOCK LINK ===
    0x3ab0
=== CODE BLOCK END ===

=== CODE BLOCK ADDRESS 0x3ab0 ===
  0x3ab0	jne    	0x3a97
  === BLOCK LINK ===
    0x3ab2
=== CODE BLOCK END ===

=== CODE BLOCK ADDRESS 0x3ab2 ===
  0x3ab2	dec    	eax
  0x3ab3	test   	esi, esi
  0x3ab5	dec    	eax
  0x3ab6	lea    	ecx, [ebx - 1]
  0x3ab9	dec    	eax
  === BLOCK LINK ===
    0x3aba
=== CODE BLOCK END ===

=== CODE BLOCK ADDRESS 0x3aba ===
  0x3aba	cmovne  	ecx, ebx
  0x3abd	mov    	byte ptr [ecx], 0
  0x3ac0	mov    	al, 1
  0x3ac2	dec    	eax
  0x3ac3	mov    	ecx, dword ptr [esp + 0x140]
  === BLOCK LINK ===
    0x3aca
=== CODE BLOCK END ===

=== CODE BLOCK ADDRESS 0x3aca ===
  0x3aca	dec    	eax
  0x3acb	xor    	ecx, esp
  0x3acd	call   	0x1450
  === BLOCK LINK ===
    0x3ad2
=== CODE BLOCK END ===

=== CODE BLOCK ADDRESS 0x3ad2 ===
  0x3ad2	dec    	eax
  0x3ad3	mov    	ebx, dword ptr [esp + 0x188]
  0x3ada	dec    	eax
  0x3adb	add    	esp, 0x150
  0x3ae1	inc    	ecx
  === BLOCK LINK ===
    0x3ae2
=== CODE BLOCK END ===

=== CODE BLOCK ADDRESS 0x3ae2 ===
  0x3ae2	pop    	esi
  0x3ae3	pop    	edi
  0x3ae4	pop    	esi
  0x3ae5	ret    	
  0x3ae6	int3   	
  === BLOCK LINK ===
    0x3ae7
=== CODE BLOCK END ===

=== CODE BLOCK ADDRESS 0x13bc ===
=== CODE BLOCK END ===

=== CODE BLOCK ADDRESS 0x3ae7 ===
  0x3ae7	int3   	
  0x3ae8	dec    	eax
  0x3ae9	mov    	dword ptr [esp + 8], ebx
  0x3aed	dec    	eax
  0x3aee	mov    	dword ptr [esp + 0x10], ebp
  === BLOCK LINK ===
    0x3af2
=== CODE BLOCK END ===

=== CODE BLOCK ADDRESS 0x3af2 ===
  0x3af2	dec    	eax
  0x3af3	mov    	dword ptr [esp + 0x18], esi
  0x3af7	push   	edi
  0x3af8	dec    	eax
  0x3af9	sub    	esp, 0x20
  === BLOCK LINK ===
    0x3afc
=== CODE BLOCK END ===

=== CODE BLOCK ADDRESS 0x3afc ===
  0x3afc	xor    	al, al
  0x3afe	inc    	ecx
  0x3aff	mov    	byte ptr [eax], 0
  0x3b02	dec    	ecx
  0x3b03	mov    	ebp, ecx
  === BLOCK LINK ===
    0x3b05
=== CODE BLOCK END ===

=== CODE BLOCK ADDRESS 0x3b05 ===
  0x3b05	dec    	ecx
  0x3b06	mov    	edi, eax
  0x3b08	dec    	eax
  0x3b09	mov    	esi, edx
  0x3b0b	dec    	eax
  === BLOCK LINK ===
    0x3b0c
=== CODE BLOCK END ===

=== CODE BLOCK ADDRESS 0x3b0c ===
  0x3b0c	mov    	ebx, ecx
  0x3b0e	dec    	eax
  0x3b0f	test   	edx, edx
  0x3b11	je     	0x3bc4
  === BLOCK LINK ===
    0x3b17
=== CODE BLOCK END ===

=== CODE BLOCK ADDRESS 0x3b17 ===
  0x3b17	dec    	eax
  0x3b18	mov    	edx, dword ptr [edx + 0x10]
  0x3b1b	call   	0x3ae8
  === BLOCK LINK ===
    0x3b20
=== CODE BLOCK END ===

=== CODE BLOCK ADDRESS 0x3b20 ===
  0x3b20	dec    	eax
  0x3b21	mov    	edx, dword ptr [esi + 0x20]
  0x3b24	dec    	eax
  0x3b25	test   	edx, edx
  0x3b27	je     	0x3bc4
  === BLOCK LINK ===
    0x3b2d
=== CODE BLOCK END ===

=== CODE BLOCK ADDRESS 0x3b2d ===
  0x3b2d	cmp    	dword ptr [edx], 0
  0x3b30	jne    	0x3b43
  === BLOCK LINK ===
    0x3b32
=== CODE BLOCK END ===

=== CODE BLOCK ADDRESS 0x3b32 ===
  0x3b32	mov    	eax, 1
  0x3b37	lock xadd  	dword ptr [0x6575], eax
  0x3b3f	inc    	eax
  0x3b41	mov    	dword ptr [edx], eax
  0x3b43	cmp    	dword ptr [ebx + 0x50], 0
  === BLOCK LINK ===
    0x3b47
=== CODE BLOCK END ===

=== CODE BLOCK ADDRESS 0x3b47 ===
  0x3b47	jne    	0x3b5a
  === BLOCK LINK ===
    0x3b49
=== CODE BLOCK END ===

=== CODE BLOCK ADDRESS 0x3b49 ===
  0x3b49	movups  	xmm0, xmmword ptr [edx]
  0x3b4c	movups  	xmmword ptr [ebx + 0x50], xmm0
  0x3b50	movsd  	xmm1, qword ptr [edx + 0x10]
  0x3b55	movsd  	qword ptr [ebx + 0x60], xmm1
  0x3b5a	movups  	xmm0, xmmword ptr [edx]
  === BLOCK LINK ===
    0x3b5d
=== CODE BLOCK END ===

=== CODE BLOCK ADDRESS 0x3b5d ===
  0x3b5d	dec    	eax
  0x3b5e	lea    	ecx, [edi + ebp]
  0x3b61	movups  	xmmword ptr [ebx + 0x68], xmm0
  0x3b65	movsd  	xmm1, qword ptr [edx + 0x10]
  0x3b6a	movsd  	qword ptr [ebx + 0x78], xmm1
  === BLOCK LINK ===
    0x3b6f
=== CODE BLOCK END ===

=== CODE BLOCK ADDRESS 0x3b6f ===
  0x3b6f	dec    	eax
  0x3b70	or     	ebx, 0xffffffff
  0x3b73	dec    	eax
  0x3b74	mov    	eax, ebx
  0x3b76	dec    	eax
  === BLOCK LINK ===
    0x3b77
=== CODE BLOCK END ===

=== CODE BLOCK ADDRESS 0x3b77 ===
  0x3b77	inc    	eax
  0x3b79	cmp    	byte ptr [edi + eax], 0
  0x3b7d	jne    	0x3b76
  === BLOCK LINK ===
    0x3b7f
=== CODE BLOCK END ===

=== CODE BLOCK ADDRESS 0x3b7f ===
  0x3b7f	dec    	eax
  0x3b80	add    	edi, eax
  0x3b82	dec    	eax
  0x3b83	mov    	eax, ecx
  0x3b85	dec    	eax
  === BLOCK LINK ===
    0x3b86
=== CODE BLOCK END ===

=== CODE BLOCK ADDRESS 0x3b86 ===
  0x3b86	sub    	eax, edi
  0x3b88	dec    	eax
  0x3b89	cmp    	eax, 2
  0x3b8c	jle    	0x3bc2
  === BLOCK LINK ===
    0x3b8e
=== CODE BLOCK END ===

=== CODE BLOCK ADDRESS 0x3b8e ===
  0x3b8e	mov    	byte ptr [edi], 0x5c
  0x3b91	dec    	eax
  0x3b92	inc    	edi
  0x3b94	dec    	esp
  0x3b95	mov    	eax, dword ptr [edx + 8]
  === BLOCK LINK ===
    0x3b98
=== CODE BLOCK END ===

=== CODE BLOCK ADDRESS 0x3b98 ===
  0x3b98	dec    	eax
  0x3b99	inc    	ebx
  0x3b9b	inc    	ecx
  0x3b9c	cmp    	byte ptr [eax + ebx], 0
  0x3ba0	jne    	0x3b98
  === BLOCK LINK ===
    0x3ba2
=== CODE BLOCK END ===

=== CODE BLOCK ADDRESS 0x3ba2 ===
  0x3ba2	dec    	eax
  0x3ba3	sub    	ecx, edi
  0x3ba5	dec    	eax
  0x3ba6	inc    	ebx
  0x3ba8	dec    	eax
  === BLOCK LINK ===
    0x3ba9
=== CODE BLOCK END ===

=== CODE BLOCK ADDRESS 0x3ba9 ===
  0x3ba9	cmp    	ebx, ecx
  0x3bab	dec    	eax
  0x3bac	mov    	edx, ecx
  0x3bae	dec    	eax
  0x3baf	cmovae  	ebx, ecx
  === BLOCK LINK ===
    0x3bb2
=== CODE BLOCK END ===

=== CODE BLOCK ADDRESS 0x3bb2 ===
  0x3bb2	dec    	eax
  0x3bb3	mov    	ecx, edi
  0x3bb5	dec    	esp
  0x3bb6	mov    	ecx, ebx
  0x3bb8	call   	0x5c04
  === BLOCK LINK ===
    0x3bbd
=== CODE BLOCK END ===

=== CODE BLOCK ADDRESS 0x3bbd ===
  0x3bbd	mov    	byte ptr [ebx + edi - 1], 0
  0x3bc2	mov    	al, 1
  0x3bc4	dec    	eax
  0x3bc5	mov    	ebx, dword ptr [esp + 0x30]
  0x3bc9	dec    	eax
  === BLOCK LINK ===
    0x3bca
=== CODE BLOCK END ===

=== CODE BLOCK ADDRESS 0x3bca ===
  0x3bca	mov    	ebp, dword ptr [esp + 0x38]
  0x3bce	dec    	eax
  0x3bcf	mov    	esi, dword ptr [esp + 0x40]
  0x3bd3	dec    	eax
  0x3bd4	add    	esp, 0x20
  === BLOCK LINK ===
    0x3bd7
=== CODE BLOCK END ===

=== CODE BLOCK ADDRESS 0x3bd7 ===
  0x3bd7	pop    	edi
  0x3bd8	ret    	
  0x3bd9	int3   	
  0x3bda	int3   	
  0x3bdb	int3   	
  === BLOCK LINK ===
    0x3bdc
=== CODE BLOCK END ===

=== CODE BLOCK ADDRESS 0x1888 ===
  0x1888	dec    	eax
  0x1889	mov    	dword ptr [esp + 0x20], ebx
  === BLOCK LINK ===
    0x188d
=== CODE BLOCK END ===

=== CODE BLOCK ADDRESS 0x3bdc ===
  0x3bdc	dec    	eax
  0x3bdd	mov    	eax, esp
  0x3bdf	push   	edi
  0x3be0	dec    	eax
  0x3be1	sub    	esp, 0x30
  === BLOCK LINK ===
    0x3be4
=== CODE BLOCK END ===

=== CODE BLOCK ADDRESS 0x3be4 ===
  0x3be4	dec    	eax
  0x3be5	mov    	dword ptr [eax - 0x18], 0xfffffffe
  0x3bec	dec    	eax
  0x3bed	mov    	dword ptr [eax + 8], ebx
  0x3bf0	xor    	ebx, ebx
  === BLOCK LINK ===
    0x3bf2
=== CODE BLOCK END ===

=== CODE BLOCK ADDRESS 0x3bf2 ===
  0x3bf2	dec    	eax
  0x3bf3	mov    	edi, dword ptr [0x6b1f]
  0x3bf9	dec    	eax
  0x3bfa	test   	edi, edi
  0x3bfc	je     	0x3c8e
  === BLOCK LINK ===
    0x3c02
=== CODE BLOCK END ===

=== CODE BLOCK ADDRESS 0x3c02 ===
  0x3c02	dec    	eax
  0x3c03	cmp    	dword ptr [edi + 8], ebx
  0x3c06	jne    	0x3c2b
  === BLOCK LINK ===
    0x3c08
=== CODE BLOCK END ===

=== CODE BLOCK ADDRESS 0x3c08 ===
  0x3c08	dec    	eax
  0x3c09	and    	dword ptr [eax + 0x10], ebx
  0x3c0c	dec    	eax
  0x3c0d	lea    	edx, [eax + 0x10]
  0x3c10	dec    	eax
  === BLOCK LINK ===
    0x3c11
=== CODE BLOCK END ===

=== CODE BLOCK ADDRESS 0x3c11 ===
  0x3c11	mov    	ecx, dword ptr [edi]
  0x3c13	call   	0x30e4
  === BLOCK LINK ===
    0x3c18
=== CODE BLOCK END ===

=== CODE BLOCK ADDRESS 0x3c18 ===
  0x3c18	test   	eax, eax
  0x3c1a	js     	0x3c2b
  === BLOCK LINK ===
    0x3c1c
=== CODE BLOCK END ===

=== CODE BLOCK ADDRESS 0x3c1c ===
  0x3c1c	dec    	eax
  0x3c1d	cmp    	dword ptr [edi + 8], ebx
  0x3c20	jne    	0x3c2b
  === BLOCK LINK ===
    0x3c22
=== CODE BLOCK END ===

=== CODE BLOCK ADDRESS 0x3c22 ===
  0x3c22	dec    	eax
  0x3c23	mov    	eax, dword ptr [esp + 0x48]
  0x3c27	dec    	eax
  0x3c28	mov    	dword ptr [edi + 8], eax
  0x3c2b	dec    	eax
  === BLOCK LINK ===
    0x3c2c
=== CODE BLOCK END ===

=== CODE BLOCK ADDRESS 0x3c2c ===
  0x3c2c	mov    	ecx, dword ptr [edi + 8]
  0x3c2f	dec    	eax
  0x3c30	lea    	eax, [ecx + 0x20]
  0x3c33	dec    	eax
  0x3c34	neg    	ecx
  === BLOCK LINK ===
    0x3c36
=== CODE BLOCK END ===

=== CODE BLOCK ADDRESS 0x3c36 ===
  0x3c36	dec    	eax
  0x3c37	sbb    	edi, edi
  0x3c39	dec    	eax
  0x3c3a	and    	edi, eax
  0x3c3c	je     	0x3c8e
  === BLOCK LINK ===
    0x3c3e
=== CODE BLOCK END ===

=== CODE BLOCK ADDRESS 0x3c3e ===
  0x3c3e	call   	dword ptr [0x3634]
  === BLOCK LINK ===
    0x3c44
=== CODE BLOCK END ===

=== CODE BLOCK ADDRESS 0x3c44 ===
  0x3c44	inc    	esp
  0x3c45	mov    	ecx, eax
  0x3c47	inc    	esp
  0x3c48	mov    	eax, eax
  0x3c4a	dec    	eax
  === BLOCK LINK ===
    0x3c4b
=== CODE BLOCK END ===

=== CODE BLOCK ADDRESS 0x3c4b ===
  0x3c4b	mov    	eax, 0xcccccccd
  0x3c50	int3   	
  0x3c51	int3   	
  0x3c52	int3   	
  0x3c53	int3   	
  === BLOCK LINK ===
    0x3c54
=== CODE BLOCK END ===

=== CODE BLOCK ADDRESS 0x3c54 ===
  0x3c54	dec    	ecx
  0x3c55	mul    	ecx
  0x3c57	dec    	eax
  0x3c58	shr    	edx, 3
  0x3c5b	dec    	eax
  === BLOCK LINK ===
    0x3c5c
=== CODE BLOCK END ===

=== CODE BLOCK ADDRESS 0x3c5c ===
  0x3c5c	lea    	ecx, [edx + edx*4]
  0x3c5f	dec    	eax
  0x3c60	add    	ecx, ecx
  0x3c62	dec    	esp
  0x3c63	sub    	eax, ecx
  === BLOCK LINK ===
    0x3c65
=== CODE BLOCK END ===

=== CODE BLOCK ADDRESS 0x3c65 ===
  0x3c65	dec    	edx
  0x3c66	mov    	ebx, dword ptr [edi + eax*8 + 8]
  0x3c6a	jmp    	0x3c75
  === BLOCK LINK ===
    0x3c6c
=== CODE BLOCK END ===

=== CODE BLOCK ADDRESS 0x3c6c ===
  0x3c6c	inc    	esp
  0x3c6d	cmp    	dword ptr [ebx], ecx
  0x3c6f	je     	0x3c9c
  === BLOCK LINK ===
    0x3c71
=== CODE BLOCK END ===

=== CODE BLOCK ADDRESS 0x3c71 ===
  0x3c71	dec    	eax
  0x3c72	mov    	ebx, dword ptr [ebx + 8]
  0x3c75	dec    	eax
  0x3c76	test   	ebx, ebx
  0x3c78	jne    	0x3c6c
  === BLOCK LINK ===
    0x3c7a
=== CODE BLOCK END ===

=== CODE BLOCK ADDRESS 0x3c7a ===
  0x3c7a	dec    	eax
  0x3c7b	test   	ebx, ebx
  0x3c7d	je     	0x3c8e
  === BLOCK LINK ===
    0x3c7f
=== CODE BLOCK END ===

=== CODE BLOCK ADDRESS 0x3c7f ===
  0x3c7f	dec    	eax
  0x3c80	cmp    	dword ptr [ebx + 8], 0
  0x3c84	jne    	0x3c8e
  === BLOCK LINK ===
    0x3c86
=== CODE BLOCK END ===

=== CODE BLOCK ADDRESS 0x3c86 ===
  0x3c86	dec    	eax
  0x3c87	lea    	ecx, [edi + 4]
  0x3c8a	dec    	eax
  0x3c8b	mov    	dword ptr [ebx + 8], ecx
  0x3c8e	dec    	eax
  === BLOCK LINK ===
    0x3c8f
=== CODE BLOCK END ===

=== CODE BLOCK ADDRESS 0x3c8f ===
  0x3c8f	mov    	eax, ebx
  0x3c91	dec    	eax
  0x3c92	mov    	ebx, dword ptr [esp + 0x40]
  0x3c96	dec    	eax
  0x3c97	add    	esp, 0x30
  === BLOCK LINK ===
    0x3c9a
=== CODE BLOCK END ===

=== CODE BLOCK ADDRESS 0x3c9a ===
  0x3c9a	pop    	edi
  0x3c9b	ret    	
  0x3c9c	dec    	eax
  0x3c9d	add    	ebx, 0x10
  0x3ca0	jmp    	0x3c7a
  === BLOCK LINK ===
    0x3ca2
=== CODE BLOCK END ===

=== CODE BLOCK ADDRESS 0x3ca2 ===
  0x3ca2	int3   	
  0x3ca3	int3   	
  0x3ca4	dec    	eax
  0x3ca5	mov    	dword ptr [esp + 8], esi
  0x3ca9	push   	edi
  === BLOCK LINK ===
    0x3caa
=== CODE BLOCK END ===

=== CODE BLOCK ADDRESS 0x3caa ===
  0x3caa	dec    	eax
  0x3cab	sub    	esp, 0x20
  0x3cae	dec    	eax
  0x3caf	mov    	esi, edx
  0x3cb1	dec    	eax
  === BLOCK LINK ===
    0x3cb2
=== CODE BLOCK END ===

=== CODE BLOCK ADDRESS 0x3cb2 ===
  0x3cb2	mov    	edi, ecx
  0x3cb4	xor    	edx, edx
  0x3cb6	call   	dword ptr [0x363c]
  === BLOCK LINK ===
    0x3cbc
=== CODE BLOCK END ===

=== CODE BLOCK ADDRESS 0x3cbc ===
  0x3cbc	cmp    	eax, -1
  0x3cbf	jne    	0x3cdc
  === BLOCK LINK ===
    0x3cc1
=== CODE BLOCK END ===

=== CODE BLOCK ADDRESS 0x3cc1 ===
  0x3cc1	mov    	edx, 0x95
  0x3cc6	dec    	eax
  0x3cc7	mov    	ecx, dword ptr [esp + 0x28]
  0x3ccb	dec    	esp
  0x3ccc	lea    	eax, [0x3b0a]
  === BLOCK LINK ===
    0x3cd2
=== CODE BLOCK END ===

=== CODE BLOCK ADDRESS 0x3cd2 ===
  0x3cd2	call   	0x4970
  === BLOCK LINK ===
    0x3cd7
=== CODE BLOCK END ===

=== CODE BLOCK ADDRESS 0x3cd7 ===
  0x3cd7	jmp    	0x3de4
  === BLOCK LINK ===
    0x3cdc
=== CODE BLOCK END ===

=== CODE BLOCK ADDRESS 0x3cdc ===
  0x3cdc	test   	eax, eax
  0x3cde	je     	0x3cf1
  === BLOCK LINK ===
    0x3ce0
=== CODE BLOCK END ===

=== CODE BLOCK ADDRESS 0x3ce0 ===
  0x3ce0	cmp    	eax, 0x102
  0x3ce5	je     	0x3cf1
  === BLOCK LINK ===
    0x3ce7
=== CODE BLOCK END ===

=== CODE BLOCK ADDRESS 0x3ce7 ===
  0x3ce7	mov    	edx, 0x96
  0x3cec	jmp    	0x3dc8
  === BLOCK LINK ===
    0x3cf1
=== CODE BLOCK END ===

=== CODE BLOCK ADDRESS 0x3cf1 ===
  0x3cf1	and    	dword ptr [esp + 0x40], 0
  0x3cf6	mov    	edx, 1
  0x3cfb	dec    	eax
  0x3cfc	mov    	ecx, edi
  0x3cfe	test   	eax, eax
  === BLOCK LINK ===
    0x3d00
=== CODE BLOCK END ===

=== CODE BLOCK ADDRESS 0x3d00 ===
  0x3d00	jne    	0x3d47
  === BLOCK LINK ===
    0x3d02
=== CODE BLOCK END ===

=== CODE BLOCK ADDRESS 0x3d02 ===
  0x3d02	dec    	esp
  0x3d03	lea    	eax, [esp + 0x40]
  0x3d07	call   	dword ptr [0x35d3]
  === BLOCK LINK ===
    0x3d0d
=== CODE BLOCK END ===

=== CODE BLOCK ADDRESS 0x3d0d ===
  0x3d0d	test   	eax, eax
  0x3d0f	jne    	0x3d18
  === BLOCK LINK ===
    0x3d11
=== CODE BLOCK END ===

=== CODE BLOCK ADDRESS 0x3d11 ===
  0x3d11	mov    	edx, 0x9e
  0x3d16	jmp    	0x3cc6
  === BLOCK LINK ===
    0x3d18
=== CODE BLOCK END ===

=== CODE BLOCK ADDRESS 0x3d18 ===
  0x3d18	inc    	dword ptr [esp + 0x40]
  0x3d1c	inc    	ebp
  0x3d1d	xor    	eax, eax
  0x3d1f	dec    	eax
  0x3d20	mov    	ecx, edi
  === BLOCK LINK ===
    0x3d22
=== CODE BLOCK END ===

=== CODE BLOCK ADDRESS 0x3d22 ===
  0x3d22	inc    	ecx
  0x3d23	lea    	edx, [eax + 1]
  0x3d26	call   	dword ptr [0x35b4]
  === BLOCK LINK ===
    0x3d2c
=== CODE BLOCK END ===

=== CODE BLOCK ADDRESS 0x3d2c ===
  0x3d2c	test   	eax, eax
  0x3d2e	jne    	0x3d3d
  === BLOCK LINK ===
    0x3d30
=== CODE BLOCK END ===

=== CODE BLOCK ADDRESS 0x3d30 ===
  0x3d30	call   	dword ptr [0x3492]
  === BLOCK LINK ===
    0x3d36
=== CODE BLOCK END ===

=== CODE BLOCK ADDRESS 0x3d36 ===
  0x3d36	cmp    	eax, 0x12a
  0x3d3b	je     	0x3db9
  === BLOCK LINK ===
    0x3d3d
=== CODE BLOCK END ===

=== CODE BLOCK ADDRESS 0x3d3d ===
  0x3d3d	mov    	edx, 0xa3
  0x3d42	jmp    	0x3dc8
  === BLOCK LINK ===
    0x3d47
=== CODE BLOCK END ===

=== CODE BLOCK ADDRESS 0x3d47 ===
  0x3d47	and    	dword ptr [esp + 0x48], 0
  0x3d4c	dec    	esp
  0x3d4d	lea    	eax, [esp + 0x48]
  0x3d51	call   	dword ptr [0x3589]
  === BLOCK LINK ===
    0x3d57
=== CODE BLOCK END ===

=== CODE BLOCK ADDRESS 0x3d57 ===
  0x3d57	test   	eax, eax
  0x3d59	jne    	0x3d65
  === BLOCK LINK ===
    0x3d5b
=== CODE BLOCK END ===

=== CODE BLOCK ADDRESS 0x3d5b ===
  0x3d5b	mov    	edx, 0xad
  0x3d60	jmp    	0x3cc6
  === BLOCK LINK ===
    0x3d65
=== CODE BLOCK END ===

=== CODE BLOCK ADDRESS 0x3d65 ===
  0x3d65	cmp    	dword ptr [esp + 0x48], 0
  0x3d6a	je     	0x3d73
  === BLOCK LINK ===
    0x3d6c
=== CODE BLOCK END ===

=== CODE BLOCK ADDRESS 0x3d6c ===
  0x3d6c	mov    	edx, 0xae
  0x3d71	jmp    	0x3dc8
  === BLOCK LINK ===
    0x3d73
=== CODE BLOCK END ===

=== CODE BLOCK ADDRESS 0x3d73 ===
  0x3d73	inc    	ebp
  0x3d74	xor    	eax, eax
  0x3d76	dec    	eax
  0x3d77	mov    	ecx, edi
  0x3d79	inc    	ecx
  === BLOCK LINK ===
    0x3d7a
=== CODE BLOCK END ===

=== CODE BLOCK ADDRESS 0x3d7a ===
  0x3d7a	lea    	edx, [eax + 1]
  0x3d7d	call   	dword ptr [0x355d]
  === BLOCK LINK ===
    0x3d83
=== CODE BLOCK END ===

=== CODE BLOCK ADDRESS 0x3d83 ===
  0x3d83	test   	eax, eax
  0x3d85	jne    	0x3dc3
  === BLOCK LINK ===
    0x3d87
=== CODE BLOCK END ===

=== CODE BLOCK ADDRESS 0x3d87 ===
  0x3d87	call   	dword ptr [0x343b]
  === BLOCK LINK ===
    0x3d8d
=== CODE BLOCK END ===

=== CODE BLOCK ADDRESS 0x3d8d ===
  0x3d8d	cmp    	eax, 0x12a
  0x3d92	jne    	0x3dc3
  === BLOCK LINK ===
    0x3d94
=== CODE BLOCK END ===

=== CODE BLOCK ADDRESS 0x3d94 ===
  0x3d94	xor    	edx, edx
  0x3d96	dec    	eax
  0x3d97	mov    	ecx, edi
  0x3d99	call   	dword ptr [0x3559]
  === BLOCK LINK ===
    0x3d9f
=== CODE BLOCK END ===

=== CODE BLOCK ADDRESS 0x3d9f ===
  0x3d9f	cmp    	eax, -1
  0x3da2	jne    	0x3dae
  === BLOCK LINK ===
    0x3da4
=== CODE BLOCK END ===

=== CODE BLOCK ADDRESS 0x3da4 ===
  0x3da4	mov    	edx, 0xb4
  0x3da9	jmp    	0x3cc6
  === BLOCK LINK ===
    0x3dae
=== CODE BLOCK END ===

=== CODE BLOCK ADDRESS 0x3dae ===
  0x3dae	test   	eax, eax
  0x3db0	je     	0x3db9
  === BLOCK LINK ===
    0x3db2
=== CODE BLOCK END ===

=== CODE BLOCK ADDRESS 0x3db2 ===
  0x3db2	mov    	edx, 0xb5
  0x3db7	jmp    	0x3dc8
  === BLOCK LINK ===
    0x3db9
=== CODE BLOCK END ===

=== CODE BLOCK ADDRESS 0x3db9 ===
  0x3db9	mov    	eax, dword ptr [esp + 0x40]
  0x3dbd	mov    	dword ptr [esi], eax
  0x3dbf	xor    	eax, eax
  0x3dc1	jmp    	0x3de4
  === BLOCK LINK ===
    0x3dc3
=== CODE BLOCK END ===

=== CODE BLOCK ADDRESS 0x3dc3 ===
  0x3dc3	mov    	edx, 0xb1
  0x3dc8	dec    	eax
  0x3dc9	mov    	ecx, dword ptr [esp + 0x28]
  0x3dcd	dec    	esp
  0x3dce	lea    	eax, [0x3a08]
  === BLOCK LINK ===
    0x3dd4
=== CODE BLOCK END ===

=== CODE BLOCK ADDRESS 0x3dd4 ===
  0x3dd4	inc    	ecx
  0x3dd5	mov    	ecx, 0x8000ffff
  0x3dda	call   	0x4994
  === BLOCK LINK ===
    0x3ddf
=== CODE BLOCK END ===

=== CODE BLOCK ADDRESS 0x3ddf ===
  0x3ddf	mov    	eax, 0x8000ffff
  0x3de4	dec    	eax
  0x3de5	mov    	esi, dword ptr [esp + 0x30]
  0x3de9	dec    	eax
  0x3dea	add    	esp, 0x20
  === BLOCK LINK ===
    0x3ded
=== CODE BLOCK END ===

=== CODE BLOCK ADDRESS 0x3ded ===
  0x3ded	pop    	edi
  0x3dee	ret    	
  0x3def	int3   	
  0x3df0	mov    	eax, 0x800700ea
  0x3df5	mov    	edx, ecx
  === BLOCK LINK ===
    0x3df7
=== CODE BLOCK END ===

=== CODE BLOCK ADDRESS 0x1469 ===
=== CODE BLOCK END ===

=== CODE BLOCK ADDRESS 0x3df7 ===
  0x3df7	cmp    	ecx, eax
  0x3df9	jg     	0x3ece
  === BLOCK LINK ===
    0x3dff
=== CODE BLOCK END ===

=== CODE BLOCK ADDRESS 0x3dff ===
  0x3dff	je     	0x3ec4
  === BLOCK LINK ===
    0x3e05
=== CODE BLOCK END ===

=== CODE BLOCK ADDRESS 0x3e05 ===
  0x3e05	mov    	eax, 0x80070057
  0x3e0a	cmp    	ecx, eax
  0x3e0c	jg     	0x3e78
  === BLOCK LINK ===
    0x3e0e
=== CODE BLOCK END ===

=== CODE BLOCK ADDRESS 0x3e0e ===
  0x3e0e	je     	0x3e6e
  === BLOCK LINK ===
    0x3e10
=== CODE BLOCK END ===

=== CODE BLOCK ADDRESS 0x3e10 ===
  0x3e10	cmp    	ecx, 0x80004005
  0x3e16	je     	0x3e64
  === BLOCK LINK ===
    0x3e18
=== CODE BLOCK END ===

=== CODE BLOCK ADDRESS 0x3e18 ===
  0x3e18	cmp    	ecx, 0x80070001
  0x3e1e	je     	0x3e5a
  === BLOCK LINK ===
    0x3e20
=== CODE BLOCK END ===

=== CODE BLOCK ADDRESS 0x3e20 ===
  0x3e20	cmp    	ecx, 0x80070002
  0x3e26	je     	0x3e50
  === BLOCK LINK ===
    0x3e28
=== CODE BLOCK END ===

=== CODE BLOCK ADDRESS 0x3e28 ===
  0x3e28	cmp    	ecx, 0x80070003
  0x3e2e	je     	0x3e46
  === BLOCK LINK ===
    0x3e30
=== CODE BLOCK END ===

=== CODE BLOCK ADDRESS 0x3e30 ===
  0x3e30	cmp    	ecx, 0x8007000e
  0x3e36	jne    	0x3f56
  === BLOCK LINK ===
    0x3e3c
=== CODE BLOCK END ===

=== CODE BLOCK ADDRESS 0x3e3c ===
  0x3e3c	mov    	edx, 0xc0000017
  0x3e41	jmp    	0x3fb6
  === BLOCK LINK ===
    0x3e46
=== CODE BLOCK END ===

=== CODE BLOCK ADDRESS 0x3e46 ===
  0x3e46	mov    	edx, 0xc000003a
  0x3e4b	jmp    	0x3fb6
  === BLOCK LINK ===
    0x3e50
=== CODE BLOCK END ===

=== CODE BLOCK ADDRESS 0x3e50 ===
  0x3e50	mov    	edx, 0xc0000034
  0x3e55	jmp    	0x3fb6
  === BLOCK LINK ===
    0x3e5a
=== CODE BLOCK END ===

=== CODE BLOCK ADDRESS 0x3e5a ===
  0x3e5a	mov    	edx, 0xc0000002
  0x3e5f	jmp    	0x3fb6
  === BLOCK LINK ===
    0x3e64
=== CODE BLOCK END ===

=== CODE BLOCK ADDRESS 0x3e64 ===
  0x3e64	mov    	edx, 0xc0000001
  0x3e69	jmp    	0x3fb6
  === BLOCK LINK ===
    0x3e6e
=== CODE BLOCK END ===

=== CODE BLOCK ADDRESS 0x3e6e ===
  0x3e6e	mov    	edx, 0xc000000d
  0x3e73	jmp    	0x3fb6
  === BLOCK LINK ===
    0x3e78
=== CODE BLOCK END ===

=== CODE BLOCK ADDRESS 0x3e78 ===
  0x3e78	cmp    	edx, 0x80070070
  0x3e7e	je     	0x3eba
  === BLOCK LINK ===
    0x3e80
=== CODE BLOCK END ===

=== CODE BLOCK ADDRESS 0x3e80 ===
  0x3e80	cmp    	edx, 0x8007007a
  0x3e86	je     	0x3eb0
  === BLOCK LINK ===
    0x3e88
=== CODE BLOCK END ===

=== CODE BLOCK ADDRESS 0x3e88 ===
  0x3e88	cmp    	edx, 0x8007007b
  0x3e8e	je     	0x3ea6
  === BLOCK LINK ===
    0x3e90
=== CODE BLOCK END ===

=== CODE BLOCK ADDRESS 0x3e90 ===
  0x3e90	cmp    	edx, 0x8007007e
  0x3e96	jne    	0x3f56
  === BLOCK LINK ===
    0x3e9c
=== CODE BLOCK END ===

=== CODE BLOCK ADDRESS 0x3e9c ===
  0x3e9c	mov    	edx, 0xc0000135
  0x3ea1	jmp    	0x3fb6
  === BLOCK LINK ===
    0x3ea6
=== CODE BLOCK END ===

=== CODE BLOCK ADDRESS 0x3ea6 ===
  0x3ea6	mov    	edx, 0xc0000033
  0x3eab	jmp    	0x3fb6
  === BLOCK LINK ===
    0x3eb0
=== CODE BLOCK END ===

=== CODE BLOCK ADDRESS 0x3eb0 ===
  0x3eb0	mov    	edx, 0xc0000023
  0x3eb5	jmp    	0x3fb6
  === BLOCK LINK ===
    0x3eba
=== CODE BLOCK END ===

=== CODE BLOCK ADDRESS 0x3eba ===
  0x3eba	mov    	edx, 0xc000007f
  0x3ebf	jmp    	0x3fb6
  === BLOCK LINK ===
    0x3ec4
=== CODE BLOCK END ===

=== CODE BLOCK ADDRESS 0x3ec4 ===
  0x3ec4	mov    	edx, 0x80000005
  0x3ec9	jmp    	0x3fb6
  === BLOCK LINK ===
    0x3ece
=== CODE BLOCK END ===

=== CODE BLOCK ADDRESS 0x3ece ===
  0x3ece	mov    	eax, 0x8007047e
  0x3ed3	cmp    	edx, eax
  0x3ed5	jg     	0x3f3a
  === BLOCK LINK ===
    0x3ed7
=== CODE BLOCK END ===

=== CODE BLOCK ADDRESS 0x3ed7 ===
  0x3ed7	je     	0x3f33
  === BLOCK LINK ===
    0x3ed9
=== CODE BLOCK END ===

=== CODE BLOCK ADDRESS 0x3ed9 ===
  0x3ed9	cmp    	edx, 0x80070216
  0x3edf	je     	0x3f29
  === BLOCK LINK ===
    0x3ee1
=== CODE BLOCK END ===

=== CODE BLOCK ADDRESS 0x3ee1 ===
  0x3ee1	cmp    	edx, 0x8007023e
  0x3ee7	je     	0x3f1f
  === BLOCK LINK ===
    0x3ee9
=== CODE BLOCK END ===

=== CODE BLOCK ADDRESS 0x3ee9 ===
  0x3ee9	cmp    	edx, 0x80070246
  0x3eef	je     	0x3f15
  === BLOCK LINK ===
    0x3ef1
=== CODE BLOCK END ===

=== CODE BLOCK ADDRESS 0x3ef1 ===
  0x3ef1	cmp    	edx, 0x80070247
  0x3ef7	je     	0x3f0b
  === BLOCK LINK ===
    0x3ef9
=== CODE BLOCK END ===

=== CODE BLOCK ADDRESS 0x3ef9 ===
  0x3ef9	cmp    	edx, 0x80070272
  0x3eff	jne    	0x3f56
  === BLOCK LINK ===
    0x3f01
=== CODE BLOCK END ===

=== CODE BLOCK ADDRESS 0x3f01 ===
  0x3f01	mov    	edx, 0xc0000273
  0x3f06	jmp    	0x3fb6
  === BLOCK LINK ===
    0x3f0b
=== CODE BLOCK END ===

=== CODE BLOCK ADDRESS 0x3f0b ===
  0x3f0b	mov    	edx, 0xc0000163
  0x3f10	jmp    	0x3fb6
  === BLOCK LINK ===
    0x3f15
=== CODE BLOCK END ===

=== CODE BLOCK ADDRESS 0x3f15 ===
  0x3f15	mov    	edx, 0xc0000161
  0x3f1a	jmp    	0x3fb6
  === BLOCK LINK ===
    0x3f1f
=== CODE BLOCK END ===

=== CODE BLOCK ADDRESS 0x3f1f ===
  0x3f1f	mov    	edx, 0xc0000025
  0x3f24	jmp    	0x3fb6
  === BLOCK LINK ===
    0x3f29
=== CODE BLOCK END ===

=== CODE BLOCK ADDRESS 0x3f29 ===
  0x3f29	mov    	edx, 0xc0000095
  0x3f2e	jmp    	0x3fb6
  === BLOCK LINK ===
    0x3f33
=== CODE BLOCK END ===

=== CODE BLOCK ADDRESS 0x3f33 ===
  0x3f33	mov    	edx, 0xc0000059
  0x3f38	jmp    	0x3fb6
  === BLOCK LINK ===
    0x3f3a
=== CODE BLOCK END ===

=== CODE BLOCK ADDRESS 0x3f3a ===
  0x3f3a	cmp    	edx, 0x8007050c
  0x3f40	je     	0x3fb1
  === BLOCK LINK ===
    0x3f42
=== CODE BLOCK END ===

=== CODE BLOCK ADDRESS 0x3f42 ===
  0x3f42	cmp    	edx, 0x8007054f
  0x3f48	je     	0x3faa
  === BLOCK LINK ===
    0x3f4a
=== CODE BLOCK END ===

=== CODE BLOCK ADDRESS 0x3f4a ===
  0x3f4a	cmp    	edx, 0x800705b9
  0x3f50	je     	0x3fa3
  === BLOCK LINK ===
    0x3f52
=== CODE BLOCK END ===

=== CODE BLOCK ADDRESS 0x3f52 ===
  0x3f52	test   	edx, edx
  0x3f54	je     	0x3f9f
  === BLOCK LINK ===
    0x3f56
=== CODE BLOCK END ===

=== CODE BLOCK ADDRESS 0x3f56 ===
  0x3f56	bt     	edx, 0x1c
  0x3f5a	jae    	0x3f62
  === BLOCK LINK ===
    0x3f5c
=== CODE BLOCK END ===

=== CODE BLOCK ADDRESS 0x3f5c ===
  0x3f5c	btr    	edx, 0x1c
  0x3f60	jmp    	0x3fb6
  === BLOCK LINK ===
    0x3f62
=== CODE BLOCK END ===

=== CODE BLOCK ADDRESS 0x3f62 ===
  0x3f62	mov    	eax, edx
  0x3f64	mov    	ecx, 0x1fff0000
  0x3f69	and    	eax, ecx
  0x3f6b	cmp    	eax, 0x70000
  0x3f70	jne    	0x3f85
  === BLOCK LINK ===
    0x3f72
=== CODE BLOCK END ===

=== CODE BLOCK ADDRESS 0x3f72 ===
  0x3f72	movzx  	ecx, dx
  0x3f75	mov    	eax, ecx
  0x3f77	mov    	edx, ecx
  0x3f79	or     	eax, 0xc0070000
  0x3f7e	test   	ecx, ecx
  === BLOCK LINK ===
    0x3f80
=== CODE BLOCK END ===

=== CODE BLOCK ADDRESS 0x3f80 ===
  0x3f80	cmovne  	edx, eax
  0x3f83	jmp    	0x3fb6
  === BLOCK LINK ===
    0x3f85
=== CODE BLOCK END ===

=== CODE BLOCK ADDRESS 0x3f85 ===
  0x3f85	mov    	eax, edx
  0x3f87	and    	eax, ecx
  0x3f89	cmp    	eax, 0x90000
  0x3f8e	jne    	0x3faa
  === BLOCK LINK ===
    0x3f90
=== CODE BLOCK END ===

=== CODE BLOCK ADDRESS 0x3f90 ===
  0x3f90	test   	edx, edx
  0x3f92	jle    	0x3fb6
  === BLOCK LINK ===
    0x3f94
=== CODE BLOCK END ===

=== CODE BLOCK ADDRESS 0x3f94 ===
  0x3f94	movzx  	edx, dx
  0x3f97	or     	edx, 0xc0090000
  0x3f9d	jmp    	0x3fb6
  === BLOCK LINK ===
    0x3f9f
=== CODE BLOCK END ===

=== CODE BLOCK ADDRESS 0x3f9f ===
  0x3f9f	xor    	edx, edx
  0x3fa1	jmp    	0x3fb6
  === BLOCK LINK ===
    0x3fa3
=== CODE BLOCK END ===

=== CODE BLOCK ADDRESS 0x3fa3 ===
  0x3fa3	mov    	edx, 0xc000a083
  0x3fa8	jmp    	0x3fb6
  === BLOCK LINK ===
    0x3faa
=== CODE BLOCK END ===

=== CODE BLOCK ADDRESS 0x3faa ===
  0x3faa	mov    	edx, 0xc00000e5
  0x3faf	jmp    	0x3fb6
  === BLOCK LINK ===
    0x3fb1
=== CODE BLOCK END ===

=== CODE BLOCK ADDRESS 0x3fb1 ===
  0x3fb1	mov    	edx, 0xc000042b
  0x3fb6	mov    	eax, edx
  0x3fb8	ret    	
  0x3fb9	int3   	
  0x3fba	int3   	
  === BLOCK LINK ===
    0x3fbb
=== CODE BLOCK END ===

=== CODE BLOCK ADDRESS 0x1465 ===
  0x1465	dec    	eax
  0x1466	ror    	ecx, 0x10
  0x1469	jmp    	0x14b0
  === BLOCK LINK ===
    0x146e
=== CODE BLOCK END ===

=== CODE BLOCK ADDRESS 0x3fbb ===
  0x3fbb	int3   	
  0x3fbc	dec    	eax
  0x3fbd	mov    	eax, esp
  0x3fbf	mov    	dword ptr [eax + 0x10], edx
  0x3fc2	dec    	eax
  === BLOCK LINK ===
    0x3fc3
=== CODE BLOCK END ===

=== CODE BLOCK ADDRESS 0x3fc3 ===
  0x3fc3	mov    	dword ptr [eax + 8], ecx
  0x3fc6	push   	ebp
  0x3fc7	push   	esi
  0x3fc8	push   	edi
  0x3fc9	inc    	ecx
  === BLOCK LINK ===
    0x3fca
=== CODE BLOCK END ===

=== CODE BLOCK ADDRESS 0x3fca ===
  0x3fca	push   	esp
  0x3fcb	inc    	ecx
  0x3fcc	push   	ebp
  0x3fcd	inc    	ecx
  0x3fce	push   	esi
  === BLOCK LINK ===
    0x3fcf
=== CODE BLOCK END ===

=== CODE BLOCK ADDRESS 0x3fcf ===
  0x3fcf	inc    	ecx
  0x3fd0	push   	edi
  0x3fd1	dec    	eax
  0x3fd2	sub    	esp, 0x50
  0x3fd5	dec    	eax
  === BLOCK LINK ===
    0x3fd6
=== CODE BLOCK END ===

=== CODE BLOCK ADDRESS 0x3fd6 ===
  0x3fd6	mov    	dword ptr [eax - 0x48], 0xfffffffe
  0x3fdd	dec    	eax
  0x3fde	mov    	dword ptr [eax + 0x18], ebx
  0x3fe1	dec    	ebp
  0x3fe2	mov    	esp, ecx
  === BLOCK LINK ===
    0x3fe4
=== CODE BLOCK END ===

=== CODE BLOCK ADDRESS 0x3fe4 ===
  0x3fe4	dec    	ebp
  0x3fe5	mov    	ebp, eax
  0x3fe7	dec    	esp
  0x3fe8	mov    	edx, ecx
  0x3fea	inc    	ebp
  === BLOCK LINK ===
    0x3feb
=== CODE BLOCK END ===

=== CODE BLOCK ADDRESS 0x3feb ===
  0x3feb	xor    	eax, eax
  0x3fed	dec    	esp
  0x3fee	mov    	esi, dword ptr [esp + 0xe0]
  0x3ff5	inc    	bp
  0x3ff7	mov    	dword ptr [esi], eax
  === BLOCK LINK ===
    0x3ff9
=== CODE BLOCK END ===

=== CODE BLOCK ADDRESS 0x3ff9 ===
  0x3ff9	dec    	eax
  0x3ffa	mov    	eax, dword ptr [esp + 0xf0]
  0x4001	inc    	esp
  0x4002	mov    	byte ptr [eax], al
  0x4004	dec    	eax
  === BLOCK LINK ===
    0x4005
=== CODE BLOCK END ===

=== CODE BLOCK ADDRESS 0x4005 ===
  0x4005	mov    	ebx, dword ptr [esp + 0x100]
  0x400c	dec    	esp
  0x400d	mov    	edi, dword ptr [esp + 0xc8]
  0x4014	inc    	ecx
  0x4015	mov    	edi, dword ptr [edi]
  === BLOCK LINK ===
    0x4017
=== CODE BLOCK END ===

=== CODE BLOCK ADDRESS 0x4017 ===
  0x4017	mov    	dword ptr [ebx + 8], edi
  0x401a	inc    	ecx
  0x401b	mov    	eax, dword ptr [edi + 4]
  0x401e	mov    	dword ptr [ebx + 0xc], eax
  0x4021	inc    	ecx
  === BLOCK LINK ===
    0x4022
=== CODE BLOCK END ===

=== CODE BLOCK ADDRESS 0x4022 ===
  0x4022	mov    	esi, eax
  0x4024	mov    	ebp, dword ptr [esp + 0xc0]
  0x402b	mov    	ecx, ebp
  0x402d	test   	ebp, ebp
  0x402f	je     	0x409a
  === BLOCK LINK ===
    0x4031
=== CODE BLOCK END ===

=== CODE BLOCK ADDRESS 0x4031 ===
  0x4031	sub    	ecx, 1
  0x4034	je     	0x4091
  === BLOCK LINK ===
    0x4036
=== CODE BLOCK END ===

=== CODE BLOCK ADDRESS 0x4036 ===
  0x4036	sub    	ecx, 1
  0x4039	je     	0x4049
  === BLOCK LINK ===
    0x403b
=== CODE BLOCK END ===

=== CODE BLOCK ADDRESS 0x403b ===
  0x403b	cmp    	ecx, 1
  0x403e	jne    	0x40a3
  === BLOCK LINK ===
    0x4040
=== CODE BLOCK END ===

=== CODE BLOCK ADDRESS 0x4040 ===
  0x4040	mov    	ecx, edi
  0x4042	call   	0x4780
  === BLOCK LINK ===
    0x4047
=== CODE BLOCK END ===

=== CODE BLOCK ADDRESS 0x4047 ===
  0x4047	jmp    	0x40a1
  === BLOCK LINK ===
    0x4049
=== CODE BLOCK END ===

=== CODE BLOCK ADDRESS 0x4049 ===
  0x4049	test   	edi, edi
  0x404b	js     	0x4088
  === BLOCK LINK ===
    0x404d
=== CODE BLOCK END ===

=== CODE BLOCK ADDRESS 0x404d ===
  0x404d	mov    	edi, 0x8007029c
  0x4052	mov    	dword ptr [esp + 0x30], edi
  0x4056	dec    	eax
  0x4057	mov    	eax, dword ptr [esp + 0xb8]
  0x405e	dec    	eax
  === BLOCK LINK ===
    0x405f
=== CODE BLOCK END ===

=== CODE BLOCK ADDRESS 0x405f ===
  0x405f	mov    	dword ptr [esp + 0x28], eax
  0x4063	dec    	eax
  0x4064	mov    	eax, dword ptr [esp + 0xb0]
  0x406b	dec    	eax
  0x406c	mov    	dword ptr [esp + 0x20], eax
  === BLOCK LINK ===
    0x4070
=== CODE BLOCK END ===

=== CODE BLOCK ADDRESS 0x4070 ===
  0x4070	dec    	ebp
  0x4071	mov    	eax, ebp
  0x4073	dec    	ecx
  0x4074	mov    	ecx, edx
  0x4076	call   	0x222c
  === BLOCK LINK ===
    0x407b
=== CODE BLOCK END ===

=== CODE BLOCK ADDRESS 0x407b ===
  0x407b	mov    	dword ptr [ebx + 8], edi
  0x407e	mov    	ecx, edi
  0x4080	call   	0x3df0
  === BLOCK LINK ===
    0x4085
=== CODE BLOCK END ===

=== CODE BLOCK ADDRESS 0x4085 ===
  0x4085	mov    	dword ptr [ebx + 0xc], eax
  0x4088	mov    	ecx, edi
  0x408a	call   	0x478c
  === BLOCK LINK ===
    0x408f
=== CODE BLOCK END ===

=== CODE BLOCK ADDRESS 0x408f ===
  0x408f	jmp    	0x40a1
  === BLOCK LINK ===
    0x4091
=== CODE BLOCK END ===

=== CODE BLOCK ADDRESS 0x4091 ===
  0x4091	mov    	ecx, edi
  0x4093	call   	0x47a4
  === BLOCK LINK ===
    0x4098
=== CODE BLOCK END ===

=== CODE BLOCK ADDRESS 0x4098 ===
  0x4098	jmp    	0x40a1
  === BLOCK LINK ===
    0x409a
=== CODE BLOCK END ===

=== CODE BLOCK ADDRESS 0x409a ===
  0x409a	mov    	ecx, edi
  0x409c	call   	0x4754
  === BLOCK LINK ===
    0x40a1
=== CODE BLOCK END ===

=== CODE BLOCK ADDRESS 0x40a1 ===
  0x40a1	mov    	esi, eax
  0x40a3	mov    	dword ptr [ebx], ebp
  0x40a5	xor    	edi, edi
  0x40a7	mov    	dword ptr [ebx + 4], edi
  0x40aa	inc    	ecx
  === BLOCK LINK ===
    0x40ab
=== CODE BLOCK END ===

=== CODE BLOCK ADDRESS 0x40ab ===
  0x40ab	cmp    	byte ptr [edi + 8], bh
  0x40ae	je     	0x40b7
  === BLOCK LINK ===
    0x40b0
=== CODE BLOCK END ===

=== CODE BLOCK ADDRESS 0x40b0 ===
  0x40b0	mov    	dword ptr [ebx + 4], 8
  0x40b7	mov    	eax, 1
  0x40bc	lock xadd  	dword ptr [0x6644], eax
  0x40c4	inc    	eax
  0x40c6	mov    	dword ptr [ebx + 0x10], eax
  === BLOCK LINK ===
    0x40c9
=== CODE BLOCK END ===

=== CODE BLOCK ADDRESS 0x40c9 ===
  0x40c9	dec    	eax
  0x40ca	mov    	eax, dword ptr [esp + 0xd0]
  0x40d1	dec    	eax
  0x40d2	test   	eax, eax
  0x40d4	je     	0x40db
  === BLOCK LINK ===
    0x40d6
=== CODE BLOCK END ===

=== CODE BLOCK ADDRESS 0x40d6 ===
  0x40d6	cmp    	word ptr [eax], di
  0x40d9	jne    	0x40de
  === BLOCK LINK ===
    0x40db
=== CODE BLOCK END ===

=== CODE BLOCK ADDRESS 0x40db ===
  0x40db	dec    	eax
  0x40dc	mov    	eax, edi
  0x40de	dec    	eax
  0x40df	mov    	dword ptr [ebx + 0x18], eax
  0x40e2	call   	dword ptr [0x3190]
  === BLOCK LINK ===
    0x40e8
=== CODE BLOCK END ===

=== CODE BLOCK ADDRESS 0x40e8 ===
  0x40e8	mov    	dword ptr [ebx + 0x20], eax
  0x40eb	dec    	esp
  0x40ec	mov    	dword ptr [ebx + 0x38], ebp
  0x40ef	mov    	eax, dword ptr [esp + 0x98]
  0x40f6	mov    	dword ptr [ebx + 0x40], eax
  === BLOCK LINK ===
    0x40f9
=== CODE BLOCK END ===

=== CODE BLOCK ADDRESS 0x40f9 ===
  0x40f9	mov    	dword ptr [ebx + 0x44], esi
  0x40fc	dec    	eax
  0x40fd	mov    	eax, dword ptr [esp + 0xb0]
  0x4104	dec    	eax
  0x4105	mov    	dword ptr [ebx + 0x28], eax
  === BLOCK LINK ===
    0x4108
=== CODE BLOCK END ===

=== CODE BLOCK ADDRESS 0x4108 ===
  0x4108	dec    	esp
  0x4109	mov    	dword ptr [ebx + 0x30], esp
  0x410c	dec    	eax
  0x410d	mov    	eax, dword ptr [esp + 0xb8]
  0x4114	dec    	eax
  === BLOCK LINK ===
    0x4115
=== CODE BLOCK END ===

=== CODE BLOCK ADDRESS 0x4115 ===
  0x4115	mov    	dword ptr [ebx + 0x88], eax
  0x411b	dec    	eax
  0x411c	mov    	eax, dword ptr [esp + 0x90]
  0x4123	dec    	eax
  0x4124	mov    	dword ptr [ebx + 0x90], eax
  === BLOCK LINK ===
    0x412a
=== CODE BLOCK END ===

=== CODE BLOCK ADDRESS 0x412a ===
  0x412a	dec    	eax
  0x412b	mov    	dword ptr [ebx + 0x48], edi
  0x412e	xorps  	xmm0, xmm0
  0x4131	movups  	xmmword ptr [ebx + 0x50], xmm0
  0x4135	movups  	xmmword ptr [ebx + 0x60], xmm0
  === BLOCK LINK ===
    0x4139
=== CODE BLOCK END ===

=== CODE BLOCK ADDRESS 0x4139 ===
  0x4139	movups  	xmmword ptr [ebx + 0x70], xmm0
  0x413d	dec    	eax
  0x413e	mov    	eax, dword ptr [0x6674]
  0x4144	dec    	eax
  0x4145	test   	eax, eax
  === BLOCK LINK ===
    0x4147
=== CODE BLOCK END ===

=== CODE BLOCK ADDRESS 0x4147 ===
  0x4147	je     	0x415b
  === BLOCK LINK ===
    0x4149
=== CODE BLOCK END ===

=== CODE BLOCK ADDRESS 0x4149 ===
  0x4149	dec    	ecx
  0x414a	mov    	edx, 0x5ed9c370
  0x414f	adc    	al, 0x27
  0x4151	sub    	ebp, eax
  0x4153	call   	dword ptr [0x333f]
  === BLOCK LINK ===
    0x4159
=== CODE BLOCK END ===

=== CODE BLOCK ADDRESS 0x4159 ===
  0x4159	jmp    	0x415e
  === BLOCK LINK ===
    0x415b
=== CODE BLOCK END ===

=== CODE BLOCK ADDRESS 0x415b ===
  0x415b	dec    	eax
  0x415c	mov    	eax, edi
  0x415e	dec    	eax
  0x415f	mov    	dword ptr [ebx + 0x80], eax
  0x4165	dec    	eax
  === BLOCK LINK ===
    0x4166
=== CODE BLOCK END ===

=== CODE BLOCK ADDRESS 0x4166 ===
  0x4166	mov    	eax, dword ptr [0x65cc]
  0x416c	dec    	eax
  0x416d	test   	eax, eax
  0x416f	je     	0x4184
  === BLOCK LINK ===
    0x4171
=== CODE BLOCK END ===

=== CODE BLOCK ADDRESS 0x4171 ===
  0x4171	dec    	ecx
  0x4172	mov    	edx, 0x5e56ba70
  0x4177	add    	eax, 0x48d8113e
  0x417c	mov    	ecx, ebx
  0x417e	call   	dword ptr [0x3314]
  === BLOCK LINK ===
    0x4184
=== CODE BLOCK END ===

=== CODE BLOCK ADDRESS 0x4184 ===
  0x4184	dec    	eax
  0x4185	mov    	eax, dword ptr [0x65e5]
  0x418b	dec    	eax
  0x418c	test   	eax, eax
  0x418e	je     	0x41b1
  === BLOCK LINK ===
    0x4190
=== CODE BLOCK END ===

=== CODE BLOCK ADDRESS 0x4190 ===
  0x4190	dec    	ecx
  0x4191	mov    	edx, 0x58da1a70
  0x4196	or     	cl, byte ptr [esi]
  0x4198	sbb    	edx, ebp
  0x419a	inc    	ecx
  === BLOCK LINK ===
    0x419b
=== CODE BLOCK END ===

=== CODE BLOCK ADDRESS 0x419b ===
  0x419b	mov    	eax, 0x400
  0x41a0	dec    	eax
  0x41a1	mov    	edx, dword ptr [esp + 0xf0]
  0x41a8	dec    	eax
  0x41a9	mov    	ecx, ebx
  === BLOCK LINK ===
    0x41ab
=== CODE BLOCK END ===

=== CODE BLOCK ADDRESS 0x41ab ===
  0x41ab	call   	dword ptr [0x32e7]
  === BLOCK LINK ===
    0x41b1
=== CODE BLOCK END ===

=== CODE BLOCK ADDRESS 0x41b1 ===
  0x41b1	dec    	eax
  0x41b2	mov    	eax, dword ptr [0x65a8]
  0x41b8	dec    	eax
  0x41b9	test   	eax, eax
  0x41bb	je     	0x41d0
  === BLOCK LINK ===
    0x41bd
=== CODE BLOCK END ===

=== CODE BLOCK ADDRESS 0x41bd ===
  0x41bd	dec    	ecx
  0x41be	mov    	edx, 0x3cd18a70
  0x41c3	mov    	bh, byte ptr [edi - 0x74b74c68]
  0x41c9	retf   	
  0x41ca	call   	dword ptr [0x32c8]
  === BLOCK LINK ===
    0x41d0
=== CODE BLOCK END ===

=== CODE BLOCK ADDRESS 0x14b0 ===
  0x14b3	and    	al, 8
  0x14b5	dec    	eax
  === BLOCK LINK ===
    0x14b6
=== CODE BLOCK END ===

=== CODE BLOCK ADDRESS 0x41d0 ===
  0x41d0	dec    	eax
  0x41d1	mov    	eax, dword ptr [0x65b9]
  0x41d7	dec    	eax
  0x41d8	test   	eax, eax
  0x41da	je     	0x41f5
  === BLOCK LINK ===
    0x41dc
=== CODE BLOCK END ===

=== CODE BLOCK ADDRESS 0x41dc ===
  0x41dc	test   	byte ptr [ebx + 4], 2
  0x41e0	jne    	0x41f5
  === BLOCK LINK ===
    0x41e2
=== CODE BLOCK END ===

=== CODE BLOCK ADDRESS 0x41e2 ===
  0x41e2	dec    	ecx
  0x41e3	mov    	edx, 0x3cd18a70
  0x41e8	mov    	bh, byte ptr [edi - 0x74b74c68]
  0x41ee	retf   	
  0x41ef	call   	dword ptr [0x32a3]
  === BLOCK LINK ===
    0x41f5
=== CODE BLOCK END ===

=== CODE BLOCK ADDRESS 0x1474 ===
  0x1476	dec    	eax
  0x1477	mov    	ebx, ecx
  0x1479	xor    	ecx, ecx
  0x147b	call   	dword ptr [0x5d4f]
  === BLOCK LINK ===
    0x1481
=== CODE BLOCK END ===

=== CODE BLOCK ADDRESS 0x41f5 ===
  0x41f5	cmp    	dword ptr [ebx + 8], edi
  0x41f8	jl     	0x4213
  === BLOCK LINK ===
    0x41fa
=== CODE BLOCK END ===

=== CODE BLOCK ADDRESS 0x41fa ===
  0x41fa	cmp    	ebp, 3
  0x41fd	jne    	0x4310
  === BLOCK LINK ===
    0x4203
=== CODE BLOCK END ===

=== CODE BLOCK ADDRESS 0x4203 ===
  0x4203	mov    	ecx, 0x8000ffff
  0x4208	mov    	dword ptr [ebx + 8], ecx
  0x420b	call   	0x3df0
  === BLOCK LINK ===
    0x4210
=== CODE BLOCK END ===

=== CODE BLOCK ADDRESS 0x4210 ===
  0x4210	mov    	dword ptr [ebx + 0xc], eax
  0x4213	inc    	eax
  0x4214	cmp    	byte ptr [0x6506], bh
  0x421a	jne    	0x4247
  === BLOCK LINK ===
    0x421c
=== CODE BLOCK END ===

=== CODE BLOCK ADDRESS 0x421c ===
  0x421c	dec    	eax
  0x421d	mov    	eax, dword ptr [0x64ed]
  0x4223	dec    	eax
  0x4224	test   	eax, eax
  0x4226	je     	0x423d
  === BLOCK LINK ===
    0x4228
=== CODE BLOCK END ===

=== CODE BLOCK ADDRESS 0x4228 ===
  0x4228	dec    	ecx
  0x4229	mov    	edx, 0x5c5ca270
  0x422e	les    	ebx, ptr [esi + 0x15ffdf94]
  0x4234	pushal  	
  0x4235	xor    	al, byte ptr [eax]
  === BLOCK LINK ===
    0x4237
=== CODE BLOCK END ===

=== CODE BLOCK ADDRESS 0x4237 ===
  0x4237	add    	byte ptr [edi], cl
  0x4239	mov    	dh, 0xc0
  0x423b	jmp    	0x4243
  === BLOCK LINK ===
    0x423d
=== CODE BLOCK END ===

=== CODE BLOCK ADDRESS 0x423d ===
  0x423d	call   	dword ptr [0x2f5d]
  === BLOCK LINK ===
    0x4243
=== CODE BLOCK END ===

=== CODE BLOCK ADDRESS 0x4243 ===
  0x4243	test   	eax, eax
  0x4245	je     	0x424d
  === BLOCK LINK ===
    0x4247
=== CODE BLOCK END ===

=== CODE BLOCK ADDRESS 0x4247 ===
  0x4247	test   	byte ptr [ebx + 4], 2
  0x424b	je     	0x427c
  === BLOCK LINK ===
    0x424d
=== CODE BLOCK END ===

=== CODE BLOCK ADDRESS 0x424d ===
  0x424d	dec    	eax
  0x424e	mov    	eax, dword ptr [0x64d4]
  0x4254	dec    	eax
  0x4255	test   	eax, eax
  0x4257	je     	0x42cc
  === BLOCK LINK ===
    0x4259
=== CODE BLOCK END ===

=== CODE BLOCK ADDRESS 0x4259 ===
  0x4259	inc    	eax
  0x425a	cmp    	byte ptr [0x64e8], bh
  0x4260	jne    	0x42cc
  === BLOCK LINK ===
    0x4262
=== CODE BLOCK END ===

=== CODE BLOCK ADDRESS 0x4262 ===
  0x4262	dec    	ecx
  0x4263	mov    	edx, 0x7ede8170
  0x4268	out    	0xb6, al
  0x426a	nop    	
  0x426b	stc    	
  === BLOCK LINK ===
    0x426c
=== CODE BLOCK END ===

=== CODE BLOCK ADDRESS 0x426c ===
  0x426c	inc    	ebp
  0x426d	xor    	eax, eax
  0x426f	xor    	edx, edx
  0x4271	dec    	eax
  0x4272	mov    	ecx, ebx
  === BLOCK LINK ===
    0x4274
=== CODE BLOCK END ===

=== CODE BLOCK ADDRESS 0x4274 ===
  0x4274	call   	dword ptr [0x321e]
  === BLOCK LINK ===
    0x427a
=== CODE BLOCK END ===

=== CODE BLOCK ADDRESS 0x427a ===
  0x427a	jmp    	0x42cc
  === BLOCK LINK ===
    0x427c
=== CODE BLOCK END ===

=== CODE BLOCK ADDRESS 0x427c ===
  0x427c	mov    	esi, 0x800
  0x4281	dec    	eax
  0x4282	mov    	eax, dword ptr [0x64a0]
  0x4288	dec    	eax
  0x4289	test   	eax, eax
  === BLOCK LINK ===
    0x428b
=== CODE BLOCK END ===

=== CODE BLOCK ADDRESS 0x428b ===
  0x428b	je     	0x42af
  === BLOCK LINK ===
    0x428d
=== CODE BLOCK END ===

=== CODE BLOCK ADDRESS 0x428d ===
  0x428d	inc    	eax
  0x428e	cmp    	byte ptr [0x64b4], bh
  0x4294	jne    	0x42af
  === BLOCK LINK ===
    0x4296
=== CODE BLOCK END ===

=== CODE BLOCK ADDRESS 0x4296 ===
  0x4296	dec    	ecx
  0x4297	mov    	edx, 0x7ede8170
  0x429c	out    	0xb6, al
  0x429e	nop    	
  0x429f	stc    	
  === BLOCK LINK ===
    0x42a0
=== CODE BLOCK END ===

=== CODE BLOCK ADDRESS 0x42a0 ===
  0x42a0	inc    	esp
  0x42a1	mov    	eax, esi
  0x42a3	dec    	ecx
  0x42a4	mov    	edx, esi
  0x42a6	dec    	eax
  === BLOCK LINK ===
    0x42a7
=== CODE BLOCK END ===

=== CODE BLOCK ADDRESS 0x42a7 ===
  0x42a7	mov    	ecx, ebx
  0x42a9	call   	dword ptr [0x31e9]
  === BLOCK LINK ===
    0x42af
=== CODE BLOCK END ===

=== CODE BLOCK ADDRESS 0x42af ===
  0x42af	inc    	cx
  0x42b1	cmp    	dword ptr [esi], edi
  0x42b3	jne    	0x42c3
  === BLOCK LINK ===
    0x42b5
=== CODE BLOCK END ===

=== CODE BLOCK ADDRESS 0x42b5 ===
  0x42b5	dec    	esp
  0x42b6	mov    	eax, ebx
  0x42b8	dec    	eax
  0x42b9	mov    	edx, esi
  0x42bb	dec    	ecx
  === BLOCK LINK ===
    0x42bc
=== CODE BLOCK END ===

=== CODE BLOCK ADDRESS 0x42bc ===
  0x42bc	mov    	ecx, esi
  0x42be	call   	0x362c
  === BLOCK LINK ===
    0x42c3
=== CODE BLOCK END ===

=== CODE BLOCK ADDRESS 0x42c3 ===
  0x42c3	dec    	ecx
  0x42c4	mov    	ecx, esi
  0x42c6	call   	dword ptr [0x2ee4]
  === BLOCK LINK ===
    0x42cc
=== CODE BLOCK END ===

=== CODE BLOCK ADDRESS 0x42cc ===
  0x42cc	test   	byte ptr [ebx + 4], 4
  0x42d0	jne    	0x42db
  === BLOCK LINK ===
    0x42d2
=== CODE BLOCK END ===

=== CODE BLOCK ADDRESS 0x42d2 ===
  0x42d2	inc    	eax
  0x42d3	cmp    	byte ptr [0x6457], bh
  0x42d9	je     	0x42f8
  === BLOCK LINK ===
    0x42db
=== CODE BLOCK END ===

=== CODE BLOCK ADDRESS 0x42db ===
  0x42db	dec    	eax
  0x42dc	mov    	eax, dword ptr [0x649e]
  0x42e2	dec    	eax
  0x42e3	test   	eax, eax
  0x42e5	je     	0x42f8
  === BLOCK LINK ===
    0x42e7
=== CODE BLOCK END ===

=== CODE BLOCK ADDRESS 0x42e7 ===
  0x42e7	dec    	ecx
  0x42e8	mov    	edx, 0x56da4870
  0x42ed	xchg   	eax, esi
  0x42ee	int1   	
  0x42f0	test   	edi, edi
  === BLOCK LINK ===
    0x42f2
=== CODE BLOCK END ===

=== CODE BLOCK ADDRESS 0x42f2 ===
  0x42f2	adc    	eax, 0x31a1
  0x42f7	nop    	
  0x42f8	dec    	eax
  0x42f9	mov    	ebx, dword ptr [esp + 0xa0]
  0x4300	dec    	eax
  === BLOCK LINK ===
    0x4301
=== CODE BLOCK END ===

=== CODE BLOCK ADDRESS 0x4301 ===
  0x4301	add    	esp, 0x50
  0x4304	inc    	ecx
  0x4305	pop    	edi
  0x4306	inc    	ecx
  0x4307	pop    	esi
  === BLOCK LINK ===
    0x4308
=== CODE BLOCK END ===

=== CODE BLOCK ADDRESS 0x4308 ===
  0x4308	inc    	ecx
  0x4309	pop    	ebp
  0x430a	inc    	ecx
  0x430b	pop    	esp
  0x430c	pop    	edi
  === BLOCK LINK ===
    0x430d
=== CODE BLOCK END ===

=== CODE BLOCK ADDRESS 0x430d ===
  0x430d	pop    	esi
  0x430e	pop    	ebp
  0x430f	ret    	
  0x4310	call   	0x5974
  === BLOCK LINK ===
    0x4315
=== CODE BLOCK END ===

=== CODE BLOCK ADDRESS 0x14cf ===
  0x14cf	dec    	eax
  0x14d0	lea    	ecx, [0x8cfa]
  0x14d6	call   	0x1584
  === BLOCK LINK ===
    0x14db
=== CODE BLOCK END ===

=== CODE BLOCK ADDRESS 0x4315 ===
  0x4315	int3   	
  0x4316	int3   	
  0x4317	int3   	
  0x4318	dec    	esp
  0x4319	mov    	dword ptr [esp + 0x18], eax
  === BLOCK LINK ===
    0x431d
=== CODE BLOCK END ===

=== CODE BLOCK ADDRESS 0x431d ===
  0x431d	dec    	esp
  0x431e	mov    	dword ptr [esp + 0x20], ecx
  0x4322	push   	ebx
  0x4323	push   	ebp
  0x4324	push   	esi
  === BLOCK LINK ===
    0x4325
=== CODE BLOCK END ===

=== CODE BLOCK ADDRESS 0x4325 ===
  0x4325	push   	edi
  0x4326	dec    	eax
  0x4327	sub    	esp, 0x28
  0x432a	dec    	eax
  0x432b	mov    	edi, edx
  === BLOCK LINK ===
    0x432d
=== CODE BLOCK END ===

=== CODE BLOCK ADDRESS 0x432d ===
  0x432d	dec    	esp
  0x432e	lea    	ecx, [esp + 0x68]
  0x4332	dec    	eax
  0x4333	sub    	edi, ecx
  0x4335	xor    	ebp, ebp
  === BLOCK LINK ===
    0x4337
=== CODE BLOCK END ===

=== CODE BLOCK ADDRESS 0x4337 ===
  0x4337	dec    	eax
  0x4338	sar    	edi, 1
  0x433a	dec    	eax
  0x433b	mov    	esi, edx
  0x433d	dec    	eax
  === BLOCK LINK ===
    0x433e
=== CODE BLOCK END ===

=== CODE BLOCK ADDRESS 0x433e ===
  0x433e	mov    	ebx, ecx
  0x4340	je     	0x436c
  === BLOCK LINK ===
    0x4342
=== CODE BLOCK END ===

=== CODE BLOCK ADDRESS 0x4342 ===
  0x4342	dec    	eax
  0x4343	cmp    	edi, 0x7fffffff
  0x4349	ja     	0x4369
  === BLOCK LINK ===
    0x434b
=== CODE BLOCK END ===

=== CODE BLOCK ADDRESS 0x434b ===
  0x434b	dec    	eax
  0x434c	dec    	edi
  0x434e	dec    	eax
  0x434f	mov    	edx, edi
  0x4351	call   	0x1eec
  === BLOCK LINK ===
    0x4356
=== CODE BLOCK END ===

=== CODE BLOCK ADDRESS 0x4356 ===
  0x4356	test   	eax, eax
  0x4358	js     	0x4363
  === BLOCK LINK ===
    0x435a
=== CODE BLOCK END ===

=== CODE BLOCK ADDRESS 0x435a ===
  0x435a	dec    	eax
  0x435b	cwde   	
  0x435c	dec    	eax
  0x435d	cmp    	eax, edi
  0x435f	ja     	0x4363
  === BLOCK LINK ===
    0x4361
=== CODE BLOCK END ===

=== CODE BLOCK ADDRESS 0x4361 ===
  0x4361	jne    	0x436c
  === BLOCK LINK ===
    0x4363
=== CODE BLOCK END ===

=== CODE BLOCK ADDRESS 0x4363 ===
  0x4363	mov    	word ptr [ebx + edi*2], bp
  0x4367	jmp    	0x436c
  === BLOCK LINK ===
    0x4369
=== CODE BLOCK END ===

=== CODE BLOCK ADDRESS 0x4369 ===
  0x4369	mov    	word ptr [ecx], bp
  0x436c	dec    	eax
  0x436d	cmp    	esi, ebx
  0x436f	je     	0x4382
  === BLOCK LINK ===
    0x4371
=== CODE BLOCK END ===

=== CODE BLOCK ADDRESS 0x4371 ===
  0x4371	dec    	eax
  0x4372	or     	eax, 0xffffffff
  0x4375	dec    	eax
  0x4376	inc    	eax
  0x4378	cmp    	word ptr [ebx + eax*2], bp
  === BLOCK LINK ===
    0x437c
=== CODE BLOCK END ===

=== CODE BLOCK ADDRESS 0x437c ===
  0x437c	jne    	0x4375
  === BLOCK LINK ===
    0x437e
=== CODE BLOCK END ===

=== CODE BLOCK ADDRESS 0x437e ===
  0x437e	dec    	eax
  0x437f	lea    	ebx, [ebx + eax*2]
  0x4382	dec    	eax
  0x4383	mov    	eax, ebx
  0x4385	dec    	eax
  === BLOCK LINK ===
    0x4386
=== CODE BLOCK END ===

=== CODE BLOCK ADDRESS 0x4386 ===
  0x4386	add    	esp, 0x28
  0x4389	pop    	edi
  0x438a	pop    	esi
  0x438b	pop    	ebp
  0x438c	pop    	ebx
  === BLOCK LINK ===
    0x438d
=== CODE BLOCK END ===

=== CODE BLOCK ADDRESS 0x438d ===
  0x438d	ret    	
  0x438e	int3   	
  0x438f	int3   	
  0x4390	dec    	eax
  0x4391	mov    	dword ptr [esp + 8], ebx
  === BLOCK LINK ===
    0x4395
=== CODE BLOCK END ===

=== CODE BLOCK ADDRESS 0x4395 ===
  0x4395	dec    	eax
  0x4396	mov    	dword ptr [esp + 0x20], esi
  0x439a	push   	ebp
  0x439b	push   	edi
  0x439c	inc    	ecx
  === BLOCK LINK ===
    0x439d
=== CODE BLOCK END ===

=== CODE BLOCK ADDRESS 0x439d ===
  0x439d	push   	esp
  0x439e	inc    	ecx
  0x439f	push   	esi
  0x43a0	inc    	ecx
  0x43a1	push   	edi
  === BLOCK LINK ===
    0x43a2
=== CODE BLOCK END ===

=== CODE BLOCK ADDRESS 0x43a2 ===
  0x43a2	dec    	eax
  0x43a3	lea    	ebp, [esp - 0x160]
  0x43aa	dec    	eax
  0x43ab	sub    	esp, 0x260
  0x43b1	dec    	eax
  === BLOCK LINK ===
    0x43b2
=== CODE BLOCK END ===

=== CODE BLOCK ADDRESS 0x43b2 ===
  0x43b2	mov    	eax, dword ptr [0x5cd8]
  0x43b8	dec    	eax
  0x43b9	xor    	eax, esp
  0x43bb	dec    	eax
  0x43bc	mov    	dword ptr [ebp + 0x150], eax
  === BLOCK LINK ===
    0x43c2
=== CODE BLOCK END ===

=== CODE BLOCK ADDRESS 0x43c2 ===
  0x43c2	inc    	ebp
  0x43c3	xor    	esp, esp
  0x43c5	dec    	ebp
  0x43c6	mov    	esi, eax
  0x43c8	dec    	ebp
  === BLOCK LINK ===
    0x43c9
=== CODE BLOCK END ===

=== CODE BLOCK ADDRESS 0x43c9 ===
  0x43c9	mov    	dword ptr [eax], esp
  0x43cb	dec    	esp
  0x43cc	mov    	edi, edx
  0x43ce	dec    	eax
  0x43cf	mov    	esi, ecx
  === BLOCK LINK ===
    0x43d1
=== CODE BLOCK END ===

=== CODE BLOCK ADDRESS 0x43d1 ===
  0x43d1	call   	dword ptr [0x2e31]
  === BLOCK LINK ===
    0x43d7
=== CODE BLOCK END ===

=== CODE BLOCK ADDRESS 0x43d7 ===
  0x43d7	dec    	eax
  0x43d8	mov    	ecx, eax
  0x43da	inc    	ecx
  0x43db	lea    	edx, [esp + 8]
  0x43df	inc    	ebp
  === BLOCK LINK ===
    0x43e0
=== CODE BLOCK END ===

=== CODE BLOCK ADDRESS 0x43e0 ===
  0x43e0	lea    	eax, [esp + 0x78]
  0x43e4	call   	dword ptr [0x2e0e]
  === BLOCK LINK ===
    0x43ea
=== CODE BLOCK END ===

=== CODE BLOCK ADDRESS 0x43ea ===
  0x43ea	dec    	eax
  0x43eb	mov    	edi, dword ptr [0x6377]
  0x43f1	dec    	eax
  0x43f2	mov    	ebx, eax
  0x43f4	dec    	eax
  === BLOCK LINK ===
    0x43f5
=== CODE BLOCK END ===

=== CODE BLOCK ADDRESS 0x43f5 ===
  0x43f5	test   	edi, edi
  0x43f7	je     	0x4418
  === BLOCK LINK ===
    0x43f9
=== CODE BLOCK END ===

=== CODE BLOCK ADDRESS 0x43f9 ===
  0x43f9	call   	dword ptr [0x2e09]
  === BLOCK LINK ===
    0x43ff
=== CODE BLOCK END ===

=== CODE BLOCK ADDRESS 0x43ff ===
  0x43ff	dec    	eax
  0x4400	mov    	ecx, eax
  0x4402	dec    	ecx
  0x4403	mov    	edx, 0x1e57bb70
  0x4408	ret    	
  === BLOCK LINK ===
    0x4409
=== CODE BLOCK END ===

=== CODE BLOCK ADDRESS 0x1470 ===
  0x1470	inc    	eax
  0x1471	push   	ebx
  0x1472	dec    	eax
  === BLOCK LINK ===
    0x1473
=== CODE BLOCK END ===

=== CODE BLOCK ADDRESS 0x4409 ===
  0x4409	xchg   	eax, edi
  0x440a	in     	al, 0xaf
  0x440c	dec    	eax
  0x440d	mov    	edx, ebx
  0x440f	dec    	eax
  === BLOCK LINK ===
    0x4410
=== CODE BLOCK END ===

=== CODE BLOCK ADDRESS 0x4410 ===
  0x4410	mov    	eax, edi
  0x4412	call   	dword ptr [0x3080]
  === BLOCK LINK ===
    0x4418
=== CODE BLOCK END ===

=== CODE BLOCK ADDRESS 0x4418 ===
  0x4418	dec    	eax
  0x4419	test   	ebx, ebx
  0x441b	je     	0x45dd
  === BLOCK LINK ===
    0x4421
=== CODE BLOCK END ===

=== CODE BLOCK ADDRESS 0x4421 ===
  0x4421	xorps  	xmm0, xmm0
  0x4424	movdqu  	xmmword ptr [esp + 0x30], xmm0
  0x442a	test   	bl, 3
  0x442d	jne    	0x463c
  === BLOCK LINK ===
    0x4433
=== CODE BLOCK END ===

=== CODE BLOCK ADDRESS 0x4433 ===
  0x4433	dec    	eax
  0x4434	mov    	edi, ebx
  0x4436	dec    	eax
  0x4437	lea    	eax, [esp + 0x40]
  0x443b	dec    	eax
  === BLOCK LINK ===
    0x443c
=== CODE BLOCK END ===

=== CODE BLOCK ADDRESS 0x443c ===
  0x443c	shr    	edi, 2
  0x443f	dec    	eax
  0x4440	lea    	ecx, [esp + 0x40]
  0x4444	dec    	eax
  0x4445	sub    	esi, eax
  === BLOCK LINK ===
    0x4447
=== CODE BLOCK END ===

=== CODE BLOCK ADDRESS 0x4447 ===
  0x4447	mov    	edx, 0x104
  0x444c	dec    	eax
  0x444d	lea    	eax, [edx + 0x7ffffefa]
  0x4453	dec    	eax
  0x4454	test   	eax, eax
  === BLOCK LINK ===
    0x4456
=== CODE BLOCK END ===

=== CODE BLOCK ADDRESS 0x4456 ===
  0x4456	je     	0x446e
  === BLOCK LINK ===
    0x4458
=== CODE BLOCK END ===

=== CODE BLOCK ADDRESS 0x4458 ===
  0x4458	movzx  	eax, word ptr [esi + ecx]
  0x445c	test   	ax, ax
  0x445f	je     	0x446e
  === BLOCK LINK ===
    0x4461
=== CODE BLOCK END ===

=== CODE BLOCK ADDRESS 0x4461 ===
  0x4461	mov    	word ptr [ecx], ax
  0x4464	dec    	eax
  0x4465	add    	ecx, 2
  0x4468	dec    	eax
  0x4469	sub    	edx, 1
  === BLOCK LINK ===
    0x446c
=== CODE BLOCK END ===

=== CODE BLOCK ADDRESS 0x446c ===
  0x446c	jne    	0x444c
  === BLOCK LINK ===
    0x446e
=== CODE BLOCK END ===

=== CODE BLOCK ADDRESS 0x446e ===
  0x446e	dec    	eax
  0x446f	lea    	eax, [ecx - 2]
  0x4472	dec    	eax
  0x4473	test   	edx, edx
  0x4475	dec    	esp
  === BLOCK LINK ===
    0x4476
=== CODE BLOCK END ===

=== CODE BLOCK ADDRESS 0x4476 ===
  0x4476	lea    	eax, [0x3414]
  0x447c	dec    	eax
  0x447d	cmovne  	eax, ecx
  0x4480	dec    	eax
  0x4481	lea    	ecx, [esp + 0x40]
  === BLOCK LINK ===
    0x4485
=== CODE BLOCK END ===

=== CODE BLOCK ADDRESS 0x4485 ===
  0x4485	inc    	sp
  0x4487	mov    	dword ptr [eax], esp
  0x4489	call   	0x53bc
  === BLOCK LINK ===
    0x448e
=== CODE BLOCK END ===

=== CODE BLOCK ADDRESS 0x448e ===
  0x448e	dec    	eax
  0x448f	mov    	esi, edi
  0x4491	dec    	esp
  0x4492	lea    	ecx, [esp + 0x40]
  0x4496	inc    	ecx
  === BLOCK LINK ===
    0x4497
=== CODE BLOCK END ===

=== CODE BLOCK ADDRESS 0x4497 ===
  0x4497	mov    	eax, 1
  0x449c	dec    	eax
  0x449d	shr    	esi, 0x1f
  0x44a0	and    	edi, 0x7fffffff
  0x44a6	dec    	eax
  === BLOCK LINK ===
    0x44a7
=== CODE BLOCK END ===

=== CODE BLOCK ADDRESS 0x44a7 ===
  0x44a7	lea    	ecx, [esp + 0x30]
  0x44ab	mov    	edx, edi
  0x44ad	inc    	esp
  0x44ae	cmova  	eax, edi
  0x44b1	call   	0x599c
  === BLOCK LINK ===
    0x44b6
=== CODE BLOCK END ===

=== CODE BLOCK ADDRESS 0x44b6 ===
  0x44b6	mov    	edi, eax
  0x44b8	test   	eax, eax
  0x44ba	jns    	0x44c3
  === BLOCK LINK ===
    0x44bc
=== CODE BLOCK END ===

=== CODE BLOCK ADDRESS 0x44bc ===
  0x44bc	mov    	edx, 0x85
  0x44c1	jmp    	0x4500
  === BLOCK LINK ===
    0x44c3
=== CODE BLOCK END ===

=== CODE BLOCK ADDRESS 0x44c3 ===
  0x44c3	dec    	esp
  0x44c4	lea    	eax, [0x33ce]
  0x44ca	dec    	eax
  0x44cb	lea    	ecx, [esp + 0x40]
  0x44cf	call   	0x53bc
  === BLOCK LINK ===
    0x44d4
=== CODE BLOCK END ===

=== CODE BLOCK ADDRESS 0x44d4 ===
  0x44d4	inc    	ecx
  0x44d5	mov    	eax, 1
  0x44da	dec    	esp
  0x44db	lea    	ecx, [esp + 0x40]
  0x44df	test   	esi, esi
  === BLOCK LINK ===
    0x44e1
=== CODE BLOCK END ===

=== CODE BLOCK ADDRESS 0x44e1 ===
  0x44e1	dec    	eax
  0x44e2	lea    	ecx, [esp + 0x38]
  0x44e6	mov    	edx, esi
  0x44e8	inc    	esp
  0x44e9	cmovne  	eax, esi
  === BLOCK LINK ===
    0x44ec
=== CODE BLOCK END ===

=== CODE BLOCK ADDRESS 0x44ec ===
  0x44ec	call   	0x599c
  === BLOCK LINK ===
    0x44f1
=== CODE BLOCK END ===

=== CODE BLOCK ADDRESS 0x44f1 ===
  0x44f1	mov    	edi, eax
  0x44f3	test   	eax, eax
  0x44f5	jns    	0x457c
  === BLOCK LINK ===
    0x44fb
=== CODE BLOCK END ===

=== CODE BLOCK ADDRESS 0x44fb ===
  0x44fb	mov    	edx, 0x89
  0x4500	dec    	eax
  0x4501	mov    	ecx, dword ptr [ebp + 0x188]
  0x4507	dec    	esp
  0x4508	lea    	eax, [0x32ce]
  === BLOCK LINK ===
    0x450e
=== CODE BLOCK END ===

=== CODE BLOCK ADDRESS 0x450e ===
  0x450e	inc    	esp
  0x450f	mov    	ecx, eax
  0x4511	call   	0x4994
  === BLOCK LINK ===
    0x4516
=== CODE BLOCK END ===

=== CODE BLOCK ADDRESS 0x4516 ===
  0x4516	dec    	eax
  0x4517	mov    	ecx, dword ptr [ebp + 0x188]
  0x451d	dec    	esp
  0x451e	lea    	eax, [0x32b8]
  0x4524	inc    	esp
  === BLOCK LINK ===
    0x4525
=== CODE BLOCK END ===

=== CODE BLOCK ADDRESS 0x4525 ===
  0x4525	mov    	ecx, edi
  0x4527	mov    	edx, 0x147
  0x452c	call   	0x4994
  === BLOCK LINK ===
    0x4531
=== CODE BLOCK END ===

=== CODE BLOCK ADDRESS 0x4531 ===
  0x4531	dec    	eax
  0x4532	mov    	ecx, dword ptr [esp + 0x38]
  0x4536	dec    	eax
  0x4537	test   	ecx, ecx
  0x4539	je     	0x4549
  === BLOCK LINK ===
    0x453b
=== CODE BLOCK END ===

=== CODE BLOCK ADDRESS 0x453b ===
  0x453b	call   	dword ptr [0x2ca7]
  === BLOCK LINK ===
    0x4541
=== CODE BLOCK END ===

=== CODE BLOCK ADDRESS 0x4541 ===
  0x4541	test   	eax, eax
  0x4543	je     	0x4642
  === BLOCK LINK ===
    0x4549
=== CODE BLOCK END ===

=== CODE BLOCK ADDRESS 0x4549 ===
  0x4549	dec    	eax
  0x454a	mov    	ecx, dword ptr [esp + 0x30]
  0x454e	dec    	eax
  0x454f	test   	ecx, ecx
  0x4551	je     	0x4561
  === BLOCK LINK ===
    0x4553
=== CODE BLOCK END ===

=== CODE BLOCK ADDRESS 0x4553 ===
  0x4553	call   	dword ptr [0x2c8f]
  === BLOCK LINK ===
    0x4559
=== CODE BLOCK END ===

=== CODE BLOCK ADDRESS 0x4559 ===
  0x4559	test   	eax, eax
  0x455b	je     	0x462a
  === BLOCK LINK ===
    0x4561
=== CODE BLOCK END ===

=== CODE BLOCK ADDRESS 0x4561 ===
  0x4561	call   	dword ptr [0x2ca1]
  === BLOCK LINK ===
    0x4567
=== CODE BLOCK END ===

=== CODE BLOCK ADDRESS 0x4567 ===
  0x4567	dec    	esp
  0x4568	mov    	eax, ebx
  0x456a	xor    	edx, edx
  0x456c	dec    	eax
  0x456d	mov    	ecx, eax
  === BLOCK LINK ===
    0x456f
=== CODE BLOCK END ===

=== CODE BLOCK ADDRESS 0x456f ===
  0x456f	call   	dword ptr [0x2c8b]
  === BLOCK LINK ===
    0x4575
=== CODE BLOCK END ===

=== CODE BLOCK ADDRESS 0x4575 ===
  0x4575	mov    	eax, edi
  0x4577	jmp    	0x45ff
  === BLOCK LINK ===
    0x457c
=== CODE BLOCK END ===

=== CODE BLOCK ADDRESS 0x457c ===
  0x457c	mov    	dword ptr [ebx], 1
  0x4582	dec    	eax
  0x4583	lea    	ecx, [ebx + 0x22]
  0x4586	dec    	ecx
  0x4587	mov    	eax, dword ptr [edi]
  === BLOCK LINK ===
    0x4589
=== CODE BLOCK END ===

=== CODE BLOCK ADDRESS 0x4589 ===
  0x4589	xor    	edx, edx
  0x458b	dec    	eax
  0x458c	mov    	dword ptr [ebx + 8], eax
  0x458f	dec    	eax
  0x4590	mov    	eax, dword ptr [esp + 0x30]
  === BLOCK LINK ===
    0x4594
=== CODE BLOCK END ===

=== CODE BLOCK ADDRESS 0x4594 ===
  0x4594	dec    	ebp
  0x4595	mov    	dword ptr [edi], esp
  0x4597	dec    	eax
  0x4598	mov    	dword ptr [ebx + 0x10], eax
  0x459b	inc    	esp
  === BLOCK LINK ===
    0x459c
=== CODE BLOCK END ===

=== CODE BLOCK ADDRESS 0x459c ===
  0x459c	lea    	eax, [edx + 0x56]
  0x459f	dec    	eax
  0x45a0	mov    	eax, dword ptr [esp + 0x38]
  0x45a4	dec    	eax
  0x45a5	mov    	dword ptr [ebx + 0x18], eax
  === BLOCK LINK ===
    0x45a8
=== CODE BLOCK END ===

=== CODE BLOCK ADDRESS 0x45a8 ===
  0x45a8	dec    	esp
  0x45a9	mov    	dword ptr [esp + 0x30], esp
  0x45ad	dec    	esp
  0x45ae	mov    	dword ptr [esp + 0x38], esp
  0x45b2	call   	0x1ee6
  === BLOCK LINK ===
    0x45b7
=== CODE BLOCK END ===

=== CODE BLOCK ADDRESS 0x45b7 ===
  0x45b7	mov    	eax, 0x58
  0x45bc	dec    	eax
  0x45bd	lea    	ecx, [ebx + 0x28]
  0x45c0	mov    	word ptr [ebx + 0x20], ax
  0x45c4	xor    	edx, edx
  === BLOCK LINK ===
    0x45c6
=== CODE BLOCK END ===

=== CODE BLOCK ADDRESS 0x45c6 ===
  0x45c6	mov    	dword ptr [ebx + 0x24], 1
  0x45cd	inc    	esp
  0x45ce	lea    	eax, [eax - 8]
  0x45d1	call   	0x1ee6
  === BLOCK LINK ===
    0x45d6
=== CODE BLOCK END ===

=== CODE BLOCK ADDRESS 0x45d6 ===
  0x45d6	xor    	eax, eax
  0x45d8	dec    	ecx
  0x45d9	mov    	dword ptr [esi], ebx
  0x45db	jmp    	0x45ff
  === BLOCK LINK ===
    0x45dd
=== CODE BLOCK END ===

=== CODE BLOCK ADDRESS 0x45dd ===
  0x45dd	dec    	eax
  0x45de	mov    	ecx, dword ptr [ebp + 0x188]
  0x45e4	dec    	esp
  0x45e5	lea    	eax, [0x31f1]
  0x45eb	mov    	ebx, 0x8007000e
  === BLOCK LINK ===
    0x45f0
=== CODE BLOCK END ===

=== CODE BLOCK ADDRESS 0x45f0 ===
  0x45f0	mov    	edx, 0x144
  0x45f5	inc    	esp
  0x45f6	mov    	ecx, ebx
  0x45f8	call   	0x4994
  === BLOCK LINK ===
    0x45fd
=== CODE BLOCK END ===

=== CODE BLOCK ADDRESS 0x45fd ===
  0x45fd	mov    	eax, ebx
  0x45ff	dec    	eax
  0x4600	mov    	ecx, dword ptr [ebp + 0x150]
  0x4606	dec    	eax
  0x4607	xor    	ecx, esp
  === BLOCK LINK ===
    0x4609
=== CODE BLOCK END ===

=== CODE BLOCK ADDRESS 0x4609 ===
  0x4609	call   	0x1450
  === BLOCK LINK ===
    0x460e
=== CODE BLOCK END ===

=== CODE BLOCK ADDRESS 0x460e ===
  0x460e	dec    	esp
  0x460f	lea    	ebx, [esp + 0x260]
  0x4616	dec    	ecx
  0x4617	mov    	ebx, dword ptr [ebx + 0x30]
  0x461a	dec    	ecx
  === BLOCK LINK ===
    0x461b
=== CODE BLOCK END ===

=== CODE BLOCK ADDRESS 0x461b ===
  0x461b	mov    	esi, dword ptr [ebx + 0x48]
  0x461e	dec    	ecx
  0x461f	mov    	esp, ebx
  0x4621	inc    	ecx
  0x4622	pop    	edi
  === BLOCK LINK ===
    0x4623
=== CODE BLOCK END ===

=== CODE BLOCK ADDRESS 0x4623 ===
  0x4623	inc    	ecx
  0x4624	pop    	esi
  0x4625	inc    	ecx
  0x4626	pop    	esp
  0x4627	pop    	edi
  === BLOCK LINK ===
    0x4628
=== CODE BLOCK END ===

=== CODE BLOCK ADDRESS 0x4628 ===
  0x4628	pop    	ebp
  0x4629	ret    	
  0x462a	dec    	eax
  0x462b	mov    	ecx, dword ptr [ebp + 0x188]
  0x4631	mov    	edx, 0x937
  === BLOCK LINK ===
    0x4636
=== CODE BLOCK END ===

=== CODE BLOCK ADDRESS 0x4636 ===
  0x4636	call   	0x597c
  === BLOCK LINK ===
    0x463b
=== CODE BLOCK END ===

=== CODE BLOCK ADDRESS 0x463b ===
  0x463b	int3   	
  0x463c	call   	0x5974
  === BLOCK LINK ===
    0x4641
=== CODE BLOCK END ===

=== CODE BLOCK ADDRESS 0x4641 ===
  0x4641	int3   	
  0x4642	dec    	eax
  0x4643	mov    	ecx, dword ptr [ebp + 0x188]
  0x4649	mov    	edx, 0x937
  0x464e	call   	0x597c
  === BLOCK LINK ===
    0x4653
=== CODE BLOCK END ===

=== CODE BLOCK ADDRESS 0x4653 ===
  0x4653	int3   	
  0x4654	int3   	
  0x4655	int3   	
  0x4656	int3   	
  0x4657	int3   	
  === BLOCK LINK ===
    0x4658
=== CODE BLOCK END ===

=== CODE BLOCK ADDRESS 0x4658 ===
  0x4658	jno    	0x4614
  === BLOCK LINK ===
    0x465a
=== CODE BLOCK END ===

=== CODE BLOCK ADDRESS 0x465a ===
  0x465a	push   	esi
  0x465b	pop    	esi
  0x465c	add    	eax, 0x40d8113e
  0x4661	push   	ebp
  0x4662	dec    	eax
  === BLOCK LINK ===
    0x4663
=== CODE BLOCK END ===

=== CODE BLOCK ADDRESS 0x4663 ===
  0x4663	mov    	ebp, esp
  0x4665	dec    	eax
  0x4666	sub    	esp, 0x60
  0x4669	dec    	eax
  0x466a	mov    	dword ptr [ebp - 0x40], 0xfffffffe
  === BLOCK LINK ===
    0x4671
=== CODE BLOCK END ===

=== CODE BLOCK ADDRESS 0x4671 ===
  0x4671	dec    	eax
  0x4672	mov    	dword ptr [esp + 0x78], ebx
  0x4676	dec    	eax
  0x4677	mov    	ebx, ecx
  0x4679	mov    	eax, dword ptr [ecx + 8]
  === BLOCK LINK ===
    0x467c
=== CODE BLOCK END ===

=== CODE BLOCK ADDRESS 0x467c ===
  0x467c	mov    	dword ptr [ebp - 0x38], eax
  0x467f	dec    	eax
  0x4680	mov    	eax, dword ptr [ecx + 0x18]
  0x4683	dec    	eax
  0x4684	mov    	dword ptr [ebp - 0x30], eax
  === BLOCK LINK ===
    0x4687
=== CODE BLOCK END ===

=== CODE BLOCK ADDRESS 0x4687 ===
  0x4687	mov    	al, byte ptr [ecx]
  0x4689	mov    	byte ptr [ebp - 0x28], al
  0x468c	movzx  	eax, word ptr [0x6135]
  0x4693	mov    	word ptr [ebp - 0x26], ax
  0x4697	movzx  	eax, word ptr [ecx + 0x40]
  === BLOCK LINK ===
    0x469b
=== CODE BLOCK END ===

=== CODE BLOCK ADDRESS 0x469b ===
  0x469b	mov    	word ptr [ebp - 0x20], ax
  0x469f	and    	dword ptr [ebp - 0x1c], 0
  0x46a3	dec    	eax
  0x46a4	mov    	eax, dword ptr [ecx + 0x38]
  0x46a7	dec    	eax
  === BLOCK LINK ===
    0x46a8
=== CODE BLOCK END ===

=== CODE BLOCK ADDRESS 0x46a8 ===
  0x46a8	mov    	dword ptr [ebp - 0x18], eax
  0x46ab	dec    	eax
  0x46ac	mov    	eax, dword ptr [ecx + 0x80]
  0x46b2	dec    	eax
  0x46b3	mov    	dword ptr [ebp - 0x10], eax
  === BLOCK LINK ===
    0x46b6
=== CODE BLOCK END ===

=== CODE BLOCK ADDRESS 0x46b6 ===
  0x46b6	dec    	eax
  0x46b7	and    	dword ptr [ebp + 0x10], 0
  0x46bb	dec    	eax
  0x46bc	mov    	eax, dword ptr [0x616e]
  0x46c2	dec    	eax
  === BLOCK LINK ===
    0x46c3
=== CODE BLOCK END ===

=== CODE BLOCK ADDRESS 0x46c3 ===
  0x46c3	test   	eax, eax
  0x46c5	jne    	0x4703
  === BLOCK LINK ===
    0x46c7
=== CODE BLOCK END ===

=== CODE BLOCK ADDRESS 0x46c7 ===
  0x46c7	dec    	eax
  0x46c8	mov    	eax, dword ptr [0x6112]
  0x46ce	dec    	eax
  0x46cf	test   	eax, eax
  0x46d1	jne    	0x46e7
  === BLOCK LINK ===
    0x46d3
=== CODE BLOCK END ===

=== CODE BLOCK ADDRESS 0x46d3 ===
  0x46d3	dec    	eax
  0x46d4	lea    	ecx, [0x30be]
  0x46da	call   	dword ptr [0x2b60]
  === BLOCK LINK ===
    0x46e0
=== CODE BLOCK END ===

=== CODE BLOCK ADDRESS 0x46e0 ===
  0x46e0	dec    	eax
  0x46e1	mov    	dword ptr [0x60f9], eax
  0x46e7	dec    	eax
  0x46e8	lea    	edx, [0x3182]
  0x46ee	dec    	eax
  === BLOCK LINK ===
    0x46ef
=== CODE BLOCK END ===

=== CODE BLOCK ADDRESS 0x46ef ===
  0x46ef	mov    	ecx, eax
  0x46f1	call   	dword ptr [0x2b51]
  === BLOCK LINK ===
    0x46f7
=== CODE BLOCK END ===

=== CODE BLOCK ADDRESS 0x46f7 ===
  0x46f7	dec    	eax
  0x46f8	mov    	dword ptr [0x6132], eax
  0x46fe	dec    	eax
  0x46ff	test   	eax, eax
  0x4701	je     	0x471e
  === BLOCK LINK ===
    0x4703
=== CODE BLOCK END ===

=== CODE BLOCK ADDRESS 0x4703 ===
  0x4703	dec    	ecx
  0x4704	mov    	edx, 0x3cdc1a70
  0x4709	scasb  	al, byte ptr es:[edi]
  0x470b	mov    	ch, 0xb2
  0x470d	dec    	esp
  === BLOCK LINK ===
    0x470e
=== CODE BLOCK END ===

=== CODE BLOCK ADDRESS 0x470e ===
  0x470e	lea    	eax, [ebp + 0x10]
  0x4711	dec    	eax
  0x4712	lea    	edx, [ebp - 0x38]
  0x4715	xor    	ecx, ecx
  0x4717	call   	dword ptr [0x2d7b]
  === BLOCK LINK ===
    0x471d
=== CODE BLOCK END ===

=== CODE BLOCK ADDRESS 0x471d ===
  0x471d	nop    	
  0x471e	mov    	eax, dword ptr [ebp + 0x10]
  0x4721	mov    	dword ptr [ebx + 0x10], eax
  0x4724	movzx  	ecx, byte ptr [ebp + 0x14]
  0x4728	sub    	ecx, 1
  === BLOCK LINK ===
    0x472b
=== CODE BLOCK END ===

=== CODE BLOCK ADDRESS 0x472b ===
  0x472b	je     	0x4743
  === BLOCK LINK ===
    0x472d
=== CODE BLOCK END ===

=== CODE BLOCK ADDRESS 0x472d ===
  0x472d	sub    	ecx, 1
  0x4730	je     	0x473d
  === BLOCK LINK ===
    0x4732
=== CODE BLOCK END ===

=== CODE BLOCK ADDRESS 0x4732 ===
  0x4732	cmp    	ecx, 1
  0x4735	jne    	0x4747
  === BLOCK LINK ===
    0x4737
=== CODE BLOCK END ===

=== CODE BLOCK ADDRESS 0x4737 ===
  0x4737	or     	dword ptr [ebx + 4], 4
  0x473b	jmp    	0x4747
  === BLOCK LINK ===
    0x473d
=== CODE BLOCK END ===

=== CODE BLOCK ADDRESS 0x473d ===
  0x473d	or     	dword ptr [ebx + 4], 2
  0x4741	jmp    	0x4747
  === BLOCK LINK ===
    0x4743
=== CODE BLOCK END ===

=== CODE BLOCK ADDRESS 0x4743 ===
  0x4743	or     	dword ptr [ebx + 4], 1
  0x4747	dec    	eax
  0x4748	mov    	ebx, dword ptr [esp + 0x78]
  0x474c	dec    	eax
  0x474d	add    	esp, 0x60
  === BLOCK LINK ===
    0x4750
=== CODE BLOCK END ===

=== CODE BLOCK ADDRESS 0x4750 ===
  0x4750	pop    	ebp
  0x4751	ret    	
  0x4752	int3   	
  0x4753	int3   	
  0x4754	mov    	dword ptr [0x6072], ecx
  === BLOCK LINK ===
    0x475a
=== CODE BLOCK END ===

=== CODE BLOCK ADDRESS 0x159e ===
  0x159e	inc    	ebp
  0x159f	xor    	eax, eax
  === BLOCK LINK ===
    0x15a1
=== CODE BLOCK END ===

=== CODE BLOCK ADDRESS 0x475a ===
  0x475a	mov    	eax, 1
  0x475f	lock xadd  	dword ptr [0x60dd], eax
  0x4767	inc    	eax
  0x4769	ret    	
  0x476a	int3   	
  === BLOCK LINK ===
    0x476b
=== CODE BLOCK END ===

=== CODE BLOCK ADDRESS 0x1e08 ===
=== CODE BLOCK END ===

=== CODE BLOCK ADDRESS 0x476b ===
  0x476b	int3   	
  0x476c	int3   	
  0x476d	int3   	
  0x476e	int3   	
  0x476f	int3   	
  === BLOCK LINK ===
    0x4770
=== CODE BLOCK END ===

=== CODE BLOCK ADDRESS 0x4770 ===
  0x4770	int3   	
  0x4771	int3   	
  0x4772	int3   	
  0x4773	int3   	
  0x4774	int3   	
  === BLOCK LINK ===
    0x4775
=== CODE BLOCK END ===

=== CODE BLOCK ADDRESS 0x4775 ===
  0x4775	int3   	
  0x4776	int3   	
  0x4777	int3   	
  0x4778	jno    	0x47c5
  === BLOCK LINK ===
    0x477a
=== CODE BLOCK END ===

=== CODE BLOCK ADDRESS 0x477a ===
  0x477a	pop    	ebp
  0x477b	xor    	al, 0xe8
  0x477d	rcl    	byte ptr cs:[ebp + 0x604e0d89], 0
  0x4785	add    	byte ptr [eax + 1], bh
  0x478b	ret    	
  === BLOCK LINK ===
    0x478c
=== CODE BLOCK END ===

=== CODE BLOCK ADDRESS 0x478c ===
  0x478c	mov    	dword ptr [0x60d2], ecx
  0x4792	mov    	eax, 1
  0x4797	lock xadd  	dword ptr [0x60a1], eax
  0x479f	inc    	eax
  0x47a1	ret    	
  === BLOCK LINK ===
    0x47a2
=== CODE BLOCK END ===

=== CODE BLOCK ADDRESS 0x47a2 ===
  0x47a2	int3   	
  0x47a3	int3   	
  0x47a4	mov    	dword ptr [0x609e], ecx
  0x47aa	mov    	eax, 1
  0x47af	lock xadd  	dword ptr [0x60a9], eax
  === BLOCK LINK ===
    0x47b7
=== CODE BLOCK END ===

=== CODE BLOCK ADDRESS 0x47b7 ===
  0x47b7	inc    	eax
  0x47b9	ret    	
  0x47ba	int3   	
  0x47bb	int3   	
  0x47bc	dec    	eax
  === BLOCK LINK ===
    0x47bd
=== CODE BLOCK END ===

=== CODE BLOCK ADDRESS 0x162d ===
=== CODE BLOCK END ===

=== CODE BLOCK ADDRESS 0x47bd ===
  0x47bd	mov    	dword ptr [esp + 8], ebx
  0x47c1	dec    	eax
  0x47c2	mov    	dword ptr [esp + 0x18], ebp
  0x47c6	dec    	eax
  0x47c7	mov    	dword ptr [esp + 0x20], esi
  === BLOCK LINK ===
    0x47cb
=== CODE BLOCK END ===

=== CODE BLOCK ADDRESS 0x47cb ===
  0x47cb	push   	edi
  0x47cc	dec    	eax
  0x47cd	sub    	esp, 0x20
  0x47d0	cmp    	byte ptr [0x5fc9], 0
  0x47d7	dec    	eax
  === BLOCK LINK ===
    0x47d8
=== CODE BLOCK END ===

=== CODE BLOCK ADDRESS 0x47d8 ===
  0x47d8	mov    	edi, ecx
  0x47da	jne    	0x48ef
  === BLOCK LINK ===
    0x47e0
=== CODE BLOCK END ===

=== CODE BLOCK ADDRESS 0x47e0 ===
  0x47e0	dec    	eax
  0x47e1	mov    	eax, dword ptr [0x5f91]
  0x47e7	dec    	eax
  0x47e8	test   	eax, eax
  0x47ea	je     	0x4804
  === BLOCK LINK ===
    0x47ec
=== CODE BLOCK END ===

=== CODE BLOCK ADDRESS 0x47ec ===
  0x47ec	dec    	ecx
  0x47ed	mov    	edx, 0x12548270
  0x47f2	test   	byte ptr [esi], al
  0x47f4	mov    	cl, 0xf7
  0x47f6	call   	dword ptr [0x2c9c]
  === BLOCK LINK ===
    0x47fc
=== CODE BLOCK END ===

=== CODE BLOCK ADDRESS 0x47fc ===
  0x47fc	test   	al, al
  0x47fe	jne    	0x48ef
  === BLOCK LINK ===
    0x4804
=== CODE BLOCK END ===

=== CODE BLOCK ADDRESS 0x4804 ===
  0x4804	dec    	eax
  0x4805	mov    	ebx, dword ptr [edi + 8]
  0x4808	inc    	ebp
  0x4809	xor    	eax, eax
  0x480b	dec    	eax
  === BLOCK LINK ===
    0x480c
=== CODE BLOCK END ===

=== CODE BLOCK ADDRESS 0x480c ===
  0x480c	mov    	ecx, ebx
  0x480e	or     	edx, 0xffffffff
  0x4811	call   	dword ptr [0x2ad9]
  === BLOCK LINK ===
    0x4817
=== CODE BLOCK END ===

=== CODE BLOCK ADDRESS 0x4817 ===
  0x4817	cmp    	eax, 0x102
  0x481c	je     	0x482b
  === BLOCK LINK ===
    0x481e
=== CODE BLOCK END ===

=== CODE BLOCK ADDRESS 0x481e ===
  0x481e	test   	eax, 0xffffff7f
  0x4823	jne    	0x491c
  === BLOCK LINK ===
    0x4829
=== CODE BLOCK END ===

=== CODE BLOCK ADDRESS 0x4829 ===
  0x4829	jmp    	0x482d
  === BLOCK LINK ===
    0x482b
=== CODE BLOCK END ===

=== CODE BLOCK ADDRESS 0x482b ===
  0x482b	xor    	ebx, ebx
  0x482d	mov    	eax, dword ptr [edi]
  0x482f	dec    	eax
  0x4831	mov    	dword ptr [edi], eax
  0x4833	mov    	eax, dword ptr [edi]
  === BLOCK LINK ===
    0x4835
=== CODE BLOCK END ===

=== CODE BLOCK ADDRESS 0x4835 ===
  0x4835	test   	eax, eax
  0x4837	jne    	0x48db
  === BLOCK LINK ===
    0x483d
=== CODE BLOCK END ===

=== CODE BLOCK ADDRESS 0x483d ===
  0x483d	dec    	eax
  0x483e	mov    	esi, dword ptr [edi + 0x10]
  0x4841	dec    	eax
  0x4842	test   	esi, esi
  0x4844	je     	0x4867
  === BLOCK LINK ===
    0x4846
=== CODE BLOCK END ===

=== CODE BLOCK ADDRESS 0x4846 ===
  0x4846	call   	dword ptr [0x297c]
  === BLOCK LINK ===
    0x484c
=== CODE BLOCK END ===

=== CODE BLOCK ADDRESS 0x484c ===
  0x484c	dec    	eax
  0x484d	mov    	ecx, esi
  0x484f	mov    	ebp, eax
  0x4851	call   	dword ptr [0x2991]
  === BLOCK LINK ===
    0x4857
=== CODE BLOCK END ===

=== CODE BLOCK ADDRESS 0x4857 ===
  0x4857	test   	eax, eax
  0x4859	je     	0x4937
  === BLOCK LINK ===
    0x485f
=== CODE BLOCK END ===

=== CODE BLOCK ADDRESS 0x485f ===
  0x485f	mov    	ecx, ebp
  0x4861	call   	dword ptr [0x2971]
  === BLOCK LINK ===
    0x4867
=== CODE BLOCK END ===

=== CODE BLOCK ADDRESS 0x4867 ===
  0x4867	dec    	eax
  0x4868	and    	dword ptr [edi + 0x10], 0
  0x486c	dec    	eax
  0x486d	mov    	esi, dword ptr [edi + 0x18]
  0x4870	dec    	eax
  === BLOCK LINK ===
    0x4871
=== CODE BLOCK END ===

=== CODE BLOCK ADDRESS 0x4871 ===
  0x4871	test   	esi, esi
  0x4873	je     	0x4896
  === BLOCK LINK ===
    0x4875
=== CODE BLOCK END ===

=== CODE BLOCK ADDRESS 0x4875 ===
  0x4875	call   	dword ptr [0x294d]
  === BLOCK LINK ===
    0x487b
=== CODE BLOCK END ===

=== CODE BLOCK ADDRESS 0x487b ===
  0x487b	dec    	eax
  0x487c	mov    	ecx, esi
  0x487e	mov    	ebp, eax
  0x4880	call   	dword ptr [0x2962]
  === BLOCK LINK ===
    0x4886
=== CODE BLOCK END ===

=== CODE BLOCK ADDRESS 0x4886 ===
  0x4886	test   	eax, eax
  0x4888	je     	0x4947
  === BLOCK LINK ===
    0x488e
=== CODE BLOCK END ===

=== CODE BLOCK ADDRESS 0x488e ===
  0x488e	mov    	ecx, ebp
  0x4890	call   	dword ptr [0x2942]
  === BLOCK LINK ===
    0x4896
=== CODE BLOCK END ===

=== CODE BLOCK ADDRESS 0x4896 ===
  0x4896	dec    	eax
  0x4897	and    	dword ptr [edi + 0x18], 0
  0x489b	dec    	eax
  0x489c	test   	ebx, ebx
  0x489e	je     	0x48bd
  === BLOCK LINK ===
    0x48a0
=== CODE BLOCK END ===

=== CODE BLOCK ADDRESS 0x48a0 ===
  0x48a0	call   	dword ptr [0x2922]
  === BLOCK LINK ===
    0x48a6
=== CODE BLOCK END ===

=== CODE BLOCK ADDRESS 0x48a6 ===
  0x48a6	dec    	eax
  0x48a7	mov    	ecx, ebx
  0x48a9	mov    	esi, eax
  0x48ab	call   	dword ptr [0x2a5f]
  === BLOCK LINK ===
    0x48b1
=== CODE BLOCK END ===

=== CODE BLOCK ADDRESS 0x48b1 ===
  0x48b1	test   	eax, eax
  0x48b3	je     	0x490c
  === BLOCK LINK ===
    0x48b5
=== CODE BLOCK END ===

=== CODE BLOCK ADDRESS 0x48b5 ===
  0x48b5	mov    	ecx, esi
  0x48b7	call   	dword ptr [0x291b]
  === BLOCK LINK ===
    0x48bd
=== CODE BLOCK END ===

=== CODE BLOCK ADDRESS 0x48bd ===
  0x48bd	dec    	eax
  0x48be	mov    	ecx, edi
  0x48c0	call   	0x2d14
  === BLOCK LINK ===
    0x48c5
=== CODE BLOCK END ===

=== CODE BLOCK ADDRESS 0x48c5 ===
  0x48c5	call   	dword ptr [0x293d]
  === BLOCK LINK ===
    0x48cb
=== CODE BLOCK END ===

=== CODE BLOCK ADDRESS 0x48cb ===
  0x48cb	dec    	esp
  0x48cc	mov    	eax, edi
  0x48ce	xor    	edx, edx
  0x48d0	dec    	eax
  0x48d1	mov    	ecx, eax
  === BLOCK LINK ===
    0x48d3
=== CODE BLOCK END ===

=== CODE BLOCK ADDRESS 0x48d3 ===
  0x48d3	call   	dword ptr [0x2927]
  === BLOCK LINK ===
    0x48d9
=== CODE BLOCK END ===

=== CODE BLOCK ADDRESS 0x48d9 ===
  0x48d9	jmp    	0x48f7
  === BLOCK LINK ===
    0x48db
=== CODE BLOCK END ===

=== CODE BLOCK ADDRESS 0x48db ===
  0x48db	dec    	eax
  0x48dc	test   	ebx, ebx
  0x48de	je     	0x48f7
  === BLOCK LINK ===
    0x48e0
=== CODE BLOCK END ===

=== CODE BLOCK ADDRESS 0x48e0 ===
  0x48e0	dec    	eax
  0x48e1	mov    	ecx, ebx
  0x48e3	call   	dword ptr [0x2a27]
  === BLOCK LINK ===
    0x48e9
=== CODE BLOCK END ===

=== CODE BLOCK ADDRESS 0x48e9 ===
  0x48e9	test   	eax, eax
  0x48eb	je     	0x4927
  === BLOCK LINK ===
    0x48ed
=== CODE BLOCK END ===

=== CODE BLOCK ADDRESS 0x48ed ===
  0x48ed	jmp    	0x48f7
  === BLOCK LINK ===
    0x48ef
=== CODE BLOCK END ===

=== CODE BLOCK ADDRESS 0x48ef ===
  0x48ef	mov    	eax, dword ptr [edi]
  0x48f1	dec    	eax
  0x48f3	mov    	dword ptr [edi], eax
  0x48f5	mov    	eax, dword ptr [edi]
  0x48f7	dec    	eax
  === BLOCK LINK ===
    0x48f8
=== CODE BLOCK END ===

=== CODE BLOCK ADDRESS 0x48f8 ===
  0x48f8	mov    	ebx, dword ptr [esp + 0x30]
  0x48fc	dec    	eax
  0x48fd	mov    	ebp, dword ptr [esp + 0x40]
  0x4901	dec    	eax
  0x4902	mov    	esi, dword ptr [esp + 0x48]
  === BLOCK LINK ===
    0x4906
=== CODE BLOCK END ===

=== CODE BLOCK ADDRESS 0x4906 ===
  0x4906	dec    	eax
  0x4907	add    	esp, 0x20
  0x490a	pop    	edi
  0x490b	ret    	
  0x490c	dec    	eax
  === BLOCK LINK ===
    0x490d
=== CODE BLOCK END ===

=== CODE BLOCK ADDRESS 0x490d ===
  0x490d	mov    	ecx, dword ptr [esp + 0x28]
  0x4911	mov    	edx, 0x941
  0x4916	call   	0x597c
  === BLOCK LINK ===
    0x491b
=== CODE BLOCK END ===

=== CODE BLOCK ADDRESS 0x491b ===
  0x491b	int3   	
  0x491c	dec    	eax
  0x491d	mov    	ecx, dword ptr [esp + 0x28]
  0x4921	call   	0x33a8
  === BLOCK LINK ===
    0x4926
=== CODE BLOCK END ===

=== CODE BLOCK ADDRESS 0x4926 ===
  0x4926	int3   	
  0x4927	dec    	eax
  0x4928	mov    	ecx, dword ptr [esp + 0x28]
  0x492c	mov    	edx, 0x941
  0x4931	call   	0x597c
  === BLOCK LINK ===
    0x4936
=== CODE BLOCK END ===

=== CODE BLOCK ADDRESS 0x4936 ===
  0x4936	int3   	
  0x4937	dec    	eax
  0x4938	mov    	ecx, dword ptr [esp + 0x28]
  0x493c	mov    	edx, 0x937
  0x4941	call   	0x597c
  === BLOCK LINK ===
    0x4946
=== CODE BLOCK END ===

=== CODE BLOCK ADDRESS 0x4946 ===
  0x4946	int3   	
  0x4947	dec    	eax
  0x4948	mov    	ecx, dword ptr [esp + 0x28]
  0x494c	mov    	edx, 0x937
  0x4951	call   	0x597c
  === BLOCK LINK ===
    0x4956
=== CODE BLOCK END ===

=== CODE BLOCK ADDRESS 0x4956 ===
  0x4956	int3   	
  0x4957	int3   	
  0x4958	jno    	0x49a2
  === BLOCK LINK ===
    0x495a
=== CODE BLOCK END ===

=== CODE BLOCK ADDRESS 0x495a ===
  0x495a	ficom  	dword ptr [esi - 0x6a]
  0x495d	int1   	
  0x495f	test   	dword ptr [eax - 0x7d], ecx
  0x4962	in     	al, dx
  0x4963	sub    	byte ptr [ebx], dh
  === BLOCK LINK ===
    0x4965
=== CODE BLOCK END ===

=== CODE BLOCK ADDRESS 0x4965 ===
  0x4965	sal    	byte ptr [ebx], cl
  0x4967	leave  	
  0x4968	call   	0x615e
  === BLOCK LINK ===
    0x496d
=== CODE BLOCK END ===

=== CODE BLOCK ADDRESS 0x496d ===
  0x496d	int3   	
  0x496e	int3   	
  0x496f	int3   	
  0x4970	dec    	eax
  0x4971	sub    	esp, 0x48
  === BLOCK LINK ===
    0x4974
=== CODE BLOCK END ===

=== CODE BLOCK ADDRESS 0x4974 ===
  0x4974	dec    	eax
  0x4975	mov    	dword ptr [esp + 0x30], 0xfffffffe
  0x497d	dec    	eax
  0x497e	mov    	eax, dword ptr [esp + 0x48]
  0x4982	dec    	eax
  === BLOCK LINK ===
    0x4983
=== CODE BLOCK END ===

=== CODE BLOCK ADDRESS 0x4983 ===
  0x4983	mov    	dword ptr [esp + 0x28], eax
  0x4987	call   	0x20e8
  === BLOCK LINK ===
    0x498c
=== CODE BLOCK END ===

=== CODE BLOCK ADDRESS 0x498c ===
  0x498c	nop    	
  0x498d	dec    	eax
  0x498e	add    	esp, 0x48
  0x4991	ret    	
  0x4992	int3   	
  === BLOCK LINK ===
    0x4993
=== CODE BLOCK END ===

=== CODE BLOCK ADDRESS 0x1628 ===
  0x1628	dec    	eax
  0x1629	add    	esp, 0x28
  0x162c	ret    	
  0x162d	mov    	al, 1
  === BLOCK LINK ===
    0x162f
=== CODE BLOCK END ===

=== CODE BLOCK ADDRESS 0x4993 ===
  0x4993	int3   	
  0x4994	dec    	eax
  0x4995	sub    	esp, 0x58
  0x4998	dec    	eax
  0x4999	mov    	dword ptr [esp + 0x40], 0xfffffffe
  === BLOCK LINK ===
    0x49a1
=== CODE BLOCK END ===

=== CODE BLOCK ADDRESS 0x49a1 ===
  0x49a1	dec    	eax
  0x49a2	mov    	eax, dword ptr [esp + 0x58]
  0x49a6	inc    	esp
  0x49a7	mov    	dword ptr [esp + 0x30], ecx
  0x49ab	dec    	eax
  === BLOCK LINK ===
    0x49ac
=== CODE BLOCK END ===

=== CODE BLOCK ADDRESS 0x49ac ===
  0x49ac	mov    	dword ptr [esp + 0x28], eax
  0x49b0	call   	0x21c8
  === BLOCK LINK ===
    0x49b5
=== CODE BLOCK END ===

=== CODE BLOCK ADDRESS 0x49b5 ===
  0x49b5	nop    	
  0x49b6	dec    	eax
  0x49b7	add    	esp, 0x58
  0x49ba	ret    	
  0x49bb	int3   	
  === BLOCK LINK ===
    0x49bc
=== CODE BLOCK END ===

=== CODE BLOCK ADDRESS 0x1c64 ===
=== CODE BLOCK END ===

=== CODE BLOCK ADDRESS 0x49bc ===
  0x49bc	dec    	esp
  0x49bd	mov    	ebx, esp
  0x49bf	dec    	eax
  0x49c0	sub    	esp, 0x68
  0x49c3	dec    	ecx
  === BLOCK LINK ===
    0x49c4
=== CODE BLOCK END ===

=== CODE BLOCK ADDRESS 0x49c4 ===
  0x49c4	mov    	dword ptr [ebx - 0x18], 0xfffffffe
  0x49cb	dec    	ecx
  0x49cc	lea    	eax, [ebx + 0x30]
  0x49cf	dec    	esp
  0x49d0	mov    	edx, dword ptr [esp + 0x68]
  === BLOCK LINK ===
    0x49d4
=== CODE BLOCK END ===

=== CODE BLOCK ADDRESS 0x49d4 ===
  0x49d4	dec    	ecx
  0x49d5	mov    	dword ptr [ebx - 0x28], eax
  0x49d8	dec    	ecx
  0x49d9	mov    	eax, dword ptr [ebx + 0x28]
  0x49dc	dec    	ecx
  === BLOCK LINK ===
    0x49dd
=== CODE BLOCK END ===

=== CODE BLOCK ADDRESS 0x49dd ===
  0x49dd	mov    	dword ptr [ebx - 0x30], eax
  0x49e0	inc    	ebp
  0x49e1	mov    	dword ptr [ebx - 0x38], ecx
  0x49e4	dec    	ebp
  0x49e5	mov    	dword ptr [ebx - 0x40], edx
  === BLOCK LINK ===
    0x49e8
=== CODE BLOCK END ===

=== CODE BLOCK ADDRESS 0x49e8 ===
  0x49e8	call   	0x22e4
  === BLOCK LINK ===
    0x49ed
=== CODE BLOCK END ===

=== CODE BLOCK ADDRESS 0x49ed ===
  0x49ed	nop    	
  0x49ee	dec    	eax
  0x49ef	add    	esp, 0x68
  0x49f2	ret    	
  0x49f3	int3   	
  === BLOCK LINK ===
    0x49f4
=== CODE BLOCK END ===

=== CODE BLOCK ADDRESS 0x49f4 ===
  0x49f4	int3   	
  0x49f5	int3   	
  0x49f6	int3   	
  0x49f7	int3   	
  0x49f8	jno    	0x49b5
  === BLOCK LINK ===
    0x49fa
=== CODE BLOCK END ===

=== CODE BLOCK ADDRESS 0x49fa ===
  0x49fa	push   	edi
  0x49fb	push   	ds
  0x49fc	ret    	
  0x49fd	xchg   	eax, edi
  0x49fe	in     	al, 0xaf
  === BLOCK LINK ===
    0x4a00
=== CODE BLOCK END ===

=== CODE BLOCK ADDRESS 0x4a00 ===
  0x4a00	inc    	eax
  0x4a01	push   	edi
  0x4a02	dec    	eax
  0x4a03	sub    	esp, 0x30
  0x4a06	dec    	eax
  === BLOCK LINK ===
    0x4a07
=== CODE BLOCK END ===

=== CODE BLOCK ADDRESS 0x4a07 ===
  0x4a07	mov    	dword ptr [esp + 0x20], 0xfffffffe
  0x4a0f	dec    	eax
  0x4a10	mov    	dword ptr [esp + 0x40], ebx
  0x4a14	dec    	eax
  0x4a15	mov    	dword ptr [esp + 0x48], esi
  === BLOCK LINK ===
    0x4a19
=== CODE BLOCK END ===

=== CODE BLOCK ADDRESS 0x4a19 ===
  0x4a19	dec    	eax
  0x4a1a	mov    	edi, edx
  0x4a1c	dec    	eax
  0x4a1d	mov    	esi, ecx
  0x4a1f	dec    	eax
  === BLOCK LINK ===
    0x4a20
=== CODE BLOCK END ===

=== CODE BLOCK ADDRESS 0x4a20 ===
  0x4a20	mov    	eax, dword ptr [0x5e32]
  0x4a26	xor    	ebx, ebx
  0x4a28	dec    	eax
  0x4a29	test   	eax, eax
  0x4a2b	jne    	0x4a69
  === BLOCK LINK ===
    0x4a2d
=== CODE BLOCK END ===

=== CODE BLOCK ADDRESS 0x4a2d ===
  0x4a2d	dec    	eax
  0x4a2e	mov    	eax, dword ptr [0x5e04]
  0x4a34	dec    	eax
  0x4a35	test   	eax, eax
  0x4a37	jne    	0x4a4d
  === BLOCK LINK ===
    0x4a39
=== CODE BLOCK END ===

=== CODE BLOCK ADDRESS 0x4a39 ===
  0x4a39	dec    	eax
  0x4a3a	lea    	ecx, [0x2dd8]
  0x4a40	call   	dword ptr [0x27fa]
  === BLOCK LINK ===
    0x4a46
=== CODE BLOCK END ===

=== CODE BLOCK ADDRESS 0x4a46 ===
  0x4a46	dec    	eax
  0x4a47	mov    	dword ptr [0x5deb], eax
  0x4a4d	dec    	eax
  0x4a4e	lea    	edx, [0x2dfc]
  0x4a54	dec    	eax
  === BLOCK LINK ===
    0x4a55
=== CODE BLOCK END ===

=== CODE BLOCK ADDRESS 0x4a55 ===
  0x4a55	mov    	ecx, eax
  0x4a57	call   	dword ptr [0x27eb]
  === BLOCK LINK ===
    0x4a5d
=== CODE BLOCK END ===

=== CODE BLOCK ADDRESS 0x4a5d ===
  0x4a5d	dec    	eax
  0x4a5e	mov    	dword ptr [0x5df4], eax
  0x4a64	dec    	eax
  0x4a65	test   	eax, eax
  0x4a67	je     	0x4a81
  === BLOCK LINK ===
    0x4a69
=== CODE BLOCK END ===

=== CODE BLOCK ADDRESS 0x4a69 ===
  0x4a69	dec    	ecx
  0x4a6a	mov    	edx, 0x1e57bb70
  0x4a6f	ret    	
  0x4a70	xchg   	eax, edi
  0x4a71	in     	al, 0xaf
  === BLOCK LINK ===
    0x4a73
=== CODE BLOCK END ===

=== CODE BLOCK ADDRESS 0x1677 ===
  0x1677	dec    	eax
  0x1678	add    	esp, 0x20
  0x167b	pop    	ebx
  0x167c	ret    	
  === BLOCK LINK ===
    0x167d
=== CODE BLOCK END ===

=== CODE BLOCK ADDRESS 0x4a73 ===
  0x4a73	dec    	eax
  0x4a74	mov    	edx, edi
  0x4a76	dec    	eax
  0x4a77	mov    	ecx, esi
  0x4a79	call   	dword ptr [0x2a19]
  === BLOCK LINK ===
    0x4a7f
=== CODE BLOCK END ===

=== CODE BLOCK ADDRESS 0x4a7f ===
  0x4a7f	mov    	ebx, eax
  0x4a81	mov    	eax, ebx
  0x4a83	dec    	eax
  0x4a84	mov    	ebx, dword ptr [esp + 0x40]
  0x4a88	dec    	eax
  === BLOCK LINK ===
    0x4a89
=== CODE BLOCK END ===

=== CODE BLOCK ADDRESS 0x4a89 ===
  0x4a89	mov    	esi, dword ptr [esp + 0x48]
  0x4a8d	dec    	eax
  0x4a8e	add    	esp, 0x30
  0x4a91	pop    	edi
  0x4a92	ret    	
  === BLOCK LINK ===
    0x4a93
=== CODE BLOCK END ===

=== CODE BLOCK ADDRESS 0x4a93 ===
  0x4a93	int3   	
  0x4a94	int3   	
  0x4a95	int3   	
  0x4a96	int3   	
  0x4a97	int3   	
  === BLOCK LINK ===
    0x4a98
=== CODE BLOCK END ===

=== CODE BLOCK ADDRESS 0x4a98 ===
  0x4a98	jno    	0x4a1c
  === BLOCK LINK ===
    0x4a9a
=== CODE BLOCK END ===

=== CODE BLOCK ADDRESS 0x4a9a ===
  0x4a9a	push   	esp
  0x4a9b	adc    	al, byte ptr [esi + eax + 0x5340f7b1]
  0x4aa2	dec    	eax
  0x4aa3	sub    	esp, 0x30
  0x4aa6	dec    	eax
  === BLOCK LINK ===
    0x4aa7
=== CODE BLOCK END ===

=== CODE BLOCK ADDRESS 0x4aa7 ===
  0x4aa7	mov    	dword ptr [esp + 0x20], 0xfffffffe
  0x4aaf	dec    	eax
  0x4ab0	mov    	eax, dword ptr [0x5d9a]
  0x4ab6	xor    	ebx, ebx
  0x4ab8	dec    	eax
  === BLOCK LINK ===
    0x4ab9
=== CODE BLOCK END ===

=== CODE BLOCK ADDRESS 0x4ab9 ===
  0x4ab9	test   	eax, eax
  0x4abb	jne    	0x4af9
  === BLOCK LINK ===
    0x4abd
=== CODE BLOCK END ===

=== CODE BLOCK ADDRESS 0x4abd ===
  0x4abd	dec    	eax
  0x4abe	mov    	eax, dword ptr [0x5d74]
  0x4ac4	dec    	eax
  0x4ac5	test   	eax, eax
  0x4ac7	jne    	0x4add
  === BLOCK LINK ===
    0x4ac9
=== CODE BLOCK END ===

=== CODE BLOCK ADDRESS 0x4ac9 ===
  0x4ac9	dec    	eax
  0x4aca	lea    	ecx, [0x2d48]
  0x4ad0	call   	dword ptr [0x276a]
  === BLOCK LINK ===
    0x4ad6
=== CODE BLOCK END ===

=== CODE BLOCK ADDRESS 0x4ad6 ===
  0x4ad6	dec    	eax
  0x4ad7	mov    	dword ptr [0x5d5b], eax
  0x4add	dec    	eax
  0x4ade	lea    	edx, [0x2d4c]
  0x4ae4	dec    	eax
  === BLOCK LINK ===
    0x4ae5
=== CODE BLOCK END ===

=== CODE BLOCK ADDRESS 0x4ae5 ===
  0x4ae5	mov    	ecx, eax
  0x4ae7	call   	dword ptr [0x275b]
  === BLOCK LINK ===
    0x4aed
=== CODE BLOCK END ===

=== CODE BLOCK ADDRESS 0x4aed ===
  0x4aed	dec    	eax
  0x4aee	mov    	dword ptr [0x5d5c], eax
  0x4af4	dec    	eax
  0x4af5	test   	eax, eax
  0x4af7	je     	0x4b0b
  === BLOCK LINK ===
    0x4af9
=== CODE BLOCK END ===

=== CODE BLOCK ADDRESS 0x4af9 ===
  0x4af9	dec    	ecx
  0x4afa	mov    	edx, 0x12548270
  0x4aff	test   	byte ptr [esi], al
  0x4b01	mov    	cl, 0xf7
  0x4b03	call   	dword ptr [0x298f]
  === BLOCK LINK ===
    0x4b09
=== CODE BLOCK END ===

=== CODE BLOCK ADDRESS 0x4b09 ===
  0x4b09	mov    	bl, al
  0x4b0b	mov    	al, bl
  0x4b0d	dec    	eax
  0x4b0e	add    	esp, 0x30
  0x4b11	pop    	ebx
  === BLOCK LINK ===
    0x4b12
=== CODE BLOCK END ===

=== CODE BLOCK ADDRESS 0x4b12 ===
  0x4b12	ret    	
  0x4b13	int3   	
  0x4b14	dec    	eax
  0x4b15	mov    	dword ptr [esp + 0x18], ebx
  0x4b19	dec    	eax
  === BLOCK LINK ===
    0x4b1a
=== CODE BLOCK END ===

=== CODE BLOCK ADDRESS 0x4b1a ===
  0x4b1a	mov    	dword ptr [esp + 0x10], edx
  0x4b1e	push   	ebp
  0x4b1f	push   	esi
  0x4b20	push   	edi
  0x4b21	inc    	ecx
  === BLOCK LINK ===
    0x4b22
=== CODE BLOCK END ===

=== CODE BLOCK ADDRESS 0x4b22 ===
  0x4b22	push   	esp
  0x4b23	inc    	ecx
  0x4b24	push   	ebp
  0x4b25	inc    	ecx
  0x4b26	push   	esi
  === BLOCK LINK ===
    0x4b27
=== CODE BLOCK END ===

=== CODE BLOCK ADDRESS 0x4b27 ===
  0x4b27	inc    	ecx
  0x4b28	push   	edi
  0x4b29	dec    	eax
  0x4b2a	sub    	esp, 0x20
  0x4b2d	inc    	esp
  === BLOCK LINK ===
    0x4b2e
=== CODE BLOCK END ===

=== CODE BLOCK ADDRESS 0x4b2e ===
  0x4b2e	mov    	dword ptr [ecx + 4], eax
  0x4b31	dec    	esp
  0x4b32	lea    	ebp, [ecx + 0x10]
  0x4b35	mov    	eax, dword ptr [edx + 8]
  0x4b38	dec    	esp
  === BLOCK LINK ===
    0x4b39
=== CODE BLOCK END ===

=== CODE BLOCK ADDRESS 0x4b39 ===
  0x4b39	lea    	edi, [ecx + 0x20]
  0x4b3c	mov    	dword ptr [ecx + 8], eax
  0x4b3f	inc    	ebp
  0x4b40	xor    	ecx, ecx
  0x4b42	dec    	ebp
  === BLOCK LINK ===
    0x4b43
=== CODE BLOCK END ===

=== CODE BLOCK ADDRESS 0x4b43 ===
  0x4b43	mov    	dword ptr [ebp], ecx
  0x4b46	dec    	eax
  0x4b47	mov    	ebp, ecx
  0x4b49	movzx  	eax, word ptr [edx + 0x40]
  0x4b4d	dec    	eax
  === BLOCK LINK ===
    0x4b4e
=== CODE BLOCK END ===

=== CODE BLOCK ADDRESS 0x4b4e ===
  0x4b4e	or     	esi, 0xffffffff
  0x4b51	mov    	word ptr [ecx + 0x18], ax
  0x4b55	dec    	esp
  0x4b56	mov    	esp, edx
  0x4b58	mov    	al, byte ptr [edx]
  === BLOCK LINK ===
    0x4b5a
=== CODE BLOCK END ===

=== CODE BLOCK ADDRESS 0x4b5a ===
  0x4b5a	mov    	byte ptr [ecx + 0x1a], al
  0x4b5d	dec    	ebp
  0x4b5e	mov    	dword ptr [edi], ecx
  0x4b60	dec    	eax
  0x4b61	mov    	eax, dword ptr [edx + 0x88]
  === BLOCK LINK ===
    0x4b67
=== CODE BLOCK END ===

=== CODE BLOCK ADDRESS 0x4b67 ===
  0x4b67	dec    	eax
  0x4b68	mov    	dword ptr [ecx + 0x28], eax
  0x4b6b	dec    	eax
  0x4b6c	mov    	eax, dword ptr [edx + 0x90]
  0x4b72	dec    	eax
  === BLOCK LINK ===
    0x4b73
=== CODE BLOCK END ===

=== CODE BLOCK ADDRESS 0x4b73 ===
  0x4b73	mov    	dword ptr [ecx + 0x30], eax
  0x4b76	dec    	eax
  0x4b77	lea    	eax, [ecx + 0x38]
  0x4b7a	dec    	esp
  0x4b7b	mov    	dword ptr [eax], ecx
  === BLOCK LINK ===
    0x4b7d
=== CODE BLOCK END ===

=== CODE BLOCK ADDRESS 0x4b7d ===
  0x4b7d	dec    	eax
  0x4b7e	mov    	ecx, dword ptr [edx + 0x38]
  0x4b81	dec    	eax
  0x4b82	mov    	dword ptr [esp + 0x60], eax
  0x4b86	dec    	eax
  === BLOCK LINK ===
    0x4b87
=== CODE BLOCK END ===

=== CODE BLOCK ADDRESS 0x4b87 ===
  0x4b87	test   	ecx, ecx
  0x4b89	jne    	0x4b90
  === BLOCK LINK ===
    0x4b8b
=== CODE BLOCK END ===

=== CODE BLOCK ADDRESS 0x4b8b ===
  0x4b8b	lea    	eax, [ecx + 1]
  0x4b8e	jmp    	0x4b9f
  === BLOCK LINK ===
    0x4b90
=== CODE BLOCK END ===

=== CODE BLOCK ADDRESS 0x4b90 ===
  0x4b90	dec    	eax
  0x4b91	mov    	eax, esi
  0x4b93	dec    	eax
  0x4b94	inc    	eax
  0x4b96	inc    	esp
  === BLOCK LINK ===
    0x4b97
=== CODE BLOCK END ===

=== CODE BLOCK ADDRESS 0x4b97 ===
  0x4b97	cmp    	byte ptr [ecx + eax], cl
  0x4b9a	jne    	0x4b93
  === BLOCK LINK ===
    0x4b9c
=== CODE BLOCK END ===

=== CODE BLOCK ADDRESS 0x4b9c ===
  0x4b9c	dec    	eax
  0x4b9d	inc    	eax
  0x4b9f	dec    	eax
  0x4ba0	mov    	edx, dword ptr [edx + 0x80]
  0x4ba6	dec    	eax
  === BLOCK LINK ===
    0x4ba7
=== CODE BLOCK END ===

=== CODE BLOCK ADDRESS 0x4ba7 ===
  0x4ba7	test   	edx, edx
  0x4ba9	jne    	0x4bb0
  === BLOCK LINK ===
    0x4bab
=== CODE BLOCK END ===

=== CODE BLOCK ADDRESS 0x4bab ===
  0x4bab	lea    	ecx, [edx + 1]
  0x4bae	jmp    	0x4bbf
  === BLOCK LINK ===
    0x4bb0
=== CODE BLOCK END ===

=== CODE BLOCK ADDRESS 0x4bb0 ===
  0x4bb0	dec    	eax
  0x4bb1	mov    	ecx, esi
  0x4bb3	dec    	eax
  0x4bb4	inc    	ecx
  0x4bb6	inc    	esp
  === BLOCK LINK ===
    0x4bb7
=== CODE BLOCK END ===

=== CODE BLOCK ADDRESS 0x4bb7 ===
  0x4bb7	cmp    	byte ptr [edx + ecx], cl
  0x4bba	jne    	0x4bb3
  === BLOCK LINK ===
    0x4bbc
=== CODE BLOCK END ===

=== CODE BLOCK ADDRESS 0x4bbc ===
  0x4bbc	dec    	eax
  0x4bbd	inc    	ecx
  0x4bbf	dec    	ebp
  0x4bc0	mov    	eax, dword ptr [esp + 0x18]
  0x4bc4	dec    	ebp
  === BLOCK LINK ===
    0x4bc5
=== CODE BLOCK END ===

=== CODE BLOCK ADDRESS 0x4bc5 ===
  0x4bc5	test   	eax, eax
  0x4bc7	jne    	0x4bcf
  === BLOCK LINK ===
    0x4bc9
=== CODE BLOCK END ===

=== CODE BLOCK ADDRESS 0x4bc9 ===
  0x4bc9	inc    	ecx
  0x4bca	lea    	edx, [eax + 2]
  0x4bcd	jmp    	0x4be4
  === BLOCK LINK ===
    0x4bcf
=== CODE BLOCK END ===

=== CODE BLOCK ADDRESS 0x4bcf ===
  0x4bcf	dec    	eax
  0x4bd0	mov    	edx, esi
  0x4bd2	dec    	eax
  0x4bd3	inc    	edx
  0x4bd5	inc    	bp
  === BLOCK LINK ===
    0x4bd7
=== CODE BLOCK END ===

=== CODE BLOCK ADDRESS 0x4bd7 ===
  0x4bd7	cmp    	dword ptr [eax + edx*2], ecx
  0x4bda	jne    	0x4bd2
  === BLOCK LINK ===
    0x4bdc
=== CODE BLOCK END ===

=== CODE BLOCK ADDRESS 0x4bdc ===
  0x4bdc	dec    	eax
  0x4bdd	lea    	edx, [edx*2 + 2]
  0x4be4	dec    	esp
  0x4be5	lea    	esi, [edx + ecx]
  0x4be8	dec    	esp
  === BLOCK LINK ===
    0x4be9
=== CODE BLOCK END ===

=== CODE BLOCK ADDRESS 0x4be9 ===
  0x4be9	add    	esi, eax
  0x4beb	dec    	eax
  0x4bec	lea    	edi, [ebp + 0x48]
  0x4bef	dec    	esp
  0x4bf0	cmp    	dword ptr [ebp + 0x40], ecx
  === BLOCK LINK ===
    0x4bf3
=== CODE BLOCK END ===

=== CODE BLOCK ADDRESS 0x4bf3 ===
  0x4bf3	je     	0x4bfa
  === BLOCK LINK ===
    0x4bf5
=== CODE BLOCK END ===

=== CODE BLOCK ADDRESS 0x4bf5 ===
  0x4bf5	dec    	esp
  0x4bf6	cmp    	dword ptr [edi], esi
  0x4bf8	jae    	0x4c71
  === BLOCK LINK ===
    0x4bfa
=== CODE BLOCK END ===

=== CODE BLOCK ADDRESS 0x4bfa ===
  0x4bfa	call   	dword ptr [0x2608]
  === BLOCK LINK ===
    0x4c00
=== CODE BLOCK END ===

=== CODE BLOCK ADDRESS 0x4c00 ===
  0x4c00	dec    	ebp
  0x4c01	mov    	eax, esi
  0x4c03	mov    	edx, 8
  0x4c08	dec    	eax
  0x4c09	mov    	ecx, eax
  === BLOCK LINK ===
    0x4c0b
=== CODE BLOCK END ===

=== CODE BLOCK ADDRESS 0x4c0b ===
  0x4c0b	call   	dword ptr [0x25e7]
  === BLOCK LINK ===
    0x4c11
=== CODE BLOCK END ===

=== CODE BLOCK ADDRESS 0x4c11 ===
  0x4c11	dec    	eax
  0x4c12	mov    	ebx, dword ptr [0x5b50]
  0x4c18	inc    	ebp
  0x4c19	xor    	ecx, ecx
  0x4c1b	dec    	esp
  === BLOCK LINK ===
    0x4c1c
=== CODE BLOCK END ===

=== CODE BLOCK ADDRESS 0x4c1c ===
  0x4c1c	mov    	esp, eax
  0x4c1e	dec    	eax
  0x4c1f	test   	ebx, ebx
  0x4c21	je     	0x4c45
  === BLOCK LINK ===
    0x4c23
=== CODE BLOCK END ===

=== CODE BLOCK ADDRESS 0x4c23 ===
  0x4c23	call   	dword ptr [0x25df]
  === BLOCK LINK ===
    0x4c29
=== CODE BLOCK END ===

=== CODE BLOCK ADDRESS 0x4c29 ===
  0x4c29	dec    	eax
  0x4c2a	mov    	ecx, eax
  0x4c2c	dec    	ecx
  0x4c2d	mov    	edx, 0x1e57bb70
  0x4c32	ret    	
  === BLOCK LINK ===
    0x4c33
=== CODE BLOCK END ===

=== CODE BLOCK ADDRESS 0x200c ===
  0x200c	mov    	al, 1
  0x200e	ret    	
  === BLOCK LINK ===
    0x200f
=== CODE BLOCK END ===

=== CODE BLOCK ADDRESS 0x4c33 ===
  0x4c33	xchg   	eax, edi
  0x4c34	in     	al, 0xaf
  0x4c36	dec    	ecx
  0x4c37	mov    	edx, esp
  0x4c39	dec    	eax
  === BLOCK LINK ===
    0x4c3a
=== CODE BLOCK END ===

=== CODE BLOCK ADDRESS 0x4c3a ===
  0x4c3a	mov    	eax, ebx
  0x4c3c	call   	dword ptr [0x2856]
  === BLOCK LINK ===
    0x4c42
=== CODE BLOCK END ===

=== CODE BLOCK ADDRESS 0x4c42 ===
  0x4c42	inc    	ebp
  0x4c43	xor    	ecx, ecx
  0x4c45	dec    	ebp
  0x4c46	test   	esp, esp
  0x4c48	je     	0x4c6c
  === BLOCK LINK ===
    0x4c4a
=== CODE BLOCK END ===

=== CODE BLOCK ADDRESS 0x4c4a ===
  0x4c4a	dec    	eax
  0x4c4b	mov    	ebx, dword ptr [ebp + 0x40]
  0x4c4e	call   	dword ptr [0x25b4]
  === BLOCK LINK ===
    0x4c54
=== CODE BLOCK END ===

=== CODE BLOCK ADDRESS 0x4c54 ===
  0x4c54	dec    	esp
  0x4c55	mov    	eax, ebx
  0x4c57	xor    	edx, edx
  0x4c59	dec    	eax
  0x4c5a	mov    	ecx, eax
  === BLOCK LINK ===
    0x4c5c
=== CODE BLOCK END ===

=== CODE BLOCK ADDRESS 0x4c5c ===
  0x4c5c	call   	dword ptr [0x259e]
  === BLOCK LINK ===
    0x4c62
=== CODE BLOCK END ===

=== CODE BLOCK ADDRESS 0x4c62 ===
  0x4c62	inc    	ebp
  0x4c63	xor    	ecx, ecx
  0x4c65	dec    	esp
  0x4c66	mov    	dword ptr [ebp + 0x40], esp
  0x4c69	dec    	esp
  === BLOCK LINK ===
    0x4c6a
=== CODE BLOCK END ===

=== CODE BLOCK ADDRESS 0x4c6a ===
  0x4c6a	mov    	dword ptr [edi], esi
  0x4c6c	dec    	esp
  0x4c6d	mov    	esp, dword ptr [esp + 0x68]
  0x4c71	dec    	eax
  0x4c72	mov    	ebx, dword ptr [ebp + 0x40]
  === BLOCK LINK ===
    0x4c75
=== CODE BLOCK END ===

=== CODE BLOCK ADDRESS 0x4c75 ===
  0x4c75	dec    	eax
  0x4c76	test   	ebx, ebx
  0x4c78	je     	0x4d45
  === BLOCK LINK ===
    0x4c7e
=== CODE BLOCK END ===

=== CODE BLOCK ADDRESS 0x4c7e ===
  0x4c7e	dec    	eax
  0x4c7f	mov    	edx, dword ptr [edi]
  0x4c81	dec    	ebp
  0x4c82	mov    	eax, dword ptr [esp + 0x38]
  0x4c86	dec    	eax
  === BLOCK LINK ===
    0x4c87
=== CODE BLOCK END ===

=== CODE BLOCK ADDRESS 0x4c87 ===
  0x4c87	lea    	ebp, [edx + ebx]
  0x4c8a	dec    	eax
  0x4c8b	cmp    	ebx, ebp
  0x4c8d	je     	0x4cc9
  === BLOCK LINK ===
    0x4c8f
=== CODE BLOCK END ===

=== CODE BLOCK ADDRESS 0x4c8f ===
  0x4c8f	dec    	ebp
  0x4c90	test   	eax, eax
  0x4c92	je     	0x4cc9
  === BLOCK LINK ===
    0x4c94
=== CODE BLOCK END ===

=== CODE BLOCK ADDRESS 0x4c94 ===
  0x4c94	inc    	ebp
  0x4c95	cmp    	byte ptr [eax], cl
  0x4c97	je     	0x4cc9
  === BLOCK LINK ===
    0x4c99
=== CODE BLOCK END ===

=== CODE BLOCK ADDRESS 0x4c99 ===
  0x4c99	dec    	eax
  0x4c9a	mov    	edi, esi
  0x4c9c	dec    	eax
  0x4c9d	inc    	edi
  0x4c9f	inc    	ebp
  === BLOCK LINK ===
    0x4ca0
=== CODE BLOCK END ===

=== CODE BLOCK ADDRESS 0x4ca0 ===
  0x4ca0	cmp    	byte ptr [eax + edi], cl
  0x4ca3	jne    	0x4c9c
  === BLOCK LINK ===
    0x4ca5
=== CODE BLOCK END ===

=== CODE BLOCK ADDRESS 0x4ca5 ===
  0x4ca5	dec    	eax
  0x4ca6	inc    	edi
  0x4ca8	dec    	eax
  0x4ca9	cmp    	edx, edi
  0x4cab	jb     	0x4cc9
  === BLOCK LINK ===
    0x4cad
=== CODE BLOCK END ===

=== CODE BLOCK ADDRESS 0x4cad ===
  0x4cad	dec    	esp
  0x4cae	mov    	ecx, edi
  0x4cb0	dec    	eax
  0x4cb1	mov    	ecx, ebx
  0x4cb3	call   	0x5c04
  === BLOCK LINK ===
    0x4cb8
=== CODE BLOCK END ===

=== CODE BLOCK ADDRESS 0x4cb8 ===
  0x4cb8	inc    	ebp
  0x4cb9	xor    	ecx, ecx
  0x4cbb	dec    	ebp
  0x4cbc	test   	ebp, ebp
  0x4cbe	je     	0x4cc4
  === BLOCK LINK ===
    0x4cc0
=== CODE BLOCK END ===

=== CODE BLOCK ADDRESS 0x4cc0 ===
  0x4cc0	dec    	ecx
  0x4cc1	mov    	dword ptr [ebp], ebx
  0x4cc4	dec    	eax
  0x4cc5	add    	ebx, edi
  0x4cc7	jmp    	0x4cd2
  === BLOCK LINK ===
    0x4cc9
=== CODE BLOCK END ===

=== CODE BLOCK ADDRESS 0x4cc9 ===
  0x4cc9	dec    	ebp
  0x4cca	test   	ebp, ebp
  0x4ccc	je     	0x4cd2
  === BLOCK LINK ===
    0x4cce
=== CODE BLOCK END ===

=== CODE BLOCK ADDRESS 0x4cce ===
  0x4cce	dec    	ebp
  0x4ccf	mov    	dword ptr [ebp], ecx
  0x4cd2	dec    	ebp
  0x4cd3	mov    	eax, dword ptr [esp + 0x80]
  0x4cda	dec    	eax
  === BLOCK LINK ===
    0x4cdb
=== CODE BLOCK END ===

=== CODE BLOCK ADDRESS 0x4cdb ===
  0x4cdb	cmp    	ebx, ebp
  0x4cdd	je     	0x4d18
  === BLOCK LINK ===
    0x4cdf
=== CODE BLOCK END ===

=== CODE BLOCK ADDRESS 0x4cdf ===
  0x4cdf	dec    	ebp
  0x4ce0	test   	eax, eax
  0x4ce2	je     	0x4d18
  === BLOCK LINK ===
    0x4ce4
=== CODE BLOCK END ===

=== CODE BLOCK ADDRESS 0x4ce4 ===
  0x4ce4	inc    	ebp
  0x4ce5	cmp    	byte ptr [eax], cl
  0x4ce7	je     	0x4d18
  === BLOCK LINK ===
    0x4ce9
=== CODE BLOCK END ===

=== CODE BLOCK ADDRESS 0x4ce9 ===
  0x4ce9	dec    	eax
  0x4cea	inc    	esi
  0x4cec	inc    	ebp
  0x4ced	cmp    	byte ptr [eax + esi], cl
  0x4cf0	jne    	0x4ce9
  === BLOCK LINK ===
    0x4cf2
=== CODE BLOCK END ===

=== CODE BLOCK ADDRESS 0x4cf2 ===
  0x4cf2	dec    	eax
  0x4cf3	mov    	edx, ebp
  0x4cf5	dec    	eax
  0x4cf6	inc    	esi
  0x4cf8	dec    	eax
  === BLOCK LINK ===
    0x4cf9
=== CODE BLOCK END ===

=== CODE BLOCK ADDRESS 0x4cf9 ===
  0x4cf9	sub    	edx, ebx
  0x4cfb	dec    	eax
  0x4cfc	cmp    	edx, esi
  0x4cfe	jb     	0x4d18
  === BLOCK LINK ===
    0x4d00
=== CODE BLOCK END ===

=== CODE BLOCK ADDRESS 0x4d00 ===
  0x4d00	dec    	esp
  0x4d01	mov    	ecx, esi
  0x4d03	dec    	eax
  0x4d04	mov    	ecx, ebx
  0x4d06	call   	0x5c04
  === BLOCK LINK ===
    0x4d0b
=== CODE BLOCK END ===

=== CODE BLOCK ADDRESS 0x4d0b ===
  0x4d0b	dec    	ebp
  0x4d0c	test   	edi, edi
  0x4d0e	je     	0x4d13
  === BLOCK LINK ===
    0x4d10
=== CODE BLOCK END ===

=== CODE BLOCK ADDRESS 0x4d10 ===
  0x4d10	dec    	ecx
  0x4d11	mov    	dword ptr [edi], ebx
  0x4d13	dec    	eax
  0x4d14	add    	ebx, esi
  0x4d16	jmp    	0x4d20
  === BLOCK LINK ===
    0x4d18
=== CODE BLOCK END ===

=== CODE BLOCK ADDRESS 0x4d18 ===
  0x4d18	dec    	ebp
  0x4d19	test   	edi, edi
  0x4d1b	je     	0x4d20
  === BLOCK LINK ===
    0x4d1d
=== CODE BLOCK END ===

=== CODE BLOCK ADDRESS 0x4d1d ===
  0x4d1d	dec    	ebp
  0x4d1e	mov    	dword ptr [edi], ecx
  0x4d20	dec    	esp
  0x4d21	mov    	ecx, dword ptr [esp + 0x60]
  0x4d25	dec    	eax
  === BLOCK LINK ===
    0x4d26
=== CODE BLOCK END ===

=== CODE BLOCK ADDRESS 0x4d26 ===
  0x4d26	mov    	edx, ebp
  0x4d28	dec    	ebp
  0x4d29	mov    	eax, dword ptr [esp + 0x18]
  0x4d2d	dec    	eax
  0x4d2e	mov    	ecx, ebx
  === BLOCK LINK ===
    0x4d30
=== CODE BLOCK END ===

=== CODE BLOCK ADDRESS 0x4d30 ===
  0x4d30	call   	0x2b04
  === BLOCK LINK ===
    0x4d35
=== CODE BLOCK END ===

=== CODE BLOCK ADDRESS 0x4d35 ===
  0x4d35	dec    	eax
  0x4d36	sub    	ebp, eax
  0x4d38	xor    	edx, edx
  0x4d3a	dec    	esp
  0x4d3b	mov    	eax, ebp
  === BLOCK LINK ===
    0x4d3d
=== CODE BLOCK END ===

=== CODE BLOCK ADDRESS 0x4d3d ===
  0x4d3d	dec    	eax
  0x4d3e	mov    	ecx, eax
  0x4d40	call   	0x1ee6
  === BLOCK LINK ===
    0x4d45
=== CODE BLOCK END ===

=== CODE BLOCK ADDRESS 0x4d45 ===
  0x4d45	dec    	eax
  0x4d46	mov    	ebx, dword ptr [esp + 0x70]
  0x4d4a	dec    	eax
  0x4d4b	add    	esp, 0x20
  0x4d4e	inc    	ecx
  === BLOCK LINK ===
    0x4d4f
=== CODE BLOCK END ===

=== CODE BLOCK ADDRESS 0x4d4f ===
  0x4d4f	pop    	edi
  0x4d50	inc    	ecx
  0x4d51	pop    	esi
  0x4d52	inc    	ecx
  0x4d53	pop    	ebp
  === BLOCK LINK ===
    0x4d54
=== CODE BLOCK END ===

=== CODE BLOCK ADDRESS 0x4d54 ===
  0x4d54	inc    	ecx
  0x4d55	pop    	esp
  0x4d56	pop    	edi
  0x4d57	pop    	esi
  0x4d58	pop    	ebp
  === BLOCK LINK ===
    0x4d59
=== CODE BLOCK END ===

=== CODE BLOCK ADDRESS 0x4d59 ===
  0x4d59	ret    	
  0x4d5a	int3   	
  0x4d5b	int3   	
  0x4d5c	dec    	eax
  0x4d5d	mov    	dword ptr [esp + 0x10], ebx
  === BLOCK LINK ===
    0x4d61
=== CODE BLOCK END ===

=== CODE BLOCK ADDRESS 0x4d61 ===
  0x4d61	dec    	eax
  0x4d62	mov    	dword ptr [esp + 0x18], ebp
  0x4d66	dec    	eax
  0x4d67	mov    	dword ptr [esp + 0x20], esi
  0x4d6b	push   	edi
  === BLOCK LINK ===
    0x4d6c
=== CODE BLOCK END ===

=== CODE BLOCK ADDRESS 0x4d6c ===
  0x4d6c	inc    	ecx
  0x4d6d	push   	esp
  0x4d6e	inc    	ecx
  0x4d6f	push   	ebp
  0x4d70	inc    	ecx
  === BLOCK LINK ===
    0x4d71
=== CODE BLOCK END ===

=== CODE BLOCK ADDRESS 0x4d71 ===
  0x4d71	push   	esi
  0x4d72	inc    	ecx
  0x4d73	push   	edi
  0x4d74	dec    	eax
  0x4d75	sub    	esp, 0x20
  === BLOCK LINK ===
    0x4d78
=== CODE BLOCK END ===

=== CODE BLOCK ADDRESS 0x4d78 ===
  0x4d78	movups  	xmm0, xmmword ptr [edx]
  0x4d7b	dec    	esp
  0x4d7c	mov    	esp, ecx
  0x4d7e	dec    	eax
  0x4d7f	or     	esi, 0xffffffff
  === BLOCK LINK ===
    0x4d82
=== CODE BLOCK END ===

=== CODE BLOCK ADDRESS 0x4d82 ===
  0x4d82	xor    	edi, edi
  0x4d84	dec    	esp
  0x4d85	mov    	ebp, edx
  0x4d87	movups  	xmmword ptr [ecx], xmm0
  0x4d8a	movups  	xmm1, xmmword ptr [edx + 0x10]
  === BLOCK LINK ===
    0x4d8e
=== CODE BLOCK END ===

=== CODE BLOCK ADDRESS 0x4d8e ===
  0x4d8e	inc    	esp
  0x4d8f	lea    	esi, [esi + 3]
  0x4d92	movups  	xmmword ptr [ecx + 0x10], xmm1
  0x4d96	movups  	xmm0, xmmword ptr [edx + 0x20]
  0x4d9a	movups  	xmmword ptr [ecx + 0x20], xmm0
  === BLOCK LINK ===
    0x4d9e
=== CODE BLOCK END ===

=== CODE BLOCK ADDRESS 0x4d9e ===
  0x4d9e	movups  	xmm1, xmmword ptr [edx + 0x30]
  0x4da2	movups  	xmmword ptr [ecx + 0x30], xmm1
  0x4da6	movups  	xmm0, xmmword ptr [edx + 0x40]
  0x4daa	movups  	xmmword ptr [ecx + 0x40], xmm0
  0x4dae	movups  	xmm1, xmmword ptr [edx + 0x50]
  === BLOCK LINK ===
    0x4db2
=== CODE BLOCK END ===

=== CODE BLOCK ADDRESS 0x4db2 ===
  0x4db2	movups  	xmmword ptr [ecx + 0x50], xmm1
  0x4db6	movups  	xmm0, xmmword ptr [edx + 0x60]
  0x4dba	movups  	xmmword ptr [ecx + 0x60], xmm0
  0x4dbe	mov    	ecx, 0x80
  0x4dc3	movups  	xmm0, xmmword ptr [edx + 0x70]
  === BLOCK LINK ===
    0x4dc7
=== CODE BLOCK END ===

=== CODE BLOCK ADDRESS 0x4dc7 ===
  0x4dc7	inc    	ecx
  0x4dc8	movups  	xmmword ptr [esp + ecx - 0x10], xmm0
  0x4dcd	movups  	xmm1, xmmword ptr [edx + ecx]
  0x4dd1	inc    	ecx
  0x4dd2	movups  	xmmword ptr [esp + ecx], xmm1
  === BLOCK LINK ===
    0x4dd6
=== CODE BLOCK END ===

=== CODE BLOCK ADDRESS 0x4dd6 ===
  0x4dd6	dec    	eax
  0x4dd7	mov    	eax, dword ptr [edx + ecx + 0x10]
  0x4ddb	dec    	ecx
  0x4ddc	mov    	dword ptr [esp + ecx + 0x10], eax
  0x4de0	dec    	eax
  === BLOCK LINK ===
    0x4de1
=== CODE BLOCK END ===

=== CODE BLOCK ADDRESS 0x4de1 ===
  0x4de1	mov    	ecx, dword ptr [edx + 0x18]
  0x4de4	dec    	eax
  0x4de5	test   	ecx, ecx
  0x4de7	jne    	0x4df0
  === BLOCK LINK ===
    0x4de9
=== CODE BLOCK END ===

=== CODE BLOCK ADDRESS 0x4de9 ===
  0x4de9	dec    	esp
  0x4dea	mov    	dword ptr [esp + 0x50], esi
  0x4dee	jmp    	0x4e09
  === BLOCK LINK ===
    0x4df0
=== CODE BLOCK END ===

=== CODE BLOCK ADDRESS 0x4df0 ===
  0x4df0	dec    	eax
  0x4df1	mov    	eax, esi
  0x4df3	dec    	eax
  0x4df4	inc    	eax
  0x4df6	cmp    	word ptr [ecx + eax*2], di
  === BLOCK LINK ===
    0x4dfa
=== CODE BLOCK END ===

=== CODE BLOCK ADDRESS 0x4dfa ===
  0x4dfa	jne    	0x4df3
  === BLOCK LINK ===
    0x4dfc
=== CODE BLOCK END ===

=== CODE BLOCK ADDRESS 0x4dfc ===
  0x4dfc	dec    	eax
  0x4dfd	lea    	eax, [eax*2 + 2]
  0x4e04	dec    	eax
  0x4e05	mov    	dword ptr [esp + 0x50], eax
  0x4e09	dec    	eax
  === BLOCK LINK ===
    0x4e0a
=== CODE BLOCK END ===

=== CODE BLOCK ADDRESS 0x4e0a ===
  0x4e0a	mov    	eax, dword ptr [edx + 0x28]
  0x4e0d	dec    	eax
  0x4e0e	test   	eax, eax
  0x4e10	jne    	0x4e1a
  === BLOCK LINK ===
    0x4e12
=== CODE BLOCK END ===

=== CODE BLOCK ADDRESS 0x4e12 ===
  0x4e12	lea    	ebp, [eax + 1]
  0x4e15	inc    	esp
  0x4e16	mov    	eax, ebp
  0x4e18	jmp    	0x4e2e
  === BLOCK LINK ===
    0x4e1a
=== CODE BLOCK END ===

=== CODE BLOCK ADDRESS 0x4e1a ===
  0x4e1a	dec    	esp
  0x4e1b	mov    	eax, esi
  0x4e1d	dec    	ecx
  0x4e1e	inc    	eax
  0x4e20	inc    	edx
  === BLOCK LINK ===
    0x4e21
=== CODE BLOCK END ===

=== CODE BLOCK ADDRESS 0x4e21 ===
  0x4e21	cmp    	byte ptr [eax + eax], bh
  0x4e24	jne    	0x4e1d
  === BLOCK LINK ===
    0x4e26
=== CODE BLOCK END ===

=== CODE BLOCK ADDRESS 0x4e26 ===
  0x4e26	mov    	ebp, 1
  0x4e2b	dec    	esp
  0x4e2c	add    	eax, ebp
  0x4e2e	dec    	eax
  0x4e2f	mov    	eax, dword ptr [edx + 0x30]
  === BLOCK LINK ===
    0x4e32
=== CODE BLOCK END ===

=== CODE BLOCK ADDRESS 0x4e32 ===
  0x4e32	dec    	eax
  0x4e33	test   	eax, eax
  0x4e35	jne    	0x4e3c
  === BLOCK LINK ===
    0x4e37
=== CODE BLOCK END ===

=== CODE BLOCK ADDRESS 0x4e37 ===
  0x4e37	dec    	esp
  0x4e38	mov    	edx, ebp
  0x4e3a	jmp    	0x4e4b
  === BLOCK LINK ===
    0x4e3c
=== CODE BLOCK END ===

=== CODE BLOCK ADDRESS 0x4e3c ===
  0x4e3c	dec    	esp
  0x4e3d	mov    	edx, esi
  0x4e3f	dec    	ecx
  0x4e40	inc    	edx
  0x4e42	inc    	edx
  === BLOCK LINK ===
    0x4e43
=== CODE BLOCK END ===

=== CODE BLOCK ADDRESS 0x4e43 ===
  0x4e43	cmp    	byte ptr [eax + edx], bh
  0x4e46	jne    	0x4e3f
  === BLOCK LINK ===
    0x4e48
=== CODE BLOCK END ===

=== CODE BLOCK ADDRESS 0x4e48 ===
  0x4e48	dec    	esp
  0x4e49	add    	edx, ebp
  0x4e4b	dec    	eax
  0x4e4c	mov    	eax, dword ptr [edx + 0x38]
  0x4e4f	dec    	eax
  === BLOCK LINK ===
    0x4e50
=== CODE BLOCK END ===

=== CODE BLOCK ADDRESS 0x4e50 ===
  0x4e50	test   	eax, eax
  0x4e52	jne    	0x4e59
  === BLOCK LINK ===
    0x4e54
=== CODE BLOCK END ===

=== CODE BLOCK ADDRESS 0x4e54 ===
  0x4e54	dec    	eax
  0x4e55	mov    	ebx, ebp
  0x4e57	jmp    	0x4e68
  === BLOCK LINK ===
    0x4e59
=== CODE BLOCK END ===

=== CODE BLOCK ADDRESS 0x4e59 ===
  0x4e59	dec    	eax
  0x4e5a	mov    	ebx, esi
  0x4e5c	dec    	eax
  0x4e5d	inc    	ebx
  0x4e5f	inc    	eax
  === BLOCK LINK ===
    0x4e60
=== CODE BLOCK END ===

=== CODE BLOCK ADDRESS 0x4e60 ===
  0x4e60	cmp    	byte ptr [eax + ebx], bh
  0x4e63	jne    	0x4e5c
  === BLOCK LINK ===
    0x4e65
=== CODE BLOCK END ===

=== CODE BLOCK ADDRESS 0x4e65 ===
  0x4e65	dec    	eax
  0x4e66	add    	ebx, ebp
  0x4e68	dec    	eax
  0x4e69	mov    	eax, dword ptr [edx + 0x48]
  0x4e6c	dec    	eax
  === BLOCK LINK ===
    0x4e6d
=== CODE BLOCK END ===

=== CODE BLOCK ADDRESS 0x4e6d ===
  0x4e6d	test   	eax, eax
  0x4e6f	jne    	0x4e76
  === BLOCK LINK ===
    0x4e71
=== CODE BLOCK END ===

=== CODE BLOCK ADDRESS 0x4e71 ===
  0x4e71	dec    	esp
  0x4e72	mov    	ebx, ebp
  0x4e74	jmp    	0x4e85
  === BLOCK LINK ===
    0x4e76
=== CODE BLOCK END ===

=== CODE BLOCK ADDRESS 0x4e76 ===
  0x4e76	dec    	esp
  0x4e77	mov    	ebx, esi
  0x4e79	dec    	ecx
  0x4e7a	inc    	ebx
  0x4e7c	inc    	edx
  === BLOCK LINK ===
    0x4e7d
=== CODE BLOCK END ===

=== CODE BLOCK ADDRESS 0x4e7d ===
  0x4e7d	cmp    	byte ptr [eax + ebx], bh
  0x4e80	jne    	0x4e79
  === BLOCK LINK ===
    0x4e82
=== CODE BLOCK END ===

=== CODE BLOCK ADDRESS 0x4e82 ===
  0x4e82	dec    	esp
  0x4e83	add    	ebx, ebp
  0x4e85	dec    	eax
  0x4e86	mov    	eax, dword ptr [edx + 0x80]
  0x4e8c	dec    	eax
  === BLOCK LINK ===
    0x4e8d
=== CODE BLOCK END ===

=== CODE BLOCK ADDRESS 0x4e8d ===
  0x4e8d	test   	eax, eax
  0x4e8f	jne    	0x4e96
  === BLOCK LINK ===
    0x4e91
=== CODE BLOCK END ===

=== CODE BLOCK ADDRESS 0x4e91 ===
  0x4e91	dec    	esp
  0x4e92	mov    	ecx, ebp
  0x4e94	jmp    	0x4ea5
  === BLOCK LINK ===
    0x4e96
=== CODE BLOCK END ===

=== CODE BLOCK ADDRESS 0x4e96 ===
  0x4e96	dec    	esp
  0x4e97	mov    	ecx, esi
  0x4e99	dec    	ecx
  0x4e9a	inc    	ecx
  0x4e9c	inc    	edx
  === BLOCK LINK ===
    0x4e9d
=== CODE BLOCK END ===

=== CODE BLOCK ADDRESS 0x4e9d ===
  0x4e9d	cmp    	byte ptr [eax + ecx], bh
  0x4ea0	jne    	0x4e99
  === BLOCK LINK ===
    0x4ea2
=== CODE BLOCK END ===

=== CODE BLOCK ADDRESS 0x4ea2 ===
  0x4ea2	dec    	esp
  0x4ea3	add    	ecx, ebp
  0x4ea5	dec    	eax
  0x4ea6	mov    	eax, dword ptr [edx + 0x70]
  0x4ea9	dec    	eax
  === BLOCK LINK ===
    0x4eaa
=== CODE BLOCK END ===

=== CODE BLOCK ADDRESS 0x4eaa ===
  0x4eaa	test   	eax, eax
  0x4eac	jne    	0x4eb3
  === BLOCK LINK ===
    0x4eae
=== CODE BLOCK END ===

=== CODE BLOCK ADDRESS 0x4eae ===
  0x4eae	dec    	eax
  0x4eaf	mov    	edx, ebp
  0x4eb1	jmp    	0x4ec2
  === BLOCK LINK ===
    0x4eb3
=== CODE BLOCK END ===

=== CODE BLOCK ADDRESS 0x4eb3 ===
  0x4eb3	dec    	eax
  0x4eb4	mov    	edx, esi
  0x4eb6	dec    	eax
  0x4eb7	inc    	edx
  0x4eb9	inc    	eax
  === BLOCK LINK ===
    0x4eba
=== CODE BLOCK END ===

=== CODE BLOCK ADDRESS 0x4eba ===
  0x4eba	cmp    	byte ptr [eax + edx], bh
  0x4ebd	jne    	0x4eb6
  === BLOCK LINK ===
    0x4ebf
=== CODE BLOCK END ===

=== CODE BLOCK ADDRESS 0x4ebf ===
  0x4ebf	dec    	eax
  0x4ec0	add    	edx, ebp
  0x4ec2	dec    	ecx
  0x4ec3	mov    	ecx, dword ptr [ebp + 0x78]
  0x4ec6	dec    	eax
  === BLOCK LINK ===
    0x4ec7
=== CODE BLOCK END ===

=== CODE BLOCK ADDRESS 0x4ec7 ===
  0x4ec7	test   	ecx, ecx
  0x4ec9	jne    	0x4ed0
  === BLOCK LINK ===
    0x4ecb
=== CODE BLOCK END ===

=== CODE BLOCK ADDRESS 0x4ecb ===
  0x4ecb	dec    	ebp
  0x4ecc	mov    	edi, esi
  0x4ece	jmp    	0x4ee4
  === BLOCK LINK ===
    0x4ed0
=== CODE BLOCK END ===

=== CODE BLOCK ADDRESS 0x4ed0 ===
  0x4ed0	dec    	eax
  0x4ed1	mov    	eax, esi
  0x4ed3	dec    	eax
  0x4ed4	inc    	eax
  0x4ed6	cmp    	word ptr [ecx + eax*2], di
  === BLOCK LINK ===
    0x4eda
=== CODE BLOCK END ===

=== CODE BLOCK ADDRESS 0x4eda ===
  0x4eda	jne    	0x4ed3
  === BLOCK LINK ===
    0x4edc
=== CODE BLOCK END ===

=== CODE BLOCK ADDRESS 0x4edc ===
  0x4edc	dec    	esp
  0x4edd	lea    	edi, [eax*2 + 2]
  0x4ee4	dec    	ecx
  0x4ee5	mov    	ecx, dword ptr [ebp + 0x58]
  0x4ee8	dec    	eax
  === BLOCK LINK ===
    0x4ee9
=== CODE BLOCK END ===

=== CODE BLOCK ADDRESS 0x4ee9 ===
  0x4ee9	test   	ecx, ecx
  0x4eeb	jne    	0x4ef2
  === BLOCK LINK ===
    0x4eed
=== CODE BLOCK END ===

=== CODE BLOCK ADDRESS 0x4eed ===
  0x4eed	dec    	eax
  0x4eee	mov    	eax, ebp
  0x4ef0	jmp    	0x4f01
  === BLOCK LINK ===
    0x4ef2
=== CODE BLOCK END ===

=== CODE BLOCK ADDRESS 0x4ef2 ===
  0x4ef2	dec    	eax
  0x4ef3	mov    	eax, esi
  0x4ef5	dec    	eax
  0x4ef6	inc    	eax
  0x4ef8	inc    	eax
  === BLOCK LINK ===
    0x4ef9
=== CODE BLOCK END ===

=== CODE BLOCK ADDRESS 0x4ef9 ===
  0x4ef9	cmp    	byte ptr [ecx + eax], bh
  0x4efc	jne    	0x4ef5
  === BLOCK LINK ===
    0x4efe
=== CODE BLOCK END ===

=== CODE BLOCK ADDRESS 0x4efe ===
  0x4efe	dec    	eax
  0x4eff	add    	eax, ebp
  0x4f01	dec    	ecx
  0x4f02	mov    	edi, dword ptr [ebp + 0x60]
  0x4f05	dec    	eax
  === BLOCK LINK ===
    0x4f06
=== CODE BLOCK END ===

=== CODE BLOCK ADDRESS 0x4f06 ===
  0x4f06	test   	edi, edi
  0x4f08	je     	0x4f22
  === BLOCK LINK ===
    0x4f0a
=== CODE BLOCK END ===

=== CODE BLOCK ADDRESS 0x4f0a ===
  0x4f0a	dec    	eax
  0x4f0b	mov    	ecx, esi
  0x4f0d	inc    	ebp
  0x4f0e	xor    	esi, esi
  0x4f10	dec    	eax
  === BLOCK LINK ===
    0x4f11
=== CODE BLOCK END ===

=== CODE BLOCK ADDRESS 0x4f11 ===
  0x4f11	inc    	ecx
  0x4f13	inc    	sp
  0x4f15	cmp    	dword ptr [edi + ecx*2], esi
  0x4f18	jne    	0x4f10
  === BLOCK LINK ===
    0x4f1a
=== CODE BLOCK END ===

=== CODE BLOCK ADDRESS 0x4f1a ===
  0x4f1a	dec    	esp
  0x4f1b	lea    	esi, [ecx*2 + 2]
  0x4f22	dec    	esp
  0x4f23	add    	esi, eax
  0x4f25	dec    	ecx
  === BLOCK LINK ===
    0x4f26
=== CODE BLOCK END ===

=== CODE BLOCK ADDRESS 0x4f26 ===
  0x4f26	lea    	edi, [esp + 0x98]
  0x4f2d	dec    	eax
  0x4f2e	mov    	ecx, dword ptr [edi]
  0x4f30	dec    	ebp
  0x4f31	add    	esi, edi
  === BLOCK LINK ===
    0x4f33
=== CODE BLOCK END ===

=== CODE BLOCK ADDRESS 0x4f33 ===
  0x4f33	dec    	esp
  0x4f34	add    	esi, edx
  0x4f36	inc    	ebp
  0x4f37	xor    	edi, edi
  0x4f39	dec    	ebp
  === BLOCK LINK ===
    0x4f3a
=== CODE BLOCK END ===

=== CODE BLOCK ADDRESS 0x4f3a ===
  0x4f3a	add    	esi, ecx
  0x4f3c	dec    	ebp
  0x4f3d	add    	esi, ebx
  0x4f3f	dec    	esp
  0x4f40	add    	esi, ebx
  === BLOCK LINK ===
    0x4f42
=== CODE BLOCK END ===

=== CODE BLOCK ADDRESS 0x4f42 ===
  0x4f42	dec    	ebp
  0x4f43	add    	esi, edx
  0x4f45	dec    	ebp
  0x4f46	add    	esi, eax
  0x4f48	dec    	esp
  === BLOCK LINK ===
    0x4f49
=== CODE BLOCK END ===

=== CODE BLOCK ADDRESS 0x4f49 ===
  0x4f49	add    	esi, dword ptr [esp + 0x50]
  0x4f4d	dec    	eax
  0x4f4e	test   	ecx, ecx
  0x4f50	je     	0x4f8d
  === BLOCK LINK ===
    0x4f52
=== CODE BLOCK END ===

=== CODE BLOCK ADDRESS 0x4f52 ===
  0x4f52	cmp    	dword ptr [ecx], ebp
  0x4f54	jne    	0x4f60
  === BLOCK LINK ===
    0x4f56
=== CODE BLOCK END ===

=== CODE BLOCK ADDRESS 0x4f56 ===
  0x4f56	dec    	ebp
  0x4f57	cmp    	dword ptr [esp + 0xa0], esi
  0x4f5e	jae    	0x4f9a
  === BLOCK LINK ===
    0x4f60
=== CODE BLOCK END ===

=== CODE BLOCK ADDRESS 0x4f60 ===
  0x4f60	dec    	eax
  0x4f61	test   	ecx, ecx
  0x4f63	je     	0x4f8d
  === BLOCK LINK ===
    0x4f65
=== CODE BLOCK END ===

=== CODE BLOCK ADDRESS 0x4f65 ===
  0x4f65	mov    	eax, esi
  0x4f67	lock xadd  	dword ptr [ecx], eax
  0x4f6b	add    	eax, esi
  0x4f6d	jne    	0x4f86
  === BLOCK LINK ===
    0x4f6f
=== CODE BLOCK END ===

=== CODE BLOCK ADDRESS 0x4f6f ===
  0x4f6f	dec    	eax
  0x4f70	mov    	ebx, dword ptr [edi]
  0x4f72	call   	dword ptr [0x2290]
  === BLOCK LINK ===
    0x4f78
=== CODE BLOCK END ===

=== CODE BLOCK ADDRESS 0x4f78 ===
  0x4f78	dec    	esp
  0x4f79	mov    	eax, ebx
  0x4f7b	xor    	edx, edx
  0x4f7d	dec    	eax
  0x4f7e	mov    	ecx, eax
  === BLOCK LINK ===
    0x4f80
=== CODE BLOCK END ===

=== CODE BLOCK ADDRESS 0x4f80 ===
  0x4f80	call   	dword ptr [0x227a]
  === BLOCK LINK ===
    0x4f86
=== CODE BLOCK END ===

=== CODE BLOCK ADDRESS 0x4f86 ===
  0x4f86	dec    	esp
  0x4f87	mov    	dword ptr [edi], edi
  0x4f89	dec    	esp
  0x4f8a	mov    	dword ptr [edi + 8], edi
  0x4f8d	dec    	ebp
  === BLOCK LINK ===
    0x4f8e
=== CODE BLOCK END ===

=== CODE BLOCK ADDRESS 0x4f8e ===
  0x4f8e	mov    	eax, esi
  0x4f90	xor    	edx, edx
  0x4f92	dec    	eax
  0x4f93	mov    	ecx, edi
  0x4f95	call   	0x5a34
  === BLOCK LINK ===
    0x4f9a
=== CODE BLOCK END ===

=== CODE BLOCK ADDRESS 0x4f9a ===
  0x4f9a	dec    	eax
  0x4f9b	mov    	eax, dword ptr [edi]
  0x4f9d	dec    	esp
  0x4f9e	mov    	eax, dword ptr [edi + 8]
  0x4fa1	dec    	eax
  === BLOCK LINK ===
    0x4fa2
=== CODE BLOCK END ===

=== CODE BLOCK ADDRESS 0x4fa2 ===
  0x4fa2	lea    	edx, [eax + 4]
  0x4fa5	dec    	eax
  0x4fa6	neg    	eax
  0x4fa8	dec    	eax
  0x4fa9	sbb    	ecx, ecx
  === BLOCK LINK ===
    0x4fab
=== CODE BLOCK END ===

=== CODE BLOCK ADDRESS 0x4fab ===
  0x4fab	dec    	eax
  0x4fac	and    	ecx, edx
  0x4fae	je     	0x5259
  === BLOCK LINK ===
    0x4fb4
=== CODE BLOCK END ===

=== CODE BLOCK ADDRESS 0x4fb4 ===
  0x4fb4	dec    	edx
  0x4fb5	lea    	edi, [ecx + eax]
  0x4fb8	dec    	ebp
  0x4fb9	mov    	eax, dword ptr [ebp + 0x18]
  0x4fbc	dec    	eax
  === BLOCK LINK ===
    0x4fbd
=== CODE BLOCK END ===

=== CODE BLOCK ADDRESS 0x4fbd ===
  0x4fbd	mov    	edx, edi
  0x4fbf	dec    	ebp
  0x4fc0	lea    	ecx, [esp + 0x18]
  0x4fc4	call   	0x2b04
  === BLOCK LINK ===
    0x4fc9
=== CODE BLOCK END ===

=== CODE BLOCK ADDRESS 0x4fc9 ===
  0x4fc9	dec    	ebp
  0x4fca	mov    	eax, dword ptr [ebp + 0x28]
  0x4fcd	dec    	eax
  0x4fce	mov    	ebx, eax
  0x4fd0	dec    	ebp
  === BLOCK LINK ===
    0x4fd1
=== CODE BLOCK END ===

=== CODE BLOCK ADDRESS 0x4fd1 ===
  0x4fd1	lea    	edi, [esp + 0x28]
  0x4fd5	dec    	eax
  0x4fd6	cmp    	eax, edi
  0x4fd8	je     	0x501a
  === BLOCK LINK ===
    0x4fda
=== CODE BLOCK END ===

=== CODE BLOCK ADDRESS 0x4fda ===
  0x4fda	xor    	eax, eax
  0x4fdc	dec    	ebp
  0x4fdd	test   	eax, eax
  0x4fdf	je     	0x501c
  === BLOCK LINK ===
    0x4fe1
=== CODE BLOCK END ===

=== CODE BLOCK ADDRESS 0x4fe1 ===
  0x4fe1	inc    	ecx
  0x4fe2	cmp    	byte ptr [eax], al
  0x4fe4	je     	0x501c
  === BLOCK LINK ===
    0x4fe6
=== CODE BLOCK END ===

=== CODE BLOCK ADDRESS 0x4fe6 ===
  0x4fe6	dec    	esp
  0x4fe7	mov    	esi, esi
  0x4fe9	dec    	ecx
  0x4fea	inc    	esi
  0x4fec	inc    	ebx
  === BLOCK LINK ===
    0x4fed
=== CODE BLOCK END ===

=== CODE BLOCK ADDRESS 0x4fed ===
  0x4fed	cmp    	byte ptr [eax + esi], al
  0x4ff0	jne    	0x4fe9
  === BLOCK LINK ===
    0x4ff2
=== CODE BLOCK END ===

=== CODE BLOCK ADDRESS 0x4ff2 ===
  0x4ff2	dec    	eax
  0x4ff3	mov    	edx, edi
  0x4ff5	dec    	esp
  0x4ff6	add    	esi, ebp
  0x4ff8	dec    	eax
  === BLOCK LINK ===
    0x4ff9
=== CODE BLOCK END ===

=== CODE BLOCK ADDRESS 0x4ff9 ===
  0x4ff9	sub    	edx, ebx
  0x4ffb	dec    	ecx
  0x4ffc	cmp    	edx, esi
  0x4ffe	jb     	0x501c
  === BLOCK LINK ===
    0x5000
=== CODE BLOCK END ===

=== CODE BLOCK ADDRESS 0x5000 ===
  0x5000	dec    	ebp
  0x5001	mov    	ecx, esi
  0x5003	dec    	eax
  0x5004	mov    	ecx, ebx
  0x5006	call   	0x5c04
  === BLOCK LINK ===
    0x500b
=== CODE BLOCK END ===

=== CODE BLOCK ADDRESS 0x500b ===
  0x500b	xor    	eax, eax
  0x500d	dec    	ebp
  0x500e	test   	edi, edi
  0x5010	je     	0x5015
  === BLOCK LINK ===
    0x5012
=== CODE BLOCK END ===

=== CODE BLOCK ADDRESS 0x5012 ===
  0x5012	dec    	ecx
  0x5013	mov    	dword ptr [edi], ebx
  0x5015	dec    	ecx
  0x5016	add    	ebx, esi
  0x5018	jmp    	0x5024
  === BLOCK LINK ===
    0x501a
=== CODE BLOCK END ===

=== CODE BLOCK ADDRESS 0x501a ===
  0x501a	xor    	eax, eax
  0x501c	dec    	ebp
  0x501d	test   	edi, edi
  0x501f	je     	0x5024
  === BLOCK LINK ===
    0x5021
=== CODE BLOCK END ===

=== CODE BLOCK ADDRESS 0x5021 ===
  0x5021	dec    	ecx
  0x5022	mov    	dword ptr [edi], eax
  0x5024	dec    	ebp
  0x5025	mov    	eax, dword ptr [ebp + 0x30]
  0x5028	dec    	ebp
  === BLOCK LINK ===
    0x5029
=== CODE BLOCK END ===

=== CODE BLOCK ADDRESS 0x5029 ===
  0x5029	lea    	edi, [esp + 0x30]
  0x502d	dec    	eax
  0x502e	cmp    	ebx, edi
  0x5030	je     	0x5070
  === BLOCK LINK ===
    0x5032
=== CODE BLOCK END ===

=== CODE BLOCK ADDRESS 0x5032 ===
  0x5032	dec    	ebp
  0x5033	test   	eax, eax
  0x5035	je     	0x5070
  === BLOCK LINK ===
    0x5037
=== CODE BLOCK END ===

=== CODE BLOCK ADDRESS 0x5037 ===
  0x5037	inc    	ecx
  0x5038	cmp    	byte ptr [eax], al
  0x503a	je     	0x5070
  === BLOCK LINK ===
    0x503c
=== CODE BLOCK END ===

=== CODE BLOCK ADDRESS 0x503c ===
  0x503c	dec    	esp
  0x503d	mov    	esi, esi
  0x503f	dec    	ecx
  0x5040	inc    	esi
  0x5042	inc    	ebx
  === BLOCK LINK ===
    0x5043
=== CODE BLOCK END ===

=== CODE BLOCK ADDRESS 0x5043 ===
  0x5043	cmp    	byte ptr [eax + esi], al
  0x5046	jne    	0x503f
  === BLOCK LINK ===
    0x5048
=== CODE BLOCK END ===

=== CODE BLOCK ADDRESS 0x5048 ===
  0x5048	dec    	eax
  0x5049	mov    	edx, edi
  0x504b	dec    	esp
  0x504c	add    	esi, ebp
  0x504e	dec    	eax
  === BLOCK LINK ===
    0x504f
=== CODE BLOCK END ===

=== CODE BLOCK ADDRESS 0x504f ===
  0x504f	sub    	edx, ebx
  0x5051	dec    	ecx
  0x5052	cmp    	edx, esi
  0x5054	jb     	0x5070
  === BLOCK LINK ===
    0x5056
=== CODE BLOCK END ===

=== CODE BLOCK ADDRESS 0x5056 ===
  0x5056	dec    	ebp
  0x5057	mov    	ecx, esi
  0x5059	dec    	eax
  0x505a	mov    	ecx, ebx
  0x505c	call   	0x5c04
  === BLOCK LINK ===
    0x5061
=== CODE BLOCK END ===

=== CODE BLOCK ADDRESS 0x5061 ===
  0x5061	xor    	eax, eax
  0x5063	dec    	ebp
  0x5064	test   	edi, edi
  0x5066	je     	0x506b
  === BLOCK LINK ===
    0x5068
=== CODE BLOCK END ===

=== CODE BLOCK ADDRESS 0x5068 ===
  0x5068	dec    	ecx
  0x5069	mov    	dword ptr [edi], ebx
  0x506b	dec    	ecx
  0x506c	add    	ebx, esi
  0x506e	jmp    	0x5078
  === BLOCK LINK ===
    0x5070
=== CODE BLOCK END ===

=== CODE BLOCK ADDRESS 0x5070 ===
  0x5070	dec    	ebp
  0x5071	test   	edi, edi
  0x5073	je     	0x5078
  === BLOCK LINK ===
    0x5075
=== CODE BLOCK END ===

=== CODE BLOCK ADDRESS 0x5075 ===
  0x5075	dec    	ecx
  0x5076	mov    	dword ptr [edi], eax
  0x5078	dec    	ebp
  0x5079	mov    	eax, dword ptr [ebp + 0x38]
  0x507c	dec    	ebp
  === BLOCK LINK ===
    0x507d
=== CODE BLOCK END ===

=== CODE BLOCK ADDRESS 0x507d ===
  0x507d	lea    	edi, [esp + 0x38]
  0x5081	dec    	eax
  0x5082	cmp    	ebx, edi
  0x5084	je     	0x50c4
  === BLOCK LINK ===
    0x5086
=== CODE BLOCK END ===

=== CODE BLOCK ADDRESS 0x5086 ===
  0x5086	dec    	ebp
  0x5087	test   	eax, eax
  0x5089	je     	0x50c4
  === BLOCK LINK ===
    0x508b
=== CODE BLOCK END ===

=== CODE BLOCK ADDRESS 0x508b ===
  0x508b	inc    	ecx
  0x508c	cmp    	byte ptr [eax], al
  0x508e	je     	0x50c4
  === BLOCK LINK ===
    0x5090
=== CODE BLOCK END ===

=== CODE BLOCK ADDRESS 0x5090 ===
  0x5090	dec    	esp
  0x5091	mov    	esi, esi
  0x5093	dec    	ecx
  0x5094	inc    	esi
  0x5096	inc    	ebx
  === BLOCK LINK ===
    0x5097
=== CODE BLOCK END ===

=== CODE BLOCK ADDRESS 0x5097 ===
  0x5097	cmp    	byte ptr [eax + esi], al
  0x509a	jne    	0x5093
  === BLOCK LINK ===
    0x509c
=== CODE BLOCK END ===

=== CODE BLOCK ADDRESS 0x509c ===
  0x509c	dec    	eax
  0x509d	mov    	edx, edi
  0x509f	dec    	esp
  0x50a0	add    	esi, ebp
  0x50a2	dec    	eax
  === BLOCK LINK ===
    0x50a3
=== CODE BLOCK END ===

=== CODE BLOCK ADDRESS 0x50a3 ===
  0x50a3	sub    	edx, ebx
  0x50a5	dec    	ecx
  0x50a6	cmp    	edx, esi
  0x50a8	jb     	0x50c4
  === BLOCK LINK ===
    0x50aa
=== CODE BLOCK END ===

=== CODE BLOCK ADDRESS 0x50aa ===
  0x50aa	dec    	ebp
  0x50ab	mov    	ecx, esi
  0x50ad	dec    	eax
  0x50ae	mov    	ecx, ebx
  0x50b0	call   	0x5c04
  === BLOCK LINK ===
    0x50b5
=== CODE BLOCK END ===

=== CODE BLOCK ADDRESS 0x50b5 ===
  0x50b5	xor    	eax, eax
  0x50b7	dec    	ebp
  0x50b8	test   	edi, edi
  0x50ba	je     	0x50bf
  === BLOCK LINK ===
    0x50bc
=== CODE BLOCK END ===

=== CODE BLOCK ADDRESS 0x50bc ===
  0x50bc	dec    	ecx
  0x50bd	mov    	dword ptr [edi], ebx
  0x50bf	dec    	ecx
  0x50c0	add    	ebx, esi
  0x50c2	jmp    	0x50cc
  === BLOCK LINK ===
    0x50c4
=== CODE BLOCK END ===

=== CODE BLOCK ADDRESS 0x50c4 ===
  0x50c4	dec    	ebp
  0x50c5	test   	edi, edi
  0x50c7	je     	0x50cc
  === BLOCK LINK ===
    0x50c9
=== CODE BLOCK END ===

=== CODE BLOCK ADDRESS 0x50c9 ===
  0x50c9	dec    	ecx
  0x50ca	mov    	dword ptr [edi], eax
  0x50cc	dec    	ebp
  0x50cd	mov    	eax, dword ptr [ebp + 0x48]
  0x50d0	dec    	ebp
  === BLOCK LINK ===
    0x50d1
=== CODE BLOCK END ===

=== CODE BLOCK ADDRESS 0x50d1 ===
  0x50d1	lea    	edi, [esp + 0x48]
  0x50d5	dec    	eax
  0x50d6	cmp    	ebx, edi
  0x50d8	je     	0x5118
  === BLOCK LINK ===
    0x50da
=== CODE BLOCK END ===

=== CODE BLOCK ADDRESS 0x50da ===
  0x50da	dec    	ebp
  0x50db	test   	eax, eax
  0x50dd	je     	0x5118
  === BLOCK LINK ===
    0x50df
=== CODE BLOCK END ===

=== CODE BLOCK ADDRESS 0x50df ===
  0x50df	inc    	ecx
  0x50e0	cmp    	byte ptr [eax], al
  0x50e2	je     	0x5118
  === BLOCK LINK ===
    0x50e4
=== CODE BLOCK END ===

=== CODE BLOCK ADDRESS 0x50e4 ===
  0x50e4	dec    	esp
  0x50e5	mov    	esi, esi
  0x50e7	dec    	ecx
  0x50e8	inc    	esi
  0x50ea	inc    	ebx
  === BLOCK LINK ===
    0x50eb
=== CODE BLOCK END ===

=== CODE BLOCK ADDRESS 0x50eb ===
  0x50eb	cmp    	byte ptr [eax + esi], al
  0x50ee	jne    	0x50e7
  === BLOCK LINK ===
    0x50f0
=== CODE BLOCK END ===

=== CODE BLOCK ADDRESS 0x50f0 ===
  0x50f0	dec    	eax
  0x50f1	mov    	edx, edi
  0x50f3	dec    	esp
  0x50f4	add    	esi, ebp
  0x50f6	dec    	eax
  === BLOCK LINK ===
    0x50f7
=== CODE BLOCK END ===

=== CODE BLOCK ADDRESS 0x50f7 ===
  0x50f7	sub    	edx, ebx
  0x50f9	dec    	ecx
  0x50fa	cmp    	edx, esi
  0x50fc	jb     	0x5118
  === BLOCK LINK ===
    0x50fe
=== CODE BLOCK END ===

=== CODE BLOCK ADDRESS 0x50fe ===
  0x50fe	dec    	ebp
  0x50ff	mov    	ecx, esi
  0x5101	dec    	eax
  0x5102	mov    	ecx, ebx
  0x5104	call   	0x5c04
  === BLOCK LINK ===
    0x5109
=== CODE BLOCK END ===

=== CODE BLOCK ADDRESS 0x5109 ===
  0x5109	xor    	eax, eax
  0x510b	dec    	ebp
  0x510c	test   	edi, edi
  0x510e	je     	0x5113
  === BLOCK LINK ===
    0x5110
=== CODE BLOCK END ===

=== CODE BLOCK ADDRESS 0x5110 ===
  0x5110	dec    	ecx
  0x5111	mov    	dword ptr [edi], ebx
  0x5113	dec    	ecx
  0x5114	add    	ebx, esi
  0x5116	jmp    	0x5120
  === BLOCK LINK ===
    0x5118
=== CODE BLOCK END ===

=== CODE BLOCK ADDRESS 0x5118 ===
  0x5118	dec    	ebp
  0x5119	test   	edi, edi
  0x511b	je     	0x5120
  === BLOCK LINK ===
    0x511d
=== CODE BLOCK END ===

=== CODE BLOCK ADDRESS 0x511d ===
  0x511d	dec    	ecx
  0x511e	mov    	dword ptr [edi], eax
  0x5120	dec    	ebp
  0x5121	mov    	eax, dword ptr [ebp + 0x80]
  0x5127	dec    	ebp
  === BLOCK LINK ===
    0x5128
=== CODE BLOCK END ===

=== CODE BLOCK ADDRESS 0x5128 ===
  0x5128	lea    	edi, [esp + 0x80]
  0x512f	dec    	eax
  0x5130	cmp    	ebx, edi
  0x5132	je     	0x5172
  === BLOCK LINK ===
    0x5134
=== CODE BLOCK END ===

=== CODE BLOCK ADDRESS 0x5134 ===
  0x5134	dec    	ebp
  0x5135	test   	eax, eax
  0x5137	je     	0x5172
  === BLOCK LINK ===
    0x5139
=== CODE BLOCK END ===

=== CODE BLOCK ADDRESS 0x5139 ===
  0x5139	inc    	ecx
  0x513a	cmp    	byte ptr [eax], al
  0x513c	je     	0x5172
  === BLOCK LINK ===
    0x513e
=== CODE BLOCK END ===

=== CODE BLOCK ADDRESS 0x513e ===
  0x513e	dec    	esp
  0x513f	mov    	esi, esi
  0x5141	dec    	ecx
  0x5142	inc    	esi
  0x5144	inc    	ebx
  === BLOCK LINK ===
    0x5145
=== CODE BLOCK END ===

=== CODE BLOCK ADDRESS 0x5145 ===
  0x5145	cmp    	byte ptr [eax + esi], al
  0x5148	jne    	0x5141
  === BLOCK LINK ===
    0x514a
=== CODE BLOCK END ===

=== CODE BLOCK ADDRESS 0x514a ===
  0x514a	dec    	eax
  0x514b	mov    	edx, edi
  0x514d	dec    	esp
  0x514e	add    	esi, ebp
  0x5150	dec    	eax
  === BLOCK LINK ===
    0x5151
=== CODE BLOCK END ===

=== CODE BLOCK ADDRESS 0x5151 ===
  0x5151	sub    	edx, ebx
  0x5153	dec    	ecx
  0x5154	cmp    	edx, esi
  0x5156	jb     	0x5172
  === BLOCK LINK ===
    0x5158
=== CODE BLOCK END ===

=== CODE BLOCK ADDRESS 0x5158 ===
  0x5158	dec    	ebp
  0x5159	mov    	ecx, esi
  0x515b	dec    	eax
  0x515c	mov    	ecx, ebx
  0x515e	call   	0x5c04
  === BLOCK LINK ===
    0x5163
=== CODE BLOCK END ===

=== CODE BLOCK ADDRESS 0x5163 ===
  0x5163	xor    	eax, eax
  0x5165	dec    	ebp
  0x5166	test   	edi, edi
  0x5168	je     	0x516d
  === BLOCK LINK ===
    0x516a
=== CODE BLOCK END ===

=== CODE BLOCK ADDRESS 0x516a ===
  0x516a	dec    	ecx
  0x516b	mov    	dword ptr [edi], ebx
  0x516d	dec    	ecx
  0x516e	add    	ebx, esi
  0x5170	jmp    	0x517a
  === BLOCK LINK ===
    0x5172
=== CODE BLOCK END ===

=== CODE BLOCK ADDRESS 0x5172 ===
  0x5172	dec    	ebp
  0x5173	test   	edi, edi
  0x5175	je     	0x517a
  === BLOCK LINK ===
    0x5177
=== CODE BLOCK END ===

=== CODE BLOCK ADDRESS 0x5177 ===
  0x5177	dec    	ecx
  0x5178	mov    	dword ptr [edi], eax
  0x517a	dec    	ebp
  0x517b	mov    	eax, dword ptr [ebp + 0x70]
  0x517e	dec    	ebp
  === BLOCK LINK ===
    0x517f
=== CODE BLOCK END ===

=== CODE BLOCK ADDRESS 0x517f ===
  0x517f	lea    	edi, [esp + 0x70]
  0x5183	dec    	eax
  0x5184	cmp    	ebx, edi
  0x5186	je     	0x51c4
  === BLOCK LINK ===
    0x5188
=== CODE BLOCK END ===

=== CODE BLOCK ADDRESS 0x5188 ===
  0x5188	dec    	ebp
  0x5189	test   	eax, eax
  0x518b	je     	0x51c4
  === BLOCK LINK ===
    0x518d
=== CODE BLOCK END ===

=== CODE BLOCK ADDRESS 0x518d ===
  0x518d	inc    	ecx
  0x518e	cmp    	byte ptr [eax], al
  0x5190	je     	0x51c4
  === BLOCK LINK ===
    0x5192
=== CODE BLOCK END ===

=== CODE BLOCK ADDRESS 0x5192 ===
  0x5192	dec    	esp
  0x5193	mov    	esi, esi
  0x5195	dec    	ecx
  0x5196	inc    	esi
  0x5198	inc    	ebx
  === BLOCK LINK ===
    0x5199
=== CODE BLOCK END ===

=== CODE BLOCK ADDRESS 0x5199 ===
  0x5199	cmp    	byte ptr [eax + esi], al
  0x519c	jne    	0x5195
  === BLOCK LINK ===
    0x519e
=== CODE BLOCK END ===

=== CODE BLOCK ADDRESS 0x519e ===
  0x519e	dec    	eax
  0x519f	mov    	edx, edi
  0x51a1	dec    	esp
  0x51a2	add    	esi, ebp
  0x51a4	dec    	eax
  === BLOCK LINK ===
    0x51a5
=== CODE BLOCK END ===

=== CODE BLOCK ADDRESS 0x51a5 ===
  0x51a5	sub    	edx, ebx
  0x51a7	dec    	ecx
  0x51a8	cmp    	edx, esi
  0x51aa	jb     	0x51c4
  === BLOCK LINK ===
    0x51ac
=== CODE BLOCK END ===

=== CODE BLOCK ADDRESS 0x51ac ===
  0x51ac	dec    	ebp
  0x51ad	mov    	ecx, esi
  0x51af	dec    	eax
  0x51b0	mov    	ecx, ebx
  0x51b2	call   	0x5c04
  === BLOCK LINK ===
    0x51b7
=== CODE BLOCK END ===

=== CODE BLOCK ADDRESS 0x51b7 ===
  0x51b7	dec    	ebp
  0x51b8	test   	edi, edi
  0x51ba	je     	0x51bf
  === BLOCK LINK ===
    0x51bc
=== CODE BLOCK END ===

=== CODE BLOCK ADDRESS 0x51bc ===
  0x51bc	dec    	ecx
  0x51bd	mov    	dword ptr [edi], ebx
  0x51bf	dec    	ecx
  0x51c0	add    	ebx, esi
  0x51c2	jmp    	0x51cc
  === BLOCK LINK ===
    0x51c4
=== CODE BLOCK END ===

=== CODE BLOCK ADDRESS 0x51c4 ===
  0x51c4	dec    	ebp
  0x51c5	test   	edi, edi
  0x51c7	je     	0x51cc
  === BLOCK LINK ===
    0x51c9
=== CODE BLOCK END ===

=== CODE BLOCK ADDRESS 0x51c9 ===
  0x51c9	dec    	ecx
  0x51ca	mov    	dword ptr [edi], eax
  0x51cc	dec    	ebp
  0x51cd	mov    	eax, dword ptr [ebp + 0x78]
  0x51d0	dec    	ebp
  === BLOCK LINK ===
    0x51d1
=== CODE BLOCK END ===

=== CODE BLOCK ADDRESS 0x51d1 ===
  0x51d1	lea    	ecx, [esp + 0x78]
  0x51d5	dec    	eax
  0x51d6	mov    	edx, edi
  0x51d8	dec    	eax
  0x51d9	mov    	ecx, ebx
  === BLOCK LINK ===
    0x51db
=== CODE BLOCK END ===

=== CODE BLOCK ADDRESS 0x51db ===
  0x51db	call   	0x2b04
  === BLOCK LINK ===
    0x51e0
=== CODE BLOCK END ===

=== CODE BLOCK ADDRESS 0x51e0 ===
  0x51e0	dec    	ebp
  0x51e1	mov    	eax, dword ptr [ebp + 0x58]
  0x51e4	dec    	ebp
  0x51e5	lea    	esi, [esp + 0x58]
  0x51e9	inc    	ebp
  === BLOCK LINK ===
    0x51ea
=== CODE BLOCK END ===

=== CODE BLOCK ADDRESS 0x51ea ===
  0x51ea	xor    	edi, edi
  0x51ec	dec    	eax
  0x51ed	mov    	ebx, eax
  0x51ef	dec    	eax
  0x51f0	cmp    	eax, edi
  === BLOCK LINK ===
    0x51f2
=== CODE BLOCK END ===

=== CODE BLOCK ADDRESS 0x51f2 ===
  0x51f2	je     	0x522d
  === BLOCK LINK ===
    0x51f4
=== CODE BLOCK END ===

=== CODE BLOCK ADDRESS 0x51f4 ===
  0x51f4	dec    	ebp
  0x51f5	test   	eax, eax
  0x51f7	je     	0x522d
  === BLOCK LINK ===
    0x51f9
=== CODE BLOCK END ===

=== CODE BLOCK ADDRESS 0x51f9 ===
  0x51f9	inc    	ebp
  0x51fa	cmp    	byte ptr [eax], bh
  0x51fc	je     	0x522d
  === BLOCK LINK ===
    0x51fe
=== CODE BLOCK END ===

=== CODE BLOCK ADDRESS 0x51fe ===
  0x51fe	dec    	eax
  0x51ff	inc    	esi
  0x5201	inc    	ebp
  0x5202	cmp    	byte ptr [eax + esi], bh
  0x5205	jne    	0x51fe
  === BLOCK LINK ===
    0x5207
=== CODE BLOCK END ===

=== CODE BLOCK ADDRESS 0x5207 ===
  0x5207	dec    	eax
  0x5208	mov    	edx, edi
  0x520a	dec    	eax
  0x520b	add    	esi, ebp
  0x520d	dec    	eax
  === BLOCK LINK ===
    0x520e
=== CODE BLOCK END ===

=== CODE BLOCK ADDRESS 0x520e ===
  0x520e	sub    	edx, ebx
  0x5210	dec    	eax
  0x5211	cmp    	edx, esi
  0x5213	jb     	0x522d
  === BLOCK LINK ===
    0x5215
=== CODE BLOCK END ===

=== CODE BLOCK ADDRESS 0x5215 ===
  0x5215	dec    	esp
  0x5216	mov    	ecx, esi
  0x5218	dec    	eax
  0x5219	mov    	ecx, ebx
  0x521b	call   	0x5c04
  === BLOCK LINK ===
    0x5220
=== CODE BLOCK END ===

=== CODE BLOCK ADDRESS 0x5220 ===
  0x5220	dec    	ebp
  0x5221	test   	esi, esi
  0x5223	je     	0x5228
  === BLOCK LINK ===
    0x5225
=== CODE BLOCK END ===

=== CODE BLOCK ADDRESS 0x5225 ===
  0x5225	dec    	ecx
  0x5226	mov    	dword ptr [esi], ebx
  0x5228	dec    	eax
  0x5229	add    	ebx, esi
  0x522b	jmp    	0x5235
  === BLOCK LINK ===
    0x522d
=== CODE BLOCK END ===

=== CODE BLOCK ADDRESS 0x522d ===
  0x522d	dec    	ebp
  0x522e	test   	esi, esi
  0x5230	je     	0x5235
  === BLOCK LINK ===
    0x5232
=== CODE BLOCK END ===

=== CODE BLOCK ADDRESS 0x5232 ===
  0x5232	dec    	ebp
  0x5233	mov    	dword ptr [esi], edi
  0x5235	dec    	ebp
  0x5236	mov    	eax, dword ptr [ebp + 0x60]
  0x5239	dec    	ebp
  === BLOCK LINK ===
    0x523a
=== CODE BLOCK END ===

=== CODE BLOCK ADDRESS 0x523a ===
  0x523a	lea    	ecx, [esp + 0x60]
  0x523e	dec    	eax
  0x523f	mov    	edx, edi
  0x5241	dec    	eax
  0x5242	mov    	ecx, ebx
  === BLOCK LINK ===
    0x5244
=== CODE BLOCK END ===

=== CODE BLOCK ADDRESS 0x5244 ===
  0x5244	call   	0x2b04
  === BLOCK LINK ===
    0x5249
=== CODE BLOCK END ===

=== CODE BLOCK ADDRESS 0x5249 ===
  0x5249	dec    	eax
  0x524a	sub    	edi, eax
  0x524c	xor    	edx, edx
  0x524e	dec    	esp
  0x524f	mov    	eax, edi
  === BLOCK LINK ===
    0x5251
=== CODE BLOCK END ===

=== CODE BLOCK ADDRESS 0x5251 ===
  0x5251	dec    	eax
  0x5252	mov    	ecx, eax
  0x5254	call   	0x1ee6
  === BLOCK LINK ===
    0x5259
=== CODE BLOCK END ===

=== CODE BLOCK ADDRESS 0x5259 ===
  0x5259	dec    	eax
  0x525a	mov    	ebx, dword ptr [esp + 0x58]
  0x525e	dec    	eax
  0x525f	mov    	ebp, dword ptr [esp + 0x60]
  0x5263	dec    	eax
  === BLOCK LINK ===
    0x5264
=== CODE BLOCK END ===

=== CODE BLOCK ADDRESS 0x5264 ===
  0x5264	mov    	esi, dword ptr [esp + 0x68]
  0x5268	dec    	eax
  0x5269	add    	esp, 0x20
  0x526c	inc    	ecx
  0x526d	pop    	edi
  === BLOCK LINK ===
    0x526e
=== CODE BLOCK END ===

=== CODE BLOCK ADDRESS 0x526e ===
  0x526e	inc    	ecx
  0x526f	pop    	esi
  0x5270	inc    	ecx
  0x5271	pop    	ebp
  0x5272	inc    	ecx
  === BLOCK LINK ===
    0x5273
=== CODE BLOCK END ===

=== CODE BLOCK ADDRESS 0x5273 ===
  0x5273	pop    	esp
  0x5274	pop    	edi
  0x5275	ret    	
  0x5276	int3   	
  0x5277	int3   	
  === BLOCK LINK ===
    0x5278
=== CODE BLOCK END ===

=== CODE BLOCK ADDRESS 0x5278 ===
  0x5278	dec    	eax
  0x5279	mov    	eax, esp
  0x527b	dec    	eax
  0x527c	mov    	dword ptr [eax + 8], ebx
  0x527f	dec    	eax
  === BLOCK LINK ===
    0x5280
=== CODE BLOCK END ===

=== CODE BLOCK ADDRESS 0x5280 ===
  0x5280	mov    	dword ptr [eax + 0x10], ebp
  0x5283	dec    	eax
  0x5284	mov    	dword ptr [eax + 0x18], esi
  0x5287	dec    	eax
  0x5288	mov    	dword ptr [eax + 0x20], edi
  === BLOCK LINK ===
    0x528b
=== CODE BLOCK END ===

=== CODE BLOCK ADDRESS 0x528b ===
  0x528b	inc    	ecx
  0x528c	push   	esp
  0x528d	inc    	ecx
  0x528e	push   	esi
  0x528f	inc    	ecx
  === BLOCK LINK ===
    0x5290
=== CODE BLOCK END ===

=== CODE BLOCK ADDRESS 0x5290 ===
  0x5290	push   	edi
  0x5291	dec    	eax
  0x5292	sub    	esp, 0x20
  0x5295	mov    	esi, dword ptr [ecx + 0x10]
  0x5298	inc    	ebp
  === BLOCK LINK ===
    0x5299
=== CODE BLOCK END ===

=== CODE BLOCK ADDRESS 0x5299 ===
  0x5299	xor    	edi, edi
  0x529b	dec    	esp
  0x529c	mov    	esi, edx
  0x529e	dec    	eax
  0x529f	mov    	edi, ecx
  === BLOCK LINK ===
    0x52a1
=== CODE BLOCK END ===

=== CODE BLOCK ADDRESS 0x52a1 ===
  0x52a1	inc    	ecx
  0x52a2	mov    	esp, 0x50
  0x52a7	dec    	esp
  0x52a8	cmp    	dword ptr [ecx + 0x18], edi
  0x52ab	jne    	0x531e
  === BLOCK LINK ===
    0x52ad
=== CODE BLOCK END ===

=== CODE BLOCK ADDRESS 0x52ad ===
  0x52ad	test   	esi, esi
  0x52af	je     	0x531e
  === BLOCK LINK ===
    0x52b1
=== CODE BLOCK END ===

=== CODE BLOCK ADDRESS 0x52b1 ===
  0x52b1	call   	dword ptr [0x1f51]
  === BLOCK LINK ===
    0x52b7
=== CODE BLOCK END ===

=== CODE BLOCK ADDRESS 0x52b7 ===
  0x52b7	inc    	ecx
  0x52b8	lea    	edx, [esp - 0x48]
  0x52bc	inc    	ecx
  0x52bd	mov    	eax, 0x190
  0x52c2	dec    	eax
  === BLOCK LINK ===
    0x52c3
=== CODE BLOCK END ===

=== CODE BLOCK ADDRESS 0x52c3 ===
  0x52c3	mov    	ecx, eax
  0x52c5	call   	dword ptr [0x1f2d]
  === BLOCK LINK ===
    0x52cb
=== CODE BLOCK END ===

=== CODE BLOCK ADDRESS 0x52cb ===
  0x52cb	dec    	eax
  0x52cc	mov    	ebp, dword ptr [0x5496]
  0x52d2	dec    	eax
  0x52d3	mov    	ebx, eax
  0x52d5	dec    	eax
  === BLOCK LINK ===
    0x52d6
=== CODE BLOCK END ===

=== CODE BLOCK ADDRESS 0x52d6 ===
  0x52d6	test   	ebp, ebp
  0x52d8	je     	0x52f9
  === BLOCK LINK ===
    0x52da
=== CODE BLOCK END ===

=== CODE BLOCK ADDRESS 0x52da ===
  0x52da	call   	dword ptr [0x1f28]
  === BLOCK LINK ===
    0x52e0
=== CODE BLOCK END ===

=== CODE BLOCK ADDRESS 0x52e0 ===
  0x52e0	dec    	eax
  0x52e1	mov    	ecx, eax
  0x52e3	dec    	ecx
  0x52e4	mov    	edx, 0x1e57bb70
  0x52e9	ret    	
  === BLOCK LINK ===
    0x52ea
=== CODE BLOCK END ===

=== CODE BLOCK ADDRESS 0x52ea ===
  0x52ea	xchg   	eax, edi
  0x52eb	in     	al, 0xaf
  0x52ed	dec    	eax
  0x52ee	mov    	edx, ebx
  0x52f0	dec    	eax
  === BLOCK LINK ===
    0x52f1
=== CODE BLOCK END ===

=== CODE BLOCK ADDRESS 0x52f1 ===
  0x52f1	mov    	eax, ebp
  0x52f3	call   	dword ptr [0x219f]
  === BLOCK LINK ===
    0x52f9
=== CODE BLOCK END ===

=== CODE BLOCK ADDRESS 0x52f9 ===
  0x52f9	dec    	eax
  0x52fa	mov    	dword ptr [edi + 0x18], ebx
  0x52fd	dec    	eax
  0x52fe	test   	ebx, ebx
  0x5300	je     	0x531e
  === BLOCK LINK ===
    0x5302
=== CODE BLOCK END ===

=== CODE BLOCK ADDRESS 0x5302 ===
  0x5302	mov    	dword ptr [edi + 0x20], 5
  0x5309	dec    	eax
  0x530a	lea    	eax, [ebx + 0x190]
  0x5310	jmp    	0x5319
  === BLOCK LINK ===
    0x5312
=== CODE BLOCK END ===

=== CODE BLOCK ADDRESS 0x5312 ===
  0x5312	inc    	sp
  0x5314	mov    	dword ptr [ebx], esp
  0x5316	dec    	ecx
  0x5317	add    	ebx, esp
  0x5319	dec    	eax
  === BLOCK LINK ===
    0x531a
=== CODE BLOCK END ===

=== CODE BLOCK ADDRESS 0x531a ===
  0x531a	cmp    	ebx, eax
  0x531c	jne    	0x5312
  === BLOCK LINK ===
    0x531e
=== CODE BLOCK END ===

=== CODE BLOCK ADDRESS 0x531e ===
  0x531e	dec    	esp
  0x531f	mov    	eax, dword ptr [edi + 0x18]
  0x5322	dec    	ebp
  0x5323	test   	eax, eax
  0x5325	je     	0x539b
  === BLOCK LINK ===
    0x5327
=== CODE BLOCK END ===

=== CODE BLOCK ADDRESS 0x5327 ===
  0x5327	test   	esi, esi
  0x5329	je     	0x5361
  === BLOCK LINK ===
    0x532b
=== CODE BLOCK END ===

=== CODE BLOCK ADDRESS 0x532b ===
  0x532b	movzx  	eax, word ptr [edi + 0x20]
  0x532f	dec    	eax
  0x5330	lea    	ecx, [eax + eax*4]
  0x5333	dec    	eax
  0x5334	shl    	ecx, 4
  === BLOCK LINK ===
    0x5337
=== CODE BLOCK END ===

=== CODE BLOCK ADDRESS 0x5337 ===
  0x5337	dec    	ecx
  0x5338	add    	ecx, eax
  0x533a	dec    	esp
  0x533b	cmp    	eax, ecx
  0x533d	je     	0x5361
  === BLOCK LINK ===
    0x533f
=== CODE BLOCK END ===

=== CODE BLOCK ADDRESS 0x533f ===
  0x533f	inc    	esp
  0x5340	mov    	ecx, dword ptr [edi + 0x10]
  0x5343	dec    	ecx
  0x5344	lea    	edx, [eax + 8]
  0x5347	inc    	esp
  === BLOCK LINK ===
    0x5348
=== CODE BLOCK END ===

=== CODE BLOCK ADDRESS 0x5348 ===
  0x5348	cmp    	dword ptr [edx - 4], ecx
  0x534b	jbe    	0x5355
  === BLOCK LINK ===
    0x534d
=== CODE BLOCK END ===

=== CODE BLOCK ADDRESS 0x534d ===
  0x534d	inc    	ecx
  0x534e	mov    	eax, dword ptr [esi + 8]
  0x5351	cmp    	dword ptr [edx], eax
  0x5353	je     	0x539b
  === BLOCK LINK ===
    0x5355
=== CODE BLOCK END ===

=== CODE BLOCK ADDRESS 0x5355 ===
  0x5355	dec    	ecx
  0x5356	add    	edx, esp
  0x5358	dec    	eax
  0x5359	lea    	eax, [edx - 8]
  0x535c	dec    	eax
  === BLOCK LINK ===
    0x535d
=== CODE BLOCK END ===

=== CODE BLOCK ADDRESS 0x535d ===
  0x535d	cmp    	eax, ecx
  0x535f	jne    	0x5347
  === BLOCK LINK ===
    0x5361
=== CODE BLOCK END ===

=== CODE BLOCK ADDRESS 0x5361 ===
  0x5361	movzx  	eax, word ptr [edi + 0x22]
  0x5365	xor    	edx, edx
  0x5367	movzx  	ecx, word ptr [edi + 0x20]
  0x536b	inc    	eax
  0x536d	div    	ecx
  === BLOCK LINK ===
    0x536f
=== CODE BLOCK END ===

=== CODE BLOCK ADDRESS 0x536f ===
  0x536f	movzx  	eax, dx
  0x5372	mov    	word ptr [edi + 0x22], dx
  0x5376	dec    	eax
  0x5377	lea    	ecx, [eax + eax*4]
  0x537a	dec    	eax
  === BLOCK LINK ===
    0x537b
=== CODE BLOCK END ===

=== CODE BLOCK ADDRESS 0x537b ===
  0x537b	mov    	eax, dword ptr [edi + 8]
  0x537e	dec    	eax
  0x537f	shl    	ecx, 4
  0x5382	dec    	ecx
  0x5383	add    	ecx, eax
  === BLOCK LINK ===
    0x5385
=== CODE BLOCK END ===

=== CODE BLOCK ADDRESS 0x5385 ===
  0x5385	inc    	ecx
  0x5386	mov    	eax, 1
  0x538b	.byte  	0xf0
  0x538c	inc    	esp
  0x538d	xadd   	dword ptr [eax], eax
  === BLOCK LINK ===
    0x5390
=== CODE BLOCK END ===

=== CODE BLOCK ADDRESS 0x5390 ===
  0x5390	inc    	ecx
  0x5391	inc    	eax
  0x5393	dec    	ecx
  0x5394	mov    	edx, esi
  0x5396	call   	0x4b14
  === BLOCK LINK ===
    0x539b
=== CODE BLOCK END ===

=== CODE BLOCK ADDRESS 0x539b ===
  0x539b	dec    	eax
  0x539c	mov    	ebx, dword ptr [esp + 0x40]
  0x53a0	dec    	eax
  0x53a1	mov    	ebp, dword ptr [esp + 0x48]
  0x53a5	dec    	eax
  === BLOCK LINK ===
    0x53a6
=== CODE BLOCK END ===

=== CODE BLOCK ADDRESS 0x53a6 ===
  0x53a6	mov    	esi, dword ptr [esp + 0x50]
  0x53aa	dec    	eax
  0x53ab	mov    	edi, dword ptr [esp + 0x58]
  0x53af	dec    	eax
  0x53b0	add    	esp, 0x20
  === BLOCK LINK ===
    0x53b3
=== CODE BLOCK END ===

=== CODE BLOCK ADDRESS 0x53b3 ===
  0x53b3	inc    	ecx
  0x53b4	pop    	edi
  0x53b5	inc    	ecx
  0x53b6	pop    	esi
  0x53b7	inc    	ecx
  === BLOCK LINK ===
    0x53b8
=== CODE BLOCK END ===

=== CODE BLOCK ADDRESS 0x53b8 ===
  0x53b8	pop    	esp
  0x53b9	ret    	
  0x53ba	int3   	
  0x53bb	int3   	
  0x53bc	dec    	eax
  === BLOCK LINK ===
    0x53bd
=== CODE BLOCK END ===

=== CODE BLOCK ADDRESS 0x53bd ===
  0x53bd	mov    	dword ptr [esp + 8], ebx
  0x53c1	mov    	edx, 0x104
  0x53c6	dec    	ebp
  0x53c7	mov    	edx, eax
  0x53c9	inc    	esp
  === BLOCK LINK ===
    0x53ca
=== CODE BLOCK END ===

=== CODE BLOCK ADDRESS 0x53ca ===
  0x53ca	mov    	ecx, edx
  0x53cc	dec    	esp
  0x53cd	mov    	ebx, ecx
  0x53cf	dec    	eax
  0x53d0	mov    	eax, ecx
  === BLOCK LINK ===
    0x53d2
=== CODE BLOCK END ===

=== CODE BLOCK ADDRESS 0x53d2 ===
  0x53d2	xor    	ebx, ebx
  0x53d4	cmp    	word ptr [eax], bx
  0x53d7	je     	0x53e3
  === BLOCK LINK ===
    0x53d9
=== CODE BLOCK END ===

=== CODE BLOCK ADDRESS 0x53d9 ===
  0x53d9	dec    	eax
  0x53da	add    	eax, 2
  0x53dd	dec    	ecx
  0x53de	sub    	ecx, 1
  0x53e1	jne    	0x53d4
  === BLOCK LINK ===
    0x53e3
=== CODE BLOCK END ===

=== CODE BLOCK ADDRESS 0x53e3 ===
  0x53e3	dec    	eax
  0x53e4	mov    	ecx, edx
  0x53e6	dec    	ecx
  0x53e7	mov    	eax, ecx
  0x53e9	dec    	ecx
  === BLOCK LINK ===
    0x53ea
=== CODE BLOCK END ===

=== CODE BLOCK ADDRESS 0x53ea ===
  0x53ea	sub    	ecx, ecx
  0x53ec	dec    	eax
  0x53ed	neg    	eax
  0x53ef	dec    	ecx
  0x53f0	mov    	eax, ecx
  === BLOCK LINK ===
    0x53f2
=== CODE BLOCK END ===

=== CODE BLOCK ADDRESS 0x53f2 ===
  0x53f2	dec    	ebp
  0x53f3	sbb    	eax, eax
  0x53f5	dec    	esp
  0x53f6	and    	eax, ecx
  0x53f8	dec    	eax
  === BLOCK LINK ===
    0x53f9
=== CODE BLOCK END ===

=== CODE BLOCK ADDRESS 0x53f9 ===
  0x53f9	neg    	eax
  0x53fb	sbb    	eax, eax
  0x53fd	not    	eax
  0x53ff	and    	eax, 0x80070057
  0x5404	dec    	ebp
  === BLOCK LINK ===
    0x5405
=== CODE BLOCK END ===

=== CODE BLOCK ADDRESS 0x5405 ===
  0x5405	test   	ecx, ecx
  0x5407	je     	0x5455
  === BLOCK LINK ===
    0x5409
=== CODE BLOCK END ===

=== CODE BLOCK ADDRESS 0x5409 ===
  0x5409	dec    	ebx
  0x540a	lea    	ecx, [ebx + eax*2]
  0x540d	dec    	ecx
  0x540e	sub    	edx, eax
  0x5410	je     	0x543b
  === BLOCK LINK ===
    0x5412
=== CODE BLOCK END ===

=== CODE BLOCK ADDRESS 0x5412 ===
  0x5412	mov    	eax, 0x7ffffffe
  0x5417	dec    	esp
  0x5418	sub    	edx, ecx
  0x541a	dec    	eax
  0x541b	test   	eax, eax
  === BLOCK LINK ===
    0x541d
=== CODE BLOCK END ===

=== CODE BLOCK ADDRESS 0x541d ===
  0x541d	je     	0x543b
  === BLOCK LINK ===
    0x541f
=== CODE BLOCK END ===

=== CODE BLOCK ADDRESS 0x541f ===
  0x541f	inc    	ebp
  0x5420	movzx  	eax, word ptr [edx + ecx]
  0x5424	inc    	bp
  0x5426	test   	eax, eax
  0x5428	je     	0x543b
  === BLOCK LINK ===
    0x542a
=== CODE BLOCK END ===

=== CODE BLOCK ADDRESS 0x542a ===
  0x542a	inc    	sp
  0x542c	mov    	dword ptr [ecx], eax
  0x542e	dec    	eax
  0x542f	dec    	eax
  0x5431	dec    	eax
  === BLOCK LINK ===
    0x5432
=== CODE BLOCK END ===

=== CODE BLOCK ADDRESS 0x5432 ===
  0x5432	add    	ecx, 2
  0x5435	dec    	eax
  0x5436	sub    	edx, 1
  0x5439	jne    	0x541a
  === BLOCK LINK ===
    0x543b
=== CODE BLOCK END ===

=== CODE BLOCK ADDRESS 0x543b ===
  0x543b	dec    	eax
  0x543c	test   	edx, edx
  0x543e	dec    	eax
  0x543f	lea    	eax, [ecx - 2]
  0x5442	dec    	eax
  === BLOCK LINK ===
    0x5443
=== CODE BLOCK END ===

=== CODE BLOCK ADDRESS 0x5443 ===
  0x5443	cmovne  	eax, ecx
  0x5446	dec    	eax
  0x5447	neg    	edx
  0x5449	mov    	word ptr [eax], bx
  0x544c	sbb    	eax, eax
  === BLOCK LINK ===
    0x544e
=== CODE BLOCK END ===

=== CODE BLOCK ADDRESS 0x544e ===
  0x544e	not    	eax
  0x5450	and    	eax, 0x8007007a
  0x5455	dec    	eax
  0x5456	mov    	ebx, dword ptr [esp + 8]
  0x545a	ret    	
  === BLOCK LINK ===
    0x545b
=== CODE BLOCK END ===

=== CODE BLOCK ADDRESS 0x545b ===
  0x545b	int3   	
  0x545c	dec    	esp
  0x545d	mov    	dword ptr [esp + 0x18], eax
  0x5461	dec    	esp
  0x5462	mov    	dword ptr [esp + 0x20], ecx
  === BLOCK LINK ===
    0x5466
=== CODE BLOCK END ===

=== CODE BLOCK ADDRESS 0x5466 ===
  0x5466	push   	ebx
  0x5467	push   	esi
  0x5468	push   	edi
  0x5469	dec    	eax
  0x546a	sub    	esp, 0x30
  === BLOCK LINK ===
    0x546d
=== CODE BLOCK END ===

=== CODE BLOCK ADDRESS 0x546d ===
  0x546d	dec    	eax
  0x546e	lea    	eax, [edx - 1]
  0x5471	dec    	eax
  0x5472	mov    	esi, ecx
  0x5474	dec    	eax
  === BLOCK LINK ===
    0x5475
=== CODE BLOCK END ===

=== CODE BLOCK ADDRESS 0x5475 ===
  0x5475	cmp    	eax, 0x7ffffffe
  0x547a	jbe    	0x548b
  === BLOCK LINK ===
    0x547c
=== CODE BLOCK END ===

=== CODE BLOCK ADDRESS 0x547c ===
  0x547c	mov    	ebx, 0x80070057
  0x5481	dec    	eax
  0x5482	test   	edx, edx
  0x5484	je     	0x54c0
  === BLOCK LINK ===
    0x5486
=== CODE BLOCK END ===

=== CODE BLOCK ADDRESS 0x5486 ===
  0x5486	mov    	byte ptr [ecx], 0
  0x5489	jmp    	0x54c0
  === BLOCK LINK ===
    0x548b
=== CODE BLOCK END ===

=== CODE BLOCK ADDRESS 0x548b ===
  0x548b	dec    	eax
  0x548c	lea    	edi, [edx - 1]
  0x548f	dec    	ebp
  0x5490	mov    	ecx, eax
  0x5492	dec    	eax
  === BLOCK LINK ===
    0x5493
=== CODE BLOCK END ===

=== CODE BLOCK ADDRESS 0x5493 ===
  0x5493	lea    	eax, [esp + 0x68]
  0x5497	dec    	esp
  0x5498	mov    	eax, edi
  0x549a	xor    	ebx, ebx
  0x549c	dec    	eax
  === BLOCK LINK ===
    0x549d
=== CODE BLOCK END ===

=== CODE BLOCK ADDRESS 0x549d ===
  0x549d	mov    	dword ptr [esp + 0x20], eax
  0x54a1	call   	0x1fa4
  === BLOCK LINK ===
    0x54a6
=== CODE BLOCK END ===

=== CODE BLOCK ADDRESS 0x54a6 ===
  0x54a6	test   	eax, eax
  0x54a8	js     	0x54b8
  === BLOCK LINK ===
    0x54aa
=== CODE BLOCK END ===

=== CODE BLOCK ADDRESS 0x54aa ===
  0x54aa	dec    	eax
  0x54ab	cwde   	
  0x54ac	dec    	eax
  0x54ad	cmp    	eax, edi
  0x54af	ja     	0x54b8
  === BLOCK LINK ===
    0x54b1
=== CODE BLOCK END ===

=== CODE BLOCK ADDRESS 0x54b1 ===
  0x54b1	jne    	0x54c0
  === BLOCK LINK ===
    0x54b3
=== CODE BLOCK END ===

=== CODE BLOCK ADDRESS 0x54b3 ===
  0x54b3	mov    	byte ptr [edi + esi], bl
  0x54b6	jmp    	0x54c0
  === BLOCK LINK ===
    0x54b8
=== CODE BLOCK END ===

=== CODE BLOCK ADDRESS 0x54b8 ===
  0x54b8	mov    	byte ptr [edi + esi], bl
  0x54bb	mov    	ebx, 0x8007007a
  0x54c0	mov    	eax, ebx
  0x54c2	dec    	eax
  0x54c3	add    	esp, 0x30
  === BLOCK LINK ===
    0x54c6
=== CODE BLOCK END ===

=== CODE BLOCK ADDRESS 0x54c6 ===
  0x54c6	pop    	edi
  0x54c7	pop    	esi
  0x54c8	pop    	ebx
  0x54c9	ret    	
  0x54ca	int3   	
  === BLOCK LINK ===
    0x54cb
=== CODE BLOCK END ===

=== CODE BLOCK ADDRESS 0x54cb ===
  0x54cb	int3   	
  0x54cc	dec    	esp
  0x54cd	mov    	dword ptr [esp + 0x18], eax
  0x54d1	dec    	esp
  0x54d2	mov    	dword ptr [esp + 0x20], ecx
  === BLOCK LINK ===
    0x54d6
=== CODE BLOCK END ===

=== CODE BLOCK ADDRESS 0x54d6 ===
  0x54d6	push   	ebx
  0x54d7	push   	esi
  0x54d8	push   	edi
  0x54d9	inc    	ecx
  0x54da	push   	esi
  === BLOCK LINK ===
    0x54db
=== CODE BLOCK END ===

=== CODE BLOCK ADDRESS 0x54db ===
  0x54db	dec    	eax
  0x54dc	sub    	esp, 0x28
  0x54df	dec    	eax
  0x54e0	lea    	eax, [edx - 1]
  0x54e3	xor    	ebx, ebx
  === BLOCK LINK ===
    0x54e5
=== CODE BLOCK END ===

=== CODE BLOCK ADDRESS 0x54e5 ===
  0x54e5	dec    	esp
  0x54e6	mov    	esi, ecx
  0x54e8	dec    	eax
  0x54e9	cmp    	eax, 0x7ffffffe
  0x54ee	jbe    	0x54ff
  === BLOCK LINK ===
    0x54f0
=== CODE BLOCK END ===

=== CODE BLOCK ADDRESS 0x54f0 ===
  0x54f0	mov    	edi, 0x80070057
  0x54f5	dec    	eax
  0x54f6	test   	edx, edx
  0x54f8	je     	0x552b
  === BLOCK LINK ===
    0x54fa
=== CODE BLOCK END ===

=== CODE BLOCK ADDRESS 0x54fa ===
  0x54fa	mov    	word ptr [ecx], bx
  0x54fd	jmp    	0x552b
  === BLOCK LINK ===
    0x54ff
=== CODE BLOCK END ===

=== CODE BLOCK ADDRESS 0x54ff ===
  0x54ff	dec    	eax
  0x5500	lea    	esi, [edx - 1]
  0x5503	mov    	edi, ebx
  0x5505	dec    	eax
  0x5506	mov    	edx, esi
  === BLOCK LINK ===
    0x5508
=== CODE BLOCK END ===

=== CODE BLOCK ADDRESS 0x5508 ===
  0x5508	dec    	esp
  0x5509	lea    	ecx, [esp + 0x68]
  0x550d	call   	0x1eec
  === BLOCK LINK ===
    0x5512
=== CODE BLOCK END ===

=== CODE BLOCK ADDRESS 0x5512 ===
  0x5512	test   	eax, eax
  0x5514	js     	0x5521
  === BLOCK LINK ===
    0x5516
=== CODE BLOCK END ===

=== CODE BLOCK ADDRESS 0x5516 ===
  0x5516	dec    	eax
  0x5517	cwde   	
  0x5518	dec    	eax
  0x5519	cmp    	eax, esi
  0x551b	ja     	0x5521
  === BLOCK LINK ===
    0x551d
=== CODE BLOCK END ===

=== CODE BLOCK ADDRESS 0x551d ===
  0x551d	jne    	0x552b
  === BLOCK LINK ===
    0x551f
=== CODE BLOCK END ===

=== CODE BLOCK ADDRESS 0x551f ===
  0x551f	jmp    	0x5526
  === BLOCK LINK ===
    0x5521
=== CODE BLOCK END ===

=== CODE BLOCK ADDRESS 0x5521 ===
  0x5521	mov    	edi, 0x8007007a
  0x5526	inc    	cx
  0x5528	mov    	dword ptr [esi + esi*2], ebx
  0x552b	mov    	eax, edi
  0x552d	dec    	eax
  === BLOCK LINK ===
    0x552e
=== CODE BLOCK END ===

=== CODE BLOCK ADDRESS 0x552e ===
  0x552e	add    	esp, 0x28
  0x5531	inc    	ecx
  0x5532	pop    	esi
  0x5533	pop    	edi
  0x5534	pop    	esi
  === BLOCK LINK ===
    0x5535
=== CODE BLOCK END ===

=== CODE BLOCK ADDRESS 0x5535 ===
  0x5535	pop    	ebx
  0x5536	ret    	
  0x5537	int3   	
  0x5538	jno    	0x54c4
  === BLOCK LINK ===
    0x553a
=== CODE BLOCK END ===

=== CODE BLOCK ADDRESS 0x553a ===
  0x553a	sar    	dword ptr [edx + ecx*4], 1
  0x553d	mov    	edi, 0x8148b398
  0x5542	in     	al, dx
  0x5543	clc    	
  0x5544	add    	byte ptr [eax], al
  === BLOCK LINK ===
    0x5546
=== CODE BLOCK END ===

=== CODE BLOCK ADDRESS 0x5546 ===
  0x5546	add    	byte ptr [eax - 0x75], cl
  0x5549	ror    	dword ptr [eax - 0x73], 1
  0x554c	dec    	esp
  0x554d	and    	al, 0x20
  0x554f	call   	0x2b84
  === BLOCK LINK ===
    0x5554
=== CODE BLOCK END ===

=== CODE BLOCK ADDRESS 0x5554 ===
  0x5554	dec    	eax
  0x5555	lea    	edx, [0x342d]
  0x555b	dec    	eax
  0x555c	lea    	ecx, [esp + 0x20]
  0x5560	call   	0x615e
  === BLOCK LINK ===
    0x5565
=== CODE BLOCK END ===

=== CODE BLOCK ADDRESS 0x5565 ===
  0x5565	int3   	
  0x5566	int3   	
  0x5567	int3   	
  0x5568	dec    	eax
  0x5569	mov    	eax, esp
  === BLOCK LINK ===
    0x556b
=== CODE BLOCK END ===

=== CODE BLOCK ADDRESS 0x556b ===
  0x556b	dec    	eax
  0x556c	mov    	dword ptr [eax + 8], ebx
  0x556f	dec    	eax
  0x5570	mov    	dword ptr [eax + 0x10], esi
  0x5573	dec    	eax
  === BLOCK LINK ===
    0x5574
=== CODE BLOCK END ===

=== CODE BLOCK ADDRESS 0x5574 ===
  0x5574	mov    	dword ptr [eax + 0x20], edi
  0x5577	push   	ebp
  0x5578	inc    	ecx
  0x5579	push   	esi
  0x557a	inc    	ecx
  === BLOCK LINK ===
    0x557b
=== CODE BLOCK END ===

=== CODE BLOCK ADDRESS 0x557b ===
  0x557b	push   	edi
  0x557c	dec    	eax
  0x557d	lea    	ebp, [eax - 0x168]
  0x5583	dec    	eax
  0x5584	sub    	esp, 0x250
  === BLOCK LINK ===
    0x558a
=== CODE BLOCK END ===

=== CODE BLOCK ADDRESS 0x558a ===
  0x558a	dec    	eax
  0x558b	mov    	eax, dword ptr [0x4aff]
  0x5591	dec    	eax
  0x5592	xor    	eax, esp
  0x5594	dec    	eax
  === BLOCK LINK ===
    0x5595
=== CODE BLOCK END ===

=== CODE BLOCK ADDRESS 0x5595 ===
  0x5595	mov    	dword ptr [ebp + 0x140], eax
  0x559b	inc    	ebp
  0x559c	xor    	edi, edi
  0x559e	dec    	eax
  0x559f	lea    	eax, [esp + 0x30]
  === BLOCK LINK ===
    0x55a3
=== CODE BLOCK END ===

=== CODE BLOCK ADDRESS 0x55a3 ===
  0x55a3	dec    	ebp
  0x55a4	mov    	dword ptr [eax], edi
  0x55a6	dec    	eax
  0x55a7	lea    	edx, [esp + 0x30]
  0x55ab	dec    	eax
  === BLOCK LINK ===
    0x55ac
=== CODE BLOCK END ===

=== CODE BLOCK ADDRESS 0x55ac ===
  0x55ac	sub    	ecx, eax
  0x55ae	dec    	ebp
  0x55af	mov    	esi, eax
  0x55b1	inc    	ecx
  0x55b2	mov    	ecx, 0x104
  === BLOCK LINK ===
    0x55b7
=== CODE BLOCK END ===

=== CODE BLOCK ADDRESS 0x55b7 ===
  0x55b7	dec    	ecx
  0x55b8	lea    	eax, [ecx + 0x7ffffefa]
  0x55be	dec    	eax
  0x55bf	test   	eax, eax
  0x55c1	je     	0x55d9
  === BLOCK LINK ===
    0x55c3
=== CODE BLOCK END ===

=== CODE BLOCK ADDRESS 0x55c3 ===
  0x55c3	movzx  	eax, word ptr [ecx + edx]
  0x55c7	test   	ax, ax
  0x55ca	je     	0x55d9
  === BLOCK LINK ===
    0x55cc
=== CODE BLOCK END ===

=== CODE BLOCK ADDRESS 0x55cc ===
  0x55cc	mov    	word ptr [edx], ax
  0x55cf	dec    	eax
  0x55d0	add    	edx, 2
  0x55d3	dec    	ecx
  0x55d4	sub    	ecx, 1
  === BLOCK LINK ===
    0x55d7
=== CODE BLOCK END ===

=== CODE BLOCK ADDRESS 0x55d7 ===
  0x55d7	jne    	0x55b7
  === BLOCK LINK ===
    0x55d9
=== CODE BLOCK END ===

=== CODE BLOCK ADDRESS 0x55d9 ===
  0x55d9	dec    	ebp
  0x55da	test   	ecx, ecx
  0x55dc	dec    	eax
  0x55dd	lea    	eax, [edx - 2]
  0x55e0	dec    	esp
  === BLOCK LINK ===
    0x55e1
=== CODE BLOCK END ===

=== CODE BLOCK ADDRESS 0x55e1 ===
  0x55e1	lea    	eax, [0x22a9]
  0x55e7	dec    	eax
  0x55e8	cmovne  	eax, edx
  0x55eb	dec    	eax
  0x55ec	lea    	ecx, [esp + 0x30]
  === BLOCK LINK ===
    0x55f0
=== CODE BLOCK END ===

=== CODE BLOCK ADDRESS 0x55f0 ===
  0x55f0	inc    	sp
  0x55f2	mov    	dword ptr [eax], edi
  0x55f4	call   	0x53bc
  === BLOCK LINK ===
    0x55f9
=== CODE BLOCK END ===

=== CODE BLOCK ADDRESS 0x55f9 ===
  0x55f9	mov    	esi, 0x1f0003
  0x55fe	dec    	esp
  0x55ff	lea    	eax, [esp + 0x30]
  0x5603	mov    	ecx, esi
  0x5605	xor    	edx, edx
  === BLOCK LINK ===
    0x5607
=== CODE BLOCK END ===

=== CODE BLOCK ADDRESS 0x5607 ===
  0x5607	call   	dword ptr [0x1cdb]
  === BLOCK LINK ===
    0x560d
=== CODE BLOCK END ===

=== CODE BLOCK ADDRESS 0x560d ===
  0x560d	dec    	eax
  0x560e	mov    	ebx, eax
  0x5610	dec    	eax
  0x5611	test   	eax, eax
  0x5613	je     	0x5750
  === BLOCK LINK ===
    0x5619
=== CODE BLOCK END ===

=== CODE BLOCK ADDRESS 0x5619 ===
  0x5619	dec    	eax
  0x561a	lea    	edx, [esp + 0x24]
  0x561e	inc    	esp
  0x561f	mov    	dword ptr [esp + 0x24], edi
  0x5623	dec    	eax
  === BLOCK LINK ===
    0x5624
=== CODE BLOCK END ===

=== CODE BLOCK ADDRESS 0x5624 ===
  0x5624	mov    	ecx, eax
  0x5626	inc    	esp
  0x5627	mov    	dword ptr [esp + 0x20], edi
  0x562b	call   	0x3ca4
  === BLOCK LINK ===
    0x5630
=== CODE BLOCK END ===

=== CODE BLOCK ADDRESS 0x5630 ===
  0x5630	mov    	edi, eax
  0x5632	test   	eax, eax
  0x5634	jns    	0x5669
  === BLOCK LINK ===
    0x5636
=== CODE BLOCK END ===

=== CODE BLOCK ADDRESS 0x5636 ===
  0x5636	dec    	eax
  0x5637	mov    	ecx, dword ptr [ebp + 0x168]
  0x563d	dec    	esp
  0x563e	lea    	eax, [0x2198]
  0x5644	inc    	esp
  === BLOCK LINK ===
    0x5645
=== CODE BLOCK END ===

=== CODE BLOCK ADDRESS 0x5645 ===
  0x5645	mov    	ecx, eax
  0x5647	mov    	edx, 0xcf
  0x564c	call   	0x4994
  === BLOCK LINK ===
    0x5651
=== CODE BLOCK END ===

=== CODE BLOCK ADDRESS 0x5651 ===
  0x5651	dec    	eax
  0x5652	mov    	ecx, ebx
  0x5654	call   	dword ptr [0x1b8e]
  === BLOCK LINK ===
    0x565a
=== CODE BLOCK END ===

=== CODE BLOCK ADDRESS 0x565a ===
  0x565a	test   	eax, eax
  0x565c	je     	0x57d9
  === BLOCK LINK ===
    0x5662
=== CODE BLOCK END ===

=== CODE BLOCK ADDRESS 0x5662 ===
  0x5662	mov    	eax, edi
  0x5664	jmp    	0x5777
  === BLOCK LINK ===
    0x5669
=== CODE BLOCK END ===

=== CODE BLOCK ADDRESS 0x5669 ===
  0x5669	dec    	esp
  0x566a	lea    	eax, [0x2228]
  0x5670	dec    	eax
  0x5671	lea    	ecx, [esp + 0x30]
  0x5675	call   	0x53bc
  === BLOCK LINK ===
    0x567a
=== CODE BLOCK END ===

=== CODE BLOCK ADDRESS 0x567a ===
  0x567a	dec    	esp
  0x567b	lea    	eax, [esp + 0x30]
  0x567f	xor    	edx, edx
  0x5681	mov    	ecx, esi
  0x5683	call   	dword ptr [0x1c5f]
  === BLOCK LINK ===
    0x5689
=== CODE BLOCK END ===

=== CODE BLOCK ADDRESS 0x5689 ===
  0x5689	dec    	eax
  0x568a	mov    	edi, eax
  0x568c	dec    	eax
  0x568d	test   	eax, eax
  0x568f	je     	0x5724
  === BLOCK LINK ===
    0x5695
=== CODE BLOCK END ===

=== CODE BLOCK ADDRESS 0x5695 ===
  0x5695	dec    	eax
  0x5696	lea    	edx, [esp + 0x20]
  0x569a	dec    	eax
  0x569b	mov    	ecx, eax
  0x569d	call   	0x3ca4
  === BLOCK LINK ===
    0x56a2
=== CODE BLOCK END ===

=== CODE BLOCK ADDRESS 0x56a2 ===
  0x56a2	mov    	esi, eax
  0x56a4	test   	eax, eax
  0x56a6	jns    	0x56ec
  === BLOCK LINK ===
    0x56a8
=== CODE BLOCK END ===

=== CODE BLOCK ADDRESS 0x56a8 ===
  0x56a8	dec    	eax
  0x56a9	mov    	ecx, dword ptr [ebp + 0x168]
  0x56af	dec    	esp
  0x56b0	lea    	eax, [0x2126]
  0x56b6	inc    	esp
  === BLOCK LINK ===
    0x56b7
=== CODE BLOCK END ===

=== CODE BLOCK ADDRESS 0x56b7 ===
  0x56b7	mov    	ecx, eax
  0x56b9	mov    	edx, 0xd7
  0x56be	call   	0x4994
  === BLOCK LINK ===
    0x56c3
=== CODE BLOCK END ===

=== CODE BLOCK ADDRESS 0x56c3 ===
  0x56c3	dec    	eax
  0x56c4	mov    	ecx, edi
  0x56c6	call   	dword ptr [0x1b1c]
  === BLOCK LINK ===
    0x56cc
=== CODE BLOCK END ===

=== CODE BLOCK ADDRESS 0x56cc ===
  0x56cc	test   	eax, eax
  0x56ce	je     	0x57eb
  === BLOCK LINK ===
    0x56d4
=== CODE BLOCK END ===

=== CODE BLOCK ADDRESS 0x56d4 ===
  0x56d4	dec    	eax
  0x56d5	mov    	ecx, ebx
  0x56d7	call   	dword ptr [0x1b0b]
  === BLOCK LINK ===
    0x56dd
=== CODE BLOCK END ===

=== CODE BLOCK ADDRESS 0x56dd ===
  0x56dd	test   	eax, eax
  0x56df	je     	0x57fd
  === BLOCK LINK ===
    0x56e5
=== CODE BLOCK END ===

=== CODE BLOCK ADDRESS 0x56e5 ===
  0x56e5	mov    	eax, esi
  0x56e7	jmp    	0x5777
  === BLOCK LINK ===
    0x56ec
=== CODE BLOCK END ===

=== CODE BLOCK ADDRESS 0x56ec ===
  0x56ec	dec    	eax
  0x56ed	mov    	ecx, edi
  0x56ef	call   	dword ptr [0x1af3]
  === BLOCK LINK ===
    0x56f5
=== CODE BLOCK END ===

=== CODE BLOCK ADDRESS 0x56f5 ===
  0x56f5	test   	eax, eax
  0x56f7	je     	0x57a3
  === BLOCK LINK ===
    0x56fd
=== CODE BLOCK END ===

=== CODE BLOCK ADDRESS 0x56fd ===
  0x56fd	dec    	eax
  0x56fe	arpl   	word ptr [esp + 0x24], ax
  0x5702	dec    	eax
  0x5703	arpl   	word ptr [esp + 0x20], cx
  0x5707	dec    	eax
  === BLOCK LINK ===
    0x5708
=== CODE BLOCK END ===

=== CODE BLOCK ADDRESS 0x5708 ===
  0x5708	shl    	ecx, 0x1f
  0x570b	dec    	eax
  0x570c	or     	ecx, eax
  0x570e	dec    	ecx
  0x570f	mov    	dword ptr [esi], ecx
  === BLOCK LINK ===
    0x5711
=== CODE BLOCK END ===

=== CODE BLOCK ADDRESS 0x5711 ===
  0x5711	dec    	eax
  0x5712	mov    	ecx, ebx
  0x5714	call   	dword ptr [0x1ace]
  === BLOCK LINK ===
    0x571a
=== CODE BLOCK END ===

=== CODE BLOCK ADDRESS 0x571a ===
  0x571a	test   	eax, eax
  0x571c	je     	0x57b5
  === BLOCK LINK ===
    0x5722
=== CODE BLOCK END ===

=== CODE BLOCK ADDRESS 0x5722 ===
  0x5722	jmp    	0x575b
  === BLOCK LINK ===
    0x5724
=== CODE BLOCK END ===

=== CODE BLOCK ADDRESS 0x5724 ===
  0x5724	dec    	eax
  0x5725	mov    	ecx, dword ptr [ebp + 0x168]
  0x572b	dec    	esp
  0x572c	lea    	eax, [0x20aa]
  0x5732	mov    	edx, 0xd5
  === BLOCK LINK ===
    0x5737
=== CODE BLOCK END ===

=== CODE BLOCK ADDRESS 0x5737 ===
  0x5737	call   	0x4970
  === BLOCK LINK ===
    0x573c
=== CODE BLOCK END ===

=== CODE BLOCK ADDRESS 0x573c ===
  0x573c	dec    	eax
  0x573d	mov    	ecx, ebx
  0x573f	mov    	edi, eax
  0x5741	call   	dword ptr [0x1aa1]
  === BLOCK LINK ===
    0x5747
=== CODE BLOCK END ===

=== CODE BLOCK ADDRESS 0x5747 ===
  0x5747	test   	eax, eax
  0x5749	je     	0x57c7
  === BLOCK LINK ===
    0x574b
=== CODE BLOCK END ===

=== CODE BLOCK ADDRESS 0x574b ===
  0x574b	jmp    	0x5662
  === BLOCK LINK ===
    0x5750
=== CODE BLOCK END ===

=== CODE BLOCK ADDRESS 0x5750 ===
  0x5750	call   	dword ptr [0x1a72]
  === BLOCK LINK ===
    0x5756
=== CODE BLOCK END ===

=== CODE BLOCK ADDRESS 0x5756 ===
  0x5756	cmp    	eax, 2
  0x5759	jne    	0x575f
  === BLOCK LINK ===
    0x575b
=== CODE BLOCK END ===

=== CODE BLOCK ADDRESS 0x575b ===
  0x575b	xor    	eax, eax
  0x575d	jmp    	0x5777
  === BLOCK LINK ===
    0x575f
=== CODE BLOCK END ===

=== CODE BLOCK ADDRESS 0x575f ===
  0x575f	dec    	eax
  0x5760	mov    	ecx, dword ptr [ebp + 0x168]
  0x5766	dec    	esp
  0x5767	lea    	eax, [0x206f]
  0x576d	mov    	edx, 0xc9
  === BLOCK LINK ===
    0x5772
=== CODE BLOCK END ===

=== CODE BLOCK ADDRESS 0x5772 ===
  0x5772	call   	0x4970
  === BLOCK LINK ===
    0x5777
=== CODE BLOCK END ===

=== CODE BLOCK ADDRESS 0x5777 ===
  0x5777	dec    	eax
  0x5778	mov    	ecx, dword ptr [ebp + 0x140]
  0x577e	dec    	eax
  0x577f	xor    	ecx, esp
  0x5781	call   	0x1450
  === BLOCK LINK ===
    0x5786
=== CODE BLOCK END ===

=== CODE BLOCK ADDRESS 0x5786 ===
  0x5786	dec    	esp
  0x5787	lea    	ebx, [esp + 0x250]
  0x578e	dec    	ecx
  0x578f	mov    	ebx, dword ptr [ebx + 0x20]
  0x5792	dec    	ecx
  === BLOCK LINK ===
    0x5793
=== CODE BLOCK END ===

=== CODE BLOCK ADDRESS 0x5793 ===
  0x5793	mov    	esi, dword ptr [ebx + 0x28]
  0x5796	dec    	ecx
  0x5797	mov    	edi, dword ptr [ebx + 0x38]
  0x579a	dec    	ecx
  0x579b	mov    	esp, ebx
  === BLOCK LINK ===
    0x579d
=== CODE BLOCK END ===

=== CODE BLOCK ADDRESS 0x579d ===
  0x579d	inc    	ecx
  0x579e	pop    	edi
  0x579f	inc    	ecx
  0x57a0	pop    	esi
  0x57a1	pop    	ebp
  === BLOCK LINK ===
    0x57a2
=== CODE BLOCK END ===

=== CODE BLOCK ADDRESS 0x57a2 ===
  0x57a2	ret    	
  0x57a3	dec    	eax
  0x57a4	mov    	ecx, dword ptr [ebp + 0x168]
  0x57aa	mov    	edx, 0x937
  0x57af	call   	0x597c
  === BLOCK LINK ===
    0x57b4
=== CODE BLOCK END ===

=== CODE BLOCK ADDRESS 0x57b4 ===
  0x57b4	int3   	
  0x57b5	dec    	eax
  0x57b6	mov    	ecx, dword ptr [ebp + 0x168]
  0x57bc	mov    	edx, 0x937
  0x57c1	call   	0x597c
  === BLOCK LINK ===
    0x57c6
=== CODE BLOCK END ===

=== CODE BLOCK ADDRESS 0x57c6 ===
  0x57c6	int3   	
  0x57c7	dec    	eax
  0x57c8	mov    	ecx, dword ptr [ebp + 0x168]
  0x57ce	mov    	edx, 0x937
  0x57d3	call   	0x597c
  === BLOCK LINK ===
    0x57d8
=== CODE BLOCK END ===

=== CODE BLOCK ADDRESS 0x57d8 ===
  0x57d8	int3   	
  0x57d9	dec    	eax
  0x57da	mov    	ecx, dword ptr [ebp + 0x168]
  0x57e0	mov    	edx, 0x937
  0x57e5	call   	0x597c
  === BLOCK LINK ===
    0x57ea
=== CODE BLOCK END ===

=== CODE BLOCK ADDRESS 0x57ea ===
  0x57ea	int3   	
  0x57eb	dec    	eax
  0x57ec	mov    	ecx, dword ptr [ebp + 0x168]
  0x57f2	mov    	edx, 0x937
  0x57f7	call   	0x597c
  === BLOCK LINK ===
    0x57fc
=== CODE BLOCK END ===

=== CODE BLOCK ADDRESS 0x57fc ===
  0x57fc	int3   	
  0x57fd	dec    	eax
  0x57fe	mov    	ecx, dword ptr [ebp + 0x168]
  0x5804	mov    	edx, 0x937
  0x5809	call   	0x597c
  === BLOCK LINK ===
    0x580e
=== CODE BLOCK END ===

=== CODE BLOCK ADDRESS 0x580e ===
  0x580e	int3   	
  0x580f	int3   	
  0x5810	int3   	
  0x5811	int3   	
  0x5812	int3   	
  === BLOCK LINK ===
    0x5813
=== CODE BLOCK END ===

=== CODE BLOCK ADDRESS 0x5813 ===
  0x5813	int3   	
  0x5814	int3   	
  0x5815	int3   	
  0x5816	int3   	
  0x5817	int3   	
  === BLOCK LINK ===
    0x5818
=== CODE BLOCK END ===

=== CODE BLOCK ADDRESS 0x5818 ===
  0x5818	jno    	0x57a3
  === BLOCK LINK ===
    0x581a
=== CODE BLOCK END ===

=== CODE BLOCK ADDRESS 0x581a ===
  0x581a	fstp   	dword ptr [eax + 0x11]
  0x581d	sahf   	
  0x581e	pushfd  	
  0x581f	stosd  	dword ptr es:[edi], eax
  0x5820	dec    	eax
  === BLOCK LINK ===
    0x5821
=== CODE BLOCK END ===

=== CODE BLOCK ADDRESS 0x5821 ===
  0x5821	mov    	dword ptr [esp + 8], ebx
  0x5825	dec    	eax
  0x5826	mov    	dword ptr [esp + 0x10], esi
  0x582a	push   	edi
  0x582b	dec    	eax
  === BLOCK LINK ===
    0x582c
=== CODE BLOCK END ===

=== CODE BLOCK ADDRESS 0x582c ===
  0x582c	sub    	esp, 0x20
  0x582f	dec    	eax
  0x5830	mov    	esi, ecx
  0x5832	inc    	ecx
  0x5833	mov    	ebx, eax
  === BLOCK LINK ===
    0x5835
=== CODE BLOCK END ===

=== CODE BLOCK ADDRESS 0x5835 ===
  0x5835	dec    	eax
  0x5836	lea    	ecx, [0x1f5c]
  0x583c	dec    	eax
  0x583d	mov    	edi, edx
  0x583f	call   	dword ptr [0x19fb]
  === BLOCK LINK ===
    0x5845
=== CODE BLOCK END ===

=== CODE BLOCK ADDRESS 0x5845 ===
  0x5845	dec    	eax
  0x5846	mov    	ecx, eax
  0x5848	dec    	eax
  0x5849	lea    	edx, [0x1f69]
  0x584f	call   	dword ptr [0x19f3]
  === BLOCK LINK ===
    0x5855
=== CODE BLOCK END ===

=== CODE BLOCK ADDRESS 0x5855 ===
  0x5855	dec    	eax
  0x5856	test   	eax, eax
  0x5858	je     	0x5873
  === BLOCK LINK ===
    0x585a
=== CODE BLOCK END ===

=== CODE BLOCK ADDRESS 0x585a ===
  0x585a	dec    	ecx
  0x585b	mov    	edx, 0x58d98970
  0x5860	adc    	dword ptr [esi - 0x74bb5464], ebx
  0x5866	ret    	
  0x5867	dec    	eax
  === BLOCK LINK ===
    0x5868
=== CODE BLOCK END ===

=== CODE BLOCK ADDRESS 0x5868 ===
  0x5868	mov    	edx, edi
  0x586a	dec    	eax
  0x586b	mov    	ecx, esi
  0x586d	call   	dword ptr [0x1c25]
  === BLOCK LINK ===
    0x5873
=== CODE BLOCK END ===

=== CODE BLOCK ADDRESS 0x5873 ===
  0x5873	dec    	eax
  0x5874	mov    	ebx, dword ptr [esp + 0x30]
  0x5878	dec    	eax
  0x5879	mov    	esi, dword ptr [esp + 0x38]
  0x587d	dec    	eax
  === BLOCK LINK ===
    0x587e
=== CODE BLOCK END ===

=== CODE BLOCK ADDRESS 0x587e ===
  0x587e	add    	esp, 0x20
  0x5881	pop    	edi
  0x5882	ret    	
  0x5883	int3   	
  0x5884	inc    	eax
  === BLOCK LINK ===
    0x5885
=== CODE BLOCK END ===

=== CODE BLOCK ADDRESS 0x16f1 ===
=== CODE BLOCK END ===

=== CODE BLOCK ADDRESS 0x5885 ===
  0x5885	push   	ebx
  0x5886	dec    	eax
  0x5887	sub    	esp, 0xc0
  0x588d	dec    	eax
  0x588e	mov    	eax, dword ptr [0x4f2c]
  === BLOCK LINK ===
    0x5894
=== CODE BLOCK END ===

=== CODE BLOCK ADDRESS 0x5894 ===
  0x5894	dec    	eax
  0x5895	mov    	ebx, ecx
  0x5897	dec    	eax
  0x5898	test   	eax, eax
  0x589a	je     	0x58ac
  === BLOCK LINK ===
    0x589c
=== CODE BLOCK END ===

=== CODE BLOCK ADDRESS 0x589c ===
  0x589c	dec    	ecx
  0x589d	mov    	edx, 0x325f8070
  0x58a2	xor    	cl, byte ptr [edi]
  0x58a4	jo     	0x5873
  === BLOCK LINK ===
    0x58a6
=== CODE BLOCK END ===

=== CODE BLOCK ADDRESS 0x58a6 ===
  0x58a6	call   	dword ptr [0x1bec]
  === BLOCK LINK ===
    0x58ac
=== CODE BLOCK END ===

=== CODE BLOCK ADDRESS 0x58ac ===
  0x58ac	dec    	eax
  0x58ad	mov    	eax, dword ptr [0x4ee5]
  0x58b3	dec    	eax
  0x58b4	test   	eax, eax
  0x58b6	je     	0x58cb
  === BLOCK LINK ===
    0x58b8
=== CODE BLOCK END ===

=== CODE BLOCK ADDRESS 0x58b8 ===
  0x58b8	dec    	ecx
  0x58b9	mov    	edx, 0x3cd18a70
  0x58be	mov    	bh, byte ptr [edi - 0x74b74c68]
  0x58c4	retf   	
  0x58c5	call   	dword ptr [0x1bcd]
  === BLOCK LINK ===
    0x58cb
=== CODE BLOCK END ===

=== CODE BLOCK ADDRESS 0x16fa ===
  0x16fa	dec    	eax
  0x16fb	add    	esp, 0x20
  0x16fe	pop    	ebx
  0x16ff	ret    	
  === BLOCK LINK ===
    0x1700
=== CODE BLOCK END ===

=== CODE BLOCK ADDRESS 0x58cb ===
  0x58cb	xor    	edx, edx
  0x58cd	dec    	eax
  0x58ce	lea    	ecx, [esp + 0x20]
  0x58d2	inc    	ecx
  0x58d3	mov    	eax, 0x98
  === BLOCK LINK ===
    0x58d8
=== CODE BLOCK END ===

=== CODE BLOCK ADDRESS 0x58d8 ===
  0x58d8	call   	0x1ee6
  === BLOCK LINK ===
    0x58dd
=== CODE BLOCK END ===

=== CODE BLOCK ADDRESS 0x58dd ===
  0x58dd	dec    	eax
  0x58de	mov    	ecx, dword ptr [ebx + 0x88]
  0x58e4	inc    	ecx
  0x58e5	mov    	eax, 1
  0x58ea	inc    	esp
  === BLOCK LINK ===
    0x58eb
=== CODE BLOCK END ===

=== CODE BLOCK ADDRESS 0x58eb ===
  0x58eb	mov    	dword ptr [esp + 0x38], eax
  0x58ef	mov    	dword ptr [esp + 0x20], 0xc0000409
  0x58f7	inc    	esp
  0x58f8	mov    	dword ptr [esp + 0x24], eax
  0x58fc	dec    	eax
  === BLOCK LINK ===
    0x58fd
=== CODE BLOCK END ===

=== CODE BLOCK ADDRESS 0x58fd ===
  0x58fd	mov    	dword ptr [esp + 0x40], 7
  0x5905	dec    	eax
  0x5906	test   	ecx, ecx
  0x5908	jne    	0x5915
  === BLOCK LINK ===
    0x590a
=== CODE BLOCK END ===

=== CODE BLOCK ADDRESS 0x590a ===
  0x590a	dec    	eax
  0x590b	lea    	ecx, [esp + 0x20]
  0x590f	call   	0x5944
  === BLOCK LINK ===
    0x5914
=== CODE BLOCK END ===

=== CODE BLOCK ADDRESS 0x5914 ===
  0x5914	int3   	
  0x5915	dec    	eax
  0x5916	arpl   	word ptr [ebx + 8], ax
  0x5919	inc    	ebp
  0x591a	xor    	eax, eax
  === BLOCK LINK ===
    0x591c
=== CODE BLOCK END ===

=== CODE BLOCK ADDRESS 0x591c ===
  0x591c	dec    	eax
  0x591d	mov    	dword ptr [esp + 0x48], eax
  0x5921	mov    	eax, dword ptr [ebx + 0x40]
  0x5924	dec    	eax
  0x5925	mov    	dword ptr [esp + 0x30], ecx
  === BLOCK LINK ===
    0x5929
=== CODE BLOCK END ===

=== CODE BLOCK ADDRESS 0x5929 ===
  0x5929	dec    	eax
  0x592a	lea    	ecx, [esp + 0x20]
  0x592e	dec    	eax
  0x592f	mov    	dword ptr [esp + 0x50], eax
  0x5933	mov    	dword ptr [esp + 0x38], 3
  === BLOCK LINK ===
    0x593b
=== CODE BLOCK END ===

=== CODE BLOCK ADDRESS 0x593b ===
  0x593b	call   	0x5944
  === BLOCK LINK ===
    0x5940
=== CODE BLOCK END ===

=== CODE BLOCK ADDRESS 0x5940 ===
  0x5940	int3   	
  0x5941	int3   	
  0x5942	int3   	
  0x5943	int3   	
  0x5944	dec    	eax
  === BLOCK LINK ===
    0x5945
=== CODE BLOCK END ===

=== CODE BLOCK ADDRESS 0x5945 ===
  0x5945	sub    	esp, 0x28
  0x5948	dec    	eax
  0x5949	mov    	eax, dword ptr [0x4e61]
  0x594f	dec    	eax
  0x5950	test   	eax, eax
  === BLOCK LINK ===
    0x5952
=== CODE BLOCK END ===

=== CODE BLOCK ADDRESS 0x5952 ===
  0x5952	je     	0x5966
  === BLOCK LINK ===
    0x5954
=== CODE BLOCK END ===

=== CODE BLOCK ADDRESS 0x5954 ===
  0x5954	dec    	ecx
  0x5955	mov    	edx, 0x58d98970
  0x595a	adc    	dword ptr [esi - 0x2dcc5464], ebx
  0x5960	call   	dword ptr [0x1b32]
  === BLOCK LINK ===
    0x5966
=== CODE BLOCK END ===

=== CODE BLOCK ADDRESS 0x5966 ===
  0x5966	mov    	ecx, 7
  0x596b	int    	0x29
  0x596d	dec    	eax
  0x596e	add    	esp, 0x28
  0x5971	ret    	
  === BLOCK LINK ===
    0x5972
=== CODE BLOCK END ===

=== CODE BLOCK ADDRESS 0x5972 ===
  0x5972	int3   	
  0x5973	int3   	
  0x5974	mov    	ecx, 7
  0x5979	int    	0x29
  0x597b	ret    	
  === BLOCK LINK ===
    0x597c
=== CODE BLOCK END ===

=== CODE BLOCK ADDRESS 0x597c ===
  0x597c	dec    	eax
  0x597d	sub    	esp, 0x48
  0x5980	dec    	eax
  0x5981	mov    	dword ptr [esp + 0x30], 0xfffffffe
  0x5989	dec    	eax
  === BLOCK LINK ===
    0x598a
=== CODE BLOCK END ===

=== CODE BLOCK ADDRESS 0x598a ===
  0x598a	mov    	eax, dword ptr [esp + 0x48]
  0x598e	dec    	eax
  0x598f	mov    	dword ptr [esp + 0x28], eax
  0x5993	call   	0x2078
  === BLOCK LINK ===
    0x5998
=== CODE BLOCK END ===

=== CODE BLOCK ADDRESS 0x5998 ===
  0x5998	int3   	
  0x5999	int3   	
  0x599a	int3   	
  0x599b	int3   	
  0x599c	dec    	eax
  === BLOCK LINK ===
    0x599d
=== CODE BLOCK END ===

=== CODE BLOCK ADDRESS 0x599d ===
  0x599d	mov    	eax, esp
  0x599f	dec    	eax
  0x59a0	mov    	dword ptr [eax + 8], ebx
  0x59a3	dec    	eax
  0x59a4	mov    	dword ptr [eax + 0x10], ebp
  === BLOCK LINK ===
    0x59a7
=== CODE BLOCK END ===

=== CODE BLOCK ADDRESS 0x59a7 ===
  0x59a7	dec    	eax
  0x59a8	mov    	dword ptr [eax + 0x18], esi
  0x59ab	dec    	eax
  0x59ac	mov    	dword ptr [eax + 0x20], edi
  0x59af	inc    	ecx
  === BLOCK LINK ===
    0x59b0
=== CODE BLOCK END ===

=== CODE BLOCK ADDRESS 0x59b0 ===
  0x59b0	push   	esi
  0x59b1	dec    	eax
  0x59b2	sub    	esp, 0x30
  0x59b5	dec    	eax
  0x59b6	mov    	esi, ecx
  === BLOCK LINK ===
    0x59b8
=== CODE BLOCK END ===

=== CODE BLOCK ADDRESS 0x59b8 ===
  0x59b8	mov    	dword ptr [eax - 0x10], 0x1f0003
  0x59bf	xor    	ebx, ebx
  0x59c1	xor    	ecx, ecx
  0x59c3	mov    	dword ptr [eax - 0x18], ebx
  0x59c6	call   	dword ptr [0x193c]
  === BLOCK LINK ===
    0x59cc
=== CODE BLOCK END ===

=== CODE BLOCK ADDRESS 0x59cc ===
  0x59cc	dec    	esp
  0x59cd	mov    	esi, eax
  0x59cf	dec    	eax
  0x59d0	test   	eax, eax
  0x59d2	je     	0x59fe
  === BLOCK LINK ===
    0x59d4
=== CODE BLOCK END ===

=== CODE BLOCK ADDRESS 0x59d4 ===
  0x59d4	dec    	eax
  0x59d5	mov    	edi, dword ptr [esi]
  0x59d7	dec    	eax
  0x59d8	test   	edi, edi
  0x59da	je     	0x59f9
  === BLOCK LINK ===
    0x59dc
=== CODE BLOCK END ===

=== CODE BLOCK ADDRESS 0x59dc ===
  0x59dc	call   	dword ptr [0x17e6]
  === BLOCK LINK ===
    0x59e2
=== CODE BLOCK END ===

=== CODE BLOCK ADDRESS 0x59e2 ===
  0x59e2	dec    	eax
  0x59e3	mov    	ecx, edi
  0x59e5	mov    	ebp, eax
  0x59e7	call   	dword ptr [0x17fb]
  === BLOCK LINK ===
    0x59ed
=== CODE BLOCK END ===

=== CODE BLOCK ADDRESS 0x59ed ===
  0x59ed	test   	eax, eax
  0x59ef	je     	0x5a22
  === BLOCK LINK ===
    0x59f1
=== CODE BLOCK END ===

=== CODE BLOCK ADDRESS 0x59f1 ===
  0x59f1	mov    	ecx, ebp
  0x59f3	call   	dword ptr [0x17df]
  === BLOCK LINK ===
    0x59f9
=== CODE BLOCK END ===

=== CODE BLOCK ADDRESS 0x59f9 ===
  0x59f9	dec    	esp
  0x59fa	mov    	dword ptr [esi], esi
  0x59fc	jmp    	0x5a05
  === BLOCK LINK ===
    0x59fe
=== CODE BLOCK END ===

=== CODE BLOCK ADDRESS 0x59fe ===
  0x59fe	call   	0x3960
  === BLOCK LINK ===
    0x5a03
=== CODE BLOCK END ===

=== CODE BLOCK ADDRESS 0x5a03 ===
  0x5a03	mov    	ebx, eax
  0x5a05	dec    	eax
  0x5a06	mov    	ebp, dword ptr [esp + 0x48]
  0x5a0a	mov    	eax, ebx
  0x5a0c	dec    	eax
  === BLOCK LINK ===
    0x5a0d
=== CODE BLOCK END ===

=== CODE BLOCK ADDRESS 0x5a0d ===
  0x5a0d	mov    	ebx, dword ptr [esp + 0x40]
  0x5a11	dec    	eax
  0x5a12	mov    	esi, dword ptr [esp + 0x50]
  0x5a16	dec    	eax
  0x5a17	mov    	edi, dword ptr [esp + 0x58]
  === BLOCK LINK ===
    0x5a1b
=== CODE BLOCK END ===

=== CODE BLOCK ADDRESS 0x5a1b ===
  0x5a1b	dec    	eax
  0x5a1c	add    	esp, 0x30
  0x5a1f	inc    	ecx
  0x5a20	pop    	esi
  0x5a21	ret    	
  === BLOCK LINK ===
    0x5a22
=== CODE BLOCK END ===

=== CODE BLOCK ADDRESS 0x5a22 ===
  0x5a22	dec    	eax
  0x5a23	mov    	ecx, dword ptr [esp + 0x38]
  0x5a27	mov    	edx, 0x937
  0x5a2c	call   	0x597c
  === BLOCK LINK ===
    0x5a31
=== CODE BLOCK END ===

=== CODE BLOCK ADDRESS 0x5a31 ===
  0x5a31	int3   	
  0x5a32	int3   	
  0x5a33	int3   	
  0x5a34	dec    	eax
  0x5a35	mov    	eax, esp
  === BLOCK LINK ===
    0x5a37
=== CODE BLOCK END ===

=== CODE BLOCK ADDRESS 0x5a37 ===
  0x5a37	dec    	eax
  0x5a38	mov    	dword ptr [eax + 8], ebx
  0x5a3b	dec    	eax
  0x5a3c	mov    	dword ptr [eax + 0x10], ebp
  0x5a3f	dec    	eax
  === BLOCK LINK ===
    0x5a40
=== CODE BLOCK END ===

=== CODE BLOCK ADDRESS 0x5a40 ===
  0x5a40	mov    	dword ptr [eax + 0x18], esi
  0x5a43	dec    	eax
  0x5a44	mov    	dword ptr [eax + 0x20], edi
  0x5a47	inc    	ecx
  0x5a48	push   	esi
  === BLOCK LINK ===
    0x5a49
=== CODE BLOCK END ===

=== CODE BLOCK ADDRESS 0x5a49 ===
  0x5a49	dec    	eax
  0x5a4a	sub    	esp, 0x20
  0x5a4d	dec    	ecx
  0x5a4e	mov    	ebp, eax
  0x5a50	dec    	esp
  === BLOCK LINK ===
    0x5a51
=== CODE BLOCK END ===

=== CODE BLOCK ADDRESS 0x5a51 ===
  0x5a51	mov    	esi, edx
  0x5a53	dec    	eax
  0x5a54	mov    	edi, ecx
  0x5a56	dec    	ebp
  0x5a57	test   	eax, eax
  === BLOCK LINK ===
    0x5a59
=== CODE BLOCK END ===

=== CODE BLOCK ADDRESS 0x5a59 ===
  0x5a59	jne    	0x5a95
  === BLOCK LINK ===
    0x5a5b
=== CODE BLOCK END ===

=== CODE BLOCK ADDRESS 0x5a5b ===
  0x5a5b	dec    	eax
  0x5a5c	mov    	ecx, dword ptr [ecx]
  0x5a5e	dec    	eax
  0x5a5f	test   	ecx, ecx
  0x5a61	je     	0x5b06
  === BLOCK LINK ===
    0x5a67
=== CODE BLOCK END ===

=== CODE BLOCK ADDRESS 0x5a67 ===
  0x5a67	or     	eax, 0xffffffff
  0x5a6a	lock xadd  	dword ptr [ecx], eax
  0x5a6e	cmp    	eax, 1
  0x5a71	jne    	0x5a8a
  === BLOCK LINK ===
    0x5a73
=== CODE BLOCK END ===

=== CODE BLOCK ADDRESS 0x5a73 ===
  0x5a73	dec    	eax
  0x5a74	mov    	ebx, dword ptr [edi]
  0x5a76	call   	dword ptr [0x178c]
  === BLOCK LINK ===
    0x5a7c
=== CODE BLOCK END ===

=== CODE BLOCK ADDRESS 0x5a7c ===
  0x5a7c	dec    	esp
  0x5a7d	mov    	eax, ebx
  0x5a7f	xor    	edx, edx
  0x5a81	dec    	eax
  0x5a82	mov    	ecx, eax
  === BLOCK LINK ===
    0x5a84
=== CODE BLOCK END ===

=== CODE BLOCK ADDRESS 0x5a84 ===
  0x5a84	call   	dword ptr [0x1776]
  === BLOCK LINK ===
    0x5a8a
=== CODE BLOCK END ===

=== CODE BLOCK ADDRESS 0x5a8a ===
  0x5a8a	dec    	eax
  0x5a8b	and    	dword ptr [edi], 0
  0x5a8e	dec    	eax
  0x5a8f	and    	dword ptr [edi + 8], 0
  0x5a93	jmp    	0x5b06
  === BLOCK LINK ===
    0x5a95
=== CODE BLOCK END ===

=== CODE BLOCK ADDRESS 0x5a95 ===
  0x5a95	call   	dword ptr [0x176d]
  === BLOCK LINK ===
    0x5a9b
=== CODE BLOCK END ===

=== CODE BLOCK ADDRESS 0x5a9b ===
  0x5a9b	dec    	esp
  0x5a9c	lea    	eax, [ebp + 4]
  0x5a9f	xor    	edx, edx
  0x5aa1	dec    	eax
  0x5aa2	mov    	ecx, eax
  === BLOCK LINK ===
    0x5aa4
=== CODE BLOCK END ===

=== CODE BLOCK ADDRESS 0x5aa4 ===
  0x5aa4	call   	dword ptr [0x174e]
  === BLOCK LINK ===
    0x5aaa
=== CODE BLOCK END ===

=== CODE BLOCK ADDRESS 0x5aaa ===
  0x5aaa	dec    	eax
  0x5aab	mov    	esi, eax
  0x5aad	dec    	eax
  0x5aae	test   	eax, eax
  0x5ab0	je     	0x5b08
  === BLOCK LINK ===
    0x5ab2
=== CODE BLOCK END ===

=== CODE BLOCK ADDRESS 0x5ab2 ===
  0x5ab2	and    	dword ptr [eax], 0
  0x5ab5	dec    	ebp
  0x5ab6	test   	esi, esi
  0x5ab8	je     	0x5acc
  === BLOCK LINK ===
    0x5aba
=== CODE BLOCK END ===

=== CODE BLOCK ADDRESS 0x5aba ===
  0x5aba	dec    	eax
  0x5abb	lea    	ecx, [eax + 4]
  0x5abe	dec    	esp
  0x5abf	mov    	ecx, ebp
  0x5ac1	dec    	ebp
  === BLOCK LINK ===
    0x5ac2
=== CODE BLOCK END ===

=== CODE BLOCK ADDRESS 0x5ac2 ===
  0x5ac2	mov    	eax, esi
  0x5ac4	dec    	eax
  0x5ac5	mov    	edx, ebp
  0x5ac7	call   	0x5c04
  === BLOCK LINK ===
    0x5acc
=== CODE BLOCK END ===

=== CODE BLOCK ADDRESS 0x5acc ===
  0x5acc	dec    	eax
  0x5acd	mov    	ecx, dword ptr [edi]
  0x5acf	dec    	eax
  0x5ad0	test   	ecx, ecx
  0x5ad2	je     	0x5afc
  === BLOCK LINK ===
    0x5ad4
=== CODE BLOCK END ===

=== CODE BLOCK ADDRESS 0x5ad4 ===
  0x5ad4	or     	eax, 0xffffffff
  0x5ad7	lock xadd  	dword ptr [ecx], eax
  0x5adb	cmp    	eax, 1
  0x5ade	jne    	0x5af7
  === BLOCK LINK ===
    0x5ae0
=== CODE BLOCK END ===

=== CODE BLOCK ADDRESS 0x5ae0 ===
  0x5ae0	dec    	eax
  0x5ae1	mov    	ebx, dword ptr [edi]
  0x5ae3	call   	dword ptr [0x171f]
  === BLOCK LINK ===
    0x5ae9
=== CODE BLOCK END ===

=== CODE BLOCK ADDRESS 0x5ae9 ===
  0x5ae9	dec    	esp
  0x5aea	mov    	eax, ebx
  0x5aec	xor    	edx, edx
  0x5aee	dec    	eax
  0x5aef	mov    	ecx, eax
  === BLOCK LINK ===
    0x5af1
=== CODE BLOCK END ===

=== CODE BLOCK ADDRESS 0x5af1 ===
  0x5af1	call   	dword ptr [0x1709]
  === BLOCK LINK ===
    0x5af7
=== CODE BLOCK END ===

=== CODE BLOCK ADDRESS 0x5af7 ===
  0x5af7	dec    	eax
  0x5af8	and    	dword ptr [edi + 8], 0
  0x5afc	dec    	eax
  0x5afd	mov    	dword ptr [edi], esi
  0x5aff	dec    	eax
  === BLOCK LINK ===
    0x5b00
=== CODE BLOCK END ===

=== CODE BLOCK ADDRESS 0x5b00 ===
  0x5b00	mov    	dword ptr [edi + 8], ebp
  0x5b03	lock inc  	dword ptr [esi]
  0x5b06	mov    	al, 1
  0x5b08	dec    	eax
  0x5b09	mov    	ebx, dword ptr [esp + 0x30]
  === BLOCK LINK ===
    0x5b0d
=== CODE BLOCK END ===

=== CODE BLOCK ADDRESS 0x5b0d ===
  0x5b0d	dec    	eax
  0x5b0e	mov    	ebp, dword ptr [esp + 0x38]
  0x5b12	dec    	eax
  0x5b13	mov    	esi, dword ptr [esp + 0x40]
  0x5b17	dec    	eax
  === BLOCK LINK ===
    0x5b18
=== CODE BLOCK END ===

=== CODE BLOCK ADDRESS 0x5b18 ===
  0x5b18	mov    	edi, dword ptr [esp + 0x48]
  0x5b1c	dec    	eax
  0x5b1d	add    	esp, 0x20
  0x5b20	inc    	ecx
  0x5b21	pop    	esi
  === BLOCK LINK ===
    0x5b22
=== CODE BLOCK END ===

=== CODE BLOCK ADDRESS 0x5b22 ===
  0x5b22	ret    	
  0x5b23	int3   	
  0x5b24	int3   	
  0x5b25	int3   	
  0x5b26	int3   	
  === BLOCK LINK ===
    0x5b27
=== CODE BLOCK END ===

=== CODE BLOCK ADDRESS 0x5b27 ===
  0x5b27	int3   	
  0x5b28	jno    	0x5b43
  === BLOCK LINK ===
    0x5b2a
=== CODE BLOCK END ===

=== CODE BLOCK ADDRESS 0x5b2a ===
  0x5b2a	push   	eax
  0x5b2b	push   	esi
  0x5b2c	stosd  	dword ptr es:[edi], eax
  0x5b2d	lahf   	
  0x5b2e	insd   	dword ptr es:[edi], dx
  === BLOCK LINK ===
    0x5b2f
=== CODE BLOCK END ===

=== CODE BLOCK ADDRESS 0x5b2f ===
  0x5b2f	in     	eax, 0x40
  0x5b31	push   	ebx
  0x5b32	mov    	eax, 0x1430
  0x5b37	call   	0x6110
  === BLOCK LINK ===
    0x5b3c
=== CODE BLOCK END ===

=== CODE BLOCK ADDRESS 0x5b3c ===
  0x5b3c	dec    	eax
  0x5b3d	sub    	esp, eax
  0x5b3f	dec    	eax
  0x5b40	mov    	eax, dword ptr [0x454a]
  0x5b46	dec    	eax
  === BLOCK LINK ===
    0x5b47
=== CODE BLOCK END ===

=== CODE BLOCK ADDRESS 0x5b47 ===
  0x5b47	xor    	eax, esp
  0x5b49	dec    	eax
  0x5b4a	mov    	dword ptr [esp + 0x1420], eax
  0x5b51	dec    	eax
  0x5b52	lea    	ebx, [ecx + 0xc0]
  === BLOCK LINK ===
    0x5b58
=== CODE BLOCK END ===

=== CODE BLOCK ADDRESS 0x5b58 ===
  0x5b58	dec    	eax
  0x5b59	cmp    	dword ptr [ebx], 0
  0x5b5c	jne    	0x5bb5
  === BLOCK LINK ===
    0x5b5e
=== CODE BLOCK END ===

=== CODE BLOCK ADDRESS 0x5b5e ===
  0x5b5e	dec    	esp
  0x5b5f	lea    	eax, [ecx + 0x18]
  0x5b62	mov    	edx, 0x800
  0x5b67	dec    	eax
  0x5b68	lea    	ecx, [esp + 0x420]
  === BLOCK LINK ===
    0x5b6f
=== CODE BLOCK END ===

=== CODE BLOCK ADDRESS 0x5b6f ===
  0x5b6f	call   	0x362c
  === BLOCK LINK ===
    0x5b74
=== CODE BLOCK END ===

=== CODE BLOCK ADDRESS 0x5b74 ===
  0x5b74	dec    	esp
  0x5b75	lea    	ecx, [esp + 0x420]
  0x5b7c	mov    	edx, 0x400
  0x5b81	dec    	esp
  0x5b82	lea    	eax, [0x1c50]
  === BLOCK LINK ===
    0x5b88
=== CODE BLOCK END ===

=== CODE BLOCK ADDRESS 0x5b88 ===
  0x5b88	dec    	eax
  0x5b89	lea    	ecx, [esp + 0x20]
  0x5b8d	call   	0x545c
  === BLOCK LINK ===
    0x5b92
=== CODE BLOCK END ===

=== CODE BLOCK ADDRESS 0x5b92 ===
  0x5b92	dec    	eax
  0x5b93	lea    	eax, [esp + 0x20]
  0x5b97	dec    	ecx
  0x5b98	or     	eax, 0xffffffff
  0x5b9b	dec    	ecx
  === BLOCK LINK ===
    0x5b9c
=== CODE BLOCK END ===

=== CODE BLOCK ADDRESS 0x5b9c ===
  0x5b9c	inc    	eax
  0x5b9e	inc    	edx
  0x5b9f	cmp    	byte ptr [eax + eax], 0
  0x5ba3	jne    	0x5b9b
  === BLOCK LINK ===
    0x5ba5
=== CODE BLOCK END ===

=== CODE BLOCK ADDRESS 0x5ba5 ===
  0x5ba5	dec    	ecx
  0x5ba6	inc    	eax
  0x5ba8	dec    	eax
  0x5ba9	lea    	edx, [esp + 0x20]
  0x5bad	dec    	eax
  === BLOCK LINK ===
    0x5bae
=== CODE BLOCK END ===

=== CODE BLOCK ADDRESS 0x5bae ===
  0x5bae	mov    	ecx, ebx
  0x5bb0	call   	0x5a34
  === BLOCK LINK ===
    0x5bb5
=== CODE BLOCK END ===

=== CODE BLOCK ADDRESS 0x5bb5 ===
  0x5bb5	dec    	eax
  0x5bb6	mov    	eax, dword ptr [ebx]
  0x5bb8	dec    	eax
  0x5bb9	lea    	ecx, [eax + 4]
  0x5bbc	dec    	eax
  === BLOCK LINK ===
    0x5bbd
=== CODE BLOCK END ===

=== CODE BLOCK ADDRESS 0x5bbd ===
  0x5bbd	neg    	eax
  0x5bbf	dec    	eax
  0x5bc0	sbb    	eax, eax
  0x5bc2	dec    	eax
  0x5bc3	and    	eax, ecx
  === BLOCK LINK ===
    0x5bc5
=== CODE BLOCK END ===

=== CODE BLOCK ADDRESS 0x5bc5 ===
  0x5bc5	dec    	eax
  0x5bc6	mov    	ecx, dword ptr [esp + 0x1420]
  0x5bcd	dec    	eax
  0x5bce	xor    	ecx, esp
  0x5bd0	call   	0x1450
  === BLOCK LINK ===
    0x5bd5
=== CODE BLOCK END ===

=== CODE BLOCK ADDRESS 0x5bd5 ===
  0x5bd5	dec    	eax
  0x5bd6	add    	esp, 0x1430
  0x5bdc	pop    	ebx
  0x5bdd	ret    	
  0x5bde	int3   	
  === BLOCK LINK ===
    0x5bdf
=== CODE BLOCK END ===

=== CODE BLOCK ADDRESS 0x5bdf ===
  0x5bdf	int3   	
  0x5be0	int3   	
  0x5be1	int3   	
  0x5be2	int3   	
  0x5be3	int3   	
  === BLOCK LINK ===
    0x5be4
=== CODE BLOCK END ===

=== CODE BLOCK ADDRESS 0x5be4 ===
  0x5be4	int3   	
  0x5be5	int3   	
  0x5be6	int3   	
  0x5be7	int3   	
  0x5be8	jno    	0x5c03
  === BLOCK LINK ===
    0x5bea
=== CODE BLOCK END ===

=== CODE BLOCK ADDRESS 0x5bea ===
  0x5bea	push   	eax
  0x5beb	push   	esi
  0x5bec	stosd  	dword ptr es:[edi], eax
  0x5bed	lahf   	
  0x5bee	insd   	dword ptr es:[edi], dx
  === BLOCK LINK ===
    0x5bef
=== CODE BLOCK END ===

=== CODE BLOCK ADDRESS 0x5bef ===
  0x5bef	in     	eax, 0x48
  0x5bf1	cmp    	dword ptr [ecx + 8], 0
  0x5bf5	dec    	eax
  0x5bf6	lea    	eax, [0x1a1c]
  0x5bfc	dec    	eax
  === BLOCK LINK ===
    0x5bfd
=== CODE BLOCK END ===

=== CODE BLOCK ADDRESS 0x5bfd ===
  0x5bfd	cmovne  	eax, dword ptr [ecx + 8]
  0x5c01	ret    	
  0x5c02	int3   	
  0x5c03	int3   	
  0x5c04	dec    	eax
  === BLOCK LINK ===
    0x5c05
=== CODE BLOCK END ===

=== CODE BLOCK ADDRESS 0x5c05 ===
  0x5c05	mov    	dword ptr [esp + 8], ebx
  0x5c09	dec    	eax
  0x5c0a	mov    	dword ptr [esp + 0x10], esi
  0x5c0e	push   	edi
  0x5c0f	dec    	eax
  === BLOCK LINK ===
    0x5c10
=== CODE BLOCK END ===

=== CODE BLOCK ADDRESS 0x5c10 ===
  0x5c10	sub    	esp, 0x20
  0x5c13	dec    	ecx
  0x5c14	mov    	ebx, ecx
  0x5c16	dec    	ecx
  0x5c17	mov    	esi, eax
  === BLOCK LINK ===
    0x5c19
=== CODE BLOCK END ===

=== CODE BLOCK ADDRESS 0x5c19 ===
  0x5c19	dec    	eax
  0x5c1a	mov    	edi, edx
  0x5c1c	dec    	ebp
  0x5c1d	test   	ecx, ecx
  0x5c1f	jne    	0x5c25
  === BLOCK LINK ===
    0x5c21
=== CODE BLOCK END ===

=== CODE BLOCK ADDRESS 0x5c21 ===
  0x5c21	xor    	eax, eax
  0x5c23	jmp    	0x5c7d
  === BLOCK LINK ===
    0x5c25
=== CODE BLOCK END ===

=== CODE BLOCK ADDRESS 0x5c25 ===
  0x5c25	dec    	eax
  0x5c26	test   	ecx, ecx
  0x5c28	jne    	0x5c40
  === BLOCK LINK ===
    0x5c2a
=== CODE BLOCK END ===

=== CODE BLOCK ADDRESS 0x5c2a ===
  0x5c2a	call   	dword ptr [0x1738]
  === BLOCK LINK ===
    0x5c30
=== CODE BLOCK END ===

=== CODE BLOCK ADDRESS 0x5c30 ===
  0x5c30	mov    	ebx, 0x16
  0x5c35	mov    	dword ptr [eax], ebx
  0x5c37	call   	0x1e9e
  === BLOCK LINK ===
    0x5c3c
=== CODE BLOCK END ===

=== CODE BLOCK ADDRESS 0x5c3c ===
  0x5c3c	mov    	eax, ebx
  0x5c3e	jmp    	0x5c7d
  === BLOCK LINK ===
    0x5c40
=== CODE BLOCK END ===

=== CODE BLOCK ADDRESS 0x5c40 ===
  0x5c40	dec    	eax
  0x5c41	test   	esi, esi
  0x5c43	je     	0x5c57
  === BLOCK LINK ===
    0x5c45
=== CODE BLOCK END ===

=== CODE BLOCK ADDRESS 0x5c45 ===
  0x5c45	dec    	eax
  0x5c46	cmp    	edi, ebx
  0x5c48	jb     	0x5c57
  === BLOCK LINK ===
    0x5c4a
=== CODE BLOCK END ===

=== CODE BLOCK ADDRESS 0x5c4a ===
  0x5c4a	dec    	esp
  0x5c4b	mov    	eax, ebx
  0x5c4d	dec    	eax
  0x5c4e	mov    	edx, esi
  0x5c50	call   	0x6164
  === BLOCK LINK ===
    0x5c55
=== CODE BLOCK END ===

=== CODE BLOCK ADDRESS 0x5c55 ===
  0x5c55	jmp    	0x5c21
  === BLOCK LINK ===
    0x5c57
=== CODE BLOCK END ===

=== CODE BLOCK ADDRESS 0x5c57 ===
  0x5c57	dec    	esp
  0x5c58	mov    	eax, edi
  0x5c5a	xor    	edx, edx
  0x5c5c	call   	0x1ee6
  === BLOCK LINK ===
    0x5c61
=== CODE BLOCK END ===

=== CODE BLOCK ADDRESS 0x5c61 ===
  0x5c61	dec    	eax
  0x5c62	test   	esi, esi
  0x5c64	je     	0x5c2a
  === BLOCK LINK ===
    0x5c66
=== CODE BLOCK END ===

=== CODE BLOCK ADDRESS 0x5c66 ===
  0x5c66	dec    	eax
  0x5c67	cmp    	edi, ebx
  0x5c69	jae    	0x5c78
  === BLOCK LINK ===
    0x5c6b
=== CODE BLOCK END ===

=== CODE BLOCK ADDRESS 0x5c6b ===
  0x5c6b	call   	dword ptr [0x16f7]
  === BLOCK LINK ===
    0x5c71
=== CODE BLOCK END ===

=== CODE BLOCK ADDRESS 0x5c71 ===
  0x5c71	mov    	ebx, 0x22
  0x5c76	jmp    	0x5c35
  === BLOCK LINK ===
    0x5c78
=== CODE BLOCK END ===

=== CODE BLOCK ADDRESS 0x5c78 ===
  0x5c78	mov    	eax, 0x16
  0x5c7d	dec    	eax
  0x5c7e	mov    	ebx, dword ptr [esp + 0x30]
  0x5c82	dec    	eax
  0x5c83	mov    	esi, dword ptr [esp + 0x38]
  === BLOCK LINK ===
    0x5c87
=== CODE BLOCK END ===

=== CODE BLOCK ADDRESS 0x5c87 ===
  0x5c87	dec    	eax
  0x5c88	add    	esp, 0x20
  0x5c8b	pop    	edi
  0x5c8c	ret    	
  0x5c8d	int3   	
  === BLOCK LINK ===
    0x5c8e
=== CODE BLOCK END ===

=== CODE BLOCK ADDRESS 0x1782 ===
  0x1782	dec    	eax
  0x1783	test   	edx, edx
  0x1785	jne    	0x178b
  === BLOCK LINK ===
    0x1787
=== CODE BLOCK END ===

=== CODE BLOCK ADDRESS 0x5c8e ===
  0x5c8e	int3   	
  0x5c8f	int3   	
  0x5c90	dec    	eax
  0x5c91	mov    	eax, esp
  0x5c93	push   	ebp
  === BLOCK LINK ===
    0x5c94
=== CODE BLOCK END ===

=== CODE BLOCK ADDRESS 0x5c94 ===
  0x5c94	push   	esi
  0x5c95	push   	edi
  0x5c96	inc    	ecx
  0x5c97	push   	esp
  0x5c98	inc    	ecx
  === BLOCK LINK ===
    0x5c99
=== CODE BLOCK END ===

=== CODE BLOCK ADDRESS 0x5c99 ===
  0x5c99	push   	ebp
  0x5c9a	inc    	ecx
  0x5c9b	push   	esi
  0x5c9c	inc    	ecx
  0x5c9d	push   	edi
  === BLOCK LINK ===
    0x5c9e
=== CODE BLOCK END ===

=== CODE BLOCK ADDRESS 0x5c9e ===
  0x5c9e	dec    	eax
  0x5c9f	lea    	ebp, [eax - 0x218]
  0x5ca5	dec    	eax
  0x5ca6	sub    	esp, 0x2e0
  0x5cac	dec    	eax
  === BLOCK LINK ===
    0x5cad
=== CODE BLOCK END ===

=== CODE BLOCK ADDRESS 0x5cad ===
  0x5cad	mov    	dword ptr [esp + 0x38], 0xfffffffe
  0x5cb5	dec    	eax
  0x5cb6	mov    	dword ptr [eax + 0x18], ebx
  0x5cb9	dec    	eax
  0x5cba	mov    	eax, dword ptr [0x43d0]
  === BLOCK LINK ===
    0x5cc0
=== CODE BLOCK END ===

=== CODE BLOCK ADDRESS 0x5cc0 ===
  0x5cc0	dec    	eax
  0x5cc1	xor    	eax, esp
  0x5cc3	dec    	eax
  0x5cc4	mov    	dword ptr [ebp + 0x1d0], eax
  0x5cca	dec    	esp
  === BLOCK LINK ===
    0x5ccb
=== CODE BLOCK END ===

=== CODE BLOCK ADDRESS 0x5ccb ===
  0x5ccb	mov    	esp, edx
  0x5ccd	dec    	eax
  0x5cce	arpl   	cx, di
  0x5cd0	xor    	edx, edx
  0x5cd2	xor    	ecx, ecx
  === BLOCK LINK ===
    0x5cd4
=== CODE BLOCK END ===

=== CODE BLOCK ADDRESS 0x5cd4 ===
  0x5cd4	call   	dword ptr [0x14a6]
  === BLOCK LINK ===
    0x5cda
=== CODE BLOCK END ===

=== CODE BLOCK ADDRESS 0x5cda ===
  0x5cda	mov    	ebx, eax
  0x5cdc	inc    	ebp
  0x5cdd	xor    	ebp, ebp
  0x5cdf	test   	eax, eax
  0x5ce1	jns    	0x5d02
  === BLOCK LINK ===
    0x5ce3
=== CODE BLOCK END ===

=== CODE BLOCK ADDRESS 0x5ce3 ===
  0x5ce3	dec    	eax
  0x5ce4	mov    	ecx, dword ptr [ebp + 0x218]
  0x5cea	inc    	esp
  0x5ceb	mov    	ecx, eax
  0x5ced	dec    	esp
  === BLOCK LINK ===
    0x5cee
=== CODE BLOCK END ===

=== CODE BLOCK ADDRESS 0x5cee ===
  0x5cee	lea    	eax, [0x1bbc]
  0x5cf4	inc    	ecx
  0x5cf5	lea    	edx, [ebp + 0x1a]
  0x5cf8	call   	0x4994
  === BLOCK LINK ===
    0x5cfd
=== CODE BLOCK END ===

=== CODE BLOCK ADDRESS 0x5cfd ===
  0x5cfd	jmp    	0x5fd8
  === BLOCK LINK ===
    0x5d02
=== CODE BLOCK END ===

=== CODE BLOCK ADDRESS 0x5d02 ===
  0x5d02	dec    	ecx
  0x5d03	mov    	ebx, ebp
  0x5d05	dec    	eax
  0x5d06	mov    	esi, edi
  0x5d08	test   	edi, edi
  === BLOCK LINK ===
    0x5d0a
=== CODE BLOCK END ===

=== CODE BLOCK ADDRESS 0x5d0a ===
  0x5d0a	jle    	0x5d2f
  === BLOCK LINK ===
    0x5d0c
=== CODE BLOCK END ===

=== CODE BLOCK ADDRESS 0x5d0c ===
  0x5d0c	dec    	ecx
  0x5d0d	mov    	eax, ebp
  0x5d0f	dec    	ecx
  0x5d10	mov    	edx, dword ptr [esp + eax*8]
  0x5d13	dec    	eax
  === BLOCK LINK ===
    0x5d14
=== CODE BLOCK END ===

=== CODE BLOCK ADDRESS 0x5d14 ===
  0x5d14	or     	ecx, 0xffffffff
  0x5d17	dec    	eax
  0x5d18	inc    	ecx
  0x5d1a	inc    	sp
  0x5d1c	cmp    	dword ptr [edx + ecx*2], ebp
  === BLOCK LINK ===
    0x5d1f
=== CODE BLOCK END ===

=== CODE BLOCK ADDRESS 0x5d1f ===
  0x5d1f	jne    	0x5d17
  === BLOCK LINK ===
    0x5d21
=== CODE BLOCK END ===

=== CODE BLOCK ADDRESS 0x5d21 ===
  0x5d21	dec    	eax
  0x5d22	inc    	ebx
  0x5d24	dec    	eax
  0x5d25	add    	ebx, ecx
  0x5d27	dec    	eax
  === BLOCK LINK ===
    0x5d28
=== CODE BLOCK END ===

=== CODE BLOCK ADDRESS 0x5d28 ===
  0x5d28	inc    	eax
  0x5d2a	dec    	eax
  0x5d2b	cmp    	eax, esi
  0x5d2d	jl     	0x5d0f
  === BLOCK LINK ===
    0x5d2f
=== CODE BLOCK END ===

=== CODE BLOCK ADDRESS 0x5d2f ===
  0x5d2f	dec    	eax
  0x5d30	lea    	ecx, [ebx + ebx]
  0x5d33	call   	dword ptr [0x144f]
  === BLOCK LINK ===
    0x5d39
=== CODE BLOCK END ===

=== CODE BLOCK ADDRESS 0x5d39 ===
  0x5d39	dec    	eax
  0x5d3a	mov    	edi, eax
  0x5d3c	dec    	eax
  0x5d3d	mov    	dword ptr [esp + 0x40], eax
  0x5d41	dec    	eax
  === BLOCK LINK ===
    0x5d42
=== CODE BLOCK END ===

=== CODE BLOCK ADDRESS 0x5d42 ===
  0x5d42	test   	eax, eax
  0x5d44	je     	0x5fb7
  === BLOCK LINK ===
    0x5d4a
=== CODE BLOCK END ===

=== CODE BLOCK ADDRESS 0x5d4a ===
  0x5d4a	inc    	sp
  0x5d4c	mov    	dword ptr [eax], ebp
  0x5d4e	dec    	esp
  0x5d4f	mov    	esi, eax
  0x5d51	dec    	esp
  === BLOCK LINK ===
    0x5d52
=== CODE BLOCK END ===

=== CODE BLOCK ADDRESS 0x5d52 ===
  0x5d52	lea    	edi, [esi - 1]
  0x5d55	dec    	ebp
  0x5d56	test   	edi, edi
  0x5d58	jle    	0x5d8c
  === BLOCK LINK ===
    0x5d5a
=== CODE BLOCK END ===

=== CODE BLOCK ADDRESS 0x5d5a ===
  0x5d5a	dec    	ecx
  0x5d5b	mov    	esi, ebp
  0x5d5d	dec    	ebp
  0x5d5e	mov    	ecx, dword ptr [esp + esi*8]
  0x5d61	dec    	esp
  === BLOCK LINK ===
    0x5d62
=== CODE BLOCK END ===

=== CODE BLOCK ADDRESS 0x5d62 ===
  0x5d62	lea    	eax, [0x1b80]
  0x5d68	dec    	eax
  0x5d69	mov    	edx, ebx
  0x5d6b	dec    	ecx
  0x5d6c	mov    	ecx, esi
  === BLOCK LINK ===
    0x5d6e
=== CODE BLOCK END ===

=== CODE BLOCK ADDRESS 0x5d6e ===
  0x5d6e	call   	0x1f50
  === BLOCK LINK ===
    0x5d73
=== CODE BLOCK END ===

=== CODE BLOCK ADDRESS 0x5d73 ===
  0x5d73	test   	eax, eax
  0x5d75	js     	0x5e07
  === BLOCK LINK ===
    0x5d7b
=== CODE BLOCK END ===

=== CODE BLOCK ADDRESS 0x5d7b ===
  0x5d7b	dec    	eax
  0x5d7c	cwde   	
  0x5d7d	dec    	eax
  0x5d7e	sub    	ebx, eax
  0x5d80	dec    	ebp
  === BLOCK LINK ===
    0x5d81
=== CODE BLOCK END ===

=== CODE BLOCK ADDRESS 0x5d81 ===
  0x5d81	lea    	esi, [esi + eax*2]
  0x5d84	dec    	eax
  0x5d85	inc    	esi
  0x5d87	dec    	ecx
  0x5d88	cmp    	esi, edi
  === BLOCK LINK ===
    0x5d8a
=== CODE BLOCK END ===

=== CODE BLOCK ADDRESS 0x5d8a ===
  0x5d8a	jl     	0x5d5d
  === BLOCK LINK ===
    0x5d8c
=== CODE BLOCK END ===

=== CODE BLOCK ADDRESS 0x5d8c ===
  0x5d8c	dec    	edi
  0x5d8d	mov    	eax, dword ptr [esp + edi*8]
  0x5d90	dec    	eax
  0x5d91	mov    	edx, ebx
  0x5d93	dec    	ecx
  === BLOCK LINK ===
    0x5d94
=== CODE BLOCK END ===

=== CODE BLOCK ADDRESS 0x5d94 ===
  0x5d94	mov    	ecx, esi
  0x5d96	call   	dword ptr [0x1644]
  === BLOCK LINK ===
    0x5d9c
=== CODE BLOCK END ===

=== CODE BLOCK ADDRESS 0x5d9c ===
  0x5d9c	xor    	edx, edx
  0x5d9e	inc    	ecx
  0x5d9f	mov    	eax, 0x800
  0x5da4	dec    	eax
  0x5da5	lea    	ecx, [0x1b4d]
  === BLOCK LINK ===
    0x5dab
=== CODE BLOCK END ===

=== CODE BLOCK ADDRESS 0x5dab ===
  0x5dab	call   	dword ptr [0x1487]
  === BLOCK LINK ===
    0x5db1
=== CODE BLOCK END ===

=== CODE BLOCK ADDRESS 0x5db1 ===
  0x5db1	dec    	eax
  0x5db2	mov    	ebx, eax
  0x5db4	dec    	eax
  0x5db5	mov    	dword ptr [esp + 0x48], eax
  0x5db9	dec    	eax
  === BLOCK LINK ===
    0x5dba
=== CODE BLOCK END ===

=== CODE BLOCK ADDRESS 0x5dba ===
  0x5dba	test   	eax, eax
  0x5dbc	je     	0x5f89
  === BLOCK LINK ===
    0x5dc2
=== CODE BLOCK END ===

=== CODE BLOCK ADDRESS 0x5dc2 ===
  0x5dc2	dec    	eax
  0x5dc3	lea    	edx, [0x1b47]
  0x5dc9	dec    	eax
  0x5dca	mov    	ecx, eax
  0x5dcc	call   	dword ptr [0x1476]
  === BLOCK LINK ===
    0x5dd2
=== CODE BLOCK END ===

=== CODE BLOCK ADDRESS 0x5dd2 ===
  0x5dd2	dec    	eax
  0x5dd3	mov    	esi, eax
  0x5dd5	dec    	eax
  0x5dd6	test   	eax, eax
  0x5dd8	jne    	0x5e2c
  === BLOCK LINK ===
    0x5dda
=== CODE BLOCK END ===

=== CODE BLOCK ADDRESS 0x5dda ===
  0x5dda	dec    	eax
  0x5ddb	mov    	ecx, dword ptr [ebp + 0x218]
  0x5de1	mov    	esi, 0x80070032
  0x5de6	inc    	esp
  0x5de7	mov    	ecx, esi
  === BLOCK LINK ===
    0x5de9
=== CODE BLOCK END ===

=== CODE BLOCK ADDRESS 0x5de9 ===
  0x5de9	dec    	esp
  0x5dea	lea    	eax, [0x1ac0]
  0x5df0	lea    	edx, [eax + 0x3c]
  0x5df3	call   	0x4994
  === BLOCK LINK ===
    0x5df8
=== CODE BLOCK END ===

=== CODE BLOCK ADDRESS 0x5df8 ===
  0x5df8	nop    	
  0x5df9	dec    	eax
  0x5dfa	mov    	ecx, ebx
  0x5dfc	call   	dword ptr [0x1426]
  === BLOCK LINK ===
    0x5e02
=== CODE BLOCK END ===

=== CODE BLOCK ADDRESS 0x5e02 ===
  0x5e02	jmp    	0x5faa
  === BLOCK LINK ===
    0x5e07
=== CODE BLOCK END ===

=== CODE BLOCK ADDRESS 0x5e07 ===
  0x5e07	dec    	eax
  0x5e08	mov    	ecx, dword ptr [ebp + 0x218]
  0x5e0e	mov    	esi, 0x8000ffff
  0x5e13	inc    	esp
  0x5e14	mov    	ecx, esi
  === BLOCK LINK ===
    0x5e16
=== CODE BLOCK END ===

=== CODE BLOCK ADDRESS 0x5e16 ===
  0x5e16	dec    	esp
  0x5e17	lea    	eax, [0x1a93]
  0x5e1d	mov    	edx, 0x30
  0x5e22	call   	0x4994
  === BLOCK LINK ===
    0x5e27
=== CODE BLOCK END ===

=== CODE BLOCK ADDRESS 0x5e27 ===
  0x5e27	jmp    	0x5faa
  === BLOCK LINK ===
    0x5e2c
=== CODE BLOCK END ===

=== CODE BLOCK ADDRESS 0x5e2c ===
  0x5e2c	mov    	edx, 0x104
  0x5e31	dec    	eax
  0x5e32	lea    	ecx, [ebp - 0x40]
  0x5e35	call   	dword ptr [0x14e5]
  === BLOCK LINK ===
    0x5e3b
=== CODE BLOCK END ===

=== CODE BLOCK ADDRESS 0x5e3b ===
  0x5e3b	inc    	ecx
  0x5e3c	mov    	esi, 0x70
  0x5e41	inc    	ebp
  0x5e42	mov    	eax, esi
  0x5e44	xor    	edx, edx
  === BLOCK LINK ===
    0x5e46
=== CODE BLOCK END ===

=== CODE BLOCK ADDRESS 0x5e46 ===
  0x5e46	dec    	eax
  0x5e47	lea    	ecx, [esp + 0x50]
  0x5e4b	call   	0x1ee6
  === BLOCK LINK ===
    0x5e50
=== CODE BLOCK END ===

=== CODE BLOCK ADDRESS 0x5e50 ===
  0x5e50	inc    	esp
  0x5e51	mov    	dword ptr [esp + 0x50], esi
  0x5e55	dec    	eax
  0x5e56	lea    	eax, [0x1ac4]
  0x5e5c	dec    	eax
  === BLOCK LINK ===
    0x5e5d
=== CODE BLOCK END ===

=== CODE BLOCK ADDRESS 0x5e5d ===
  0x5e5d	mov    	dword ptr [esp + 0x68], eax
  0x5e61	dec    	eax
  0x5e62	lea    	eax, [ebp - 0x40]
  0x5e65	dec    	eax
  0x5e66	mov    	dword ptr [esp + 0x78], eax
  === BLOCK LINK ===
    0x5e6a
=== CODE BLOCK END ===

=== CODE BLOCK ADDRESS 0x5e6a ===
  0x5e6a	dec    	eax
  0x5e6b	mov    	dword ptr [esp + 0x70], edi
  0x5e6f	mov    	dword ptr [ebp - 0x80], 1
  0x5e76	mov    	dword ptr [esp + 0x54], 0x40
  0x5e7e	dec    	ecx
  === BLOCK LINK ===
    0x5e7f
=== CODE BLOCK END ===

=== CODE BLOCK ADDRESS 0x5e7f ===
  0x5e7f	mov    	edx, 0x305ef170
  0x5e84	.byte  	0xf0
  0x5e85	das    	
  0x5e86	xor    	esi, esi
  0x5e88	dec    	eax
  === BLOCK LINK ===
    0x5e89
=== CODE BLOCK END ===

=== CODE BLOCK ADDRESS 0x5e89 ===
  0x5e89	lea    	ecx, [esp + 0x50]
  0x5e8d	dec    	eax
  0x5e8e	mov    	eax, esi
  0x5e90	call   	dword ptr [0x1602]
  === BLOCK LINK ===
    0x5e96
=== CODE BLOCK END ===

=== CODE BLOCK ADDRESS 0x5e96 ===
  0x5e96	test   	eax, eax
  0x5e98	jne    	0x5eb7
  === BLOCK LINK ===
    0x5e9a
=== CODE BLOCK END ===

=== CODE BLOCK ADDRESS 0x5e9a ===
  0x5e9a	dec    	eax
  0x5e9b	mov    	ecx, dword ptr [ebp + 0x218]
  0x5ea1	dec    	esp
  0x5ea2	lea    	eax, [0x1a08]
  0x5ea8	lea    	edx, [eax + 0x49]
  === BLOCK LINK ===
    0x5eab
=== CODE BLOCK END ===

=== CODE BLOCK ADDRESS 0x5eab ===
  0x5eab	call   	0x4970
  === BLOCK LINK ===
    0x5eb0
=== CODE BLOCK END ===

=== CODE BLOCK ADDRESS 0x5eb0 ===
  0x5eb0	mov    	esi, eax
  0x5eb2	jmp    	0x5df9
  === BLOCK LINK ===
    0x5eb7
=== CODE BLOCK END ===

=== CODE BLOCK ADDRESS 0x5eb7 ===
  0x5eb7	or     	edx, 0xffffffff
  0x5eba	dec    	eax
  0x5ebb	mov    	ecx, dword ptr [ebp - 0x48]
  0x5ebe	call   	dword ptr [0x1434]
  === BLOCK LINK ===
    0x5ec4
=== CODE BLOCK END ===

=== CODE BLOCK ADDRESS 0x5ec4 ===
  0x5ec4	test   	eax, eax
  0x5ec6	je     	0x5efa
  === BLOCK LINK ===
    0x5ec8
=== CODE BLOCK END ===

=== CODE BLOCK ADDRESS 0x5ec8 ===
  0x5ec8	dec    	eax
  0x5ec9	mov    	ecx, dword ptr [ebp + 0x218]
  0x5ecf	mov    	dword ptr [esp + 0x28], eax
  0x5ed3	dec    	eax
  0x5ed4	lea    	eax, [0x1a6e]
  === BLOCK LINK ===
    0x5eda
=== CODE BLOCK END ===

=== CODE BLOCK ADDRESS 0x5eda ===
  0x5eda	dec    	eax
  0x5edb	mov    	dword ptr [esp + 0x20], eax
  0x5edf	mov    	esi, 0x8000ffff
  0x5ee4	inc    	esp
  0x5ee5	mov    	ecx, esi
  === BLOCK LINK ===
    0x5ee7
=== CODE BLOCK END ===

=== CODE BLOCK ADDRESS 0x5ee7 ===
  0x5ee7	dec    	esp
  0x5ee8	lea    	eax, [0x19c2]
  0x5eee	mov    	edx, 0x62
  0x5ef3	call   	0x49bc
  === BLOCK LINK ===
    0x5ef8
=== CODE BLOCK END ===

=== CODE BLOCK ADDRESS 0x5ef8 ===
  0x5ef8	jmp    	0x5f25
  === BLOCK LINK ===
    0x5efa
=== CODE BLOCK END ===

=== CODE BLOCK ADDRESS 0x5efa ===
  0x5efa	dec    	eax
  0x5efb	lea    	edx, [esp + 0x30]
  0x5eff	dec    	eax
  0x5f00	mov    	ecx, dword ptr [ebp - 0x48]
  0x5f03	call   	dword ptr [0x1387]
  === BLOCK LINK ===
    0x5f09
=== CODE BLOCK END ===

=== CODE BLOCK ADDRESS 0x5f09 ===
  0x5f09	test   	eax, eax
  0x5f0b	jne    	0x5f3d
  === BLOCK LINK ===
    0x5f0d
=== CODE BLOCK END ===

=== CODE BLOCK ADDRESS 0x5f0d ===
  0x5f0d	dec    	eax
  0x5f0e	mov    	ecx, dword ptr [ebp + 0x218]
  0x5f14	dec    	esp
  0x5f15	lea    	eax, [0x1995]
  0x5f1b	lea    	edx, [eax + 0x5d]
  === BLOCK LINK ===
    0x5f1e
=== CODE BLOCK END ===

=== CODE BLOCK ADDRESS 0x5f1e ===
  0x5f1e	call   	0x4970
  === BLOCK LINK ===
    0x5f23
=== CODE BLOCK END ===

=== CODE BLOCK ADDRESS 0x5f23 ===
  0x5f23	mov    	esi, eax
  0x5f25	dec    	eax
  0x5f26	mov    	ecx, dword ptr [ebp - 0x48]
  0x5f29	dec    	eax
  0x5f2a	test   	ecx, ecx
  === BLOCK LINK ===
    0x5f2c
=== CODE BLOCK END ===

=== CODE BLOCK ADDRESS 0x5f2c ===
  0x5f2c	je     	0x5df9
  === BLOCK LINK ===
    0x5f32
=== CODE BLOCK END ===

=== CODE BLOCK ADDRESS 0x5f32 ===
  0x5f32	call   	dword ptr [0x12b0]
  === BLOCK LINK ===
    0x5f38
=== CODE BLOCK END ===

=== CODE BLOCK ADDRESS 0x5f38 ===
  0x5f38	jmp    	0x5df9
  === BLOCK LINK ===
    0x5f3d
=== CODE BLOCK END ===

=== CODE BLOCK ADDRESS 0x5f3d ===
  0x5f3d	mov    	esi, dword ptr [esp + 0x30]
  0x5f41	test   	esi, esi
  0x5f43	jns    	0x5f62
  === BLOCK LINK ===
    0x5f45
=== CODE BLOCK END ===

=== CODE BLOCK ADDRESS 0x5f45 ===
  0x5f45	dec    	eax
  0x5f46	mov    	ecx, dword ptr [ebp + 0x218]
  0x5f4c	inc    	esp
  0x5f4d	mov    	ecx, esi
  0x5f4f	dec    	esp
  === BLOCK LINK ===
    0x5f50
=== CODE BLOCK END ===

=== CODE BLOCK ADDRESS 0x5f50 ===
  0x5f50	lea    	eax, [0x195a]
  0x5f56	mov    	edx, 0x5e
  0x5f5b	call   	0x4994
  === BLOCK LINK ===
    0x5f60
=== CODE BLOCK END ===

=== CODE BLOCK ADDRESS 0x5f60 ===
  0x5f60	jmp    	0x5f25
  === BLOCK LINK ===
    0x5f62
=== CODE BLOCK END ===

=== CODE BLOCK ADDRESS 0x5f62 ===
  0x5f62	dec    	eax
  0x5f63	mov    	ecx, dword ptr [ebp - 0x48]
  0x5f66	dec    	eax
  0x5f67	test   	ecx, ecx
  0x5f69	je     	0x5f72
  === BLOCK LINK ===
    0x5f6b
=== CODE BLOCK END ===

=== CODE BLOCK ADDRESS 0x5f6b ===
  0x5f6b	call   	dword ptr [0x1277]
  === BLOCK LINK ===
    0x5f71
=== CODE BLOCK END ===

=== CODE BLOCK ADDRESS 0x5f71 ===
  0x5f71	nop    	
  0x5f72	dec    	eax
  0x5f73	mov    	ecx, ebx
  0x5f75	call   	dword ptr [0x12ad]
  === BLOCK LINK ===
    0x5f7b
=== CODE BLOCK END ===

=== CODE BLOCK ADDRESS 0x5f7b ===
  0x5f7b	nop    	
  0x5f7c	dec    	eax
  0x5f7d	mov    	ecx, edi
  0x5f7f	call   	dword ptr [0x120b]
  === BLOCK LINK ===
    0x5f85
=== CODE BLOCK END ===

=== CODE BLOCK ADDRESS 0x5f85 ===
  0x5f85	xor    	eax, eax
  0x5f87	jmp    	0x5fda
  === BLOCK LINK ===
    0x5f89
=== CODE BLOCK END ===

=== CODE BLOCK ADDRESS 0x5f89 ===
  0x5f89	dec    	eax
  0x5f8a	mov    	ecx, dword ptr [ebp + 0x218]
  0x5f90	mov    	esi, 0x80070032
  0x5f95	inc    	esp
  0x5f96	mov    	ecx, esi
  === BLOCK LINK ===
    0x5f98
=== CODE BLOCK END ===

=== CODE BLOCK ADDRESS 0x5f98 ===
  0x5f98	dec    	esp
  0x5f99	lea    	eax, [0x1911]
  0x5f9f	mov    	edx, 0x39
  0x5fa4	call   	0x4994
  === BLOCK LINK ===
    0x5fa9
=== CODE BLOCK END ===

=== CODE BLOCK ADDRESS 0x5fa9 ===
  0x5fa9	nop    	
  0x5faa	dec    	eax
  0x5fab	mov    	ecx, edi
  0x5fad	call   	dword ptr [0x11dd]
  === BLOCK LINK ===
    0x5fb3
=== CODE BLOCK END ===

=== CODE BLOCK ADDRESS 0x5fb3 ===
  0x5fb3	mov    	eax, esi
  0x5fb5	jmp    	0x5fda
  === BLOCK LINK ===
    0x5fb7
=== CODE BLOCK END ===

=== CODE BLOCK ADDRESS 0x5fb7 ===
  0x5fb7	dec    	eax
  0x5fb8	mov    	ecx, dword ptr [ebp + 0x218]
  0x5fbe	mov    	ebx, 0x8007000e
  0x5fc3	inc    	esp
  0x5fc4	mov    	ecx, ebx
  === BLOCK LINK ===
    0x5fc6
=== CODE BLOCK END ===

=== CODE BLOCK ADDRESS 0x5fc6 ===
  0x5fc6	dec    	esp
  0x5fc7	lea    	eax, [0x18e3]
  0x5fcd	mov    	edx, 0x28
  0x5fd2	call   	0x4994
  === BLOCK LINK ===
    0x5fd7
=== CODE BLOCK END ===

=== CODE BLOCK ADDRESS 0x5fd7 ===
  0x5fd7	nop    	
  0x5fd8	mov    	eax, ebx
  0x5fda	dec    	eax
  0x5fdb	mov    	ecx, dword ptr [ebp + 0x1d0]
  0x5fe1	dec    	eax
  === BLOCK LINK ===
    0x5fe2
=== CODE BLOCK END ===

=== CODE BLOCK ADDRESS 0x5fe2 ===
  0x5fe2	xor    	ecx, esp
  0x5fe4	call   	0x1450
  === BLOCK LINK ===
    0x5fe9
=== CODE BLOCK END ===

=== CODE BLOCK ADDRESS 0x5fe9 ===
  0x5fe9	dec    	eax
  0x5fea	mov    	ebx, dword ptr [esp + 0x330]
  0x5ff1	dec    	eax
  0x5ff2	add    	esp, 0x2e0
  0x5ff8	inc    	ecx
  === BLOCK LINK ===
    0x5ff9
=== CODE BLOCK END ===

=== CODE BLOCK ADDRESS 0x5ff9 ===
  0x5ff9	pop    	edi
  0x5ffa	inc    	ecx
  0x5ffb	pop    	esi
  0x5ffc	inc    	ecx
  0x5ffd	pop    	ebp
  === BLOCK LINK ===
    0x5ffe
=== CODE BLOCK END ===

=== CODE BLOCK ADDRESS 0x5ffe ===
  0x5ffe	inc    	ecx
  0x5fff	pop    	esp
  0x6000	pop    	edi
  0x6001	pop    	esi
  0x6002	pop    	ebp
  === BLOCK LINK ===
    0x6003
=== CODE BLOCK END ===

=== CODE BLOCK ADDRESS 0x6003 ===
  0x6003	ret    	
  0x6004	dec    	eax
  0x6005	sub    	esp, 0x28
  0x6008	dec    	ebp
  0x6009	mov    	eax, dword ptr [ecx + 0x38]
  === BLOCK LINK ===
    0x600c
=== CODE BLOCK END ===

=== CODE BLOCK ADDRESS 0x175f ===
  0x175f	dec    	eax
  0x1760	mov    	dword ptr [esp], edx
  0x1763	dec    	ecx
  === BLOCK LINK ===
    0x1764
=== CODE BLOCK END ===

=== CODE BLOCK ADDRESS 0x600c ===
  0x600c	dec    	eax
  0x600d	mov    	ecx, edx
  0x600f	dec    	ecx
  0x6010	mov    	edx, ecx
  0x6012	call   	0x6024
  === BLOCK LINK ===
    0x6017
=== CODE BLOCK END ===

=== CODE BLOCK ADDRESS 0x6017 ===
  0x6017	mov    	eax, 1
  0x601c	dec    	eax
  0x601d	add    	esp, 0x28
  0x6020	ret    	
  0x6021	int3   	
  === BLOCK LINK ===
    0x6022
=== CODE BLOCK END ===

=== CODE BLOCK ADDRESS 0x6022 ===
  0x6022	int3   	
  0x6023	int3   	
  0x6024	inc    	eax
  0x6025	push   	ebx
  0x6026	inc    	ebp
  === BLOCK LINK ===
    0x6027
=== CODE BLOCK END ===

=== CODE BLOCK ADDRESS 0x6027 ===
  0x6027	mov    	ebx, dword ptr [eax]
  0x6029	dec    	eax
  0x602a	mov    	ebx, edx
  0x602c	inc    	ecx
  0x602d	and    	ebx, 0xfffffff8
  === BLOCK LINK ===
    0x6030
=== CODE BLOCK END ===

=== CODE BLOCK ADDRESS 0x6030 ===
  0x6030	dec    	esp
  0x6031	mov    	ecx, ecx
  0x6033	inc    	ecx
  0x6034	test   	byte ptr [eax], 4
  0x6037	dec    	esp
  === BLOCK LINK ===
    0x6038
=== CODE BLOCK END ===

=== CODE BLOCK ADDRESS 0x6038 ===
  0x6038	mov    	edx, ecx
  0x603a	je     	0x604f
  === BLOCK LINK ===
    0x603c
=== CODE BLOCK END ===

=== CODE BLOCK ADDRESS 0x603c ===
  0x603c	inc    	ecx
  0x603d	mov    	eax, dword ptr [eax + 8]
  0x6040	dec    	ebp
  0x6041	arpl   	word ptr [eax + 4], dx
  0x6044	neg    	eax
  === BLOCK LINK ===
    0x6046
=== CODE BLOCK END ===

=== CODE BLOCK ADDRESS 0x6046 ===
  0x6046	dec    	esp
  0x6047	add    	edx, ecx
  0x6049	dec    	eax
  0x604a	arpl   	ax, cx
  0x604c	dec    	esp
  === BLOCK LINK ===
    0x604d
=== CODE BLOCK END ===

=== CODE BLOCK ADDRESS 0x604d ===
  0x604d	and    	edx, ecx
  0x604f	dec    	ecx
  0x6050	arpl   	bx, ax
  0x6052	dec    	edx
  0x6053	mov    	edx, dword ptr [eax + edx]
  === BLOCK LINK ===
    0x6056
=== CODE BLOCK END ===

=== CODE BLOCK ADDRESS 0x6056 ===
  0x6056	dec    	eax
  0x6057	mov    	eax, dword ptr [ebx + 0x10]
  0x605a	mov    	ecx, dword ptr [eax + 8]
  0x605d	dec    	eax
  0x605e	mov    	eax, dword ptr [ebx + 8]
  === BLOCK LINK ===
    0x6061
=== CODE BLOCK END ===

=== CODE BLOCK ADDRESS 0x6061 ===
  0x6061	test   	byte ptr [ecx + eax + 3], 0xf
  0x6066	je     	0x6073
  === BLOCK LINK ===
    0x6068
=== CODE BLOCK END ===

=== CODE BLOCK ADDRESS 0x6068 ===
  0x6068	movzx  	eax, byte ptr [ecx + eax + 3]
  0x606d	and    	eax, 0xfffffff0
  0x6070	dec    	esp
  0x6071	add    	ecx, eax
  0x6073	dec    	esp
  === BLOCK LINK ===
    0x6074
=== CODE BLOCK END ===

=== CODE BLOCK ADDRESS 0x6074 ===
  0x6074	xor    	ecx, edx
  0x6076	dec    	ecx
  0x6077	mov    	ecx, ecx
  0x6079	pop    	ebx
  0x607a	jmp    	0x1450
  === BLOCK LINK ===
    0x607f
=== CODE BLOCK END ===

=== CODE BLOCK ADDRESS 0x607f ===
  0x607f	int3   	
  0x6080	dec    	eax
  0x6081	mov    	eax, esp
  0x6083	dec    	eax
  0x6084	mov    	dword ptr [eax + 8], ebx
  === BLOCK LINK ===
    0x6087
=== CODE BLOCK END ===

=== CODE BLOCK ADDRESS 0x6087 ===
  0x6087	dec    	eax
  0x6088	mov    	dword ptr [eax + 0x10], ebp
  0x608b	dec    	eax
  0x608c	mov    	dword ptr [eax + 0x18], esi
  0x608f	dec    	eax
  === BLOCK LINK ===
    0x6090
=== CODE BLOCK END ===

=== CODE BLOCK ADDRESS 0x6090 ===
  0x6090	mov    	dword ptr [eax + 0x20], edi
  0x6093	inc    	ecx
  0x6094	push   	esi
  0x6095	dec    	eax
  0x6096	sub    	esp, 0x20
  === BLOCK LINK ===
    0x6099
=== CODE BLOCK END ===

=== CODE BLOCK ADDRESS 0x6099 ===
  0x6099	dec    	ecx
  0x609a	mov    	ebx, dword ptr [ecx + 0x38]
  0x609d	dec    	eax
  0x609e	mov    	esi, edx
  0x60a0	dec    	ebp
  === BLOCK LINK ===
    0x60a1
=== CODE BLOCK END ===

=== CODE BLOCK ADDRESS 0x60a1 ===
  0x60a1	mov    	esi, eax
  0x60a3	dec    	eax
  0x60a4	mov    	ebp, ecx
  0x60a6	dec    	ecx
  0x60a7	mov    	edx, ecx
  === BLOCK LINK ===
    0x60a9
=== CODE BLOCK END ===

=== CODE BLOCK ADDRESS 0x60a9 ===
  0x60a9	dec    	eax
  0x60aa	mov    	ecx, esi
  0x60ac	dec    	ecx
  0x60ad	mov    	edi, ecx
  0x60af	dec    	esp
  === BLOCK LINK ===
    0x60b0
=== CODE BLOCK END ===

=== CODE BLOCK ADDRESS 0x60b0 ===
  0x60b0	lea    	eax, [ebx + 4]
  0x60b3	call   	0x6024
  === BLOCK LINK ===
    0x60b8
=== CODE BLOCK END ===

=== CODE BLOCK ADDRESS 0x60b8 ===
  0x60b8	mov    	eax, dword ptr [ebp + 4]
  0x60bb	and    	al, 0x66
  0x60bd	neg    	al
  0x60bf	mov    	eax, 1
  0x60c4	inc    	ebp
  === BLOCK LINK ===
    0x60c5
=== CODE BLOCK END ===

=== CODE BLOCK ADDRESS 0x60c5 ===
  0x60c5	sbb    	eax, eax
  0x60c7	inc    	ecx
  0x60c8	neg    	eax
  0x60ca	inc    	esp
  0x60cb	add    	eax, eax
  === BLOCK LINK ===
    0x60cd
=== CODE BLOCK END ===

=== CODE BLOCK ADDRESS 0x60cd ===
  0x60cd	inc    	esp
  0x60ce	test   	dword ptr [ebx + 4], eax
  0x60d1	je     	0x60e4
  === BLOCK LINK ===
    0x60d3
=== CODE BLOCK END ===

=== CODE BLOCK ADDRESS 0x60d3 ===
  0x60d3	dec    	esp
  0x60d4	mov    	ecx, edi
  0x60d6	dec    	ebp
  0x60d7	mov    	eax, esi
  0x60d9	dec    	eax
  === BLOCK LINK ===
    0x60da
=== CODE BLOCK END ===

=== CODE BLOCK ADDRESS 0x60da ===
  0x60da	mov    	edx, esi
  0x60dc	dec    	eax
  0x60dd	mov    	ecx, ebp
  0x60df	call   	0x1e38
  === BLOCK LINK ===
    0x60e4
=== CODE BLOCK END ===

=== CODE BLOCK ADDRESS 0x60e4 ===
  0x60e4	dec    	eax
  0x60e5	mov    	ebx, dword ptr [esp + 0x30]
  0x60e9	dec    	eax
  0x60ea	mov    	ebp, dword ptr [esp + 0x38]
  0x60ee	dec    	eax
  === BLOCK LINK ===
    0x60ef
=== CODE BLOCK END ===

=== CODE BLOCK ADDRESS 0x60ef ===
  0x60ef	mov    	esi, dword ptr [esp + 0x40]
  0x60f3	dec    	eax
  0x60f4	mov    	edi, dword ptr [esp + 0x48]
  0x60f8	dec    	eax
  0x60f9	add    	esp, 0x20
  === BLOCK LINK ===
    0x60fc
=== CODE BLOCK END ===

=== CODE BLOCK ADDRESS 0x60fc ===
  0x60fc	inc    	ecx
  0x60fd	pop    	esi
  0x60fe	ret    	
  0x60ff	int3   	
  0x6100	int3   	
  === BLOCK LINK ===
    0x6101
=== CODE BLOCK END ===

=== CODE BLOCK ADDRESS 0x179f ===
  0x179f	dec    	eax
  0x17a0	add    	esp, 0x18
  0x17a3	ret    	
  0x17a4	inc    	eax
  === BLOCK LINK ===
    0x17a5
=== CODE BLOCK END ===

=== CODE BLOCK ADDRESS 0x6101 ===
  0x6101	int3   	
  0x6102	int3   	
  0x6103	int3   	
  0x6104	int3   	
  0x6105	int3   	
  === BLOCK LINK ===
    0x6106
=== CODE BLOCK END ===

=== CODE BLOCK ADDRESS 0x6106 ===
  0x6106	nop    	word ptr [eax + eax]
  0x6110	dec    	eax
  0x6111	sub    	esp, 0x10
  0x6114	dec    	esp
  0x6115	mov    	dword ptr [esp], edx
  === BLOCK LINK ===
    0x6118
=== CODE BLOCK END ===

=== CODE BLOCK ADDRESS 0x6118 ===
  0x6118	dec    	esp
  0x6119	mov    	dword ptr [esp + 8], ebx
  0x611d	dec    	ebp
  0x611e	xor    	ebx, ebx
  0x6120	dec    	esp
  === BLOCK LINK ===
    0x6121
=== CODE BLOCK END ===

=== CODE BLOCK ADDRESS 0x6121 ===
  0x6121	lea    	edx, [esp + 0x18]
  0x6125	dec    	esp
  0x6126	sub    	edx, eax
  0x6128	dec    	ebp
  0x6129	cmovb  	edx, ebx
  === BLOCK LINK ===
    0x612c
=== CODE BLOCK END ===

=== CODE BLOCK ADDRESS 0x612c ===
  0x612c	dec    	esp
  0x612e	mov    	ebx, dword ptr [0x10]
  0x6135	dec    	ebp
  0x6136	cmp    	edx, ebx
  0x6138	jae    	0x6150
  === BLOCK LINK ===
    0x613a
=== CODE BLOCK END ===

=== CODE BLOCK ADDRESS 0x613a ===
  0x613a	inc    	cx
  0x613c	and    	edx, 0x8d4df000
  0x6142	wait   	
  0x6143	add    	al, dh
  0x6145	.byte  	0xff
  === BLOCK LINK ===
    0x6146
=== CODE BLOCK END ===

=== CODE BLOCK ADDRESS 0x6146 ===
  0x6146	inc    	dword ptr [ecx - 0x3a]
  0x6149	add    	eax, dword ptr [eax]
  0x614b	dec    	ebp
  0x614c	cmp    	edx, ebx
  0x614e	jne    	0x6140
  === BLOCK LINK ===
    0x6150
=== CODE BLOCK END ===

=== CODE BLOCK ADDRESS 0x6150 ===
  0x6150	dec    	esp
  0x6151	mov    	edx, dword ptr [esp]
  0x6154	dec    	esp
  0x6155	mov    	ebx, dword ptr [esp + 8]
  0x6159	dec    	eax
  === BLOCK LINK ===
    0x615a
=== CODE BLOCK END ===

=== CODE BLOCK ADDRESS 0x615a ===
  0x615a	add    	esp, 0x10
  0x615d	ret    	
  0x615e	jmp    	dword ptr [0x12d4]
  === BLOCK LINK ===
    0x6164
=== CODE BLOCK END ===

=== CODE BLOCK ADDRESS 0x6164 ===
  0x6164	jmp    	dword ptr [0x1256]
  === BLOCK LINK ===
    0x616a
=== CODE BLOCK END ===

=== CODE BLOCK ADDRESS 0x616a ===
  0x616a	int3   	
  0x616b	int3   	
  0x616c	int3   	
  0x616d	int3   	
  0x616e	int3   	
  === BLOCK LINK ===
    0x616f
=== CODE BLOCK END ===

=== CODE BLOCK ADDRESS 0x616f ===
  0x616f	int3   	
  0x6170	int3   	
  0x6171	int3   	
  0x6172	int3   	
  0x6173	int3   	
  === BLOCK LINK ===
    0x6174
=== CODE BLOCK END ===

=== CODE BLOCK ADDRESS 0x6174 ===
  0x6174	int3   	
  0x6175	int3   	
  0x6176	nop    	word ptr [eax + eax]
  0x6180	jmp    	eax
  === BLOCK LINK ===
    0x6182
=== CODE BLOCK END ===

=== CODE BLOCK ADDRESS 0x6182 ===
  0x6182	int3   	
  0x6183	int3   	
  0x6184	int3   	
  0x6185	int3   	
  0x6186	int3   	
  === BLOCK LINK ===
    0x6187
=== CODE BLOCK END ===

=== CODE BLOCK ADDRESS 0x6187 ===
  0x6187	int3   	
  0x6188	int3   	
  0x6189	int3   	
  0x618a	int3   	
  0x618b	int3   	
  === BLOCK LINK ===
    0x618c
=== CODE BLOCK END ===

=== CODE BLOCK ADDRESS 0x618c ===
  0x618c	int3   	
  0x618d	int3   	
  0x618e	int3   	
  0x618f	int3   	
  0x6190	int3   	
  === BLOCK LINK ===
    0x6191
=== CODE BLOCK END ===

=== CODE BLOCK ADDRESS 0x6191 ===
  0x6191	int3   	
  0x6192	int3   	
  0x6193	int3   	
  0x6194	int3   	
  0x6195	int3   	
  === BLOCK LINK ===
    0x6196
=== CODE BLOCK END ===

=== CODE BLOCK ADDRESS 0x6196 ===
  0x6196	nop    	word ptr [eax + eax]
  0x61a0	jmp    	dword ptr [0x12ea]
  === BLOCK LINK ===
    0x61a6
=== CODE BLOCK END ===

=== CODE BLOCK ADDRESS 0x61a6 ===
  0x61a6	inc    	eax
  0x61a7	push   	ebp
  0x61a8	dec    	eax
  0x61a9	sub    	esp, 0x20
  0x61ac	dec    	eax
  === BLOCK LINK ===
    0x61ad
=== CODE BLOCK END ===

=== CODE BLOCK ADDRESS 0x61ad ===
  0x61ad	mov    	ebp, edx
  0x61af	dec    	eax
  0x61b0	mov    	eax, dword ptr [ecx]
  0x61b2	dec    	eax
  0x61b3	mov    	edx, ecx
  === BLOCK LINK ===
    0x61b5
=== CODE BLOCK END ===

=== CODE BLOCK ADDRESS 0x61b5 ===
  0x61b5	mov    	ecx, dword ptr [eax]
  0x61b7	call   	0x1eaa
  === BLOCK LINK ===
    0x61bc
=== CODE BLOCK END ===

=== CODE BLOCK ADDRESS 0x61bc ===
  0x61bc	nop    	
  0x61bd	dec    	eax
  0x61be	add    	esp, 0x20
  0x61c1	pop    	ebp
  0x61c2	ret    	
  === BLOCK LINK ===
    0x61c3
=== CODE BLOCK END ===

=== CODE BLOCK ADDRESS 0x61c3 ===
  0x61c3	int3   	
  0x61c4	inc    	eax
  0x61c5	push   	ebp
  0x61c6	dec    	eax
  0x61c7	mov    	ebp, edx
  === BLOCK LINK ===
    0x61c9
=== CODE BLOCK END ===

=== CODE BLOCK ADDRESS 0x61c9 ===
  0x61c9	dec    	eax
  0x61ca	mov    	eax, dword ptr [ecx]
  0x61cc	xor    	ecx, ecx
  0x61ce	cmp    	dword ptr [eax], 0xc0000005
  0x61d4	sete   	cl
  === BLOCK LINK ===
    0x61d7
=== CODE BLOCK END ===

=== CODE BLOCK ADDRESS 0x61d7 ===
  0x61d7	mov    	eax, ecx
  0x61d9	pop    	ebp
  0x61da	ret    	
  0x61db	int3   	
  0x61dc	dec    	eax
  === BLOCK LINK ===
    0x61dd
=== CODE BLOCK END ===

=== CODE BLOCK ADDRESS 0x61dd ===
  0x61dd	lea    	ecx, [edx + 0x30]
  0x61e3	jmp    	0x2e70
  === BLOCK LINK ===
    0x61e8
=== CODE BLOCK END ===

=== CODE BLOCK ADDRESS 0x61e8 ===
  0x61e8	dec    	eax
  0x61e9	lea    	ecx, [edx + 0x48]
  0x61ef	jmp    	0x2ecc
  === BLOCK LINK ===
    0x61f4
=== CODE BLOCK END ===

=== CODE BLOCK ADDRESS 0x61f4 ===
  0x61f4	dec    	eax
  0x61f5	lea    	ecx, [edx + 0x40]
  0x61fb	jmp    	0x2e9c
  === BLOCK LINK ===
    0x6200
=== CODE BLOCK END ===

=== CODE BLOCK ADDRESS 0x6200 ===
  0x6200	dec    	eax
  0x6201	lea    	ecx, [edx + 0x48]
  0x6207	jmp    	0x2eb4
  === BLOCK LINK ===
    0x620c
=== CODE BLOCK END ===

=== CODE BLOCK ADDRESS 0x620c ===
  0x620c	int3   	
  0x620d	int3   	
  0x620e	int3   	
  0x620f	int3   	
  0x6210	int3   	
  === BLOCK LINK ===
    0x6211
=== CODE BLOCK END ===

=== CODE BLOCK ADDRESS 0x6211 ===
  0x6211	int3   	
  0x6212	int3   	
  0x6213	int3   	
  0x6214	int3   	
  0x6215	int3   	
  === BLOCK LINK ===
    0x6216
=== CODE BLOCK END ===

=== CODE BLOCK ADDRESS 0x6216 ===
  0x6216	int3   	
  0x6217	int3   	
  0x6218	jno    	0x6262
  === BLOCK LINK ===
    0x621a
=== CODE BLOCK END ===

=== CODE BLOCK ADDRESS 0x621a ===
  0x621a	ficom  	dword ptr [esi - 0x6a]
  0x621d	int1   	
  0x621f	test   	dword ptr [eax - 0x7d], ecx
  0x6222	in     	al, dx
  0x6223	cmp    	byte ptr [eax - 0x39], cl
  === BLOCK LINK ===
    0x6226
=== CODE BLOCK END ===

=== CODE BLOCK ADDRESS 0x6226 ===
  0x6226	inc    	esp
  0x6227	and    	al, 0x20
  0x6229	.byte  	0xfe
  0x622a	.byte  	0xff
  0x622b	.byte  	0xff
  === BLOCK LINK ===
    0x622c
=== CODE BLOCK END ===

=== CODE BLOCK ADDRESS 0x622c ===
  0x622c	dec    	dword ptr [eax - 0x75]
  0x622f	or     	eax, 0x3dd4
  0x6234	dec    	eax
  0x6235	test   	ecx, ecx
  0x6237	je     	0x623f
  === BLOCK LINK ===
    0x6239
=== CODE BLOCK END ===

=== CODE BLOCK ADDRESS 0x6239 ===
  0x6239	call   	0x47bc
  === BLOCK LINK ===
    0x623e
=== CODE BLOCK END ===

=== CODE BLOCK ADDRESS 0x623e ===
  0x623e	nop    	
  0x623f	dec    	eax
  0x6240	add    	esp, 0x38
  0x6243	ret    	
  0x6244	int3   	
  === BLOCK LINK ===
    0x6245
=== CODE BLOCK END ===

=== CODE BLOCK ADDRESS 0x6245 ===
  0x6245	int3   	
  0x6246	int3   	
  0x6247	int3   	
  0x6248	jno    	0x6292
  === BLOCK LINK ===
    0x624a
=== CODE BLOCK END ===

=== CODE BLOCK ADDRESS 0x624a ===
  0x624a	ficom  	dword ptr [esi - 0x6a]
  0x624d	int1   	
  0x624f	test   	dword ptr [eax - 0x73], ecx
  0x6252	or     	eax, 0x3e69
  0x6257	jmp    	0x2d98
  === BLOCK LINK ===
    0x625c
=== CODE BLOCK END ===

=== CODE BLOCK ADDRESS 0x625c ===
  0x625c	add    	byte ptr [eax], al
  0x625e	add    	byte ptr [eax], al
  0x6260	add    	byte ptr [eax], al
  0x6262	add    	byte ptr [eax], al
  0x6264	add    	byte ptr [eax], al
  === BLOCK LINK ===
    0x6266
=== CODE BLOCK END ===

=== CODE BLOCK ADDRESS 0x6266 ===
  0x6266	add    	byte ptr [eax], al
  0x6268	add    	byte ptr [eax], al
  0x626a	add    	byte ptr [eax], al
  0x626c	add    	byte ptr [eax], al
  0x626e	add    	byte ptr [eax], al
  === BLOCK LINK ===
    0x6270
=== CODE BLOCK END ===

=== CODE BLOCK ADDRESS 0x6270 ===
  0x6270	add    	byte ptr [eax], al
  0x6272	add    	byte ptr [eax], al
  0x6274	add    	byte ptr [eax], al
  0x6276	add    	byte ptr [eax], al
  0x6278	add    	byte ptr [eax], al
  === BLOCK LINK ===
    0x627a
=== CODE BLOCK END ===

=== CODE BLOCK ADDRESS 0x627a ===
  0x627a	add    	byte ptr [eax], al
  0x627c	add    	byte ptr [eax], al
  0x627e	add    	byte ptr [eax], al
  0x6280	add    	byte ptr [eax], al
  0x6282	add    	byte ptr [eax], al
  === BLOCK LINK ===
    0x6284
=== CODE BLOCK END ===

=== CODE BLOCK ADDRESS 0x6284 ===
  0x6284	add    	byte ptr [eax], al
  0x6286	add    	byte ptr [eax], al
  0x6288	add    	byte ptr [eax], al
  0x628a	add    	byte ptr [eax], al
  0x628c	add    	byte ptr [eax], al
  === BLOCK LINK ===
    0x628e
=== CODE BLOCK END ===

=== CODE BLOCK ADDRESS 0x628e ===
  0x628e	add    	byte ptr [eax], al
  0x6290	add    	byte ptr [eax], al
  0x6292	add    	byte ptr [eax], al
  0x6294	add    	byte ptr [eax], al
  0x6296	add    	byte ptr [eax], al
  === BLOCK LINK ===
    0x6298
=== CODE BLOCK END ===

=== CODE BLOCK ADDRESS 0x6298 ===
  0x6298	add    	byte ptr [eax], al
  0x629a	add    	byte ptr [eax], al
  0x629c	add    	byte ptr [eax], al
  0x629e	add    	byte ptr [eax], al
  0x62a0	add    	byte ptr [eax], al
  === BLOCK LINK ===
    0x62a2
=== CODE BLOCK END ===

=== CODE BLOCK ADDRESS 0x62a2 ===
  0x62a2	add    	byte ptr [eax], al
  0x62a4	add    	byte ptr [eax], al
  0x62a6	add    	byte ptr [eax], al
  0x62a8	add    	byte ptr [eax], al
  0x62aa	add    	byte ptr [eax], al
  === BLOCK LINK ===
    0x62ac
=== CODE BLOCK END ===

=== CODE BLOCK ADDRESS 0x62ac ===
  0x62ac	add    	byte ptr [eax], al
  0x62ae	add    	byte ptr [eax], al
  0x62b0	add    	byte ptr [eax], al
  0x62b2	add    	byte ptr [eax], al
  0x62b4	add    	byte ptr [eax], al
  === BLOCK LINK ===
    0x62b6
=== CODE BLOCK END ===

=== CODE BLOCK ADDRESS 0x62b6 ===
  0x62b6	add    	byte ptr [eax], al
  0x62b8	add    	byte ptr [eax], al
  0x62ba	add    	byte ptr [eax], al
  0x62bc	add    	byte ptr [eax], al
  0x62be	add    	byte ptr [eax], al
  === BLOCK LINK ===
    0x62c0
=== CODE BLOCK END ===

=== CODE BLOCK ADDRESS 0x62c0 ===
  0x62c0	add    	byte ptr [eax], al
  0x62c2	add    	byte ptr [eax], al
  0x62c4	add    	byte ptr [eax], al
  0x62c6	add    	byte ptr [eax], al
  0x62c8	add    	byte ptr [eax], al
  === BLOCK LINK ===
    0x62ca
=== CODE BLOCK END ===

=== CODE BLOCK ADDRESS 0x62ca ===
  0x62ca	add    	byte ptr [eax], al
  0x62cc	add    	byte ptr [eax], al
  0x62ce	add    	byte ptr [eax], al
  0x62d0	add    	byte ptr [eax], al
  0x62d2	add    	byte ptr [eax], al
  === BLOCK LINK ===
    0x62d4
=== CODE BLOCK END ===

=== CODE BLOCK ADDRESS 0x62d4 ===
  0x62d4	add    	byte ptr [eax], al
  0x62d6	add    	byte ptr [eax], al
  0x62d8	add    	byte ptr [eax], al
  0x62da	add    	byte ptr [eax], al
  0x62dc	add    	byte ptr [eax], al
  === BLOCK LINK ===
    0x62de
=== CODE BLOCK END ===

=== CODE BLOCK ADDRESS 0x62de ===
  0x62de	add    	byte ptr [eax], al
  0x62e0	add    	byte ptr [eax], al
  0x62e2	add    	byte ptr [eax], al
  0x62e4	add    	byte ptr [eax], al
  0x62e6	add    	byte ptr [eax], al
  === BLOCK LINK ===
    0x62e8
=== CODE BLOCK END ===

=== CODE BLOCK ADDRESS 0x62e8 ===
  0x62e8	add    	byte ptr [eax], al
  0x62ea	add    	byte ptr [eax], al
  0x62ec	add    	byte ptr [eax], al
  0x62ee	add    	byte ptr [eax], al
  0x62f0	add    	byte ptr [eax], al
  === BLOCK LINK ===
    0x62f2
=== CODE BLOCK END ===

=== CODE BLOCK ADDRESS 0x62f2 ===
  0x62f2	add    	byte ptr [eax], al
  0x62f4	add    	byte ptr [eax], al
  0x62f6	add    	byte ptr [eax], al
  0x62f8	add    	byte ptr [eax], al
  0x62fa	add    	byte ptr [eax], al
  === BLOCK LINK ===
    0x62fc
=== CODE BLOCK END ===

=== CODE BLOCK ADDRESS 0x62fc ===
  0x62fc	add    	byte ptr [eax], al
  0x62fe	add    	byte ptr [eax], al
  0x6300	add    	byte ptr [eax], al
  0x6302	add    	byte ptr [eax], al
  0x6304	add    	byte ptr [eax], al
  === BLOCK LINK ===
    0x6306
=== CODE BLOCK END ===

=== CODE BLOCK ADDRESS 0x6306 ===
  0x6306	add    	byte ptr [eax], al
  0x6308	add    	byte ptr [eax], al
  0x630a	add    	byte ptr [eax], al
  0x630c	add    	byte ptr [eax], al
  0x630e	add    	byte ptr [eax], al
  === BLOCK LINK ===
    0x6310
=== CODE BLOCK END ===

=== CODE BLOCK ADDRESS 0x6310 ===
  0x6310	add    	byte ptr [eax], al
  0x6312	add    	byte ptr [eax], al
  0x6314	add    	byte ptr [eax], al
  0x6316	add    	byte ptr [eax], al
  0x6318	add    	byte ptr [eax], al
  === BLOCK LINK ===
    0x631a
=== CODE BLOCK END ===

=== CODE BLOCK ADDRESS 0x631a ===
  0x631a	add    	byte ptr [eax], al
  0x631c	add    	byte ptr [eax], al
  0x631e	add    	byte ptr [eax], al
  0x6320	add    	byte ptr [eax], al
  0x6322	add    	byte ptr [eax], al
  === BLOCK LINK ===
    0x6324
=== CODE BLOCK END ===

=== CODE BLOCK ADDRESS 0x6324 ===
  0x6324	add    	byte ptr [eax], al
  0x6326	add    	byte ptr [eax], al
  0x6328	add    	byte ptr [eax], al
  0x632a	add    	byte ptr [eax], al
  0x632c	add    	byte ptr [eax], al
  === BLOCK LINK ===
    0x632e
=== CODE BLOCK END ===

=== CODE BLOCK ADDRESS 0x632e ===
  0x632e	add    	byte ptr [eax], al
  0x6330	add    	byte ptr [eax], al
  0x6332	add    	byte ptr [eax], al
  0x6334	add    	byte ptr [eax], al
  0x6336	add    	byte ptr [eax], al
  === BLOCK LINK ===
    0x6338
=== CODE BLOCK END ===

=== CODE BLOCK ADDRESS 0x6338 ===
  0x6338	add    	byte ptr [eax], al
  0x633a	add    	byte ptr [eax], al
  0x633c	add    	byte ptr [eax], al
  0x633e	add    	byte ptr [eax], al
  0x6340	add    	byte ptr [eax], al
  === BLOCK LINK ===
    0x6342
=== CODE BLOCK END ===

=== CODE BLOCK ADDRESS 0x6342 ===
  0x6342	add    	byte ptr [eax], al
  0x6344	add    	byte ptr [eax], al
  0x6346	add    	byte ptr [eax], al
  0x6348	add    	byte ptr [eax], al
  0x634a	add    	byte ptr [eax], al
  === BLOCK LINK ===
    0x634c
=== CODE BLOCK END ===

=== CODE BLOCK ADDRESS 0x634c ===
  0x634c	add    	byte ptr [eax], al
  0x634e	add    	byte ptr [eax], al
  0x6350	add    	byte ptr [eax], al
  0x6352	add    	byte ptr [eax], al
  0x6354	add    	byte ptr [eax], al
  === BLOCK LINK ===
    0x6356
=== CODE BLOCK END ===

=== CODE BLOCK ADDRESS 0x6356 ===
  0x6356	add    	byte ptr [eax], al
  0x6358	add    	byte ptr [eax], al
  0x635a	add    	byte ptr [eax], al
  0x635c	add    	byte ptr [eax], al
  0x635e	add    	byte ptr [eax], al
  === BLOCK LINK ===
    0x6360
=== CODE BLOCK END ===

=== CODE BLOCK ADDRESS 0x6360 ===
  0x6360	add    	byte ptr [eax], al
  0x6362	add    	byte ptr [eax], al
  0x6364	add    	byte ptr [eax], al
  0x6366	add    	byte ptr [eax], al
  0x6368	add    	byte ptr [eax], al
  === BLOCK LINK ===
    0x636a
=== CODE BLOCK END ===

=== CODE BLOCK ADDRESS 0x636a ===
  0x636a	add    	byte ptr [eax], al
  0x636c	add    	byte ptr [eax], al
  0x636e	add    	byte ptr [eax], al
  0x6370	add    	byte ptr [eax], al
  0x6372	add    	byte ptr [eax], al
  === BLOCK LINK ===
    0x6374
=== CODE BLOCK END ===

=== CODE BLOCK ADDRESS 0x6374 ===
  0x6374	add    	byte ptr [eax], al
  0x6376	add    	byte ptr [eax], al
  0x6378	add    	byte ptr [eax], al
  0x637a	add    	byte ptr [eax], al
  0x637c	add    	byte ptr [eax], al
  === BLOCK LINK ===
    0x637e
=== CODE BLOCK END ===

=== CODE BLOCK ADDRESS 0x637e ===
  0x637e	add    	byte ptr [eax], al
  0x6380	add    	byte ptr [eax], al
  0x6382	add    	byte ptr [eax], al
  0x6384	add    	byte ptr [eax], al
  0x6386	add    	byte ptr [eax], al
  === BLOCK LINK ===
    0x6388
=== CODE BLOCK END ===

=== CODE BLOCK ADDRESS 0x6388 ===
  0x6388	add    	byte ptr [eax], al
  0x638a	add    	byte ptr [eax], al
  0x638c	add    	byte ptr [eax], al
  0x638e	add    	byte ptr [eax], al
  0x6390	add    	byte ptr [eax], al
  === BLOCK LINK ===
    0x6392
=== CODE BLOCK END ===

=== CODE BLOCK ADDRESS 0x6392 ===
  0x6392	add    	byte ptr [eax], al
  0x6394	add    	byte ptr [eax], al
  0x6396	add    	byte ptr [eax], al
  0x6398	add    	byte ptr [eax], al
  0x639a	add    	byte ptr [eax], al
  === BLOCK LINK ===
    0x639c
=== CODE BLOCK END ===

=== CODE BLOCK ADDRESS 0x639c ===
  0x639c	add    	byte ptr [eax], al
  0x639e	add    	byte ptr [eax], al
  0x63a0	add    	byte ptr [eax], al
  0x63a2	add    	byte ptr [eax], al
  0x63a4	add    	byte ptr [eax], al
  === BLOCK LINK ===
    0x63a6
=== CODE BLOCK END ===

=== CODE BLOCK ADDRESS 0x63a6 ===
  0x63a6	add    	byte ptr [eax], al
  0x63a8	add    	byte ptr [eax], al
  0x63aa	add    	byte ptr [eax], al
  0x63ac	add    	byte ptr [eax], al
  0x63ae	add    	byte ptr [eax], al
  === BLOCK LINK ===
    0x63b0
=== CODE BLOCK END ===

=== CODE BLOCK ADDRESS 0x63b0 ===
  0x63b0	add    	byte ptr [eax], al
  0x63b2	add    	byte ptr [eax], al
  0x63b4	add    	byte ptr [eax], al
  0x63b6	add    	byte ptr [eax], al
  0x63b8	add    	byte ptr [eax], al
  === BLOCK LINK ===
    0x63ba
=== CODE BLOCK END ===

=== CODE BLOCK ADDRESS 0x63ba ===
  0x63ba	add    	byte ptr [eax], al
  0x63bc	add    	byte ptr [eax], al
  0x63be	add    	byte ptr [eax], al
  0x63c0	add    	byte ptr [eax], al
  0x63c2	add    	byte ptr [eax], al
  === BLOCK LINK ===
    0x63c4
=== CODE BLOCK END ===

=== CODE BLOCK ADDRESS 0x63c4 ===
  0x63c4	add    	byte ptr [eax], al
  0x63c6	add    	byte ptr [eax], al
  0x63c8	add    	byte ptr [eax], al
  0x63ca	add    	byte ptr [eax], al
  0x63cc	add    	byte ptr [eax], al
  === BLOCK LINK ===
    0x63ce
=== CODE BLOCK END ===

=== CODE BLOCK ADDRESS 0x63ce ===
  0x63ce	add    	byte ptr [eax], al
  0x63d0	add    	byte ptr [eax], al
  0x63d2	add    	byte ptr [eax], al
  0x63d4	add    	byte ptr [eax], al
  0x63d6	add    	byte ptr [eax], al
  === BLOCK LINK ===
    0x63d8
=== CODE BLOCK END ===

=== CODE BLOCK ADDRESS 0x63d8 ===
  0x63d8	add    	byte ptr [eax], al
  0x63da	add    	byte ptr [eax], al
  0x63dc	add    	byte ptr [eax], al
  0x63de	add    	byte ptr [eax], al
  0x63e0	add    	byte ptr [eax], al
  === BLOCK LINK ===
    0x63e2
=== CODE BLOCK END ===

=== CODE BLOCK ADDRESS 0x63e2 ===
  0x63e2	add    	byte ptr [eax], al
  0x63e4	add    	byte ptr [eax], al
  0x63e6	add    	byte ptr [eax], al
  0x63e8	add    	byte ptr [eax], al
  0x63ea	add    	byte ptr [eax], al
  === BLOCK LINK ===
    0x63ec
=== CODE BLOCK END ===

=== CODE BLOCK ADDRESS 0x63ec ===
  0x63ec	add    	byte ptr [eax], al
  0x63ee	add    	byte ptr [eax], al
  0x63f0	add    	byte ptr [eax], al
  0x63f2	add    	byte ptr [eax], al
  0x63f4	add    	byte ptr [eax], al
  === BLOCK LINK ===
    0x63f6
=== CODE BLOCK END ===

=== CODE BLOCK ADDRESS 0x63f6 ===
  0x63f6	add    	byte ptr [eax], al
  0x63f8	add    	byte ptr [eax], al
  0x63fa	add    	byte ptr [eax], al
  0x63fc	add    	byte ptr [eax], al
  0x63fe	add    	byte ptr [eax], al
  === BLOCK LINK ===
    0x6400
=== CODE BLOCK END ===

=== CODE BLOCK ADDRESS 0x6400 ===
  0x6400	add    	byte ptr [eax], al
  0x6402	add    	byte ptr [eax], al
  0x6404	add    	byte ptr [eax], al
  0x6406	add    	byte ptr [eax], al
  0x6408	add    	byte ptr [eax], al
  === BLOCK LINK ===
    0x640a
=== CODE BLOCK END ===

=== CODE BLOCK ADDRESS 0x640a ===
  0x640a	add    	byte ptr [eax], al
  0x640c	add    	byte ptr [eax], al
  0x640e	add    	byte ptr [eax], al
  0x6410	add    	byte ptr [eax], al
  0x6412	add    	byte ptr [eax], al
  === BLOCK LINK ===
    0x6414
=== CODE BLOCK END ===

=== CODE BLOCK ADDRESS 0x6414 ===
  0x6414	add    	byte ptr [eax], al
  0x6416	add    	byte ptr [eax], al
  0x6418	add    	byte ptr [eax], al
  0x641a	add    	byte ptr [eax], al
  0x641c	add    	byte ptr [eax], al
  === BLOCK LINK ===
    0x641e
=== CODE BLOCK END ===

=== CODE BLOCK ADDRESS 0x641e ===
  0x641e	add    	byte ptr [eax], al
  0x6420	add    	byte ptr [eax], al
  0x6422	add    	byte ptr [eax], al
  0x6424	add    	byte ptr [eax], al
  0x6426	add    	byte ptr [eax], al
  === BLOCK LINK ===
    0x6428
=== CODE BLOCK END ===

=== CODE BLOCK ADDRESS 0x6428 ===
  0x6428	add    	byte ptr [eax], al
  0x642a	add    	byte ptr [eax], al
  0x642c	add    	byte ptr [eax], al
  0x642e	add    	byte ptr [eax], al
  0x6430	add    	byte ptr [eax], al
  === BLOCK LINK ===
    0x6432
=== CODE BLOCK END ===

=== CODE BLOCK ADDRESS 0x6432 ===
  0x6432	add    	byte ptr [eax], al
  0x6434	add    	byte ptr [eax], al
  0x6436	add    	byte ptr [eax], al
  0x6438	add    	byte ptr [eax], al
  0x643a	add    	byte ptr [eax], al
  === BLOCK LINK ===
    0x643c
=== CODE BLOCK END ===

=== CODE BLOCK ADDRESS 0x643c ===
  0x643c	add    	byte ptr [eax], al
  0x643e	add    	byte ptr [eax], al
  0x6440	add    	byte ptr [eax], al
  0x6442	add    	byte ptr [eax], al
  0x6444	add    	byte ptr [eax], al
  === BLOCK LINK ===
    0x6446
=== CODE BLOCK END ===

=== CODE BLOCK ADDRESS 0x6446 ===
  0x6446	add    	byte ptr [eax], al
  0x6448	add    	byte ptr [eax], al
  0x644a	add    	byte ptr [eax], al
  0x644c	add    	byte ptr [eax], al
  0x644e	add    	byte ptr [eax], al
  === BLOCK LINK ===
    0x6450
=== CODE BLOCK END ===

=== CODE BLOCK ADDRESS 0x6450 ===
  0x6450	add    	byte ptr [eax], al
  0x6452	add    	byte ptr [eax], al
  0x6454	add    	byte ptr [eax], al
  0x6456	add    	byte ptr [eax], al
  0x6458	add    	byte ptr [eax], al
  === BLOCK LINK ===
    0x645a
=== CODE BLOCK END ===

=== CODE BLOCK ADDRESS 0x645a ===
  0x645a	add    	byte ptr [eax], al
  0x645c	add    	byte ptr [eax], al
  0x645e	add    	byte ptr [eax], al
  0x6460	add    	byte ptr [eax], al
  0x6462	add    	byte ptr [eax], al
  === BLOCK LINK ===
    0x6464
=== CODE BLOCK END ===

=== CODE BLOCK ADDRESS 0x6464 ===
  0x6464	add    	byte ptr [eax], al
  0x6466	add    	byte ptr [eax], al
  0x6468	add    	byte ptr [eax], al
  0x646a	add    	byte ptr [eax], al
  0x646c	add    	byte ptr [eax], al
  === BLOCK LINK ===
    0x646e
=== CODE BLOCK END ===

=== CODE BLOCK ADDRESS 0x646e ===
  0x646e	add    	byte ptr [eax], al
  0x6470	add    	byte ptr [eax], al
  0x6472	add    	byte ptr [eax], al
  0x6474	add    	byte ptr [eax], al
  0x6476	add    	byte ptr [eax], al
  === BLOCK LINK ===
    0x6478
=== CODE BLOCK END ===

=== CODE BLOCK ADDRESS 0x6478 ===
  0x6478	add    	byte ptr [eax], al
  0x647a	add    	byte ptr [eax], al
  0x647c	add    	byte ptr [eax], al
  0x647e	add    	byte ptr [eax], al
  0x6480	add    	byte ptr [eax], al
  === BLOCK LINK ===
    0x6482
=== CODE BLOCK END ===

=== CODE BLOCK ADDRESS 0x6482 ===
  0x6482	add    	byte ptr [eax], al
  0x6484	add    	byte ptr [eax], al
  0x6486	add    	byte ptr [eax], al
  0x6488	add    	byte ptr [eax], al
  0x648a	add    	byte ptr [eax], al
  === BLOCK LINK ===
    0x648c
=== CODE BLOCK END ===

=== CODE BLOCK ADDRESS 0x648c ===
  0x648c	add    	byte ptr [eax], al
  0x648e	add    	byte ptr [eax], al
  0x6490	add    	byte ptr [eax], al
  0x6492	add    	byte ptr [eax], al
  0x6494	add    	byte ptr [eax], al
  === BLOCK LINK ===
    0x6496
=== CODE BLOCK END ===

=== CODE BLOCK ADDRESS 0x6496 ===
  0x6496	add    	byte ptr [eax], al
  0x6498	add    	byte ptr [eax], al
  0x649a	add    	byte ptr [eax], al
  0x649c	add    	byte ptr [eax], al
  0x649e	add    	byte ptr [eax], al
  === BLOCK LINK ===
    0x64a0
=== CODE BLOCK END ===

=== CODE BLOCK ADDRESS 0x64a0 ===
  0x64a0	add    	byte ptr [eax], al
  0x64a2	add    	byte ptr [eax], al
  0x64a4	add    	byte ptr [eax], al
  0x64a6	add    	byte ptr [eax], al
  0x64a8	add    	byte ptr [eax], al
  === BLOCK LINK ===
    0x64aa
=== CODE BLOCK END ===

=== CODE BLOCK ADDRESS 0x64aa ===
  0x64aa	add    	byte ptr [eax], al
  0x64ac	add    	byte ptr [eax], al
  0x64ae	add    	byte ptr [eax], al
  0x64b0	add    	byte ptr [eax], al
  0x64b2	add    	byte ptr [eax], al
  === BLOCK LINK ===
    0x64b4
=== CODE BLOCK END ===

=== CODE BLOCK ADDRESS 0x64b4 ===
  0x64b4	add    	byte ptr [eax], al
  0x64b6	add    	byte ptr [eax], al
  0x64b8	add    	byte ptr [eax], al
  0x64ba	add    	byte ptr [eax], al
  0x64bc	add    	byte ptr [eax], al
  === BLOCK LINK ===
    0x64be
=== CODE BLOCK END ===

=== CODE BLOCK ADDRESS 0x64be ===
  0x64be	add    	byte ptr [eax], al
  0x64c0	add    	byte ptr [eax], al
  0x64c2	add    	byte ptr [eax], al
  0x64c4	add    	byte ptr [eax], al
  0x64c6	add    	byte ptr [eax], al
  === BLOCK LINK ===
    0x64c8
=== CODE BLOCK END ===

=== CODE BLOCK ADDRESS 0x64c8 ===
  0x64c8	add    	byte ptr [eax], al
  0x64ca	add    	byte ptr [eax], al
  0x64cc	add    	byte ptr [eax], al
  0x64ce	add    	byte ptr [eax], al
  0x64d0	add    	byte ptr [eax], al
  === BLOCK LINK ===
    0x64d2
=== CODE BLOCK END ===

=== CODE BLOCK ADDRESS 0x64d2 ===
  0x64d2	add    	byte ptr [eax], al
  0x64d4	add    	byte ptr [eax], al
  0x64d6	add    	byte ptr [eax], al
  0x64d8	add    	byte ptr [eax], al
  0x64da	add    	byte ptr [eax], al
  === BLOCK LINK ===
    0x64dc
=== CODE BLOCK END ===

=== CODE BLOCK ADDRESS 0x64dc ===
  0x64dc	add    	byte ptr [eax], al
  0x64de	add    	byte ptr [eax], al
  0x64e0	add    	byte ptr [eax], al
  0x64e2	add    	byte ptr [eax], al
  0x64e4	add    	byte ptr [eax], al
  === BLOCK LINK ===
    0x64e6
=== CODE BLOCK END ===

=== CODE BLOCK ADDRESS 0x64e6 ===
  0x64e6	add    	byte ptr [eax], al
  0x64e8	add    	byte ptr [eax], al
  0x64ea	add    	byte ptr [eax], al
  0x64ec	add    	byte ptr [eax], al
  0x64ee	add    	byte ptr [eax], al
  === BLOCK LINK ===
    0x64f0
=== CODE BLOCK END ===

=== CODE BLOCK ADDRESS 0x64f0 ===
  0x64f0	add    	byte ptr [eax], al
  0x64f2	add    	byte ptr [eax], al
  0x64f4	add    	byte ptr [eax], al
  0x64f6	add    	byte ptr [eax], al
  0x64f8	add    	byte ptr [eax], al
  === BLOCK LINK ===
    0x64fa
=== CODE BLOCK END ===

=== CODE BLOCK ADDRESS 0x64fa ===
  0x64fa	add    	byte ptr [eax], al
  0x64fc	add    	byte ptr [eax], al
  0x64fe	add    	byte ptr [eax], al
  0x6500	add    	byte ptr [eax], al
  0x6502	add    	byte ptr [eax], al
  === BLOCK LINK ===
    0x6504
=== CODE BLOCK END ===

=== CODE BLOCK ADDRESS 0x6504 ===
  0x6504	add    	byte ptr [eax], al
  0x6506	add    	byte ptr [eax], al
  0x6508	add    	byte ptr [eax], al
  0x650a	add    	byte ptr [eax], al
  0x650c	add    	byte ptr [eax], al
  === BLOCK LINK ===
    0x650e
=== CODE BLOCK END ===

=== CODE BLOCK ADDRESS 0x650e ===
  0x650e	add    	byte ptr [eax], al
  0x6510	add    	byte ptr [eax], al
  0x6512	add    	byte ptr [eax], al
  0x6514	add    	byte ptr [eax], al
  0x6516	add    	byte ptr [eax], al
  === BLOCK LINK ===
    0x6518
=== CODE BLOCK END ===

=== CODE BLOCK ADDRESS 0x6518 ===
  0x6518	add    	byte ptr [eax], al
  0x651a	add    	byte ptr [eax], al
  0x651c	add    	byte ptr [eax], al
  0x651e	add    	byte ptr [eax], al
  0x6520	add    	byte ptr [eax], al
  === BLOCK LINK ===
    0x6522
=== CODE BLOCK END ===

=== CODE BLOCK ADDRESS 0x6522 ===
  0x6522	add    	byte ptr [eax], al
  0x6524	add    	byte ptr [eax], al
  0x6526	add    	byte ptr [eax], al
  0x6528	add    	byte ptr [eax], al
  0x652a	add    	byte ptr [eax], al
  === BLOCK LINK ===
    0x652c
=== CODE BLOCK END ===

=== CODE BLOCK ADDRESS 0x652c ===
  0x652c	add    	byte ptr [eax], al
  0x652e	add    	byte ptr [eax], al
  0x6530	add    	byte ptr [eax], al
  0x6532	add    	byte ptr [eax], al
  0x6534	add    	byte ptr [eax], al
  === BLOCK LINK ===
    0x6536
=== CODE BLOCK END ===

=== CODE BLOCK ADDRESS 0x6536 ===
  0x6536	add    	byte ptr [eax], al
  0x6538	add    	byte ptr [eax], al
  0x653a	add    	byte ptr [eax], al
  0x653c	add    	byte ptr [eax], al
  0x653e	add    	byte ptr [eax], al
  === BLOCK LINK ===
    0x6540
=== CODE BLOCK END ===

=== CODE BLOCK ADDRESS 0x6540 ===
  0x6540	add    	byte ptr [eax], al
  0x6542	add    	byte ptr [eax], al
  0x6544	add    	byte ptr [eax], al
  0x6546	add    	byte ptr [eax], al
  0x6548	add    	byte ptr [eax], al
  === BLOCK LINK ===
    0x654a
=== CODE BLOCK END ===

=== CODE BLOCK ADDRESS 0x654a ===
  0x654a	add    	byte ptr [eax], al
  0x654c	add    	byte ptr [eax], al
  0x654e	add    	byte ptr [eax], al
  0x6550	add    	byte ptr [eax], al
  0x6552	add    	byte ptr [eax], al
  === BLOCK LINK ===
    0x6554
=== CODE BLOCK END ===

=== CODE BLOCK ADDRESS 0x6554 ===
  0x6554	add    	byte ptr [eax], al
  0x6556	add    	byte ptr [eax], al
  0x6558	add    	byte ptr [eax], al
  0x655a	add    	byte ptr [eax], al
  0x655c	add    	byte ptr [eax], al
  === BLOCK LINK ===
    0x655e
=== CODE BLOCK END ===

=== CODE BLOCK ADDRESS 0x655e ===
  0x655e	add    	byte ptr [eax], al
  0x6560	add    	byte ptr [eax], al
  0x6562	add    	byte ptr [eax], al
  0x6564	add    	byte ptr [eax], al
  0x6566	add    	byte ptr [eax], al
  === BLOCK LINK ===
    0x6568
=== CODE BLOCK END ===

=== CODE BLOCK ADDRESS 0x6568 ===
  0x6568	add    	byte ptr [eax], al
  0x656a	add    	byte ptr [eax], al
  0x656c	add    	byte ptr [eax], al
  0x656e	add    	byte ptr [eax], al
  0x6570	add    	byte ptr [eax], al
  === BLOCK LINK ===
    0x6572
=== CODE BLOCK END ===

=== CODE BLOCK ADDRESS 0x6572 ===
  0x6572	add    	byte ptr [eax], al
  0x6574	add    	byte ptr [eax], al
  0x6576	add    	byte ptr [eax], al
  0x6578	add    	byte ptr [eax], al
  0x657a	add    	byte ptr [eax], al
  === BLOCK LINK ===
    0x657c
=== CODE BLOCK END ===

=== CODE BLOCK ADDRESS 0x657c ===
  0x657c	add    	byte ptr [eax], al
  0x657e	add    	byte ptr [eax], al
  0x6580	add    	byte ptr [eax], al
  0x6582	add    	byte ptr [eax], al
  0x6584	add    	byte ptr [eax], al
  === BLOCK LINK ===
    0x6586
=== CODE BLOCK END ===

=== CODE BLOCK ADDRESS 0x6586 ===
  0x6586	add    	byte ptr [eax], al
  0x6588	add    	byte ptr [eax], al
  0x658a	add    	byte ptr [eax], al
  0x658c	add    	byte ptr [eax], al
  0x658e	add    	byte ptr [eax], al
  === BLOCK LINK ===
    0x6590
=== CODE BLOCK END ===

=== CODE BLOCK ADDRESS 0x6590 ===
  0x6590	add    	byte ptr [eax], al
  0x6592	add    	byte ptr [eax], al
  0x6594	add    	byte ptr [eax], al
  0x6596	add    	byte ptr [eax], al
  0x6598	add    	byte ptr [eax], al
  === BLOCK LINK ===
    0x659a
=== CODE BLOCK END ===

=== CODE BLOCK ADDRESS 0x659a ===
  0x659a	add    	byte ptr [eax], al
  0x659c	add    	byte ptr [eax], al
  0x659e	add    	byte ptr [eax], al
  0x65a0	add    	byte ptr [eax], al
  0x65a2	add    	byte ptr [eax], al
  === BLOCK LINK ===
    0x65a4
=== CODE BLOCK END ===

=== CODE BLOCK ADDRESS 0x65a4 ===
  0x65a4	add    	byte ptr [eax], al
  0x65a6	add    	byte ptr [eax], al
  0x65a8	add    	byte ptr [eax], al
  0x65aa	add    	byte ptr [eax], al
  0x65ac	add    	byte ptr [eax], al
  === BLOCK LINK ===
    0x65ae
=== CODE BLOCK END ===

=== CODE BLOCK ADDRESS 0x65ae ===
  0x65ae	add    	byte ptr [eax], al
  0x65b0	add    	byte ptr [eax], al
  0x65b2	add    	byte ptr [eax], al
  0x65b4	add    	byte ptr [eax], al
  0x65b6	add    	byte ptr [eax], al
  === BLOCK LINK ===
    0x65b8
=== CODE BLOCK END ===

=== CODE BLOCK ADDRESS 0x65b8 ===
  0x65b8	add    	byte ptr [eax], al
  0x65ba	add    	byte ptr [eax], al
  0x65bc	add    	byte ptr [eax], al
  0x65be	add    	byte ptr [eax], al
  0x65c0	add    	byte ptr [eax], al
  === BLOCK LINK ===
    0x65c2
=== CODE BLOCK END ===

=== CODE BLOCK ADDRESS 0x65c2 ===
  0x65c2	add    	byte ptr [eax], al
  0x65c4	add    	byte ptr [eax], al
  0x65c6	add    	byte ptr [eax], al
  0x65c8	add    	byte ptr [eax], al
  0x65ca	add    	byte ptr [eax], al
  === BLOCK LINK ===
    0x65cc
=== CODE BLOCK END ===

=== CODE BLOCK ADDRESS 0x65cc ===
  0x65cc	add    	byte ptr [eax], al
  0x65ce	add    	byte ptr [eax], al
  0x65d0	add    	byte ptr [eax], al
  0x65d2	add    	byte ptr [eax], al
  0x65d4	add    	byte ptr [eax], al
  === BLOCK LINK ===
    0x65d6
=== CODE BLOCK END ===

=== CODE BLOCK ADDRESS 0x65d6 ===
  0x65d6	add    	byte ptr [eax], al
  0x65d8	add    	byte ptr [eax], al
  0x65da	add    	byte ptr [eax], al
  0x65dc	add    	byte ptr [eax], al
  0x65de	add    	byte ptr [eax], al
  === BLOCK LINK ===
    0x65e0
=== CODE BLOCK END ===

=== CODE BLOCK ADDRESS 0x65e0 ===
  0x65e0	add    	byte ptr [eax], al
  0x65e2	add    	byte ptr [eax], al
  0x65e4	add    	byte ptr [eax], al
  0x65e6	add    	byte ptr [eax], al
  0x65e8	add    	byte ptr [eax], al
  === BLOCK LINK ===
    0x65ea
=== CODE BLOCK END ===

=== CODE BLOCK ADDRESS 0x65ea ===
  0x65ea	add    	byte ptr [eax], al
  0x65ec	add    	byte ptr [eax], al
  0x65ee	add    	byte ptr [eax], al
  0x65f0	add    	byte ptr [eax], al
  0x65f2	add    	byte ptr [eax], al
  === BLOCK LINK ===
    0x65f4
=== CODE BLOCK END ===

=== CODE BLOCK ADDRESS 0x65f4 ===
  0x65f4	add    	byte ptr [eax], al
  0x65f6	add    	byte ptr [eax], al
  0x65f8	add    	byte ptr [eax], al
  0x65fa	add    	byte ptr [eax], al
  0x65fc	add    	byte ptr [eax], al
  === BLOCK LINK ===
    0x65fe
=== CODE BLOCK END ===

=== CODE BLOCK ADDRESS 0x65fe ===
  0x65fe	add    	byte ptr [eax], al
  0x6600	add    	byte ptr [eax], al
  0x6602	add    	byte ptr [eax], al
  0x6604	add    	byte ptr [eax], al
  0x6606	add    	byte ptr [eax], al
  === BLOCK LINK ===
    0x6608
=== CODE BLOCK END ===

=== CODE BLOCK ADDRESS 0x6608 ===
  0x6608	add    	byte ptr [eax], al
  0x660a	add    	byte ptr [eax], al
  0x660c	add    	byte ptr [eax], al
  0x660e	add    	byte ptr [eax], al
  0x6610	add    	byte ptr [eax], al
  === BLOCK LINK ===
    0x6612
=== CODE BLOCK END ===

=== CODE BLOCK ADDRESS 0x6612 ===
  0x6612	add    	byte ptr [eax], al
  0x6614	add    	byte ptr [eax], al
  0x6616	add    	byte ptr [eax], al
  0x6618	add    	byte ptr [eax], al
  0x661a	add    	byte ptr [eax], al
  === BLOCK LINK ===
    0x661c
=== CODE BLOCK END ===

=== CODE BLOCK ADDRESS 0x661c ===
  0x661c	add    	byte ptr [eax], al
  0x661e	add    	byte ptr [eax], al
  0x6620	add    	byte ptr [eax], al
  0x6622	add    	byte ptr [eax], al
  0x6624	add    	byte ptr [eax], al
  === BLOCK LINK ===
    0x6626
=== CODE BLOCK END ===

=== CODE BLOCK ADDRESS 0x6626 ===
  0x6626	add    	byte ptr [eax], al
  0x6628	add    	byte ptr [eax], al
  0x662a	add    	byte ptr [eax], al
  0x662c	add    	byte ptr [eax], al
  0x662e	add    	byte ptr [eax], al
  === BLOCK LINK ===
    0x6630
=== CODE BLOCK END ===

=== CODE BLOCK ADDRESS 0x6630 ===
  0x6630	add    	byte ptr [eax], al
  0x6632	add    	byte ptr [eax], al
  0x6634	add    	byte ptr [eax], al
  0x6636	add    	byte ptr [eax], al
  0x6638	add    	byte ptr [eax], al
  === BLOCK LINK ===
    0x663a
=== CODE BLOCK END ===

=== CODE BLOCK ADDRESS 0x663a ===
  0x663a	add    	byte ptr [eax], al
  0x663c	add    	byte ptr [eax], al
  0x663e	add    	byte ptr [eax], al
  0x6640	add    	byte ptr [eax], al
  0x6642	add    	byte ptr [eax], al
  === BLOCK LINK ===
    0x6644
=== CODE BLOCK END ===

=== CODE BLOCK ADDRESS 0x6644 ===
  0x6644	add    	byte ptr [eax], al
  0x6646	add    	byte ptr [eax], al
  0x6648	add    	byte ptr [eax], al
  0x664a	add    	byte ptr [eax], al
  0x664c	add    	byte ptr [eax], al
  === BLOCK LINK ===
    0x664e
=== CODE BLOCK END ===

=== CODE BLOCK ADDRESS 0x664e ===
  0x664e	add    	byte ptr [eax], al
  0x6650	add    	byte ptr [eax], al
  0x6652	add    	byte ptr [eax], al
  0x6654	add    	byte ptr [eax], al
  0x6656	add    	byte ptr [eax], al
  === BLOCK LINK ===
    0x6658
=== CODE BLOCK END ===

=== CODE BLOCK ADDRESS 0x6658 ===
  0x6658	add    	byte ptr [eax], al
  0x665a	add    	byte ptr [eax], al
  0x665c	add    	byte ptr [eax], al
  0x665e	add    	byte ptr [eax], al
  0x6660	add    	byte ptr [eax], al
  === BLOCK LINK ===
    0x6662
=== CODE BLOCK END ===

=== CODE BLOCK ADDRESS 0x6662 ===
  0x6662	add    	byte ptr [eax], al
  0x6664	add    	byte ptr [eax], al
  0x6666	add    	byte ptr [eax], al
  0x6668	add    	byte ptr [eax], al
  0x666a	add    	byte ptr [eax], al
  === BLOCK LINK ===
    0x666c
=== CODE BLOCK END ===

=== CODE BLOCK ADDRESS 0x666c ===
  0x666c	add    	byte ptr [eax], al
  0x666e	add    	byte ptr [eax], al
  0x6670	add    	byte ptr [eax], al
  0x6672	add    	byte ptr [eax], al
  0x6674	add    	byte ptr [eax], al
  === BLOCK LINK ===
    0x6676
=== CODE BLOCK END ===

=== CODE BLOCK ADDRESS 0x6676 ===
  0x6676	add    	byte ptr [eax], al
  0x6678	add    	byte ptr [eax], al
  0x667a	add    	byte ptr [eax], al
  0x667c	add    	byte ptr [eax], al
  0x667e	add    	byte ptr [eax], al
  === BLOCK LINK ===
    0x6680
=== CODE BLOCK END ===

=== CODE BLOCK ADDRESS 0x6680 ===
  0x6680	add    	byte ptr [eax], al
  0x6682	add    	byte ptr [eax], al
  0x6684	add    	byte ptr [eax], al
  0x6686	add    	byte ptr [eax], al
  0x6688	add    	byte ptr [eax], al
  === BLOCK LINK ===
    0x668a
=== CODE BLOCK END ===

=== CODE BLOCK ADDRESS 0x668a ===
  0x668a	add    	byte ptr [eax], al
  0x668c	add    	byte ptr [eax], al
  0x668e	add    	byte ptr [eax], al
  0x6690	add    	byte ptr [eax], al
  0x6692	add    	byte ptr [eax], al
  === BLOCK LINK ===
    0x6694
=== CODE BLOCK END ===

=== CODE BLOCK ADDRESS 0x6694 ===
  0x6694	add    	byte ptr [eax], al
  0x6696	add    	byte ptr [eax], al
  0x6698	add    	byte ptr [eax], al
  0x669a	add    	byte ptr [eax], al
  0x669c	add    	byte ptr [eax], al
  === BLOCK LINK ===
    0x669e
=== CODE BLOCK END ===

=== CODE BLOCK ADDRESS 0x669e ===
  0x669e	add    	byte ptr [eax], al
  0x66a0	add    	byte ptr [eax], al
  0x66a2	add    	byte ptr [eax], al
  0x66a4	add    	byte ptr [eax], al
  0x66a6	add    	byte ptr [eax], al
  === BLOCK LINK ===
    0x66a8
=== CODE BLOCK END ===

=== CODE BLOCK ADDRESS 0x66a8 ===
  0x66a8	add    	byte ptr [eax], al
  0x66aa	add    	byte ptr [eax], al
  0x66ac	add    	byte ptr [eax], al
  0x66ae	add    	byte ptr [eax], al
  0x66b0	add    	byte ptr [eax], al
  === BLOCK LINK ===
    0x66b2
=== CODE BLOCK END ===

=== CODE BLOCK ADDRESS 0x66b2 ===
  0x66b2	add    	byte ptr [eax], al
  0x66b4	add    	byte ptr [eax], al
  0x66b6	add    	byte ptr [eax], al
  0x66b8	add    	byte ptr [eax], al
  0x66ba	add    	byte ptr [eax], al
  === BLOCK LINK ===
    0x66bc
=== CODE BLOCK END ===

=== CODE BLOCK ADDRESS 0x66bc ===
  0x66bc	add    	byte ptr [eax], al
  0x66be	add    	byte ptr [eax], al
  0x66c0	add    	byte ptr [eax], al
  0x66c2	add    	byte ptr [eax], al
  0x66c4	add    	byte ptr [eax], al
  === BLOCK LINK ===
    0x66c6
=== CODE BLOCK END ===

=== CODE BLOCK ADDRESS 0x66c6 ===
  0x66c6	add    	byte ptr [eax], al
  0x66c8	add    	byte ptr [eax], al
  0x66ca	add    	byte ptr [eax], al
  0x66cc	add    	byte ptr [eax], al
  0x66ce	add    	byte ptr [eax], al
  === BLOCK LINK ===
    0x66d0
=== CODE BLOCK END ===

=== CODE BLOCK ADDRESS 0x66d0 ===
  0x66d0	add    	byte ptr [eax], al
  0x66d2	add    	byte ptr [eax], al
  0x66d4	add    	byte ptr [eax], al
  0x66d6	add    	byte ptr [eax], al
  0x66d8	add    	byte ptr [eax], al
  === BLOCK LINK ===
    0x66da
=== CODE BLOCK END ===

=== CODE BLOCK ADDRESS 0x66da ===
  0x66da	add    	byte ptr [eax], al
  0x66dc	add    	byte ptr [eax], al
  0x66de	add    	byte ptr [eax], al
  0x66e0	add    	byte ptr [eax], al
  0x66e2	add    	byte ptr [eax], al
  === BLOCK LINK ===
    0x66e4
=== CODE BLOCK END ===

=== CODE BLOCK ADDRESS 0x66e4 ===
  0x66e4	add    	byte ptr [eax], al
  0x66e6	add    	byte ptr [eax], al
  0x66e8	add    	byte ptr [eax], al
  0x66ea	add    	byte ptr [eax], al
  0x66ec	add    	byte ptr [eax], al
  === BLOCK LINK ===
    0x66ee
=== CODE BLOCK END ===

=== CODE BLOCK ADDRESS 0x66ee ===
  0x66ee	add    	byte ptr [eax], al
  0x66f0	add    	byte ptr [eax], al
  0x66f2	add    	byte ptr [eax], al
  0x66f4	add    	byte ptr [eax], al
  0x66f6	add    	byte ptr [eax], al
  === BLOCK LINK ===
    0x66f8
=== CODE BLOCK END ===

=== CODE BLOCK ADDRESS 0x66f8 ===
  0x66f8	add    	byte ptr [eax], al
  0x66fa	add    	byte ptr [eax], al
  0x66fc	add    	byte ptr [eax], al
  0x66fe	add    	byte ptr [eax], al
  0x6700	add    	byte ptr [eax], al
  === BLOCK LINK ===
    0x6702
=== CODE BLOCK END ===

=== CODE BLOCK ADDRESS 0x6702 ===
  0x6702	add    	byte ptr [eax], al
  0x6704	add    	byte ptr [eax], al
  0x6706	add    	byte ptr [eax], al
  0x6708	add    	byte ptr [eax], al
  0x670a	add    	byte ptr [eax], al
  === BLOCK LINK ===
    0x670c
=== CODE BLOCK END ===

=== CODE BLOCK ADDRESS 0x670c ===
  0x670c	add    	byte ptr [eax], al
  0x670e	add    	byte ptr [eax], al
  0x6710	add    	byte ptr [eax], al
  0x6712	add    	byte ptr [eax], al
  0x6714	add    	byte ptr [eax], al
  === BLOCK LINK ===
    0x6716
=== CODE BLOCK END ===

=== CODE BLOCK ADDRESS 0x6716 ===
  0x6716	add    	byte ptr [eax], al
  0x6718	add    	byte ptr [eax], al
  0x671a	add    	byte ptr [eax], al
  0x671c	add    	byte ptr [eax], al
  0x671e	add    	byte ptr [eax], al
  === BLOCK LINK ===
    0x6720
=== CODE BLOCK END ===

=== CODE BLOCK ADDRESS 0x6720 ===
  0x6720	add    	byte ptr [eax], al
  0x6722	add    	byte ptr [eax], al
  0x6724	add    	byte ptr [eax], al
  0x6726	add    	byte ptr [eax], al
  0x6728	add    	byte ptr [eax], al
  === BLOCK LINK ===
    0x672a
=== CODE BLOCK END ===

=== CODE BLOCK ADDRESS 0x672a ===
  0x672a	add    	byte ptr [eax], al
  0x672c	add    	byte ptr [eax], al
  0x672e	add    	byte ptr [eax], al
  0x6730	add    	byte ptr [eax], al
  0x6732	add    	byte ptr [eax], al
  === BLOCK LINK ===
    0x6734
=== CODE BLOCK END ===

=== CODE BLOCK ADDRESS 0x6734 ===
  0x6734	add    	byte ptr [eax], al
  0x6736	add    	byte ptr [eax], al
  0x6738	add    	byte ptr [eax], al
  0x673a	add    	byte ptr [eax], al
  0x673c	add    	byte ptr [eax], al
  === BLOCK LINK ===
    0x673e
=== CODE BLOCK END ===

=== CODE BLOCK ADDRESS 0x673e ===
  0x673e	add    	byte ptr [eax], al
  0x6740	add    	byte ptr [eax], al
  0x6742	add    	byte ptr [eax], al
  0x6744	add    	byte ptr [eax], al
  0x6746	add    	byte ptr [eax], al
  === BLOCK LINK ===
    0x6748
=== CODE BLOCK END ===

=== CODE BLOCK ADDRESS 0x6748 ===
  0x6748	add    	byte ptr [eax], al
  0x674a	add    	byte ptr [eax], al
  0x674c	add    	byte ptr [eax], al
  0x674e	add    	byte ptr [eax], al
  0x6750	add    	byte ptr [eax], al
  === BLOCK LINK ===
    0x6752
=== CODE BLOCK END ===

=== CODE BLOCK ADDRESS 0x6752 ===
  0x6752	add    	byte ptr [eax], al
  0x6754	add    	byte ptr [eax], al
  0x6756	add    	byte ptr [eax], al
  0x6758	add    	byte ptr [eax], al
  0x675a	add    	byte ptr [eax], al
  === BLOCK LINK ===
    0x675c
=== CODE BLOCK END ===

=== CODE BLOCK ADDRESS 0x675c ===
  0x675c	add    	byte ptr [eax], al
  0x675e	add    	byte ptr [eax], al
  0x6760	add    	byte ptr [eax], al
  0x6762	add    	byte ptr [eax], al
  0x6764	add    	byte ptr [eax], al
  === BLOCK LINK ===
    0x6766
=== CODE BLOCK END ===

=== CODE BLOCK ADDRESS 0x6766 ===
  0x6766	add    	byte ptr [eax], al
  0x6768	add    	byte ptr [eax], al
  0x676a	add    	byte ptr [eax], al
  0x676c	add    	byte ptr [eax], al
  0x676e	add    	byte ptr [eax], al
  === BLOCK LINK ===
    0x6770
=== CODE BLOCK END ===

=== CODE BLOCK ADDRESS 0x6770 ===
  0x6770	add    	byte ptr [eax], al
  0x6772	add    	byte ptr [eax], al
  0x6774	add    	byte ptr [eax], al
  0x6776	add    	byte ptr [eax], al
  0x6778	add    	byte ptr [eax], al
  === BLOCK LINK ===
    0x677a
=== CODE BLOCK END ===

=== CODE BLOCK ADDRESS 0x677a ===
  0x677a	add    	byte ptr [eax], al
  0x677c	add    	byte ptr [eax], al
  0x677e	add    	byte ptr [eax], al
  0x6780	add    	byte ptr [eax], al
  0x6782	add    	byte ptr [eax], al
  === BLOCK LINK ===
    0x6784
=== CODE BLOCK END ===

=== CODE BLOCK ADDRESS 0x6784 ===
  0x6784	add    	byte ptr [eax], al
  0x6786	add    	byte ptr [eax], al
  0x6788	add    	byte ptr [eax], al
  0x678a	add    	byte ptr [eax], al
  0x678c	add    	byte ptr [eax], al
  === BLOCK LINK ===
    0x678e
=== CODE BLOCK END ===

=== CODE BLOCK ADDRESS 0x678e ===
  0x678e	add    	byte ptr [eax], al
  0x6790	add    	byte ptr [eax], al
  0x6792	add    	byte ptr [eax], al
  0x6794	add    	byte ptr [eax], al
  0x6796	add    	byte ptr [eax], al
  === BLOCK LINK ===
    0x6798
=== CODE BLOCK END ===

=== CODE BLOCK ADDRESS 0x6798 ===
  0x6798	add    	byte ptr [eax], al
  0x679a	add    	byte ptr [eax], al
  0x679c	add    	byte ptr [eax], al
  0x679e	add    	byte ptr [eax], al
  0x67a0	add    	byte ptr [eax], al
  === BLOCK LINK ===
    0x67a2
=== CODE BLOCK END ===

=== CODE BLOCK ADDRESS 0x67a2 ===
  0x67a2	add    	byte ptr [eax], al
  0x67a4	add    	byte ptr [eax], al
  0x67a6	add    	byte ptr [eax], al
  0x67a8	add    	byte ptr [eax], al
  0x67aa	add    	byte ptr [eax], al
  === BLOCK LINK ===
    0x67ac
=== CODE BLOCK END ===

=== CODE BLOCK ADDRESS 0x67ac ===
  0x67ac	add    	byte ptr [eax], al
  0x67ae	add    	byte ptr [eax], al
  0x67b0	add    	byte ptr [eax], al
  0x67b2	add    	byte ptr [eax], al
  0x67b4	add    	byte ptr [eax], al
  === BLOCK LINK ===
    0x67b6
=== CODE BLOCK END ===

=== CODE BLOCK ADDRESS 0x67b6 ===
  0x67b6	add    	byte ptr [eax], al
  0x67b8	add    	byte ptr [eax], al
  0x67ba	add    	byte ptr [eax], al
  0x67bc	add    	byte ptr [eax], al
  0x67be	add    	byte ptr [eax], al
  === BLOCK LINK ===
    0x67c0
=== CODE BLOCK END ===

=== CODE BLOCK ADDRESS 0x67c0 ===
  0x67c0	add    	byte ptr [eax], al
  0x67c2	add    	byte ptr [eax], al
  0x67c4	add    	byte ptr [eax], al
  0x67c6	add    	byte ptr [eax], al
  0x67c8	add    	byte ptr [eax], al
  === BLOCK LINK ===
    0x67ca
=== CODE BLOCK END ===

=== CODE BLOCK ADDRESS 0x67ca ===
  0x67ca	add    	byte ptr [eax], al
  0x67cc	add    	byte ptr [eax], al
  0x67ce	add    	byte ptr [eax], al
  0x67d0	add    	byte ptr [eax], al
  0x67d2	add    	byte ptr [eax], al
  === BLOCK LINK ===
    0x67d4
=== CODE BLOCK END ===

=== CODE BLOCK ADDRESS 0x67d4 ===
  0x67d4	add    	byte ptr [eax], al
  0x67d6	add    	byte ptr [eax], al
  0x67d8	add    	byte ptr [eax], al
  0x67da	add    	byte ptr [eax], al
  0x67dc	add    	byte ptr [eax], al
  === BLOCK LINK ===
    0x67de
=== CODE BLOCK END ===

=== CODE BLOCK ADDRESS 0x67de ===
  0x67de	add    	byte ptr [eax], al
  0x67e0	add    	byte ptr [eax], al
  0x67e2	add    	byte ptr [eax], al
  0x67e4	add    	byte ptr [eax], al
  0x67e6	add    	byte ptr [eax], al
  === BLOCK LINK ===
    0x67e8
=== CODE BLOCK END ===

=== CODE BLOCK ADDRESS 0x67e8 ===
  0x67e8	add    	byte ptr [eax], al
  0x67ea	add    	byte ptr [eax], al
  0x67ec	add    	byte ptr [eax], al
  0x67ee	add    	byte ptr [eax], al
  0x67f0	add    	byte ptr [eax], al
  === BLOCK LINK ===
    0x67f2
=== CODE BLOCK END ===

=== CODE BLOCK ADDRESS 0x67f2 ===
  0x67f2	add    	byte ptr [eax], al
  0x67f4	add    	byte ptr [eax], al
  0x67f6	add    	byte ptr [eax], al
  0x67f8	add    	byte ptr [eax], al
  0x67fa	add    	byte ptr [eax], al
  === BLOCK LINK ===
    0x67fc
=== CODE BLOCK END ===

=== CODE BLOCK ADDRESS 0x67fc ===
  0x67fc	add    	byte ptr [eax], al
  0x67fe	add    	byte ptr [eax], al
  0x6800	add    	byte ptr [eax], al
  0x6802	add    	byte ptr [eax], al
  0x6804	add    	byte ptr [eax], al
  === BLOCK LINK ===
    0x6806
=== CODE BLOCK END ===

=== CODE BLOCK ADDRESS 0x6806 ===
  0x6806	add    	byte ptr [eax], al
  0x6808	add    	byte ptr [eax], al
  0x680a	add    	byte ptr [eax], al
  0x680c	add    	byte ptr [eax], al
  0x680e	add    	byte ptr [eax], al
  === BLOCK LINK ===
    0x6810
=== CODE BLOCK END ===

=== CODE BLOCK ADDRESS 0x6810 ===
  0x6810	add    	byte ptr [eax], al
  0x6812	add    	byte ptr [eax], al
  0x6814	add    	byte ptr [eax], al
  0x6816	add    	byte ptr [eax], al
  0x6818	add    	byte ptr [eax], al
  === BLOCK LINK ===
    0x681a
=== CODE BLOCK END ===

=== CODE BLOCK ADDRESS 0x681a ===
  0x681a	add    	byte ptr [eax], al
  0x681c	add    	byte ptr [eax], al
  0x681e	add    	byte ptr [eax], al
  0x6820	add    	byte ptr [eax], al
  0x6822	add    	byte ptr [eax], al
  === BLOCK LINK ===
    0x6824
=== CODE BLOCK END ===

=== CODE BLOCK ADDRESS 0x6824 ===
  0x6824	add    	byte ptr [eax], al
  0x6826	add    	byte ptr [eax], al
  0x6828	add    	byte ptr [eax], al
  0x682a	add    	byte ptr [eax], al
  0x682c	add    	byte ptr [eax], al
  === BLOCK LINK ===
    0x682e
=== CODE BLOCK END ===

=== CODE BLOCK ADDRESS 0x682e ===
  0x682e	add    	byte ptr [eax], al
  0x6830	add    	byte ptr [eax], al
  0x6832	add    	byte ptr [eax], al
  0x6834	add    	byte ptr [eax], al
  0x6836	add    	byte ptr [eax], al
  === BLOCK LINK ===
    0x6838
=== CODE BLOCK END ===

=== CODE BLOCK ADDRESS 0x6838 ===
  0x6838	add    	byte ptr [eax], al
  0x683a	add    	byte ptr [eax], al
  0x683c	add    	byte ptr [eax], al
  0x683e	add    	byte ptr [eax], al
  0x6840	add    	byte ptr [eax], al
  === BLOCK LINK ===
    0x6842
=== CODE BLOCK END ===

=== CODE BLOCK ADDRESS 0x6842 ===
  0x6842	add    	byte ptr [eax], al
  0x6844	add    	byte ptr [eax], al
  0x6846	add    	byte ptr [eax], al
  0x6848	add    	byte ptr [eax], al
  0x684a	add    	byte ptr [eax], al
  === BLOCK LINK ===
    0x684c
=== CODE BLOCK END ===

=== CODE BLOCK ADDRESS 0x684c ===
  0x684c	add    	byte ptr [eax], al
  0x684e	add    	byte ptr [eax], al
  0x6850	add    	byte ptr [eax], al
  0x6852	add    	byte ptr [eax], al
  0x6854	add    	byte ptr [eax], al
  === BLOCK LINK ===
    0x6856
=== CODE BLOCK END ===

=== CODE BLOCK ADDRESS 0x6856 ===
  0x6856	add    	byte ptr [eax], al
  0x6858	add    	byte ptr [eax], al
  0x685a	add    	byte ptr [eax], al
  0x685c	add    	byte ptr [eax], al
  0x685e	add    	byte ptr [eax], al
  === BLOCK LINK ===
    0x6860
=== CODE BLOCK END ===

=== CODE BLOCK ADDRESS 0x6860 ===
  0x6860	add    	byte ptr [eax], al
  0x6862	add    	byte ptr [eax], al
  0x6864	add    	byte ptr [eax], al
  0x6866	add    	byte ptr [eax], al
  0x6868	add    	byte ptr [eax], al
  === BLOCK LINK ===
    0x686a
=== CODE BLOCK END ===

=== CODE BLOCK ADDRESS 0x686a ===
  0x686a	add    	byte ptr [eax], al
  0x686c	add    	byte ptr [eax], al
  0x686e	add    	byte ptr [eax], al
  0x6870	add    	byte ptr [eax], al
  0x6872	add    	byte ptr [eax], al
  === BLOCK LINK ===
    0x6874
=== CODE BLOCK END ===

=== CODE BLOCK ADDRESS 0x6874 ===
  0x6874	add    	byte ptr [eax], al
  0x6876	add    	byte ptr [eax], al
  0x6878	add    	byte ptr [eax], al
  0x687a	add    	byte ptr [eax], al
  0x687c	add    	byte ptr [eax], al
  === BLOCK LINK ===
    0x687e
=== CODE BLOCK END ===

=== CODE BLOCK ADDRESS 0x687e ===
  0x687e	add    	byte ptr [eax], al
  0x6880	add    	byte ptr [eax], al
  0x6882	add    	byte ptr [eax], al
  0x6884	add    	byte ptr [eax], al
  0x6886	add    	byte ptr [eax], al
  === BLOCK LINK ===
    0x6888
=== CODE BLOCK END ===

=== CODE BLOCK ADDRESS 0x6888 ===
  0x6888	add    	byte ptr [eax], al
  0x688a	add    	byte ptr [eax], al
  0x688c	add    	byte ptr [eax], al
  0x688e	add    	byte ptr [eax], al
  0x6890	add    	byte ptr [eax], al
  === BLOCK LINK ===
    0x6892
=== CODE BLOCK END ===

=== CODE BLOCK ADDRESS 0x6892 ===
  0x6892	add    	byte ptr [eax], al
  0x6894	add    	byte ptr [eax], al
  0x6896	add    	byte ptr [eax], al
  0x6898	add    	byte ptr [eax], al
  0x689a	add    	byte ptr [eax], al
  === BLOCK LINK ===
    0x689c
=== CODE BLOCK END ===

=== CODE BLOCK ADDRESS 0x689c ===
  0x689c	add    	byte ptr [eax], al
  0x689e	add    	byte ptr [eax], al
  0x68a0	add    	byte ptr [eax], al
  0x68a2	add    	byte ptr [eax], al
  0x68a4	add    	byte ptr [eax], al
  === BLOCK LINK ===
    0x68a6
=== CODE BLOCK END ===

=== CODE BLOCK ADDRESS 0x68a6 ===
  0x68a6	add    	byte ptr [eax], al
  0x68a8	add    	byte ptr [eax], al
  0x68aa	add    	byte ptr [eax], al
  0x68ac	add    	byte ptr [eax], al
  0x68ae	add    	byte ptr [eax], al
  === BLOCK LINK ===
    0x68b0
=== CODE BLOCK END ===

=== CODE BLOCK ADDRESS 0x68b0 ===
  0x68b0	add    	byte ptr [eax], al
  0x68b2	add    	byte ptr [eax], al
  0x68b4	add    	byte ptr [eax], al
  0x68b6	add    	byte ptr [eax], al
  0x68b8	add    	byte ptr [eax], al
  === BLOCK LINK ===
    0x68ba
=== CODE BLOCK END ===

=== CODE BLOCK ADDRESS 0x68ba ===
  0x68ba	add    	byte ptr [eax], al
  0x68bc	add    	byte ptr [eax], al
  0x68be	add    	byte ptr [eax], al
  0x68c0	add    	byte ptr [eax], al
  0x68c2	add    	byte ptr [eax], al
  === BLOCK LINK ===
    0x68c4
=== CODE BLOCK END ===

=== CODE BLOCK ADDRESS 0x68c4 ===
  0x68c4	add    	byte ptr [eax], al
  0x68c6	add    	byte ptr [eax], al
  0x68c8	add    	byte ptr [eax], al
  0x68ca	add    	byte ptr [eax], al
  0x68cc	add    	byte ptr [eax], al
  === BLOCK LINK ===
    0x68ce
=== CODE BLOCK END ===

=== CODE BLOCK ADDRESS 0x68ce ===
  0x68ce	add    	byte ptr [eax], al
  0x68d0	add    	byte ptr [eax], al
  0x68d2	add    	byte ptr [eax], al
  0x68d4	add    	byte ptr [eax], al
  0x68d6	add    	byte ptr [eax], al
  === BLOCK LINK ===
    0x68d8
=== CODE BLOCK END ===

=== CODE BLOCK ADDRESS 0x68d8 ===
  0x68d8	add    	byte ptr [eax], al
  0x68da	add    	byte ptr [eax], al
  0x68dc	add    	byte ptr [eax], al
  0x68de	add    	byte ptr [eax], al
  0x68e0	add    	byte ptr [eax], al
  === BLOCK LINK ===
    0x68e2
=== CODE BLOCK END ===

=== CODE BLOCK ADDRESS 0x68e2 ===
  0x68e2	add    	byte ptr [eax], al
  0x68e4	add    	byte ptr [eax], al
  0x68e6	add    	byte ptr [eax], al
  0x68e8	add    	byte ptr [eax], al
  0x68ea	add    	byte ptr [eax], al
  === BLOCK LINK ===
    0x68ec
=== CODE BLOCK END ===

=== CODE BLOCK ADDRESS 0x68ec ===
  0x68ec	add    	byte ptr [eax], al
  0x68ee	add    	byte ptr [eax], al
  0x68f0	add    	byte ptr [eax], al
  0x68f2	add    	byte ptr [eax], al
  0x68f4	add    	byte ptr [eax], al
  === BLOCK LINK ===
    0x68f6
=== CODE BLOCK END ===

=== CODE BLOCK ADDRESS 0x68f6 ===
  0x68f6	add    	byte ptr [eax], al
  0x68f8	add    	byte ptr [eax], al
  0x68fa	add    	byte ptr [eax], al
  0x68fc	add    	byte ptr [eax], al
  0x68fe	add    	byte ptr [eax], al
  === BLOCK LINK ===
    0x6900
=== CODE BLOCK END ===

=== CODE BLOCK ADDRESS 0x6900 ===
  0x6900	add    	byte ptr [eax], al
  0x6902	add    	byte ptr [eax], al
  0x6904	add    	byte ptr [eax], al
  0x6906	add    	byte ptr [eax], al
  0x6908	add    	byte ptr [eax], al
  === BLOCK LINK ===
    0x690a
=== CODE BLOCK END ===

=== CODE BLOCK ADDRESS 0x690a ===
  0x690a	add    	byte ptr [eax], al
  0x690c	add    	byte ptr [eax], al
  0x690e	add    	byte ptr [eax], al
  0x6910	add    	byte ptr [eax], al
  0x6912	add    	byte ptr [eax], al
  === BLOCK LINK ===
    0x6914
=== CODE BLOCK END ===

=== CODE BLOCK ADDRESS 0x6914 ===
  0x6914	add    	byte ptr [eax], al
  0x6916	add    	byte ptr [eax], al
  0x6918	add    	byte ptr [eax], al
  0x691a	add    	byte ptr [eax], al
  0x691c	add    	byte ptr [eax], al
  === BLOCK LINK ===
    0x691e
=== CODE BLOCK END ===

=== CODE BLOCK ADDRESS 0x691e ===
  0x691e	add    	byte ptr [eax], al
  0x6920	add    	byte ptr [eax], al
  0x6922	add    	byte ptr [eax], al
  0x6924	add    	byte ptr [eax], al
  0x6926	add    	byte ptr [eax], al
  === BLOCK LINK ===
    0x6928
=== CODE BLOCK END ===

=== CODE BLOCK ADDRESS 0x6928 ===
  0x6928	add    	byte ptr [eax], al
  0x692a	add    	byte ptr [eax], al
  0x692c	add    	byte ptr [eax], al
  0x692e	add    	byte ptr [eax], al
  0x6930	add    	byte ptr [eax], al
  === BLOCK LINK ===
    0x6932
=== CODE BLOCK END ===

=== CODE BLOCK ADDRESS 0x6932 ===
  0x6932	add    	byte ptr [eax], al
  0x6934	add    	byte ptr [eax], al
  0x6936	add    	byte ptr [eax], al
  0x6938	add    	byte ptr [eax], al
  0x693a	add    	byte ptr [eax], al
  === BLOCK LINK ===
    0x693c
=== CODE BLOCK END ===

=== CODE BLOCK ADDRESS 0x693c ===
  0x693c	add    	byte ptr [eax], al
  0x693e	add    	byte ptr [eax], al
  0x6940	add    	byte ptr [eax], al
  0x6942	add    	byte ptr [eax], al
  0x6944	add    	byte ptr [eax], al
  === BLOCK LINK ===
    0x6946
=== CODE BLOCK END ===

=== CODE BLOCK ADDRESS 0x6946 ===
  0x6946	add    	byte ptr [eax], al
  0x6948	add    	byte ptr [eax], al
  0x694a	add    	byte ptr [eax], al
  0x694c	add    	byte ptr [eax], al
  0x694e	add    	byte ptr [eax], al
  === BLOCK LINK ===
    0x6950
=== CODE BLOCK END ===

=== CODE BLOCK ADDRESS 0x6950 ===
  0x6950	add    	byte ptr [eax], al
  0x6952	add    	byte ptr [eax], al
  0x6954	add    	byte ptr [eax], al
  0x6956	add    	byte ptr [eax], al
  0x6958	add    	byte ptr [eax], al
  === BLOCK LINK ===
    0x695a
=== CODE BLOCK END ===

=== CODE BLOCK ADDRESS 0x695a ===
  0x695a	add    	byte ptr [eax], al
  0x695c	add    	byte ptr [eax], al
  0x695e	add    	byte ptr [eax], al
  0x6960	add    	byte ptr [eax], al
  0x6962	add    	byte ptr [eax], al
  === BLOCK LINK ===
    0x6964
=== CODE BLOCK END ===

=== CODE BLOCK ADDRESS 0x6964 ===
  0x6964	add    	byte ptr [eax], al
  0x6966	add    	byte ptr [eax], al
  0x6968	add    	byte ptr [eax], al
  0x696a	add    	byte ptr [eax], al
  0x696c	add    	byte ptr [eax], al
  === BLOCK LINK ===
    0x696e
=== CODE BLOCK END ===

=== CODE BLOCK ADDRESS 0x696e ===
  0x696e	add    	byte ptr [eax], al
  0x6970	add    	byte ptr [eax], al
  0x6972	add    	byte ptr [eax], al
  0x6974	add    	byte ptr [eax], al
  0x6976	add    	byte ptr [eax], al
  === BLOCK LINK ===
    0x6978
=== CODE BLOCK END ===

=== CODE BLOCK ADDRESS 0x6978 ===
  0x6978	add    	byte ptr [eax], al
  0x697a	add    	byte ptr [eax], al
  0x697c	add    	byte ptr [eax], al
  0x697e	add    	byte ptr [eax], al
  0x6980	add    	byte ptr [eax], al
  === BLOCK LINK ===
    0x6982
=== CODE BLOCK END ===

=== CODE BLOCK ADDRESS 0x6982 ===
  0x6982	add    	byte ptr [eax], al
  0x6984	add    	byte ptr [eax], al
  0x6986	add    	byte ptr [eax], al
  0x6988	add    	byte ptr [eax], al
  0x698a	add    	byte ptr [eax], al
  === BLOCK LINK ===
    0x698c
=== CODE BLOCK END ===

=== CODE BLOCK ADDRESS 0x698c ===
  0x698c	add    	byte ptr [eax], al
  0x698e	add    	byte ptr [eax], al
  0x6990	add    	byte ptr [eax], al
  0x6992	add    	byte ptr [eax], al
  0x6994	add    	byte ptr [eax], al
  === BLOCK LINK ===
    0x6996
=== CODE BLOCK END ===

=== CODE BLOCK ADDRESS 0x6996 ===
  0x6996	add    	byte ptr [eax], al
  0x6998	add    	byte ptr [eax], al
  0x699a	add    	byte ptr [eax], al
  0x699c	add    	byte ptr [eax], al
  0x699e	add    	byte ptr [eax], al
  === BLOCK LINK ===
    0x69a0
=== CODE BLOCK END ===

=== CODE BLOCK ADDRESS 0x69a0 ===
  0x69a0	add    	byte ptr [eax], al
  0x69a2	add    	byte ptr [eax], al
  0x69a4	add    	byte ptr [eax], al
  0x69a6	add    	byte ptr [eax], al
  0x69a8	add    	byte ptr [eax], al
  === BLOCK LINK ===
    0x69aa
=== CODE BLOCK END ===

=== CODE BLOCK ADDRESS 0x69aa ===
  0x69aa	add    	byte ptr [eax], al
  0x69ac	add    	byte ptr [eax], al
  0x69ae	add    	byte ptr [eax], al
  0x69b0	add    	byte ptr [eax], al
  0x69b2	add    	byte ptr [eax], al
  === BLOCK LINK ===
    0x69b4
=== CODE BLOCK END ===

=== CODE BLOCK ADDRESS 0x69b4 ===
  0x69b4	add    	byte ptr [eax], al
  0x69b6	add    	byte ptr [eax], al
  0x69b8	add    	byte ptr [eax], al
  0x69ba	add    	byte ptr [eax], al
  0x69bc	add    	byte ptr [eax], al
  === BLOCK LINK ===
    0x69be
=== CODE BLOCK END ===

=== CODE BLOCK ADDRESS 0x69be ===
  0x69be	add    	byte ptr [eax], al
  0x69c0	add    	byte ptr [eax], al
  0x69c2	add    	byte ptr [eax], al
  0x69c4	add    	byte ptr [eax], al
  0x69c6	add    	byte ptr [eax], al
  === BLOCK LINK ===
    0x69c8
=== CODE BLOCK END ===

=== CODE BLOCK ADDRESS 0x69c8 ===
  0x69c8	add    	byte ptr [eax], al
  0x69ca	add    	byte ptr [eax], al
  0x69cc	add    	byte ptr [eax], al
  0x69ce	add    	byte ptr [eax], al
  0x69d0	add    	byte ptr [eax], al
  === BLOCK LINK ===
    0x69d2
=== CODE BLOCK END ===

=== CODE BLOCK ADDRESS 0x69d2 ===
  0x69d2	add    	byte ptr [eax], al
  0x69d4	add    	byte ptr [eax], al
  0x69d6	add    	byte ptr [eax], al
  0x69d8	add    	byte ptr [eax], al
  0x69da	add    	byte ptr [eax], al
  === BLOCK LINK ===
    0x69dc
=== CODE BLOCK END ===

=== CODE BLOCK ADDRESS 0x69dc ===
  0x69dc	add    	byte ptr [eax], al
  0x69de	add    	byte ptr [eax], al
  0x69e0	add    	byte ptr [eax], al
  0x69e2	add    	byte ptr [eax], al
  0x69e4	add    	byte ptr [eax], al
  === BLOCK LINK ===
    0x69e6
=== CODE BLOCK END ===

=== CODE BLOCK ADDRESS 0x69e6 ===
  0x69e6	add    	byte ptr [eax], al
  0x69e8	add    	byte ptr [eax], al
  0x69ea	add    	byte ptr [eax], al
  0x69ec	add    	byte ptr [eax], al
  0x69ee	add    	byte ptr [eax], al
  === BLOCK LINK ===
    0x69f0
=== CODE BLOCK END ===

=== CODE BLOCK ADDRESS 0x69f0 ===
  0x69f0	add    	byte ptr [eax], al
  0x69f2	add    	byte ptr [eax], al
  0x69f4	add    	byte ptr [eax], al
  0x69f6	add    	byte ptr [eax], al
  0x69f8	add    	byte ptr [eax], al
  === BLOCK LINK ===
    0x69fa
=== CODE BLOCK END ===

=== CODE BLOCK ADDRESS 0x69fa ===
  0x69fa	add    	byte ptr [eax], al
  0x69fc	add    	byte ptr [eax], al
  0x69fe	add    	byte ptr [eax], al
  0x6a00	add    	byte ptr [eax], al
  0x6a02	add    	byte ptr [eax], al
  === BLOCK LINK ===
    0x6a04
=== CODE BLOCK END ===

=== CODE BLOCK ADDRESS 0x6a04 ===
  0x6a04	add    	byte ptr [eax], al
  0x6a06	add    	byte ptr [eax], al
  0x6a08	add    	byte ptr [eax], al
  0x6a0a	add    	byte ptr [eax], al
  0x6a0c	add    	byte ptr [eax], al
  === BLOCK LINK ===
    0x6a0e
=== CODE BLOCK END ===

=== CODE BLOCK ADDRESS 0x6a0e ===
  0x6a0e	add    	byte ptr [eax], al
  0x6a10	add    	byte ptr [eax], al
  0x6a12	add    	byte ptr [eax], al
  0x6a14	add    	byte ptr [eax], al
  0x6a16	add    	byte ptr [eax], al
  === BLOCK LINK ===
    0x6a18
=== CODE BLOCK END ===

=== CODE BLOCK ADDRESS 0x6a18 ===
  0x6a18	add    	byte ptr [eax], al
  0x6a1a	add    	byte ptr [eax], al
  0x6a1c	add    	byte ptr [eax], al
  0x6a1e	add    	byte ptr [eax], al
  0x6a20	add    	byte ptr [eax], al
  === BLOCK LINK ===
    0x6a22
=== CODE BLOCK END ===

=== CODE BLOCK ADDRESS 0x6a22 ===
  0x6a22	add    	byte ptr [eax], al
  0x6a24	add    	byte ptr [eax], al
  0x6a26	add    	byte ptr [eax], al
  0x6a28	add    	byte ptr [eax], al
  0x6a2a	add    	byte ptr [eax], al
  === BLOCK LINK ===
    0x6a2c
=== CODE BLOCK END ===

=== CODE BLOCK ADDRESS 0x6a2c ===
  0x6a2c	add    	byte ptr [eax], al
  0x6a2e	add    	byte ptr [eax], al
  0x6a30	add    	byte ptr [eax], al
  0x6a32	add    	byte ptr [eax], al
  0x6a34	add    	byte ptr [eax], al
  === BLOCK LINK ===
    0x6a36
=== CODE BLOCK END ===

=== CODE BLOCK ADDRESS 0x6a36 ===
  0x6a36	add    	byte ptr [eax], al
  0x6a38	add    	byte ptr [eax], al
  0x6a3a	add    	byte ptr [eax], al
  0x6a3c	add    	byte ptr [eax], al
  0x6a3e	add    	byte ptr [eax], al
  === BLOCK LINK ===
    0x6a40
=== CODE BLOCK END ===

=== CODE BLOCK ADDRESS 0x6a40 ===
  0x6a40	add    	byte ptr [eax], al
  0x6a42	add    	byte ptr [eax], al
  0x6a44	add    	byte ptr [eax], al
  0x6a46	add    	byte ptr [eax], al
  0x6a48	add    	byte ptr [eax], al
  === BLOCK LINK ===
    0x6a4a
=== CODE BLOCK END ===

=== CODE BLOCK ADDRESS 0x6a4a ===
  0x6a4a	add    	byte ptr [eax], al
  0x6a4c	add    	byte ptr [eax], al
  0x6a4e	add    	byte ptr [eax], al
  0x6a50	add    	byte ptr [eax], al
  0x6a52	add    	byte ptr [eax], al
  === BLOCK LINK ===
    0x6a54
=== CODE BLOCK END ===

=== CODE BLOCK ADDRESS 0x6a54 ===
  0x6a54	add    	byte ptr [eax], al
  0x6a56	add    	byte ptr [eax], al
  0x6a58	add    	byte ptr [eax], al
  0x6a5a	add    	byte ptr [eax], al
  0x6a5c	add    	byte ptr [eax], al
  === BLOCK LINK ===
    0x6a5e
=== CODE BLOCK END ===

=== CODE BLOCK ADDRESS 0x6a5e ===
  0x6a5e	add    	byte ptr [eax], al
  0x6a60	add    	byte ptr [eax], al
  0x6a62	add    	byte ptr [eax], al
  0x6a64	add    	byte ptr [eax], al
  0x6a66	add    	byte ptr [eax], al
  === BLOCK LINK ===
    0x6a68
=== CODE BLOCK END ===

=== CODE BLOCK ADDRESS 0x6a68 ===
  0x6a68	add    	byte ptr [eax], al
  0x6a6a	add    	byte ptr [eax], al
  0x6a6c	add    	byte ptr [eax], al
  0x6a6e	add    	byte ptr [eax], al
  0x6a70	add    	byte ptr [eax], al
  === BLOCK LINK ===
    0x6a72
=== CODE BLOCK END ===

=== CODE BLOCK ADDRESS 0x6a72 ===
  0x6a72	add    	byte ptr [eax], al
  0x6a74	add    	byte ptr [eax], al
  0x6a76	add    	byte ptr [eax], al
  0x6a78	add    	byte ptr [eax], al
  0x6a7a	add    	byte ptr [eax], al
  === BLOCK LINK ===
    0x6a7c
=== CODE BLOCK END ===

=== CODE BLOCK ADDRESS 0x6a7c ===
  0x6a7c	add    	byte ptr [eax], al
  0x6a7e	add    	byte ptr [eax], al
  0x6a80	add    	byte ptr [eax], al
  0x6a82	add    	byte ptr [eax], al
  0x6a84	add    	byte ptr [eax], al
  === BLOCK LINK ===
    0x6a86
=== CODE BLOCK END ===

=== CODE BLOCK ADDRESS 0x6a86 ===
  0x6a86	add    	byte ptr [eax], al
  0x6a88	add    	byte ptr [eax], al
  0x6a8a	add    	byte ptr [eax], al
  0x6a8c	add    	byte ptr [eax], al
  0x6a8e	add    	byte ptr [eax], al
  === BLOCK LINK ===
    0x6a90
=== CODE BLOCK END ===

=== CODE BLOCK ADDRESS 0x6a90 ===
  0x6a90	add    	byte ptr [eax], al
  0x6a92	add    	byte ptr [eax], al
  0x6a94	add    	byte ptr [eax], al
  0x6a96	add    	byte ptr [eax], al
  0x6a98	add    	byte ptr [eax], al
  === BLOCK LINK ===
    0x6a9a
=== CODE BLOCK END ===

=== CODE BLOCK ADDRESS 0x6a9a ===
  0x6a9a	add    	byte ptr [eax], al
  0x6a9c	add    	byte ptr [eax], al
  0x6a9e	add    	byte ptr [eax], al
  0x6aa0	add    	byte ptr [eax], al
  0x6aa2	add    	byte ptr [eax], al
  === BLOCK LINK ===
    0x6aa4
=== CODE BLOCK END ===

=== CODE BLOCK ADDRESS 0x6aa4 ===
  0x6aa4	add    	byte ptr [eax], al
  0x6aa6	add    	byte ptr [eax], al
  0x6aa8	add    	byte ptr [eax], al
  0x6aaa	add    	byte ptr [eax], al
  0x6aac	add    	byte ptr [eax], al
  === BLOCK LINK ===
    0x6aae
=== CODE BLOCK END ===

=== CODE BLOCK ADDRESS 0x6aae ===
  0x6aae	add    	byte ptr [eax], al
  0x6ab0	add    	byte ptr [eax], al
  0x6ab2	add    	byte ptr [eax], al
  0x6ab4	add    	byte ptr [eax], al
  0x6ab6	add    	byte ptr [eax], al
  === BLOCK LINK ===
    0x6ab8
=== CODE BLOCK END ===

=== CODE BLOCK ADDRESS 0x6ab8 ===
  0x6ab8	add    	byte ptr [eax], al
  0x6aba	add    	byte ptr [eax], al
  0x6abc	add    	byte ptr [eax], al
  0x6abe	add    	byte ptr [eax], al
  0x6ac0	add    	byte ptr [eax], al
  === BLOCK LINK ===
    0x6ac2
=== CODE BLOCK END ===

=== CODE BLOCK ADDRESS 0x6ac2 ===
  0x6ac2	add    	byte ptr [eax], al
  0x6ac4	add    	byte ptr [eax], al
  0x6ac6	add    	byte ptr [eax], al
  0x6ac8	add    	byte ptr [eax], al
  0x6aca	add    	byte ptr [eax], al
  === BLOCK LINK ===
    0x6acc
=== CODE BLOCK END ===

=== CODE BLOCK ADDRESS 0x6acc ===
  0x6acc	add    	byte ptr [eax], al
  0x6ace	add    	byte ptr [eax], al
  0x6ad0	add    	byte ptr [eax], al
  0x6ad2	add    	byte ptr [eax], al
  0x6ad4	add    	byte ptr [eax], al
  === BLOCK LINK ===
    0x6ad6
=== CODE BLOCK END ===

=== CODE BLOCK ADDRESS 0x6ad6 ===
  0x6ad6	add    	byte ptr [eax], al
  0x6ad8	add    	byte ptr [eax], al
  0x6ada	add    	byte ptr [eax], al
  0x6adc	add    	byte ptr [eax], al
  0x6ade	add    	byte ptr [eax], al
  === BLOCK LINK ===
    0x6ae0
=== CODE BLOCK END ===

=== CODE BLOCK ADDRESS 0x6ae0 ===
  0x6ae0	add    	byte ptr [eax], al
  0x6ae2	add    	byte ptr [eax], al
  0x6ae4	add    	byte ptr [eax], al
  0x6ae6	add    	byte ptr [eax], al
  0x6ae8	add    	byte ptr [eax], al
  === BLOCK LINK ===
    0x6aea
=== CODE BLOCK END ===

=== CODE BLOCK ADDRESS 0x6aea ===
  0x6aea	add    	byte ptr [eax], al
  0x6aec	add    	byte ptr [eax], al
  0x6aee	add    	byte ptr [eax], al
  0x6af0	add    	byte ptr [eax], al
  0x6af2	add    	byte ptr [eax], al
  === BLOCK LINK ===
    0x6af4
=== CODE BLOCK END ===

=== CODE BLOCK ADDRESS 0x6af4 ===
  0x6af4	add    	byte ptr [eax], al
  0x6af6	add    	byte ptr [eax], al
  0x6af8	add    	byte ptr [eax], al
  0x6afa	add    	byte ptr [eax], al
  0x6afc	add    	byte ptr [eax], al
  === BLOCK LINK ===
    0x6afe
=== CODE BLOCK END ===

=== CODE BLOCK ADDRESS 0x6afe ===
  0x6afe	add    	byte ptr [eax], al
  0x6b00	add    	byte ptr [eax], al
  0x6b02	add    	byte ptr [eax], al
  0x6b04	add    	byte ptr [eax], al
  0x6b06	add    	byte ptr [eax], al
  === BLOCK LINK ===
    0x6b08
=== CODE BLOCK END ===

=== CODE BLOCK ADDRESS 0x6b08 ===
  0x6b08	add    	byte ptr [eax], al
  0x6b0a	add    	byte ptr [eax], al
  0x6b0c	add    	byte ptr [eax], al
  0x6b0e	add    	byte ptr [eax], al
  0x6b10	add    	byte ptr [eax], al
  === BLOCK LINK ===
    0x6b12
=== CODE BLOCK END ===

=== CODE BLOCK ADDRESS 0x6b12 ===
  0x6b12	add    	byte ptr [eax], al
  0x6b14	add    	byte ptr [eax], al
  0x6b16	add    	byte ptr [eax], al
  0x6b18	add    	byte ptr [eax], al
  0x6b1a	add    	byte ptr [eax], al
  === BLOCK LINK ===
    0x6b1c
=== CODE BLOCK END ===

=== CODE BLOCK ADDRESS 0x6b1c ===
  0x6b1c	add    	byte ptr [eax], al
  0x6b1e	add    	byte ptr [eax], al
  0x6b20	add    	byte ptr [eax], al
  0x6b22	add    	byte ptr [eax], al
  0x6b24	add    	byte ptr [eax], al
  === BLOCK LINK ===
    0x6b26
=== CODE BLOCK END ===

=== CODE BLOCK ADDRESS 0x6b26 ===
  0x6b26	add    	byte ptr [eax], al
  0x6b28	add    	byte ptr [eax], al
  0x6b2a	add    	byte ptr [eax], al
  0x6b2c	add    	byte ptr [eax], al
  0x6b2e	add    	byte ptr [eax], al
  === BLOCK LINK ===
    0x6b30
=== CODE BLOCK END ===

=== CODE BLOCK ADDRESS 0x6b30 ===
  0x6b30	add    	byte ptr [eax], al
  0x6b32	add    	byte ptr [eax], al
  0x6b34	add    	byte ptr [eax], al
  0x6b36	add    	byte ptr [eax], al
  0x6b38	add    	byte ptr [eax], al
  === BLOCK LINK ===
    0x6b3a
=== CODE BLOCK END ===

=== CODE BLOCK ADDRESS 0x6b3a ===
  0x6b3a	add    	byte ptr [eax], al
  0x6b3c	add    	byte ptr [eax], al
  0x6b3e	add    	byte ptr [eax], al
  0x6b40	add    	byte ptr [eax], al
  0x6b42	add    	byte ptr [eax], al
  === BLOCK LINK ===
    0x6b44
=== CODE BLOCK END ===

=== CODE BLOCK ADDRESS 0x6b44 ===
  0x6b44	add    	byte ptr [eax], al
  0x6b46	add    	byte ptr [eax], al
  0x6b48	add    	byte ptr [eax], al
  0x6b4a	add    	byte ptr [eax], al
  0x6b4c	add    	byte ptr [eax], al
  === BLOCK LINK ===
    0x6b4e
=== CODE BLOCK END ===

=== CODE BLOCK ADDRESS 0x6b4e ===
  0x6b4e	add    	byte ptr [eax], al
  0x6b50	add    	byte ptr [eax], al
  0x6b52	add    	byte ptr [eax], al
  0x6b54	add    	byte ptr [eax], al
  0x6b56	add    	byte ptr [eax], al
  === BLOCK LINK ===
    0x6b58
=== CODE BLOCK END ===

=== CODE BLOCK ADDRESS 0x6b58 ===
  0x6b58	add    	byte ptr [eax], al
  0x6b5a	add    	byte ptr [eax], al
  0x6b5c	add    	byte ptr [eax], al
  0x6b5e	add    	byte ptr [eax], al
  0x6b60	add    	byte ptr [eax], al
  === BLOCK LINK ===
    0x6b62
=== CODE BLOCK END ===

=== CODE BLOCK ADDRESS 0x6b62 ===
  0x6b62	add    	byte ptr [eax], al
  0x6b64	add    	byte ptr [eax], al
  0x6b66	add    	byte ptr [eax], al
  0x6b68	add    	byte ptr [eax], al
  0x6b6a	add    	byte ptr [eax], al
  === BLOCK LINK ===
    0x6b6c
=== CODE BLOCK END ===

=== CODE BLOCK ADDRESS 0x6b6c ===
  0x6b6c	add    	byte ptr [eax], al
  0x6b6e	add    	byte ptr [eax], al
  0x6b70	add    	byte ptr [eax], al
  0x6b72	add    	byte ptr [eax], al
  0x6b74	add    	byte ptr [eax], al
  === BLOCK LINK ===
    0x6b76
=== CODE BLOCK END ===

=== CODE BLOCK ADDRESS 0x6b76 ===
  0x6b76	add    	byte ptr [eax], al
  0x6b78	add    	byte ptr [eax], al
  0x6b7a	add    	byte ptr [eax], al
  0x6b7c	add    	byte ptr [eax], al
  0x6b7e	add    	byte ptr [eax], al
  === BLOCK LINK ===
    0x6b80
=== CODE BLOCK END ===

=== CODE BLOCK ADDRESS 0x6b80 ===
  0x6b80	add    	byte ptr [eax], al
  0x6b82	add    	byte ptr [eax], al
  0x6b84	add    	byte ptr [eax], al
  0x6b86	add    	byte ptr [eax], al
  0x6b88	add    	byte ptr [eax], al
  === BLOCK LINK ===
    0x6b8a
=== CODE BLOCK END ===

=== CODE BLOCK ADDRESS 0x6b8a ===
  0x6b8a	add    	byte ptr [eax], al
  0x6b8c	add    	byte ptr [eax], al
  0x6b8e	add    	byte ptr [eax], al
  0x6b90	add    	byte ptr [eax], al
  0x6b92	add    	byte ptr [eax], al
  === BLOCK LINK ===
    0x6b94
=== CODE BLOCK END ===

=== CODE BLOCK ADDRESS 0x6b94 ===
  0x6b94	add    	byte ptr [eax], al
  0x6b96	add    	byte ptr [eax], al
  0x6b98	add    	byte ptr [eax], al
  0x6b9a	add    	byte ptr [eax], al
  0x6b9c	add    	byte ptr [eax], al
  === BLOCK LINK ===
    0x6b9e
=== CODE BLOCK END ===

=== CODE BLOCK ADDRESS 0x6b9e ===
  0x6b9e	add    	byte ptr [eax], al
  0x6ba0	add    	byte ptr [eax], al
  0x6ba2	add    	byte ptr [eax], al
  0x6ba4	add    	byte ptr [eax], al
  0x6ba6	add    	byte ptr [eax], al
  === BLOCK LINK ===
    0x6ba8
=== CODE BLOCK END ===

=== CODE BLOCK ADDRESS 0x6ba8 ===
  0x6ba8	add    	byte ptr [eax], al
  0x6baa	add    	byte ptr [eax], al
  0x6bac	add    	byte ptr [eax], al
  0x6bae	add    	byte ptr [eax], al
  0x6bb0	add    	byte ptr [eax], al
  === BLOCK LINK ===
    0x6bb2
=== CODE BLOCK END ===

=== CODE BLOCK ADDRESS 0x6bb2 ===
  0x6bb2	add    	byte ptr [eax], al
  0x6bb4	add    	byte ptr [eax], al
  0x6bb6	add    	byte ptr [eax], al
  0x6bb8	add    	byte ptr [eax], al
  0x6bba	add    	byte ptr [eax], al
  === BLOCK LINK ===
    0x6bbc
=== CODE BLOCK END ===

=== CODE BLOCK ADDRESS 0x6bbc ===
  0x6bbc	add    	byte ptr [eax], al
  0x6bbe	add    	byte ptr [eax], al
  0x6bc0	add    	byte ptr [eax], al
  0x6bc2	add    	byte ptr [eax], al
  0x6bc4	add    	byte ptr [eax], al
  === BLOCK LINK ===
    0x6bc6
=== CODE BLOCK END ===

=== CODE BLOCK ADDRESS 0x6bc6 ===
  0x6bc6	add    	byte ptr [eax], al
  0x6bc8	add    	byte ptr [eax], al
  0x6bca	add    	byte ptr [eax], al
  0x6bcc	add    	byte ptr [eax], al
  0x6bce	add    	byte ptr [eax], al
  === BLOCK LINK ===
    0x6bd0
=== CODE BLOCK END ===

=== CODE BLOCK ADDRESS 0x6bd0 ===
  0x6bd0	add    	byte ptr [eax], al
  0x6bd2	add    	byte ptr [eax], al
  0x6bd4	add    	byte ptr [eax], al
  0x6bd6	add    	byte ptr [eax], al
  0x6bd8	add    	byte ptr [eax], al
  === BLOCK LINK ===
    0x6bda
=== CODE BLOCK END ===

=== CODE BLOCK ADDRESS 0x6bda ===
  0x6bda	add    	byte ptr [eax], al
  0x6bdc	add    	byte ptr [eax], al
  0x6bde	add    	byte ptr [eax], al
  0x6be0	add    	byte ptr [eax], al
  0x6be2	add    	byte ptr [eax], al
  === BLOCK LINK ===
    0x6be4
=== CODE BLOCK END ===

=== CODE BLOCK ADDRESS 0x6be4 ===
  0x6be4	add    	byte ptr [eax], al
  0x6be6	add    	byte ptr [eax], al
  0x6be8	add    	byte ptr [eax], al
  0x6bea	add    	byte ptr [eax], al
  0x6bec	add    	byte ptr [eax], al
  === BLOCK LINK ===
    0x6bee
=== CODE BLOCK END ===

=== CODE BLOCK ADDRESS 0x6bee ===
  0x6bee	add    	byte ptr [eax], al
  0x6bf0	add    	byte ptr [eax], al
  0x6bf2	add    	byte ptr [eax], al
  0x6bf4	add    	byte ptr [eax], al
  0x6bf6	add    	byte ptr [eax], al
  === BLOCK LINK ===
    0x6bf8
=== CODE BLOCK END ===

=== CODE BLOCK ADDRESS 0x6bf8 ===
  0x6bf8	add    	byte ptr [eax], al
  0x6bfa	add    	byte ptr [eax], al
  0x6bfc	add    	byte ptr [eax], al
  0x6bfe	add    	byte ptr [eax], al
  0x6c00	add    	byte ptr [eax], al
  === BLOCK LINK ===
    0x6c02
=== CODE BLOCK END ===

=== CODE BLOCK ADDRESS 0x6c02 ===
  0x6c02	add    	byte ptr [eax], al
  0x6c04	add    	byte ptr [eax], al
  0x6c06	add    	byte ptr [eax], al
  0x6c08	add    	byte ptr [eax], al
  0x6c0a	add    	byte ptr [eax], al
  === BLOCK LINK ===
    0x6c0c
=== CODE BLOCK END ===

=== CODE BLOCK ADDRESS 0x6c0c ===
  0x6c0c	add    	byte ptr [eax], al
  0x6c0e	add    	byte ptr [eax], al
  0x6c10	add    	byte ptr [eax], al
  0x6c12	add    	byte ptr [eax], al
  0x6c14	add    	byte ptr [eax], al
  === BLOCK LINK ===
    0x6c16
=== CODE BLOCK END ===

=== CODE BLOCK ADDRESS 0x6c16 ===
  0x6c16	add    	byte ptr [eax], al
  0x6c18	add    	byte ptr [eax], al
  0x6c1a	add    	byte ptr [eax], al
  0x6c1c	add    	byte ptr [eax], al
  0x6c1e	add    	byte ptr [eax], al
  === BLOCK LINK ===
    0x6c20
=== CODE BLOCK END ===

=== CODE BLOCK ADDRESS 0x6c20 ===
  0x6c20	add    	byte ptr [eax], al
  0x6c22	add    	byte ptr [eax], al
  0x6c24	add    	byte ptr [eax], al
  0x6c26	add    	byte ptr [eax], al
  0x6c28	add    	byte ptr [eax], al
  === BLOCK LINK ===
    0x6c2a
=== CODE BLOCK END ===

=== CODE BLOCK ADDRESS 0x6c2a ===
  0x6c2a	add    	byte ptr [eax], al
  0x6c2c	add    	byte ptr [eax], al
  0x6c2e	add    	byte ptr [eax], al
  0x6c30	add    	byte ptr [eax], al
  0x6c32	add    	byte ptr [eax], al
  === BLOCK LINK ===
    0x6c34
=== CODE BLOCK END ===

=== CODE BLOCK ADDRESS 0x6c34 ===
  0x6c34	add    	byte ptr [eax], al
  0x6c36	add    	byte ptr [eax], al
  0x6c38	add    	byte ptr [eax], al
  0x6c3a	add    	byte ptr [eax], al
  0x6c3c	add    	byte ptr [eax], al
  === BLOCK LINK ===
    0x6c3e
=== CODE BLOCK END ===

=== CODE BLOCK ADDRESS 0x6c3e ===
  0x6c3e	add    	byte ptr [eax], al
  0x6c40	add    	byte ptr [eax], al
  0x6c42	add    	byte ptr [eax], al
  0x6c44	add    	byte ptr [eax], al
  0x6c46	add    	byte ptr [eax], al
  === BLOCK LINK ===
    0x6c48
=== CODE BLOCK END ===

=== CODE BLOCK ADDRESS 0x6c48 ===
  0x6c48	add    	byte ptr [eax], al
  0x6c4a	add    	byte ptr [eax], al
  0x6c4c	add    	byte ptr [eax], al
  0x6c4e	add    	byte ptr [eax], al
  0x6c50	add    	byte ptr [eax], al
  === BLOCK LINK ===
    0x6c52
=== CODE BLOCK END ===

=== CODE BLOCK ADDRESS 0x6c52 ===
  0x6c52	add    	byte ptr [eax], al
  0x6c54	add    	byte ptr [eax], al
  0x6c56	add    	byte ptr [eax], al
  0x6c58	add    	byte ptr [eax], al
  0x6c5a	add    	byte ptr [eax], al
  === BLOCK LINK ===
    0x6c5c
=== CODE BLOCK END ===

=== CODE BLOCK ADDRESS 0x6c5c ===
  0x6c5c	add    	byte ptr [eax], al
  0x6c5e	add    	byte ptr [eax], al
  0x6c60	add    	byte ptr [eax], al
  0x6c62	add    	byte ptr [eax], al
  0x6c64	add    	byte ptr [eax], al
  === BLOCK LINK ===
    0x6c66
=== CODE BLOCK END ===

=== CODE BLOCK ADDRESS 0x6c66 ===
  0x6c66	add    	byte ptr [eax], al
  0x6c68	add    	byte ptr [eax], al
  0x6c6a	add    	byte ptr [eax], al
  0x6c6c	add    	byte ptr [eax], al
  0x6c6e	add    	byte ptr [eax], al
  === BLOCK LINK ===
    0x6c70
=== CODE BLOCK END ===

=== CODE BLOCK ADDRESS 0x6c70 ===
  0x6c70	add    	byte ptr [eax], al
  0x6c72	add    	byte ptr [eax], al
  0x6c74	add    	byte ptr [eax], al
  0x6c76	add    	byte ptr [eax], al
  0x6c78	add    	byte ptr [eax], al
  === BLOCK LINK ===
    0x6c7a
=== CODE BLOCK END ===

=== CODE BLOCK ADDRESS 0x6c7a ===
  0x6c7a	add    	byte ptr [eax], al
  0x6c7c	add    	byte ptr [eax], al
  0x6c7e	add    	byte ptr [eax], al
  0x6c80	add    	byte ptr [eax], al
  0x6c82	add    	byte ptr [eax], al
  === BLOCK LINK ===
    0x6c84
=== CODE BLOCK END ===

=== CODE BLOCK ADDRESS 0x6c84 ===
  0x6c84	add    	byte ptr [eax], al
  0x6c86	add    	byte ptr [eax], al
  0x6c88	add    	byte ptr [eax], al
  0x6c8a	add    	byte ptr [eax], al
  0x6c8c	add    	byte ptr [eax], al
  === BLOCK LINK ===
    0x6c8e
=== CODE BLOCK END ===

=== CODE BLOCK ADDRESS 0x6c8e ===
  0x6c8e	add    	byte ptr [eax], al
  0x6c90	add    	byte ptr [eax], al
  0x6c92	add    	byte ptr [eax], al
  0x6c94	add    	byte ptr [eax], al
  0x6c96	add    	byte ptr [eax], al
  === BLOCK LINK ===
    0x6c98
=== CODE BLOCK END ===

=== CODE BLOCK ADDRESS 0x6c98 ===
  0x6c98	add    	byte ptr [eax], al
  0x6c9a	add    	byte ptr [eax], al
  0x6c9c	add    	byte ptr [eax], al
  0x6c9e	add    	byte ptr [eax], al
  0x6ca0	add    	byte ptr [eax], al
  === BLOCK LINK ===
    0x6ca2
=== CODE BLOCK END ===

=== CODE BLOCK ADDRESS 0x6ca2 ===
  0x6ca2	add    	byte ptr [eax], al
  0x6ca4	add    	byte ptr [eax], al
  0x6ca6	add    	byte ptr [eax], al
  0x6ca8	add    	byte ptr [eax], al
  0x6caa	add    	byte ptr [eax], al
  === BLOCK LINK ===
    0x6cac
=== CODE BLOCK END ===

=== CODE BLOCK ADDRESS 0x6cac ===
  0x6cac	add    	byte ptr [eax], al
  0x6cae	add    	byte ptr [eax], al
  0x6cb0	add    	byte ptr [eax], al
  0x6cb2	add    	byte ptr [eax], al
  0x6cb4	add    	byte ptr [eax], al
  === BLOCK LINK ===
    0x6cb6
=== CODE BLOCK END ===

=== CODE BLOCK ADDRESS 0x6cb6 ===
  0x6cb6	add    	byte ptr [eax], al
  0x6cb8	add    	byte ptr [eax], al
  0x6cba	add    	byte ptr [eax], al
  0x6cbc	add    	byte ptr [eax], al
  0x6cbe	add    	byte ptr [eax], al
  === BLOCK LINK ===
    0x6cc0
=== CODE BLOCK END ===

=== CODE BLOCK ADDRESS 0x6cc0 ===
  0x6cc0	add    	byte ptr [eax], al
  0x6cc2	add    	byte ptr [eax], al
  0x6cc4	add    	byte ptr [eax], al
  0x6cc6	add    	byte ptr [eax], al
  0x6cc8	add    	byte ptr [eax], al
  === BLOCK LINK ===
    0x6cca
=== CODE BLOCK END ===

=== CODE BLOCK ADDRESS 0x6cca ===
  0x6cca	add    	byte ptr [eax], al
  0x6ccc	add    	byte ptr [eax], al
  0x6cce	add    	byte ptr [eax], al
  0x6cd0	add    	byte ptr [eax], al
  0x6cd2	add    	byte ptr [eax], al
  === BLOCK LINK ===
    0x6cd4
=== CODE BLOCK END ===

=== CODE BLOCK ADDRESS 0x6cd4 ===
  0x6cd4	add    	byte ptr [eax], al
  0x6cd6	add    	byte ptr [eax], al
  0x6cd8	add    	byte ptr [eax], al
  0x6cda	add    	byte ptr [eax], al
  0x6cdc	add    	byte ptr [eax], al
  === BLOCK LINK ===
    0x6cde
=== CODE BLOCK END ===

=== CODE BLOCK ADDRESS 0x6cde ===
  0x6cde	add    	byte ptr [eax], al
  0x6ce0	add    	byte ptr [eax], al
  0x6ce2	add    	byte ptr [eax], al
  0x6ce4	add    	byte ptr [eax], al
  0x6ce6	add    	byte ptr [eax], al
  === BLOCK LINK ===
    0x6ce8
=== CODE BLOCK END ===

=== CODE BLOCK ADDRESS 0x6ce8 ===
  0x6ce8	add    	byte ptr [eax], al
  0x6cea	add    	byte ptr [eax], al
  0x6cec	add    	byte ptr [eax], al
  0x6cee	add    	byte ptr [eax], al
  0x6cf0	add    	byte ptr [eax], al
  === BLOCK LINK ===
    0x6cf2
=== CODE BLOCK END ===

=== CODE BLOCK ADDRESS 0x6cf2 ===
  0x6cf2	add    	byte ptr [eax], al
  0x6cf4	add    	byte ptr [eax], al
  0x6cf6	add    	byte ptr [eax], al
  0x6cf8	add    	byte ptr [eax], al
  0x6cfa	add    	byte ptr [eax], al
  === BLOCK LINK ===
    0x6cfc
=== CODE BLOCK END ===

=== CODE BLOCK ADDRESS 0x6cfc ===
  0x6cfc	add    	byte ptr [eax], al
  0x6cfe	add    	byte ptr [eax], al
  0x6d00	add    	byte ptr [eax], al
  0x6d02	add    	byte ptr [eax], al
  0x6d04	add    	byte ptr [eax], al
  === BLOCK LINK ===
    0x6d06
=== CODE BLOCK END ===

=== CODE BLOCK ADDRESS 0x6d06 ===
  0x6d06	add    	byte ptr [eax], al
  0x6d08	add    	byte ptr [eax], al
  0x6d0a	add    	byte ptr [eax], al
  0x6d0c	add    	byte ptr [eax], al
  0x6d0e	add    	byte ptr [eax], al
  === BLOCK LINK ===
    0x6d10
=== CODE BLOCK END ===

=== CODE BLOCK ADDRESS 0x6d10 ===
  0x6d10	add    	byte ptr [eax], al
  0x6d12	add    	byte ptr [eax], al
  0x6d14	add    	byte ptr [eax], al
  0x6d16	add    	byte ptr [eax], al
  0x6d18	add    	byte ptr [eax], al
  === BLOCK LINK ===
    0x6d1a
=== CODE BLOCK END ===

=== CODE BLOCK ADDRESS 0x6d1a ===
  0x6d1a	add    	byte ptr [eax], al
  0x6d1c	add    	byte ptr [eax], al
  0x6d1e	add    	byte ptr [eax], al
  0x6d20	add    	byte ptr [eax], al
  0x6d22	add    	byte ptr [eax], al
  === BLOCK LINK ===
    0x6d24
=== CODE BLOCK END ===

=== CODE BLOCK ADDRESS 0x6d24 ===
  0x6d24	add    	byte ptr [eax], al
  0x6d26	add    	byte ptr [eax], al
  0x6d28	add    	byte ptr [eax], al
  0x6d2a	add    	byte ptr [eax], al
  0x6d2c	add    	byte ptr [eax], al
  === BLOCK LINK ===
    0x6d2e
=== CODE BLOCK END ===

=== CODE BLOCK ADDRESS 0x6d2e ===
  0x6d2e	add    	byte ptr [eax], al
  0x6d30	add    	byte ptr [eax], al
  0x6d32	add    	byte ptr [eax], al
  0x6d34	add    	byte ptr [eax], al
  0x6d36	add    	byte ptr [eax], al
  === BLOCK LINK ===
    0x6d38
=== CODE BLOCK END ===

=== CODE BLOCK ADDRESS 0x6d38 ===
  0x6d38	add    	byte ptr [eax], al
  0x6d3a	add    	byte ptr [eax], al
  0x6d3c	add    	byte ptr [eax], al
  0x6d3e	add    	byte ptr [eax], al
  0x6d40	add    	byte ptr [eax], al
  === BLOCK LINK ===
    0x6d42
=== CODE BLOCK END ===

=== CODE BLOCK ADDRESS 0x6d42 ===
  0x6d42	add    	byte ptr [eax], al
  0x6d44	add    	byte ptr [eax], al
  0x6d46	add    	byte ptr [eax], al
  0x6d48	add    	byte ptr [eax], al
  0x6d4a	add    	byte ptr [eax], al
  === BLOCK LINK ===
    0x6d4c
=== CODE BLOCK END ===

=== CODE BLOCK ADDRESS 0x6d4c ===
  0x6d4c	add    	byte ptr [eax], al
  0x6d4e	add    	byte ptr [eax], al
  0x6d50	add    	byte ptr [eax], al
  0x6d52	add    	byte ptr [eax], al
  0x6d54	add    	byte ptr [eax], al
  === BLOCK LINK ===
    0x6d56
=== CODE BLOCK END ===

=== CODE BLOCK ADDRESS 0x6d56 ===
  0x6d56	add    	byte ptr [eax], al
  0x6d58	add    	byte ptr [eax], al
  0x6d5a	add    	byte ptr [eax], al
  0x6d5c	add    	byte ptr [eax], al
  0x6d5e	add    	byte ptr [eax], al
  === BLOCK LINK ===
    0x6d60
=== CODE BLOCK END ===

=== CODE BLOCK ADDRESS 0x6d60 ===
  0x6d60	add    	byte ptr [eax], al
  0x6d62	add    	byte ptr [eax], al
  0x6d64	add    	byte ptr [eax], al
  0x6d66	add    	byte ptr [eax], al
  0x6d68	add    	byte ptr [eax], al
  === BLOCK LINK ===
    0x6d6a
=== CODE BLOCK END ===

=== CODE BLOCK ADDRESS 0x6d6a ===
  0x6d6a	add    	byte ptr [eax], al
  0x6d6c	add    	byte ptr [eax], al
  0x6d6e	add    	byte ptr [eax], al
  0x6d70	add    	byte ptr [eax], al
  0x6d72	add    	byte ptr [eax], al
  === BLOCK LINK ===
    0x6d74
=== CODE BLOCK END ===

=== CODE BLOCK ADDRESS 0x6d74 ===
  0x6d74	add    	byte ptr [eax], al
  0x6d76	add    	byte ptr [eax], al
  0x6d78	add    	byte ptr [eax], al
  0x6d7a	add    	byte ptr [eax], al
  0x6d7c	add    	byte ptr [eax], al
  === BLOCK LINK ===
    0x6d7e
=== CODE BLOCK END ===

=== CODE BLOCK ADDRESS 0x6d7e ===
  0x6d7e	add    	byte ptr [eax], al
  0x6d80	add    	byte ptr [eax], al
  0x6d82	add    	byte ptr [eax], al
  0x6d84	add    	byte ptr [eax], al
  0x6d86	add    	byte ptr [eax], al
  === BLOCK LINK ===
    0x6d88
=== CODE BLOCK END ===

=== CODE BLOCK ADDRESS 0x6d88 ===
  0x6d88	add    	byte ptr [eax], al
  0x6d8a	add    	byte ptr [eax], al
  0x6d8c	add    	byte ptr [eax], al
  0x6d8e	add    	byte ptr [eax], al
  0x6d90	add    	byte ptr [eax], al
  === BLOCK LINK ===
    0x6d92
=== CODE BLOCK END ===

=== CODE BLOCK ADDRESS 0x6d92 ===
  0x6d92	add    	byte ptr [eax], al
  0x6d94	add    	byte ptr [eax], al
  0x6d96	add    	byte ptr [eax], al
  0x6d98	add    	byte ptr [eax], al
  0x6d9a	add    	byte ptr [eax], al
  === BLOCK LINK ===
    0x6d9c
=== CODE BLOCK END ===

=== CODE BLOCK ADDRESS 0x6d9c ===
  0x6d9c	add    	byte ptr [eax], al
  0x6d9e	add    	byte ptr [eax], al
  0x6da0	add    	byte ptr [eax], al
  0x6da2	add    	byte ptr [eax], al
  0x6da4	add    	byte ptr [eax], al
  === BLOCK LINK ===
    0x6da6
=== CODE BLOCK END ===

=== CODE BLOCK ADDRESS 0x6da6 ===
  0x6da6	add    	byte ptr [eax], al
  0x6da8	add    	byte ptr [eax], al
  0x6daa	add    	byte ptr [eax], al
  0x6dac	add    	byte ptr [eax], al
  0x6dae	add    	byte ptr [eax], al
  === BLOCK LINK ===
    0x6db0
=== CODE BLOCK END ===

=== CODE BLOCK ADDRESS 0x6db0 ===
  0x6db0	add    	byte ptr [eax], al
  0x6db2	add    	byte ptr [eax], al
  0x6db4	add    	byte ptr [eax], al
  0x6db6	add    	byte ptr [eax], al
  0x6db8	add    	byte ptr [eax], al
  === BLOCK LINK ===
    0x6dba
=== CODE BLOCK END ===

=== CODE BLOCK ADDRESS 0x6dba ===
  0x6dba	add    	byte ptr [eax], al
  0x6dbc	add    	byte ptr [eax], al
  0x6dbe	add    	byte ptr [eax], al
  0x6dc0	add    	byte ptr [eax], al
  0x6dc2	add    	byte ptr [eax], al
  === BLOCK LINK ===
    0x6dc4
=== CODE BLOCK END ===

=== CODE BLOCK ADDRESS 0x6dc4 ===
  0x6dc4	add    	byte ptr [eax], al
  0x6dc6	add    	byte ptr [eax], al
  0x6dc8	add    	byte ptr [eax], al
  0x6dca	add    	byte ptr [eax], al
  0x6dcc	add    	byte ptr [eax], al
  === BLOCK LINK ===
    0x6dce
=== CODE BLOCK END ===

=== CODE BLOCK ADDRESS 0x6dce ===
  0x6dce	add    	byte ptr [eax], al
  0x6dd0	add    	byte ptr [eax], al
  0x6dd2	add    	byte ptr [eax], al
  0x6dd4	add    	byte ptr [eax], al
  0x6dd6	add    	byte ptr [eax], al
  === BLOCK LINK ===
    0x6dd8
=== CODE BLOCK END ===

=== CODE BLOCK ADDRESS 0x6dd8 ===
  0x6dd8	add    	byte ptr [eax], al
  0x6dda	add    	byte ptr [eax], al
  0x6ddc	add    	byte ptr [eax], al
  0x6dde	add    	byte ptr [eax], al
  0x6de0	add    	byte ptr [eax], al
  === BLOCK LINK ===
    0x6de2
=== CODE BLOCK END ===

=== CODE BLOCK ADDRESS 0x6de2 ===
  0x6de2	add    	byte ptr [eax], al
  0x6de4	add    	byte ptr [eax], al
  0x6de6	add    	byte ptr [eax], al
  0x6de8	add    	byte ptr [eax], al
  0x6dea	add    	byte ptr [eax], al
  === BLOCK LINK ===
    0x6dec
=== CODE BLOCK END ===

=== CODE BLOCK ADDRESS 0x6dec ===
  0x6dec	add    	byte ptr [eax], al
  0x6dee	add    	byte ptr [eax], al
  0x6df0	add    	byte ptr [eax], al
  0x6df2	add    	byte ptr [eax], al
  0x6df4	add    	byte ptr [eax], al
  === BLOCK LINK ===
    0x6df6
=== CODE BLOCK END ===

=== CODE BLOCK ADDRESS 0x6df6 ===
  0x6df6	add    	byte ptr [eax], al
  0x6df8	add    	byte ptr [eax], al
  0x6dfa	add    	byte ptr [eax], al
  0x6dfc	add    	byte ptr [eax], al
  0x6dfe	add    	byte ptr [eax], al
  === BLOCK LINK ===
    0x6e00
=== CODE BLOCK END ===

=== CODE BLOCK ADDRESS 0x6e00 ===
  0x6e00	add    	byte ptr [eax], al
  0x6e02	add    	byte ptr [eax], al
  0x6e04	add    	byte ptr [eax], al
  0x6e06	add    	byte ptr [eax], al
  0x6e08	add    	byte ptr [eax], al
  === BLOCK LINK ===
    0x6e0a
=== CODE BLOCK END ===

=== CODE BLOCK ADDRESS 0x6e0a ===
  0x6e0a	add    	byte ptr [eax], al
  0x6e0c	add    	byte ptr [eax], al
  0x6e0e	add    	byte ptr [eax], al
  0x6e10	add    	byte ptr [eax], al
  0x6e12	add    	byte ptr [eax], al
  === BLOCK LINK ===
    0x6e14
=== CODE BLOCK END ===

=== CODE BLOCK ADDRESS 0x6e14 ===
  0x6e14	add    	byte ptr [eax], al
  0x6e16	add    	byte ptr [eax], al
  0x6e18	add    	byte ptr [eax], al
  0x6e1a	add    	byte ptr [eax], al
  0x6e1c	add    	byte ptr [eax], al
  === BLOCK LINK ===
    0x6e1e
=== CODE BLOCK END ===

=== CODE BLOCK ADDRESS 0x6e1e ===
  0x6e1e	add    	byte ptr [eax], al
  0x6e20	add    	byte ptr [eax], al
  0x6e22	add    	byte ptr [eax], al
  0x6e24	add    	byte ptr [eax], al
  0x6e26	add    	byte ptr [eax], al
  === BLOCK LINK ===
    0x6e28
=== CODE BLOCK END ===

=== CODE BLOCK ADDRESS 0x6e28 ===
  0x6e28	add    	byte ptr [eax], al
  0x6e2a	add    	byte ptr [eax], al
  0x6e2c	add    	byte ptr [eax], al
  0x6e2e	add    	byte ptr [eax], al
  0x6e30	add    	byte ptr [eax], al
  === BLOCK LINK ===
    0x6e32
=== CODE BLOCK END ===

=== CODE BLOCK ADDRESS 0x6e32 ===
  0x6e32	add    	byte ptr [eax], al
  0x6e34	add    	byte ptr [eax], al
  0x6e36	add    	byte ptr [eax], al
  0x6e38	add    	byte ptr [eax], al
  0x6e3a	add    	byte ptr [eax], al
  === BLOCK LINK ===
    0x6e3c
=== CODE BLOCK END ===

=== CODE BLOCK ADDRESS 0x6e3c ===
  0x6e3c	add    	byte ptr [eax], al
  0x6e3e	add    	byte ptr [eax], al
  0x6e40	add    	byte ptr [eax], al
  0x6e42	add    	byte ptr [eax], al
  0x6e44	add    	byte ptr [eax], al
  === BLOCK LINK ===
    0x6e46
=== CODE BLOCK END ===

=== CODE BLOCK ADDRESS 0x6e46 ===
  0x6e46	add    	byte ptr [eax], al
  0x6e48	add    	byte ptr [eax], al
  0x6e4a	add    	byte ptr [eax], al
  0x6e4c	add    	byte ptr [eax], al
  0x6e4e	add    	byte ptr [eax], al
  === BLOCK LINK ===
    0x6e50
=== CODE BLOCK END ===

=== CODE BLOCK ADDRESS 0x6e50 ===
  0x6e50	add    	byte ptr [eax], al
  0x6e52	add    	byte ptr [eax], al
  0x6e54	add    	byte ptr [eax], al
  0x6e56	add    	byte ptr [eax], al
  0x6e58	add    	byte ptr [eax], al
  === BLOCK LINK ===
    0x6e5a
=== CODE BLOCK END ===

=== CODE BLOCK ADDRESS 0x6e5a ===
  0x6e5a	add    	byte ptr [eax], al
  0x6e5c	add    	byte ptr [eax], al
  0x6e5e	add    	byte ptr [eax], al
  0x6e60	add    	byte ptr [eax], al
  0x6e62	add    	byte ptr [eax], al
  === BLOCK LINK ===
    0x6e64
=== CODE BLOCK END ===

=== CODE BLOCK ADDRESS 0x6e64 ===
  0x6e64	add    	byte ptr [eax], al
  0x6e66	add    	byte ptr [eax], al
  0x6e68	add    	byte ptr [eax], al
  0x6e6a	add    	byte ptr [eax], al
  0x6e6c	add    	byte ptr [eax], al
  === BLOCK LINK ===
    0x6e6e
=== CODE BLOCK END ===

=== CODE BLOCK ADDRESS 0x6e6e ===
  0x6e6e	add    	byte ptr [eax], al
  0x6e70	add    	byte ptr [eax], al
  0x6e72	add    	byte ptr [eax], al
  0x6e74	add    	byte ptr [eax], al
  0x6e76	add    	byte ptr [eax], al
  === BLOCK LINK ===
    0x6e78
=== CODE BLOCK END ===

=== CODE BLOCK ADDRESS 0x6e78 ===
  0x6e78	add    	byte ptr [eax], al
  0x6e7a	add    	byte ptr [eax], al
  0x6e7c	add    	byte ptr [eax], al
  0x6e7e	add    	byte ptr [eax], al
  0x6e80	add    	byte ptr [eax], al
  === BLOCK LINK ===
    0x6e82
=== CODE BLOCK END ===

=== CODE BLOCK ADDRESS 0x6e82 ===
  0x6e82	add    	byte ptr [eax], al
  0x6e84	add    	byte ptr [eax], al
  0x6e86	add    	byte ptr [eax], al
  0x6e88	add    	byte ptr [eax], al
  0x6e8a	add    	byte ptr [eax], al
  === BLOCK LINK ===
    0x6e8c
=== CODE BLOCK END ===

=== CODE BLOCK ADDRESS 0x6e8c ===
  0x6e8c	add    	byte ptr [eax], al
  0x6e8e	add    	byte ptr [eax], al
  0x6e90	add    	byte ptr [eax], al
  0x6e92	add    	byte ptr [eax], al
  0x6e94	add    	byte ptr [eax], al
  === BLOCK LINK ===
    0x6e96
=== CODE BLOCK END ===

=== CODE BLOCK ADDRESS 0x6e96 ===
  0x6e96	add    	byte ptr [eax], al
  0x6e98	add    	byte ptr [eax], al
  0x6e9a	add    	byte ptr [eax], al
  0x6e9c	add    	byte ptr [eax], al
  0x6e9e	add    	byte ptr [eax], al
  === BLOCK LINK ===
    0x6ea0
=== CODE BLOCK END ===

=== CODE BLOCK ADDRESS 0x6ea0 ===
  0x6ea0	add    	byte ptr [eax], al
  0x6ea2	add    	byte ptr [eax], al
  0x6ea4	add    	byte ptr [eax], al
  0x6ea6	add    	byte ptr [eax], al
  0x6ea8	add    	byte ptr [eax], al
  === BLOCK LINK ===
    0x6eaa
=== CODE BLOCK END ===

=== CODE BLOCK ADDRESS 0x6eaa ===
  0x6eaa	add    	byte ptr [eax], al
  0x6eac	add    	byte ptr [eax], al
  0x6eae	add    	byte ptr [eax], al
  0x6eb0	add    	byte ptr [eax], al
  0x6eb2	add    	byte ptr [eax], al
  === BLOCK LINK ===
    0x6eb4
=== CODE BLOCK END ===

=== CODE BLOCK ADDRESS 0x6eb4 ===
  0x6eb4	add    	byte ptr [eax], al
  0x6eb6	add    	byte ptr [eax], al
  0x6eb8	add    	byte ptr [eax], al
  0x6eba	add    	byte ptr [eax], al
  0x6ebc	add    	byte ptr [eax], al
  === BLOCK LINK ===
    0x6ebe
=== CODE BLOCK END ===

=== CODE BLOCK ADDRESS 0x6ebe ===
  0x6ebe	add    	byte ptr [eax], al
  0x6ec0	add    	byte ptr [eax], al
  0x6ec2	add    	byte ptr [eax], al
  0x6ec4	add    	byte ptr [eax], al
  0x6ec6	add    	byte ptr [eax], al
  === BLOCK LINK ===
    0x6ec8
=== CODE BLOCK END ===

=== CODE BLOCK ADDRESS 0x6ec8 ===
  0x6ec8	add    	byte ptr [eax], al
  0x6eca	add    	byte ptr [eax], al
  0x6ecc	add    	byte ptr [eax], al
  0x6ece	add    	byte ptr [eax], al
  0x6ed0	add    	byte ptr [eax], al
  === BLOCK LINK ===
    0x6ed2
=== CODE BLOCK END ===

=== CODE BLOCK ADDRESS 0x6ed2 ===
  0x6ed2	add    	byte ptr [eax], al
  0x6ed4	add    	byte ptr [eax], al
  0x6ed6	add    	byte ptr [eax], al
  0x6ed8	add    	byte ptr [eax], al
  0x6eda	add    	byte ptr [eax], al
  === BLOCK LINK ===
    0x6edc
=== CODE BLOCK END ===

=== CODE BLOCK ADDRESS 0x6edc ===
  0x6edc	add    	byte ptr [eax], al
  0x6ede	add    	byte ptr [eax], al
  0x6ee0	add    	byte ptr [eax], al
  0x6ee2	add    	byte ptr [eax], al
  0x6ee4	add    	byte ptr [eax], al
  === BLOCK LINK ===
    0x6ee6
=== CODE BLOCK END ===

=== CODE BLOCK ADDRESS 0x6ee6 ===
  0x6ee6	add    	byte ptr [eax], al
  0x6ee8	add    	byte ptr [eax], al
  0x6eea	add    	byte ptr [eax], al
  0x6eec	add    	byte ptr [eax], al
  0x6eee	add    	byte ptr [eax], al
  === BLOCK LINK ===
    0x6ef0
=== CODE BLOCK END ===

=== CODE BLOCK ADDRESS 0x6ef0 ===
  0x6ef0	add    	byte ptr [eax], al
  0x6ef2	add    	byte ptr [eax], al
  0x6ef4	add    	byte ptr [eax], al
  0x6ef6	add    	byte ptr [eax], al
  0x6ef8	add    	byte ptr [eax], al
  === BLOCK LINK ===
    0x6efa
=== CODE BLOCK END ===

=== CODE BLOCK ADDRESS 0x6efa ===
  0x6efa	add    	byte ptr [eax], al
  0x6efc	add    	byte ptr [eax], al
  0x6efe	add    	byte ptr [eax], al
  0x6f00	add    	byte ptr [eax], al
  0x6f02	add    	byte ptr [eax], al
  === BLOCK LINK ===
    0x6f04
=== CODE BLOCK END ===

=== CODE BLOCK ADDRESS 0x6f04 ===
  0x6f04	add    	byte ptr [eax], al
  0x6f06	add    	byte ptr [eax], al
  0x6f08	add    	byte ptr [eax], al
  0x6f0a	add    	byte ptr [eax], al
  0x6f0c	add    	byte ptr [eax], al
  === BLOCK LINK ===
    0x6f0e
=== CODE BLOCK END ===

=== CODE BLOCK ADDRESS 0x6f0e ===
  0x6f0e	add    	byte ptr [eax], al
  0x6f10	add    	byte ptr [eax], al
  0x6f12	add    	byte ptr [eax], al
  0x6f14	add    	byte ptr [eax], al
  0x6f16	add    	byte ptr [eax], al
  === BLOCK LINK ===
    0x6f18
=== CODE BLOCK END ===

=== CODE BLOCK ADDRESS 0x6f18 ===
  0x6f18	add    	byte ptr [eax], al
  0x6f1a	add    	byte ptr [eax], al
  0x6f1c	add    	byte ptr [eax], al
  0x6f1e	add    	byte ptr [eax], al
  0x6f20	add    	byte ptr [eax], al
  === BLOCK LINK ===
    0x6f22
=== CODE BLOCK END ===

=== CODE BLOCK ADDRESS 0x6f22 ===
  0x6f22	add    	byte ptr [eax], al
  0x6f24	add    	byte ptr [eax], al
  0x6f26	add    	byte ptr [eax], al
  0x6f28	add    	byte ptr [eax], al
  0x6f2a	add    	byte ptr [eax], al
  === BLOCK LINK ===
    0x6f2c
=== CODE BLOCK END ===

=== CODE BLOCK ADDRESS 0x6f2c ===
  0x6f2c	add    	byte ptr [eax], al
  0x6f2e	add    	byte ptr [eax], al
  0x6f30	add    	byte ptr [eax], al
  0x6f32	add    	byte ptr [eax], al
  0x6f34	add    	byte ptr [eax], al
  === BLOCK LINK ===
    0x6f36
=== CODE BLOCK END ===

=== CODE BLOCK ADDRESS 0x6f36 ===
  0x6f36	add    	byte ptr [eax], al
  0x6f38	add    	byte ptr [eax], al
  0x6f3a	add    	byte ptr [eax], al
  0x6f3c	add    	byte ptr [eax], al
  0x6f3e	add    	byte ptr [eax], al
  === BLOCK LINK ===
    0x6f40
=== CODE BLOCK END ===

=== CODE BLOCK ADDRESS 0x6f40 ===
  0x6f40	add    	byte ptr [eax], al
  0x6f42	add    	byte ptr [eax], al
  0x6f44	add    	byte ptr [eax], al
  0x6f46	add    	byte ptr [eax], al
  0x6f48	add    	byte ptr [eax], al
  === BLOCK LINK ===
    0x6f4a
=== CODE BLOCK END ===

=== CODE BLOCK ADDRESS 0x6f4a ===
  0x6f4a	add    	byte ptr [eax], al
  0x6f4c	add    	byte ptr [eax], al
  0x6f4e	add    	byte ptr [eax], al
  0x6f50	add    	byte ptr [eax], al
  0x6f52	add    	byte ptr [eax], al
  === BLOCK LINK ===
    0x6f54
=== CODE BLOCK END ===

=== CODE BLOCK ADDRESS 0x6f54 ===
  0x6f54	add    	byte ptr [eax], al
  0x6f56	add    	byte ptr [eax], al
  0x6f58	add    	byte ptr [eax], al
  0x6f5a	add    	byte ptr [eax], al
  0x6f5c	add    	byte ptr [eax], al
  === BLOCK LINK ===
    0x6f5e
=== CODE BLOCK END ===

=== CODE BLOCK ADDRESS 0x6f5e ===
  0x6f5e	add    	byte ptr [eax], al
  0x6f60	add    	byte ptr [eax], al
  0x6f62	add    	byte ptr [eax], al
  0x6f64	add    	byte ptr [eax], al
  0x6f66	add    	byte ptr [eax], al
  === BLOCK LINK ===
    0x6f68
=== CODE BLOCK END ===

=== CODE BLOCK ADDRESS 0x6f68 ===
  0x6f68	add    	byte ptr [eax], al
  0x6f6a	add    	byte ptr [eax], al
  0x6f6c	add    	byte ptr [eax], al
  0x6f6e	add    	byte ptr [eax], al
  0x6f70	add    	byte ptr [eax], al
  === BLOCK LINK ===
    0x6f72
=== CODE BLOCK END ===

=== CODE BLOCK ADDRESS 0x6f72 ===
  0x6f72	add    	byte ptr [eax], al
  0x6f74	add    	byte ptr [eax], al
  0x6f76	add    	byte ptr [eax], al
  0x6f78	add    	byte ptr [eax], al
  0x6f7a	add    	byte ptr [eax], al
  === BLOCK LINK ===
    0x6f7c
=== CODE BLOCK END ===

=== CODE BLOCK ADDRESS 0x6f7c ===
  0x6f7c	add    	byte ptr [eax], al
  0x6f7e	add    	byte ptr [eax], al
  0x6f80	add    	byte ptr [eax], al
  0x6f82	add    	byte ptr [eax], al
  0x6f84	add    	byte ptr [eax], al
  === BLOCK LINK ===
    0x6f86
=== CODE BLOCK END ===

=== CODE BLOCK ADDRESS 0x6f86 ===
  0x6f86	add    	byte ptr [eax], al
  0x6f88	add    	byte ptr [eax], al
  0x6f8a	add    	byte ptr [eax], al
  0x6f8c	add    	byte ptr [eax], al
  0x6f8e	add    	byte ptr [eax], al
  === BLOCK LINK ===
    0x6f90
=== CODE BLOCK END ===

=== CODE BLOCK ADDRESS 0x6f90 ===
  0x6f90	add    	byte ptr [eax], al
  0x6f92	add    	byte ptr [eax], al
  0x6f94	add    	byte ptr [eax], al
  0x6f96	add    	byte ptr [eax], al
  0x6f98	add    	byte ptr [eax], al
  === BLOCK LINK ===
    0x6f9a
=== CODE BLOCK END ===

=== CODE BLOCK ADDRESS 0x6f9a ===
  0x6f9a	add    	byte ptr [eax], al
  0x6f9c	add    	byte ptr [eax], al
  0x6f9e	add    	byte ptr [eax], al
  0x6fa0	add    	byte ptr [eax], al
  0x6fa2	add    	byte ptr [eax], al
  === BLOCK LINK ===
    0x6fa4
=== CODE BLOCK END ===

=== CODE BLOCK ADDRESS 0x6fa4 ===
  0x6fa4	add    	byte ptr [eax], al
  0x6fa6	add    	byte ptr [eax], al
  0x6fa8	add    	byte ptr [eax], al
  0x6faa	add    	byte ptr [eax], al
  0x6fac	add    	byte ptr [eax], al
  === BLOCK LINK ===
    0x6fae
=== CODE BLOCK END ===

=== CODE BLOCK ADDRESS 0x6fae ===
  0x6fae	add    	byte ptr [eax], al
  0x6fb0	add    	byte ptr [eax], al
  0x6fb2	add    	byte ptr [eax], al
  0x6fb4	add    	byte ptr [eax], al
  0x6fb6	add    	byte ptr [eax], al
  === BLOCK LINK ===
    0x6fb8
=== CODE BLOCK END ===

=== CODE BLOCK ADDRESS 0x6fb8 ===
  0x6fb8	add    	byte ptr [eax], al
  0x6fba	add    	byte ptr [eax], al
  0x6fbc	add    	byte ptr [eax], al
  0x6fbe	add    	byte ptr [eax], al
  0x6fc0	add    	byte ptr [eax], al
  === BLOCK LINK ===
    0x6fc2
=== CODE BLOCK END ===

=== CODE BLOCK ADDRESS 0x6fc2 ===
  0x6fc2	add    	byte ptr [eax], al
  0x6fc4	add    	byte ptr [eax], al
  0x6fc6	add    	byte ptr [eax], al
  0x6fc8	add    	byte ptr [eax], al
  0x6fca	add    	byte ptr [eax], al
  === BLOCK LINK ===
    0x6fcc
=== CODE BLOCK END ===

=== CODE BLOCK ADDRESS 0x6fcc ===
  0x6fcc	add    	byte ptr [eax], al
  0x6fce	add    	byte ptr [eax], al
  0x6fd0	add    	byte ptr [eax], al
  0x6fd2	add    	byte ptr [eax], al
  0x6fd4	add    	byte ptr [eax], al
  === BLOCK LINK ===
    0x6fd6
=== CODE BLOCK END ===

=== CODE BLOCK ADDRESS 0x6fd6 ===
  0x6fd6	add    	byte ptr [eax], al
  0x6fd8	add    	byte ptr [eax], al
  0x6fda	add    	byte ptr [eax], al
  0x6fdc	add    	byte ptr [eax], al
  0x6fde	add    	byte ptr [eax], al
  === BLOCK LINK ===
    0x6fe0
=== CODE BLOCK END ===

=== CODE BLOCK ADDRESS 0x6fe0 ===
  0x6fe0	add    	byte ptr [eax], al
  0x6fe2	add    	byte ptr [eax], al
  0x6fe4	add    	byte ptr [eax], al
  0x6fe6	add    	byte ptr [eax], al
  0x6fe8	add    	byte ptr [eax], al
  === BLOCK LINK ===
    0x6fea
=== CODE BLOCK END ===

=== CODE BLOCK ADDRESS 0x6fea ===
  0x6fea	add    	byte ptr [eax], al
  0x6fec	add    	byte ptr [eax], al
  0x6fee	add    	byte ptr [eax], al
  0x6ff0	add    	byte ptr [eax], al
  0x6ff2	add    	byte ptr [eax], al
  === BLOCK LINK ===
    0x6ff4
=== CODE BLOCK END ===

=== CODE BLOCK ADDRESS 0x6ff4 ===
  0x6ff4	add    	byte ptr [eax], al
  0x6ff6	add    	byte ptr [eax], al
  0x6ff8	add    	byte ptr [eax], al
  0x6ffa	add    	byte ptr [eax], al
  0x6ffc	add    	byte ptr [eax], al
  === BLOCK LINK ===
    0x6ffe
=== CODE BLOCK END ===

=== CODE BLOCK ADDRESS 0x6ffe ===
=== CODE BLOCK END ===

=== DATA BLOCK ADDRESS 0x7000 ===
  0x7000	30 a1 00 40 01 00 00 00 d0 a1 00 40 01 00 00 00 	000@0000000@0000
  0x7010	80 7d 00 40 01 00 00 00 60 18 00 40 01 00 00 00 	0}0@0000`00@0000
  0x7020	a0 30 00 40 01 00 00 00 f0 5b 00 40 01 00 00 00 	000@00000[0@0000
  0x7030	60 30 00 40 01 00 00 00 30 5b 00 40 01 00 00 00 	`00@00000[0@0000
  0x7040	40 01 00 00 00 00 00 00 00 00 00 00 00 00 00 00 	@000000000000000
  0x7050	00 00 00 00 00 00 00 00 00 00 00 00 00 00 00 00 	0000000000000000
  0x7060	00 00 00 00 00 00 00 00 00 00 00 00 00 00 00 00 	0000000000000000
  0x7070	00 00 00 00 00 00 00 00 00 00 00 00 00 00 00 00 	0000000000000000
  0x7080	00 00 00 00 00 00 00 00 00 00 00 00 00 00 00 00 	0000000000000000
  0x7090	00 00 00 00 00 00 00 00 90 a0 00 40 01 00 00 00 	00000000000@0000
  0x70a0	00 00 00 00 00 00 00 00 00 00 00 00 00 00 00 00 	0000000000000000
  0x70b0	80 74 00 40 01 00 00 00 90 74 00 40 01 00 00 00 	0t0@00000t0@0000
  0x70c0	4c 75 00 40 01 00 00 00 21 00 00 00 00 00 00 00 	Lu0@0000!0000000
  0x70d0	00 75 c1 10 00 00 00 00 00 00 00 00 00 00 00 00 	0u00000000000000
  0x70e0	00 00 00 00 00 00 00 00 00 00 00 00 00 00 00 00 	0000000000000000
  0x70f0	00 00 00 00 00 00 00 00 00 00 00 00 00 00 00 00 	0000000000000000
  0x7100	00 00 00 00 00 00 00 00 00 00 00 00 00 00 00 00 	0000000000000000
  0x7110	00 00 00 00 00 00 00 00 00 00 00 00 00 00 00 00 	0000000000000000
  0x7120	00 00 00 00 00 00 00 00 00 00 00 00 00 00 00 00 	0000000000000000
  0x7130	00 00 00 00 00 00 00 00 00 00 00 00 00 00 00 00 	0000000000000000
  0x7140	00 00 00 00 00 00 00 00 40 75 00 40 01 00 00 00 	00000000@u0@0000
  0x7150	02 00 00 00 00 00 00 00 88 74 00 40 01 00 00 00 	000000000t0@0000
  0x7160	98 74 00 40 01 00 00 00 a0 74 00 40 01 00 00 00 	0t0@00000t0@0000
  0x7170	a8 74 00 40 01 00 00 00 00 00 00 00 00 00 00 00 	0t0@000000000000
  0x7180	5c 93 00 00 00 00 00 00 d4 91 00 00 00 00 00 00 	0000000000000000
  0x7190	10 92 00 00 00 00 00 00 00 00 00 00 00 00 00 00 	0000000000000000
  0x71a0	8e 93 00 00 00 00 00 00 6e 93 00 00 00 00 00 00 	00000000n0000000
  0x71b0	94 92 00 00 00 00 00 00 00 00 00 00 00 00 00 00 	0000000000000000
  0x71c0	fa 93 00 00 00 00 00 00 84 92 00 00 00 00 00 00 	0000000000000000
  0x71d0	16 94 00 00 00 00 00 00 c4 91 00 00 00 00 00 00 	0000000000000000
  0x71e0	00 00 00 00 00 00 00 00 d4 92 00 00 00 00 00 00 	0000000000000000
  0x71f0	00 00 00 00 00 00 00 00 e2 92 00 00 00 00 00 00 	0000000000000000
  0x7200	b8 91 00 00 00 00 00 00 28 93 00 00 00 00 00 00 	00000000(0000000
  0x7210	00 00 00 00 00 00 00 00 ac 94 00 00 00 00 00 00 	0000000000000000
  0x7220	00 00 00 00 00 00 00 00 4e 93 00 00 00 00 00 00 	00000000N0000000
  0x7230	8c 91 00 00 00 00 00 00 7c 93 00 00 00 00 00 00 	00000000|0000000
  0x7240	3a 93 00 00 00 00 00 00 ee 92 00 00 00 00 00 00 	:000000000000000
  0x7250	fa 91 00 00 00 00 00 00 00 00 00 00 00 00 00 00 	0000000000000000
  0x7260	72 92 00 00 00 00 00 00 00 00 00 00 00 00 00 00 	r000000000000000
  0x7270	12 93 00 00 00 00 00 00 36 92 00 00 00 00 00 00 	0000000060000000
  0x7280	34 94 00 00 00 00 00 00 48 94 00 00 00 00 00 00 	40000000H0000000
  0x7290	a2 93 00 00 00 00 00 00 00 00 00 00 00 00 00 00 	0000000000000000
  0x72a0	5c 94 00 00 00 00 00 00 00 00 00 00 00 00 00 00 	0000000000000000
  0x72b0	78 94 00 00 00 00 00 00 00 00 00 00 00 00 00 00 	x000000000000000
  0x72c0	e6 93 00 00 00 00 00 00 b8 93 00 00 00 00 00 00 	0000000000000000
  0x72d0	cc 93 00 00 00 00 00 00 00 00 00 00 00 00 00 00 	0000000000000000
  0x72e0	e6 91 00 00 00 00 00 00 c2 92 00 00 00 00 00 00 	0000000000000000
  0x72f0	aa 92 00 00 00 00 00 00 20 92 00 00 00 00 00 00 	00000000 0000000
  0x7300	00 93 00 00 00 00 00 00 a2 91 00 00 00 00 00 00 	0000000000000000
  0x7310	4c 92 00 00 00 00 00 00 00 00 00 00 00 00 00 00 	L000000000000000
  0x7320	5c 92 00 00 00 00 00 00 92 94 00 00 00 00 00 00 	0000000000000000
  0x7330	00 00 00 00 00 00 00 00 26 8f 00 00 00 00 00 00 	00000000&0000000
  0x7340	44 8f 00 00 00 00 00 00 64 8f 00 00 00 00 00 00 	D0000000d0000000
  0x7350	70 8f 00 00 00 00 00 00 8a 8f 00 00 00 00 00 00 	p000000000000000
  0x7360	a4 8f 00 00 00 00 00 00 b6 8f 00 00 00 00 00 00 	0000000000000000
  0x7370	c2 8f 00 00 00 00 00 00 ce 8f 00 00 00 00 00 00 	0000000000000000
  0x7380	f2 8f 00 00 00 00 00 00 10 90 00 00 00 00 00 00 	0000000000000000
  0x7390	32 90 00 00 00 00 00 00 52 90 00 00 00 00 00 00 	20000000R0000000
  0x73a0	72 90 00 00 00 00 00 00 88 90 00 00 00 00 00 00 	r000000000000000
  0x73b0	9c 90 00 00 00 00 00 00 ac 90 00 00 00 00 00 00 	0000000000000000
  0x73c0	e4 96 00 00 00 00 00 00 c0 90 00 00 00 00 00 00 	0000000000000000
  0x73d0	ca 90 00 00 00 00 00 00 d4 90 00 00 00 00 00 00 	0000000000000000
  0x73e0	e4 90 00 00 00 00 00 00 f2 90 00 00 00 00 00 00 	0000000000000000
  0x73f0	0a 91 00 00 00 00 00 00 20 91 00 00 00 00 00 00 	00000000 0000000
  0x7400	06 8f 00 00 00 00 00 00 e8 8e 00 00 00 00 00 00 	0000000000000000
  0x7410	ce 8e 00 00 00 00 00 00 bc 8e 00 00 00 00 00 00 	0000000000000000
  0x7420	aa 8e 00 00 00 00 00 00 9a 8e 00 00 00 00 00 00 	0000000000000000
  0x7430	84 8e 00 00 00 00 00 00 ce 96 00 00 00 00 00 00 	0000000000000000
  0x7440	00 00 00 00 00 00 00 00 1c 8e 00 00 00 00 00 00 	0000000000000000
  0x7450	2a 8e 00 00 00 00 00 00 10 8e 00 00 00 00 00 00 	*000000000000000
  0x7460	34 8e 00 00 00 00 00 00 00 00 00 00 00 00 00 00 	4000000000000000
  0x7470	3e 91 00 00 00 00 00 00 00 00 00 00 00 00 00 00 	>000000000000000
  0x7480	60 1c 00 40 01 00 00 00 60 1c 00 40 01 00 00 00 	`00@0000`00@0000
  0x7490	80 61 00 40 01 00 00 00 a0 61 00 40 01 00 00 00 	0a0@00000a0@0000
  0x74a0	a0 61 00 40 01 00 00 00 00 00 00 00 00 00 00 00 	0a0@000000000000
  0x74b0	00 00 00 00 00 00 00 00 70 12 00 40 01 00 00 00 	00000000p00@0000
  0x74c0	10 10 00 40 01 00 00 00 80 10 00 40 01 00 00 00 	000@0000000@0000
  0x74d0	f0 10 00 40 01 00 00 00 10 11 00 40 01 00 00 00 	000@0000000@0000
  0x74e0	40 10 00 40 01 00 00 00 00 00 00 00 00 00 00 00 	@00@000000000000
  0x74f0	00 00 00 00 00 00 00 00 a0 11 00 40 01 00 00 00 	00000000000@0000
  0x7500	50 12 00 40 01 00 00 00 30 11 00 40 01 00 00 00 	P00@0000000@0000
  0x7510	70 11 00 40 01 00 00 00 00 00 00 00 00 00 00 00 	p00@000000000000
  0x7520	00 00 00 00 00 00 00 00 00 00 00 00 00 00 00 00 	0000000000000000
  0x7530	00 00 00 00 00 00 00 00 00 00 00 00 00 00 00 00 	0000000000000000
  0x7540	c4 13 00 00 00 9d 17 00 00 00 00 00 10 10 00 00 	0000000000000000
  0x7550	08 40 10 00 00 08 80 10 00 00 08 f0 10 00 00 08 	0@00000000000000
  0x7560	10 11 00 00 08 30 11 00 00 08 70 11 00 00 08 a0 	0000000000p00000
  0x7570	11 00 00 08 50 12 00 00 08 70 12 00 00 08 20 14 	0000P0000p0000 0
  0x7580	00 00 08 b0 14 00 00 08 60 18 00 00 08 60 1b 00 	00000000`0000`00
  0x7590	00 08 10 1c 00 00 08 60 1c 00 00 08 60 30 00 00 	0000000`0000`000
  0x75a0	08 a0 30 00 00 08 a0 33 00 00 08 d0 33 00 00 08 	0000000300003000
  0x75b0	70 34 00 00 08 f0 35 00 00 08 60 46 00 00 08 80 	p400005000`F0000
  0x75c0	47 00 00 08 60 49 00 00 08 00 4a 00 00 08 a0 4a 	G000`I0000J0000J
  0x75d0	00 00 08 40 55 00 00 08 20 58 00 00 08 30 5b 00 	000@U000 X0000[0
  0x75e0	00 08 f0 5b 00 00 08 20 62 00 00 08 50 62 00 00 	000[000 b000Pb00
  0x75f0	08 00 00 00 00 00 00 00 00 00 00 00 00 00 00 00 	0000000000000000
  0x7600	ff ff ff ff ff ff ff ff ff ff ff ff ff ff ff ff 	0000000000000000
  0x7610	00 00 00 00 00 00 00 00 55 6e 6b 6e 6f 77 6e 20 	00000000Unknown 
  0x7620	65 78 63 65 70 74 69 6f 6e 00 00 00 00 00 00 00 	exception0000000
  0x7630	45 78 63 65 70 74 69 6f 6e 00 00 00 00 00 00 00 	Exception0000000
  0x7640	52 65 74 75 72 6e 4e 74 00 00 00 00 00 00 00 00 	ReturnNt00000000
  0x7650	52 65 74 75 72 6e 48 72 00 00 00 00 4c 6f 67 4e 	ReturnHr0000LogN
  0x7660	74 00 00 00 4c 6f 67 48 72 00 00 00 00 00 00 00 	t000LogHr0000000
  0x7670	46 61 69 6c 46 61 73 74 00 00 00 00 00 00 00 00 	FailFast00000000
  0x7680	25 00 68 00 73 00 28 00 25 00 75 00 29 00 5c 00 	%0h0s0(0%0u0)000
  0x7690	25 00 68 00 73 00 21 00 25 00 70 00 3a 00 20 00 	%0h0s0!0%0p0:0 0
  0x76a0	00 00 00 00 00 00 00 00 25 00 68 00 73 00 21 00 	00000000%0h0s0!0
  0x76b0	25 00 70 00 3a 00 20 00 00 00 00 00 00 00 00 00 	%0p0:0 000000000
  0x76c0	28 00 63 00 61 00 6c 00 6c 00 65 00 72 00 3a 00 	(0c0a0l0l0e0r0:0
  0x76d0	20 00 25 00 70 00 29 00 20 00 00 00 00 00 00 00 	 0%0p0)0 0000000
  0x76e0	25 00 68 00 73 00 28 00 25 00 64 00 29 00 20 00 	%0h0s0(0%0d0)0 0
  0x76f0	74 00 69 00 64 00 28 00 25 00 78 00 29 00 20 00 	t0i0d0(0%0x0)0 0
  0x7700	25 00 30 00 38 00 58 00 20 00 25 00 77 00 73 00 	%00080X0 0%0w0s0
  0x7710	00 00 00 00 00 00 00 00 20 00 20 00 20 00 20 00 	00000000 0 0 0 0
  0x7720	00 00 00 00 00 00 00 00 4d 00 73 00 67 00 3a 00 	00000000M0s0g0:0
  0x7730	5b 00 25 00 77 00 73 00 5d 00 20 00 00 00 00 00 	[0%0w0s0]0 00000
  0x7740	43 00 61 00 6c 00 6c 00 43 00 6f 00 6e 00 74 00 	C0a0l0l0C0o0n0t0
  0x7750	65 00 78 00 74 00 3a 00 5b 00 25 00 68 00 73 00 	e0x0t0:0[0%0h0s0
  0x7760	5d 00 20 00 00 00 00 00 5b 00 25 00 68 00 73 00 	]0 00000[0%0h0s0
  0x7770	28 00 25 00 68 00 73 00 29 00 5d 00 0a 00 00 00 	(0%0h0s0)0]00000
  0x7780	5b 00 25 00 68 00 73 00 5d 00 0a 00 00 00 00 00 	[0%0h0s0]0000000
  0x7790	0a 00 00 00 00 00 00 00 6b 00 65 00 72 00 6e 00 	00000000k0e0r0n0
  0x77a0	65 00 6c 00 62 00 61 00 73 00 65 00 2e 00 64 00 	e0l0b0a0s0e0.0d0
  0x77b0	6c 00 6c 00 00 00 00 00 52 61 69 73 65 46 61 69 	l0l00000RaiseFai
  0x77c0	6c 46 61 73 74 45 78 63 65 70 74 69 6f 6e 00 00 	lFastException00
  0x77d0	25 00 68 00 73 00 00 00 25 77 73 00 77 69 6c 00 	%0h0s000%ws0wil0
  0x77e0	6f 6e 65 63 6f 72 65 5c 69 6e 74 65 72 6e 61 6c 	onecore0internal
  0x77f0	5c 73 64 6b 5c 69 6e 63 5c 77 69 6c 5c 6f 70 65 	0sdk0inc0wil0ope
  0x7800	6e 73 6f 75 72 63 65 5c 77 69 6c 5c 72 65 73 6f 	nsource0wil0reso
  0x7810	75 72 63 65 2e 68 00 00 6e 00 74 00 64 00 6c 00 	urce.h00n0t0d0l0
  0x7820	6c 00 2e 00 64 00 6c 00 6c 00 00 00 00 00 00 00 	l0.0d0l0l0000000
  0x7830	52 74 6c 44 6c 6c 53 68 75 74 64 6f 77 6e 49 6e 	RtlDllShutdownIn
  0x7840	50 72 6f 67 72 65 73 73 00 00 00 00 00 00 00 00 	Progress00000000
  0x7850	52 74 6c 44 69 73 6f 77 6e 4d 6f 64 75 6c 65 48 	RtlDisownModuleH
  0x7860	65 61 70 41 6c 6c 6f 63 61 74 69 6f 6e 00 00 00 	eapAllocation000
  0x7870	57 69 6c 46 61 69 6c 75 72 65 4e 6f 74 69 66 79 	WilFailureNotify
  0x7880	57 61 74 63 68 65 72 73 00 00 00 00 00 00 00 00 	Watchers00000000
  0x7890	5f 00 70 00 30 00 00 00 68 00 00 00 00 00 00 00 	_0p00000h0000000
  0x78a0	57 69 6c 45 72 72 6f 72 5f 30 33 00 00 00 00 00 	WilError_0300000
  0x78b0	78 62 6f 78 5c 62 61 73 65 5c 61 70 70 6d 6f 64 	xbox0base0appmod
  0x78c0	65 6c 5c 61 70 70 73 65 72 76 69 63 65 73 5c 6d 	el0appservices0m
  0x78d0	6f 64 65 6c 65 76 61 74 65 5c 65 78 65 5c 6d 61 	odelevate0exe0ma
  0x78e0	69 6e 2e 63 70 70 00 00 25 00 77 00 73 00 20 00 	in.cpp00%0w0s0 0
  0x78f0	00 00 00 00 00 00 00 00 73 00 68 00 65 00 6c 00 	00000000s0h0e0l0
  0x7900	6c 00 33 00 32 00 2e 00 64 00 6c 00 6c 00 00 00 	l03020.0d0l0l000
  0x7910	53 68 65 6c 6c 45 78 65 63 75 74 65 45 78 57 00 	ShellExecuteExW0
  0x7920	47 00 61 00 6d 00 65 00 4d 00 6f 00 64 00 43 00 	G0a0m0e0M0o0d0C0
  0x7930	6f 00 6e 00 74 00 72 00 6f 00 6c 00 2e 00 65 00 	o0n0t0r0o0l0.0e0
  0x7940	78 00 65 00 00 00 00 00 55 6e 65 78 70 65 63 74 	x0e00000Unexpect
  0x7950	65 64 20 77 61 69 74 20 72 65 73 75 6c 74 20 66 	ed wait result f
  0x7960	6f 72 20 53 68 65 6c 6c 45 78 65 63 75 74 65 45 	or ShellExecuteE
  0x7970	78 3a 20 25 64 00 00 00 4c 00 6f 00 63 00 61 00 	x: %d000L0o0c0a0
  0x7980	6c 00 5c 00 53 00 4d 00 30 00 3a 00 25 00 6c 00 	l000S0M000:0%0l0
  0x7990	75 00 3a 00 25 00 6c 00 75 00 3a 00 25 00 68 00 	u0:0%0l0u0:0%0h0
  0x79a0	73 00 00 00 00 00 00 00 22 05 93 19 01 00 00 00 	s0000000"0000000
  0x79b0	28 84 00 00 00 00 00 00 00 00 00 00 04 00 00 00 	(000000000000000
  0x79c0	30 84 00 00 c0 00 00 00 00 00 00 00 01 00 00 00 	0000000000000000
  0x79d0	22 05 93 19 01 00 00 00 28 84 00 00 00 00 00 00 	"0000000(0000000
  0x79e0	00 00 00 00 02 00 00 00 90 84 00 00 50 00 00 00 	000000000000P000
  0x79f0	00 00 00 00 01 00 00 00 22 05 93 19 01 00 00 00 	00000000"0000000
  0x7a00	28 84 00 00 00 00 00 00 00 00 00 00 03 00 00 00 	(000000000000000
  0x7a10	c8 84 00 00 c0 00 00 00 00 00 00 00 01 00 00 00 	0000000000000000
  0x7a20	22 05 93 19 02 00 00 00 68 85 00 00 00 00 00 00 	"0000000h0000000
  0x7a30	00 00 00 00 02 00 00 00 78 85 00 00 40 00 00 00 	00000000x000@000
  0x7a40	00 00 00 00 01 00 00 00 22 05 93 19 02 00 00 00 	00000000"0000000
  0x7a50	c8 85 00 00 00 00 00 00 00 00 00 00 02 00 00 00 	0000000000000000
  0x7a60	d8 85 00 00 38 00 00 00 00 00 00 00 01 00 00 00 	0000800000000000
  0x7a70	22 05 93 19 01 00 00 00 28 84 00 00 00 00 00 00 	"0000000(0000000
  0x7a80	00 00 00 00 01 00 00 00 f8 85 00 00 20 00 00 00 	000000000000 000
  0x7a90	00 00 00 00 01 00 00 00 22 05 93 19 02 00 00 00 	00000000"0000000
  0x7aa0	20 86 00 00 00 00 00 00 00 00 00 00 02 00 00 00 	 000000000000000
  0x7ab0	30 86 00 00 20 00 00 00 00 00 00 00 05 00 00 00 	0000 00000000000
  0x7ac0	22 05 93 19 01 00 00 00 28 84 00 00 00 00 00 00 	"0000000(0000000
  0x7ad0	00 00 00 00 01 00 00 00 58 86 00 00 20 00 00 00 	00000000X000 000
  0x7ae0	00 00 00 00 01 00 00 00 22 05 93 19 01 00 00 00 	00000000"0000000
  0x7af0	28 84 00 00 00 00 00 00 00 00 00 00 01 00 00 00 	(000000000000000
  0x7b00	f0 86 00 00 20 00 00 00 00 00 00 00 05 00 00 00 	0000 00000000000
  0x7b10	22 05 93 19 00 00 00 00 00 00 00 00 00 00 00 00 	"000000000000000
  0x7b20	00 00 00 00 01 00 00 00 20 87 00 00 20 00 00 00 	00000000 000 000
  0x7b30	00 00 00 00 05 00 00 00 22 05 93 19 00 00 00 00 	00000000"0000000
  0x7b40	00 00 00 00 00 00 00 00 00 00 00 00 01 00 00 00 	0000000000000000
  0x7b50	38 87 00 00 20 00 00 00 00 00 00 00 05 00 00 00 	8000 00000000000
  0x7b60	22 05 93 19 00 00 00 00 00 00 00 00 00 00 00 00 	"000000000000000
  0x7b70	00 00 00 00 01 00 00 00 50 87 00 00 40 00 00 00 	00000000P000@000
  0x7b80	00 00 00 00 05 00 00 00 22 05 93 19 00 00 00 00 	00000000"0000000
  0x7b90	00 00 00 00 00 00 00 00 00 00 00 00 01 00 00 00 	0000000000000000
  0x7ba0	68 87 00 00 30 00 00 00 00 00 00 00 05 00 00 00 	h000000000000000
  0x7bb0	22 05 93 19 00 00 00 00 00 00 00 00 00 00 00 00 	"000000000000000
  0x7bc0	00 00 00 00 01 00 00 00 80 87 00 00 50 00 00 00 	000000000000P000
  0x7bd0	00 00 00 00 05 00 00 00 22 05 93 19 00 00 00 00 	00000000"0000000
  0x7be0	00 00 00 00 00 00 00 00 00 00 00 00 01 00 00 00 	0000000000000000
  0x7bf0	98 87 00 00 30 00 00 00 00 00 00 00 05 00 00 00 	0000000000000000
  0x7c00	22 05 93 19 00 00 00 00 00 00 00 00 00 00 00 00 	"000000000000000
  0x7c10	00 00 00 00 01 00 00 00 b0 87 00 00 40 00 00 00 	000000000000@000
  0x7c20	00 00 00 00 05 00 00 00 22 05 93 19 00 00 00 00 	00000000"0000000
  0x7c30	00 00 00 00 00 00 00 00 00 00 00 00 01 00 00 00 	0000000000000000
  0x7c40	00 88 00 00 40 00 00 00 00 00 00 00 05 00 00 00 	0000@00000000000
  0x7c50	22 05 93 19 01 00 00 00 28 84 00 00 00 00 00 00 	"0000000(0000000
  0x7c60	00 00 00 00 01 00 00 00 68 88 00 00 40 00 00 00 	00000000h000@000
  0x7c70	00 00 00 00 05 00 00 00 22 05 93 19 00 00 00 00 	00000000"0000000
  0x7c80	00 00 00 00 00 00 00 00 00 00 00 00 01 00 00 00 	0000000000000000
  0x7c90	88 88 00 00 40 00 00 00 00 00 00 00 05 00 00 00 	0000@00000000000
  0x7ca0	22 05 93 19 00 00 00 00 00 00 00 00 00 00 00 00 	"000000000000000
  0x7cb0	00 00 00 00 01 00 00 00 e0 88 00 00 40 00 00 00 	000000000000@000
  0x7cc0	00 00 00 00 05 00 00 00 00 00 00 00 68 23 15 58 	000000000000h#0X
  0x7cd0	00 00 00 00 02 00 00 00 2b 00 00 00 04 7f 00 00 	00000000+0000000
  0x7ce0	04 7f 00 00 00 00 00 00 68 23 15 58 00 00 00 00 	00000000h#0X0000
  0x7cf0	0d 00 00 00 74 03 00 00 30 7f 00 00 30 7f 00 00 	0000t00000000000
  0x7d00	00 00 00 00 68 23 15 58 00 00 00 00 10 00 00 00 	0000h#0X00000000
  0x7d10	24 00 00 00 a4 82 00 00 a4 82 00 00 00 00 00 00 	$000000000000000
  0x7d20	00 00 00 00 00 00 00 00 00 00 00 00 00 00 00 00 	0000000000000000
  0x7d30	00 00 00 00 00 00 00 00 00 00 00 00 00 00 00 00 	0000000000000000
  0x7d40	00 00 00 00 00 00 00 00 00 00 00 00 00 00 00 00 	0000000000000000
  0x7d50	00 00 00 00 00 00 00 00 00 00 00 00 00 00 00 00 	0000000000000000
  0x7d60	00 00 00 00 00 00 00 00 00 00 00 00 00 00 00 00 	0000000000000000
  0x7d70	00 00 00 00 00 00 00 00 00 00 00 00 00 00 00 00 	0000000000000000
  0x7d80	01 00 00 00 00 00 00 00 00 00 00 00 68 a0 00 00 	000000000000h000
  0x7d90	a8 7d 00 00 80 7d 00 00 00 00 00 00 00 00 00 00 	0}000}0000000000
  0x7da0	00 00 00 00 00 00 00 00 00 00 00 00 00 00 00 00 	0000000000000000
  0x7db0	01 00 00 00 c0 7d 00 00 00 00 00 00 00 00 00 00 	00000}0000000000
  0x7dc0	d0 7d 00 00 00 00 00 00 00 00 00 00 00 00 00 00 	0}00000000000000
  0x7dd0	68 a0 00 00 00 00 00 00 00 00 00 00 ff ff ff ff 	h000000000000000
  0x7de0	00 00 00 00 40 00 00 00 a8 7d 00 00 00 00 00 00 	0000@0000}000000
  0x7df0	00 00 00 00 18 00 00 00 02 80 02 80 0c 7e 00 00 	0000000000000~00
  0x7e00	d8 00 00 00 e4 7e 00 00 20 00 00 00 db 14 00 00 	00000~00 0000000
  0x7e10	57 15 00 00 6c 15 00 00 05 16 00 00 1b 16 00 00 	W000l00000000000
  0x7e20	bb 17 00 00 3e 1a 00 00 70 1a 00 00 8c 1d 00 00 	0000>000p0000000
  0x7e30	91 1d 00 00 db 1d 00 00 e7 24 00 00 bd 27 00 00 	000000000$000'00
  0x7e40	9a 2c 00 00 cc 2c 00 00 b8 2d 00 00 dd 2d 00 00 	0,000,000-000-00
  0x7e50	20 2e 00 00 4e 2e 00 00 14 2f 00 00 57 2f 00 00 	 .00N.000/00W/00
  0x7e60	61 32 00 00 68 32 00 00 d7 34 00 00 7b 35 00 00 	a200h2000400{500
  0x7e70	8a 35 00 00 99 35 00 00 b4 35 00 00 be 35 00 00 	0500050005000500
  0x7e80	f4 35 00 00 19 36 00 00 37 3b 00 00 65 3c 00 00 	050006007;00e<00
  0x7e90	bc 40 00 00 7c 45 00 00 c6 45 00 00 54 47 00 00 	0@00|E000E00TG00
  0x7ea0	5f 47 00 00 80 47 00 00 8c 47 00 00 97 47 00 00 	_G000G000G000G00
  0x7eb0	a4 47 00 00 af 47 00 00 2d 48 00 00 31 48 00 00 	0G000G00-H001H00
  0x7ec0	33 48 00 00 ef 48 00 00 f3 48 00 00 f5 48 00 00 	3H000H000H000H00
  0x7ed0	67 4f 00 00 8b 53 00 00 6a 5a 00 00 d7 5a 00 00 	gO000S00jZ000Z00
  0x7ee0	03 5b 00 00 10 10 00 00 30 04 00 00 70 14 00 00 	0[0000000000p000
  0x7ef0	b0 09 00 00 ec 1e 00 00 14 42 00 00 a6 61 00 00 	000000000B000a00
  0x7f00	b6 00 00 00 52 53 44 53 1b 10 9a 5b 3c 51 ad 31 	0000RSDS000[<Q01
  0x7f10	48 83 8e 71 6d 26 24 6d 01 00 00 00 47 61 6d 65 	H00qm&$m0000Game
  0x7f20	4d 6f 64 45 6c 65 76 61 74 65 2e 70 64 62 00 00 	ModElevate.pdb00
  0x7f30	47 43 54 4c 00 10 00 00 20 01 00 00 2e 74 65 78 	GCTL0000 000.tex
  0x7f40	74 24 64 69 00 00 00 00 20 11 00 00 50 50 00 00 	t$di0000 000PP00
  0x7f50	2e 74 65 78 74 24 6d 6e 00 00 00 00 70 61 00 00 	.text$mn0000pa00
  0x7f60	36 00 00 00 2e 74 65 78 74 24 6d 6e 24 30 30 00 	6000.text$mn$000
  0x7f70	a6 61 00 00 6a 00 00 00 2e 74 65 78 74 24 78 00 	0a00j000.text$x0
  0x7f80	10 62 00 00 4c 00 00 00 2e 74 65 78 74 24 79 64 	0b00L000.text$yd
  0x7f90	00 00 00 00 00 70 00 00 80 01 00 00 2e 72 64 61 	00000p000000.rda
  0x7fa0	74 61 24 62 72 63 00 00 80 71 00 00 00 03 00 00 	ta$brc000q000000
  0x7fb0	2e 69 64 61 74 61 24 35 00 00 00 00 80 74 00 00 	.idata$500000t00
  0x7fc0	30 00 00 00 2e 30 30 63 66 67 00 00 b0 74 00 00 	0000.00cfg000t00
  0x7fd0	08 00 00 00 2e 43 52 54 24 58 43 41 00 00 00 00 	0000.CRT$XCA0000
  0x7fe0	b8 74 00 00 08 00 00 00 2e 43 52 54 24 58 43 41 	0t000000.CRT$XCA
  0x7ff0	41 00 00 00 c0 74 00 00 28 00 00 00 2e 43 52 54 	A0000t00(000.CRT
  0x8000	24 58 43 55 00 00 00 00 e8 74 00 00 08 00 00 00 	$XCU00000t000000
  0x8010	2e 43 52 54 24 58 43 5a 00 00 00 00 f0 74 00 00 	.CRT$XCZ00000t00
  0x8020	08 00 00 00 2e 43 52 54 24 58 49 41 00 00 00 00 	0000.CRT$XIA0000
  0x8030	f8 74 00 00 08 00 00 00 2e 43 52 54 24 58 49 41 	0t000000.CRT$XIA
  0x8040	41 00 00 00 00 75 00 00 08 00 00 00 2e 43 52 54 	A0000u000000.CRT
  0x8050	24 58 49 41 43 00 00 00 08 75 00 00 10 00 00 00 	$XIAC0000u000000
  0x8060	2e 43 52 54 24 58 49 43 00 00 00 00 18 75 00 00 	.CRT$XIC00000u00
  0x8070	08 00 00 00 2e 43 52 54 24 58 49 5a 00 00 00 00 	0000.CRT$XIZ0000
  0x8080	20 75 00 00 08 00 00 00 2e 43 52 54 24 58 50 41 	 u000000.CRT$XPA
  0x8090	00 00 00 00 28 75 00 00 08 00 00 00 2e 43 52 54 	0000(u000000.CRT
  0x80a0	24 58 50 5a 00 00 00 00 30 75 00 00 08 00 00 00 	$XPZ00000u000000
  0x80b0	2e 43 52 54 24 58 54 41 00 00 00 00 38 75 00 00 	.CRT$XTA00008u00
  0x80c0	08 00 00 00 2e 43 52 54 24 58 54 5a 00 00 00 00 	0000.CRT$XTZ0000
  0x80d0	40 75 00 00 0c 00 00 00 2e 67 65 68 63 6f 6e 74 	@u000000.gehcont
  0x80e0	00 00 00 00 4c 75 00 00 b4 00 00 00 2e 67 66 69 	0000Lu000000.gfi
  0x80f0	64 73 00 00 00 76 00 00 80 07 00 00 2e 72 64 61 	ds000v000000.rda
  0x8100	74 61 00 00 80 7d 00 00 74 00 00 00 2e 72 64 61 	ta000}00t000.rda
  0x8110	74 61 24 72 00 00 00 00 f4 7d 00 00 10 01 00 00 	ta$r00000}000000
  0x8120	2e 72 64 61 74 61 24 76 6f 6c 74 6d 64 00 00 00 	.rdata$voltmd000
  0x8130	04 7f 00 00 c4 03 00 00 2e 72 64 61 74 61 24 7a 	00000000.rdata$z
  0x8140	7a 7a 64 62 67 00 00 00 c8 82 00 00 08 00 00 00 	zzdbg00000000000
  0x8150	2e 72 74 63 24 49 41 41 00 00 00 00 d0 82 00 00 	.rtc$IAA00000000
  0x8160	08 00 00 00 2e 72 74 63 24 49 5a 5a 00 00 00 00 	0000.rtc$IZZ0000
  0x8170	d8 82 00 00 08 00 00 00 2e 72 74 63 24 54 41 41 	00000000.rtc$TAA
  0x8180	00 00 00 00 e0 82 00 00 10 00 00 00 2e 72 74 63 	000000000000.rtc
  0x8190	24 54 5a 5a 00 00 00 00 f0 82 00 00 30 06 00 00 	$TZZ000000000000
  0x81a0	2e 78 64 61 74 61 00 00 20 89 00 00 84 00 00 00 	.xdata00 0000000
  0x81b0	2e 78 64 61 74 61 24 78 00 00 00 00 a4 89 00 00 	.xdata$x00000000
  0x81c0	54 01 00 00 2e 69 64 61 74 61 24 32 00 00 00 00 	T000.idata$20000
  0x81d0	f8 8a 00 00 18 00 00 00 2e 69 64 61 74 61 24 33 	00000000.idata$3
  0x81e0	00 00 00 00 10 8b 00 00 00 03 00 00 2e 69 64 61 	000000000000.ida
  0x81f0	74 61 24 34 00 00 00 00 10 8e 00 00 de 08 00 00 	ta$4000000000000
  0x8200	2e 69 64 61 74 61 24 36 00 00 00 00 00 a0 00 00 	.idata$600000000
  0x8210	10 00 00 00 2e 64 61 74 61 24 62 72 63 00 00 00 	0000.data$brc000
  0x8220	10 a0 00 00 58 00 00 00 2e 64 61 74 61 24 72 24 	0000X000.data$r$
  0x8230	62 72 63 00 68 a0 00 00 28 00 00 00 2e 64 61 74 	brc0h000(000.dat
  0x8240	61 24 72 73 24 62 72 63 00 00 00 00 90 a0 00 00 	a$rs$brc00000000
  0x8250	90 00 00 00 2e 64 61 74 61 00 00 00 20 a1 00 00 	0000.data000 000
  0x8260	58 07 00 00 2e 62 73 73 00 00 00 00 00 b0 00 00 	X000.bss00000000
  0x8270	10 05 00 00 2e 70 64 61 74 61 00 00 00 c0 00 00 	0000.pdata000000
  0x8280	60 00 00 00 2e 72 73 72 63 24 30 31 00 00 00 00 	`000.rsrc$010000
  0x8290	60 c0 00 00 a8 03 00 00 2e 72 73 72 63 24 30 32 	`0000000.rsrc$02
  0x82a0	00 00 00 00 20 00 00 00 1b 10 9a 5b 3c 51 ad 31 	0000 000000[<Q01
  0x82b0	48 83 8e 71 6d 26 24 6d c1 23 74 a2 61 7c cc 43 	H00qm&$m0#t0a|0C
  0x82c0	cb 69 fe 84 68 23 15 58 00 00 00 00 00 00 00 00 	0i00h#0X00000000
  0x82d0	00 00 00 00 00 00 00 00 00 00 00 00 00 00 00 00 	0000000000000000
  0x82e0	00 00 00 00 00 00 00 00 00 00 00 00 00 00 00 00 	0000000000000000
  0x82f0	09 0f 06 00 0f 64 09 00 0f 34 08 00 0f 52 0b 70 	00000d0004000R0p
  0x8300	d4 1e 00 00 02 00 00 00 b5 12 00 00 c4 13 00 00 	0000000000000000
  0x8310	a6 61 00 00 c4 13 00 00 f8 13 00 00 0a 14 00 00 	0a00000000000000
  0x8320	a6 61 00 00 c4 13 00 00 01 06 02 00 06 32 02 50 	0a0000000000020P
  0x8330	01 00 00 00 01 09 01 00 09 62 00 00 01 08 04 00 	000000000b000000
  0x8340	08 72 04 70 03 60 02 30 09 04 01 00 04 22 00 00 	0r0p0`0000000"00
  0x8350	d4 1e 00 00 01 00 00 00 13 17 00 00 9d 17 00 00 	0000000000000000
  0x8360	c4 61 00 00 9d 17 00 00 01 02 01 00 02 50 00 00 	0a00000000000P00
  0x8370	01 0d 04 00 0d 34 09 00 0d 32 06 50 01 15 05 00 	00000400020P0000
  0x8380	15 34 ba 00 15 01 b8 00 06 50 00 00 01 0f 06 00 	040000000P000000
  0x8390	0f 64 06 00 0f 34 05 00 0f 12 0b 70 00 00 00 00 	0d000400000p0000
  0x83a0	01 00 00 00 00 00 00 00 01 00 00 00 01 14 08 00 	0000000000000000
  0x83b0	14 64 0a 00 14 54 09 00 14 34 08 00 14 52 10 70 	0d000T0004000R0p
  0x83c0	01 12 05 00 12 62 0e 70 0d 60 0c 50 0b 30 00 00 	00000b0p0`0P0000
  0x83d0	01 14 08 00 14 64 0c 00 14 54 0b 00 14 34 0a 00 	00000d000T000400
  0x83e0	14 72 10 70 19 2a 09 00 18 01 0c 04 0b f0 09 e0 	0r0p0*0000000000
  0x83f0	07 c0 05 70 04 60 03 50 02 30 00 00 04 60 00 00 	000p0`0P00000`00
  0x8400	50 20 00 00 19 39 09 00 20 01 9c 02 0b f0 09 e0 	P 000900 0000000
  0x8410	07 c0 05 70 04 60 03 30 02 50 00 00 80 60 00 00 	000p0`000P000`00
  0x8420	a8 79 00 00 d2 14 00 00 ff ff ff ff ce 1e 00 00 	0y00000000000000
  0x8430	44 27 00 00 ff ff ff ff 41 28 00 00 00 00 00 00 	D'000000A(000000
  0x8440	f6 29 00 00 ff ff ff ff 29 2a 00 00 00 00 00 00 	0)000000)*000000
  0x8450	19 22 04 00 10 01 a7 02 03 70 02 30 04 60 00 00 	0"0000000p000`00
  0x8460	20 15 00 00 01 04 01 00 04 e2 00 00 11 24 0a 00 	 000000000000$00
  0x8470	24 74 15 00 20 64 14 00 1c 54 13 00 18 34 12 00 	$t00 d000T000400
  0x8480	0c f2 05 e0 38 1e 00 00 d0 79 00 00 00 00 00 00 	000080000y000000
  0x8490	46 21 00 00 00 00 00 00 a2 21 00 00 ff ff ff ff 	F!0000000!000000
  0x84a0	11 36 0b 00 36 64 a3 02 2e 34 a2 02 1e 01 9a 02 	06006d00.4000000
  0x84b0	09 f0 07 e0 05 c0 03 70 02 50 00 00 38 1e 00 00 	0000000p0P008000
  0x84c0	f8 79 00 00 00 00 00 00 72 24 00 00 ff ff ff ff 	0y000000r$000000
  0x84d0	5b 25 00 00 00 00 00 00 1e 27 00 00 ff ff ff ff 	[%0000000'000000
  0x84e0	01 07 01 00 07 a2 00 00 01 14 08 00 14 64 08 00 	0000000000000d00
  0x84f0	14 54 07 00 14 34 06 00 14 32 10 70 19 32 0b 00 	0T000400020p0200
  0x8500	21 64 55 00 21 34 52 00 21 01 4c 00 12 f0 10 e0 	!dU0!4R0!0L00000
  0x8510	0e c0 0c 70 0b 50 00 00 04 60 00 00 50 02 00 00 	000p0P000`00P000
  0x8520	01 06 02 00 06 32 02 30 01 04 01 00 04 42 00 00 	0000020000000B00
  0x8530	01 14 08 00 14 64 09 00 14 54 08 00 14 34 06 00 	00000d000T000400
  0x8540	14 32 10 70 19 37 09 00 26 64 55 00 22 34 54 00 	020p0700&dU0"4T0
  0x8550	15 01 4e 00 07 e0 05 70 04 50 00 00 80 60 00 00 	00N0000p0P000`00
  0x8560	20 7a 00 00 62 02 00 00 ff ff ff ff dc 61 00 00 	 z00b00000000a00
  0x8570	00 00 00 00 e8 61 00 00 ab 32 00 00 ff ff ff ff 	00000a0002000000
  0x8580	d5 32 00 00 01 00 00 00 01 19 0a 00 19 74 0b 00 	0200000000000t00
  0x8590	19 64 0a 00 19 54 09 00 19 34 08 00 19 52 15 e0 	0d000T0004000R00
  0x85a0	19 3a 0b 00 29 34 66 00 1c 01 5c 00 0e f0 0c e0 	0:00)4f000000000
  0x85b0	0a d0 08 c0 06 70 05 60 04 50 00 00 80 60 00 00 	00000p0`0P000`00
  0x85c0	48 7a 00 00 d2 02 00 00 ff ff ff ff f4 61 00 00 	Hz00000000000a00
  0x85d0	00 00 00 00 00 62 00 00 90 5e 00 00 01 00 00 00 	00000b000^000000
  0x85e0	e4 5f 00 00 ff ff ff ff 11 0d 01 00 04 62 00 00 	0_00000000000b00
  0x85f0	38 1e 00 00 70 7a 00 00 39 62 00 00 00 00 00 00 	8000pz009b000000
  0x8600	19 21 0a 00 21 74 0b 00 1d 64 0a 00 19 54 09 00 	0!00!t000d000T00
  0x8610	15 34 08 00 09 52 05 e0 38 1e 00 00 98 7a 00 00 	04000R0080000z00
  0x8620	ff ff ff ff ce 1e 00 00 00 00 00 00 ce 1e 00 00 	0000000000000000
  0x8630	05 35 00 00 00 00 00 00 75 35 00 00 ff ff ff ff 	05000000u5000000
  0x8640	11 14 04 00 14 34 08 00 08 52 04 70 38 1e 00 00 	000004000R0p8000
  0x8650	c0 7a 00 00 00 00 00 00 13 3c 00 00 00 00 00 00 	0z0000000<000000
  0x8660	01 1d 0c 00 1d 74 0b 00 1d 64 0a 00 1d 54 09 00 	00000t000d000T00
  0x8670	1d 34 08 00 1d 32 19 f0 17 e0 15 c0 01 19 0a 00 	0400020000000000
  0x8680	19 74 09 00 19 64 08 00 19 54 07 00 19 34 06 00 	0t000d000T000400
  0x8690	19 32 15 e0 01 19 0a 00 19 34 0e 00 19 32 15 f0 	0200000004000200
  0x86a0	13 e0 11 d0 0f c0 0d 70 0c 60 0b 50 19 33 0b 00 	0000000p0`0P0300
  0x86b0	22 74 51 00 22 64 4f 00 22 34 4e 00 22 01 4a 00 	"tQ0"dO0"4N0"0J0
  0x86c0	14 f0 12 e0 10 50 00 00 04 60 00 00 40 02 00 00 	00000P000`00@000
  0x86d0	01 0a 04 00 0a 64 06 00 0a 32 06 70 19 16 04 00 	00000d00020p0000
  0x86e0	16 34 0f 00 09 b2 02 50 38 1e 00 00 e8 7a 00 00 	0400000P80000z00
  0x86f0	17 47 00 00 00 00 00 00 01 0f 06 00 0f 64 0b 00 	0G00000000000d00
  0x8700	0f 34 0a 00 0f 72 0b 70 19 19 06 00 19 64 09 00 	04000r0p00000d00
  0x8710	14 34 08 00 06 52 02 70 38 1e 00 00 10 7b 00 00 	04000R0p80000{00
  0x8720	79 4a 00 00 ff ff ff ff 19 0f 02 00 06 52 02 30 	yJ00000000000R00
  0x8730	38 1e 00 00 38 7b 00 00 03 4b 00 00 ff ff ff ff 	80008{000K000000
  0x8740	19 0d 01 00 04 a2 00 00 38 1e 00 00 60 7b 00 00 	000000008000`{00
  0x8750	bf 33 00 00 ff ff ff ff 19 0d 01 00 04 82 00 00 	0300000000000000
  0x8760	38 1e 00 00 88 7b 00 00 93 59 00 00 ff ff ff ff 	80000{000Y000000
  0x8770	19 0f 01 00 07 c2 00 00 38 1e 00 00 b0 7b 00 00 	0000000080000{00
  0x8780	e8 49 00 00 ff ff ff ff 19 0d 01 00 04 82 00 00 	0I00000000000000
  0x8790	38 1e 00 00 d8 7b 00 00 87 49 00 00 ff ff ff ff 	80000{000I000000
  0x87a0	19 0d 01 00 04 a2 00 00 38 1e 00 00 00 7c 00 00 	0000000080000|00
  0x87b0	b0 49 00 00 ff ff ff ff 01 0f 06 00 0f 64 11 00 	0I00000000000d00
  0x87c0	0f 34 10 00 0f d2 0b 70 01 04 01 00 04 a2 00 00 	0400000p00000000
  0x87d0	01 09 03 00 09 01 18 00 02 30 00 00 19 25 0a 00 	0000000000000%00
  0x87e0	25 34 14 00 19 92 15 f0 13 e0 11 d0 0f c0 0d 70 	%40000000000000p
  0x87f0	0c 60 0b 50 38 1e 00 00 28 7c 00 00 00 00 00 00 	0`0P8000(|000000
  0x8800	76 40 00 00 ff ff ff ff 01 0a 04 00 0a 34 06 00 	v@00000000000400
  0x8810	0a 32 06 70 01 07 02 00 07 01 1f 00 19 21 03 00 	020p000000000!00
  0x8820	0f 01 86 02 02 30 00 00 04 60 00 00 20 14 00 00 	000000000`00 000
  0x8830	01 1c 0c 00 1c 64 0d 00 1c 54 0c 00 1c 34 0b 00 	00000d000T000400
  0x8840	1c 32 18 f0 16 e0 14 d0 12 c0 10 70 01 11 04 00 	02000000000p0000
  0x8850	11 52 0d 70 0c 60 0b 30 19 0f 02 00 06 92 02 30 	0R0p0`0000000000
  0x8860	38 1e 00 00 50 7c 00 00 9b 39 00 00 00 00 00 00 	8000P|0009000000
  0x8870	19 19 06 00 19 64 0d 00 14 34 0c 00 06 92 02 70 	00000d000400000p
  0x8880	38 1e 00 00 78 7c 00 00 45 39 00 00 ff ff ff ff 	8000x|00E9000000
  0x8890	01 0f 06 00 0f 64 07 00 0f 34 06 00 0f 32 0b 70 	00000d000400020p
  0x88a0	19 22 07 00 10 34 31 00 10 01 2a 00 09 e0 07 70 	0"00041000*0000p
  0x88b0	06 60 00 00 04 60 00 00 40 01 00 00 19 30 09 00 	0`000`00@0000000
  0x88c0	1e 34 55 00 11 01 4c 00 0a f0 08 e0 06 70 05 60 	04U000L000000p0`
  0x88d0	04 50 00 00 80 60 00 00 a0 7c 00 00 53 02 00 00 	0P000`000|00S000
  0x88e0	a6 36 00 00 ff ff ff ff 01 12 05 00 12 42 0e 70 	0600000000000B0p
  0x88f0	0d 60 0c 50 0b 30 00 00 01 13 05 00 13 42 0f e0 	0`0P000000000B00
  0x8900	0d 70 0c 60 0b 30 00 00 01 05 02 00 05 34 01 00 	0p0`000000000400
  0x8910	01 02 01 00 02 30 00 00 01 04 01 00 04 12 00 00 	0000000000000000
  0x8920	02 00 00 00 60 89 00 00 38 89 00 00 00 00 00 00 	0000`00080000000
  0x8930	00 00 00 00 00 00 00 00 00 00 00 00 40 a0 00 00 	000000000000@000
  0x8940	00 00 00 00 ff ff ff ff 00 00 00 00 18 00 00 00 	0000000000000000
  0x8950	e0 2c 00 00 00 00 00 00 00 00 00 00 00 00 00 00 	0,00000000000000
  0x8960	00 00 00 00 10 a0 00 00 00 00 00 00 ff ff ff ff 	0000000000000000
  0x8970	00 00 00 00 d0 00 00 00 d0 2b 00 00 00 00 00 00 	000000000+000000
  0x8980	00 00 00 00 00 00 00 00 00 00 00 00 f8 2e 00 00 	0000000000000.00
  0x8990	00 00 00 00 20 89 00 00 00 00 00 00 00 00 00 00 	0000 00000000000
  0x89a0	00 00 00 00 d8 8d 00 00 00 00 00 00 00 00 00 00 	0000000000000000
  0x89b0	62 8e 00 00 48 74 00 00 c8 8c 00 00 00 00 00 00 	b000Ht0000000000
  0x89c0	00 00 00 00 48 91 00 00 38 73 00 00 00 8e 00 00 	0000H0008s000000
  0x89d0	00 00 00 00 00 00 00 00 6a 91 00 00 70 74 00 00 	00000000j000pt00
  0x89e0	b8 8b 00 00 00 00 00 00 00 00 00 00 c2 94 00 00 	0000000000000000
  0x89f0	28 72 00 00 70 8c 00 00 00 00 00 00 00 00 00 00 	(r00p00000000000
  0x8a00	ec 94 00 00 e0 72 00 00 88 8b 00 00 00 00 00 00 	00000r0000000000
  0x8a10	00 00 00 00 0e 95 00 00 f8 71 00 00 50 8b 00 00 	000000000q00P000
  0x8a20	00 00 00 00 00 00 00 00 2e 95 00 00 c0 71 00 00 	00000000.0000q00
  0x8a30	10 8b 00 00 00 00 00 00 00 00 00 00 58 95 00 00 	000000000000X000
  0x8a40	80 71 00 00 00 8c 00 00 00 00 00 00 00 00 00 00 	0q00000000000000
  0x8a50	78 95 00 00 70 72 00 00 b0 8c 00 00 00 00 00 00 	x000pr0000000000
  0x8a60	00 00 00 00 a2 95 00 00 20 73 00 00 f0 8b 00 00 	00000000 s000000
  0x8a70	00 00 00 00 00 00 00 00 c6 95 00 00 60 72 00 00 	000000000000`r00
  0x8a80	30 8b 00 00 00 00 00 00 00 00 00 00 ee 95 00 00 	0000000000000000
  0x8a90	a0 71 00 00 78 8b 00 00 00 00 00 00 00 00 00 00 	0q00x00000000000
  0x8aa0	10 96 00 00 e8 71 00 00 50 8c 00 00 00 00 00 00 	00000q00P0000000
  0x8ab0	00 00 00 00 32 96 00 00 c0 72 00 00 30 8c 00 00 	000020000r000000
  0x8ac0	00 00 00 00 00 00 00 00 58 96 00 00 a0 72 00 00 	00000000X0000r00
  0x8ad0	40 8c 00 00 00 00 00 00 00 00 00 00 82 96 00 00 	@000000000000000
  0x8ae0	b0 72 00 00 a8 8b 00 00 00 00 00 00 00 00 00 00 	0r00000000000000
  0x8af0	a6 96 00 00 18 72 00 00 00 00 00 00 00 00 00 00 	00000r0000000000
  0x8b00	00 00 00 00 00 00 00 00 00 00 00 00 00 00 00 00 	0000000000000000
  0x8b10	5c 93 00 00 00 00 00 00 d4 91 00 00 00 00 00 00 	0000000000000000
  0x8b20	10 92 00 00 00 00 00 00 00 00 00 00 00 00 00 00 	0000000000000000
  0x8b30	8e 93 00 00 00 00 00 00 6e 93 00 00 00 00 00 00 	00000000n0000000
  0x8b40	94 92 00 00 00 00 00 00 00 00 00 00 00 00 00 00 	0000000000000000
  0x8b50	fa 93 00 00 00 00 00 00 84 92 00 00 00 00 00 00 	0000000000000000
  0x8b60	16 94 00 00 00 00 00 00 c4 91 00 00 00 00 00 00 	0000000000000000
  0x8b70	00 00 00 00 00 00 00 00 d4 92 00 00 00 00 00 00 	0000000000000000
  0x8b80	00 00 00 00 00 00 00 00 e2 92 00 00 00 00 00 00 	0000000000000000
  0x8b90	b8 91 00 00 00 00 00 00 28 93 00 00 00 00 00 00 	00000000(0000000
  0x8ba0	00 00 00 00 00 00 00 00 ac 94 00 00 00 00 00 00 	0000000000000000
  0x8bb0	00 00 00 00 00 00 00 00 4e 93 00 00 00 00 00 00 	00000000N0000000
  0x8bc0	8c 91 00 00 00 00 00 00 7c 93 00 00 00 00 00 00 	00000000|0000000
  0x8bd0	3a 93 00 00 00 00 00 00 ee 92 00 00 00 00 00 00 	:000000000000000
  0x8be0	fa 91 00 00 00 00 00 00 00 00 00 00 00 00 00 00 	0000000000000000
  0x8bf0	72 92 00 00 00 00 00 00 00 00 00 00 00 00 00 00 	r000000000000000
  0x8c00	12 93 00 00 00 00 00 00 36 92 00 00 00 00 00 00 	0000000060000000
  0x8c10	34 94 00 00 00 00 00 00 48 94 00 00 00 00 00 00 	40000000H0000000
  0x8c20	a2 93 00 00 00 00 00 00 00 00 00 00 00 00 00 00 	0000000000000000
  0x8c30	5c 94 00 00 00 00 00 00 00 00 00 00 00 00 00 00 	0000000000000000
  0x8c40	78 94 00 00 00 00 00 00 00 00 00 00 00 00 00 00 	x000000000000000
  0x8c50	e6 93 00 00 00 00 00 00 b8 93 00 00 00 00 00 00 	0000000000000000
  0x8c60	cc 93 00 00 00 00 00 00 00 00 00 00 00 00 00 00 	0000000000000000
  0x8c70	e6 91 00 00 00 00 00 00 c2 92 00 00 00 00 00 00 	0000000000000000
  0x8c80	aa 92 00 00 00 00 00 00 20 92 00 00 00 00 00 00 	00000000 0000000
  0x8c90	00 93 00 00 00 00 00 00 a2 91 00 00 00 00 00 00 	0000000000000000
  0x8ca0	4c 92 00 00 00 00 00 00 00 00 00 00 00 00 00 00 	L000000000000000
  0x8cb0	5c 92 00 00 00 00 00 00 92 94 00 00 00 00 00 00 	0000000000000000
  0x8cc0	00 00 00 00 00 00 00 00 26 8f 00 00 00 00 00 00 	00000000&0000000
  0x8cd0	44 8f 00 00 00 00 00 00 64 8f 00 00 00 00 00 00 	D0000000d0000000
  0x8ce0	70 8f 00 00 00 00 00 00 8a 8f 00 00 00 00 00 00 	p000000000000000
  0x8cf0	a4 8f 00 00 00 00 00 00 b6 8f 00 00 00 00 00 00 	0000000000000000
  0x8d00	c2 8f 00 00 00 00 00 00 ce 8f 00 00 00 00 00 00 	0000000000000000
  0x8d10	f2 8f 00 00 00 00 00 00 10 90 00 00 00 00 00 00 	0000000000000000
  0x8d20	32 90 00 00 00 00 00 00 52 90 00 00 00 00 00 00 	20000000R0000000
  0x8d30	72 90 00 00 00 00 00 00 88 90 00 00 00 00 00 00 	r000000000000000
  0x8d40	9c 90 00 00 00 00 00 00 ac 90 00 00 00 00 00 00 	0000000000000000
  0x8d50	e4 96 00 00 00 00 00 00 c0 90 00 00 00 00 00 00 	0000000000000000
  0x8d60	ca 90 00 00 00 00 00 00 d4 90 00 00 00 00 00 00 	0000000000000000
  0x8d70	e4 90 00 00 00 00 00 00 f2 90 00 00 00 00 00 00 	0000000000000000
  0x8d80	0a 91 00 00 00 00 00 00 20 91 00 00 00 00 00 00 	00000000 0000000
  0x8d90	06 8f 00 00 00 00 00 00 e8 8e 00 00 00 00 00 00 	0000000000000000
  0x8da0	ce 8e 00 00 00 00 00 00 bc 8e 00 00 00 00 00 00 	0000000000000000
  0x8db0	aa 8e 00 00 00 00 00 00 9a 8e 00 00 00 00 00 00 	0000000000000000
  0x8dc0	84 8e 00 00 00 00 00 00 ce 96 00 00 00 00 00 00 	0000000000000000
  0x8dd0	00 00 00 00 00 00 00 00 1c 8e 00 00 00 00 00 00 	0000000000000000
  0x8de0	2a 8e 00 00 00 00 00 00 10 8e 00 00 00 00 00 00 	*000000000000000
  0x8df0	34 8e 00 00 00 00 00 00 00 00 00 00 00 00 00 00 	4000000000000000
  0x8e00	3e 91 00 00 00 00 00 00 00 00 00 00 00 00 00 00 	>000000000000000
  0x8e10	36 00 5f 69 6e 69 74 74 65 72 6d 00 37 00 5f 69 	60_initterm070_i
  0x8e20	6e 69 74 74 65 72 6d 5f 65 00 15 00 5f 63 5f 65 	nitterm_e000_c_e
  0x8e30	78 69 74 00 3d 00 5f 72 65 67 69 73 74 65 72 5f 	xit0=0_register_
  0x8e40	74 68 72 65 61 64 5f 6c 6f 63 61 6c 5f 65 78 65 	thread_local_exe
  0x8e50	5f 61 74 65 78 69 74 5f 63 61 6c 6c 62 61 63 6b 	_atexit_callback
  0x8e60	00 00 61 70 69 2d 6d 73 2d 77 69 6e 2d 63 72 74 	00api-ms-win-crt
  0x8e70	2d 72 75 6e 74 69 6d 65 2d 6c 31 2d 31 2d 30 2e 	-runtime-l1-1-0.
  0x8e80	64 6c 6c 00 12 00 5f 5f 43 78 78 46 72 61 6d 65 	dll000__CxxFrame
  0x8e90	48 61 6e 64 6c 65 72 33 00 00 4f 00 5f 6f 5f 5f 	Handler300O0_o__
  0x8ea0	5f 70 5f 5f 5f 61 72 67 63 00 51 00 5f 6f 5f 5f 	_p___argc0Q0_o__
  0x8eb0	5f 70 5f 5f 5f 77 61 72 67 76 00 00 53 00 5f 6f 	_p___wargv00S0_o
  0x8ec0	5f 5f 5f 70 5f 5f 63 6f 6d 6d 6f 64 65 00 5e 00 	___p__commode0^0
  0x8ed0	5f 6f 5f 5f 5f 73 74 64 5f 65 78 63 65 70 74 69 	_o___std_excepti
  0x8ee0	6f 6e 5f 63 6f 70 79 00 5f 00 5f 6f 5f 5f 5f 73 	on_copy0_0_o___s
  0x8ef0	74 64 5f 65 78 63 65 70 74 69 6f 6e 5f 64 65 73 	td_exception_des
  0x8f00	74 72 6f 79 00 00 6a 00 5f 6f 5f 5f 5f 73 74 64 	troy00j0_o___std
  0x8f10	69 6f 5f 63 6f 6d 6d 6f 6e 5f 76 73 6e 70 72 69 	io_common_vsnpri
  0x8f20	6e 74 66 5f 73 00 70 00 5f 6f 5f 5f 5f 73 74 64 	ntf_s0p0_o___std
  0x8f30	69 6f 5f 63 6f 6d 6d 6f 6e 5f 76 73 77 70 72 69 	io_common_vswpri
  0x8f40	6e 74 66 00 72 00 5f 6f 5f 5f 5f 73 74 64 69 6f 	ntf0r0_o___stdio
  0x8f50	5f 63 6f 6d 6d 6f 6e 5f 76 73 77 70 72 69 6e 74 	_common_vswprint
  0x8f60	66 5f 73 00 93 00 5f 6f 5f 5f 63 65 78 69 74 00 	f_s000_o__cexit0
  0x8f70	9f 00 5f 6f 5f 5f 63 6f 6e 66 69 67 74 68 72 65 	00_o__configthre
  0x8f80	61 64 6c 6f 63 61 6c 65 00 00 a1 00 5f 6f 5f 5f 	adlocale0000_o__
  0x8f90	63 6f 6e 66 69 67 75 72 65 5f 77 69 64 65 5f 61 	configure_wide_a
  0x8fa0	72 67 76 00 a7 00 5f 6f 5f 5f 63 72 74 5f 61 74 	rgv000_o__crt_at
  0x8fb0	65 78 69 74 00 00 c0 00 5f 6f 5f 5f 65 72 72 6e 	exit0000_o__errn
  0x8fc0	6f 00 c7 00 5f 6f 5f 5f 65 78 69 74 00 00 0f 01 	o000_o__exit0000
  0x8fd0	5f 6f 5f 5f 67 65 74 5f 69 6e 69 74 69 61 6c 5f 	_o__get_initial_
  0x8fe0	77 69 64 65 5f 65 6e 76 69 72 6f 6e 6d 65 6e 74 	wide_environment
  0x8ff0	00 00 3d 01 5f 6f 5f 5f 69 6e 69 74 69 61 6c 69 	00=0_o__initiali
  0x9000	7a 65 5f 6f 6e 65 78 69 74 5f 74 61 62 6c 65 00 	ze_onexit_table0
  0x9010	3e 01 5f 6f 5f 5f 69 6e 69 74 69 61 6c 69 7a 65 	>0_o__initialize
  0x9020	5f 77 69 64 65 5f 65 6e 76 69 72 6f 6e 6d 65 6e 	_wide_environmen
  0x9030	74 00 3f 01 5f 6f 5f 5f 69 6e 76 61 6c 69 64 5f 	t0?0_o__invalid_
  0x9040	70 61 72 61 6d 65 74 65 72 5f 6e 6f 69 6e 66 6f 	parameter_noinfo
  0x9050	00 00 51 02 5f 6f 5f 5f 72 65 67 69 73 74 65 72 	00Q0_o__register
  0x9060	5f 6f 6e 65 78 69 74 5f 66 75 6e 63 74 69 6f 6e 	_onexit_function
  0x9070	00 00 5a 02 5f 6f 5f 5f 73 65 68 5f 66 69 6c 74 	00Z0_o__seh_filt
  0x9080	65 72 5f 65 78 65 00 00 5c 02 5f 6f 5f 5f 73 65 	er_exe0000_o__se
  0x9090	74 5f 61 70 70 5f 74 79 70 65 00 00 5f 02 5f 6f 	t_app_type00_0_o
  0x90a0	5f 5f 73 65 74 5f 66 6d 6f 64 65 00 62 02 5f 6f 	__set_fmode0b0_o
  0x90b0	5f 5f 73 65 74 5f 6e 65 77 5f 6d 6f 64 65 00 00 	__set_new_mode00
  0x90c0	6d 03 5f 6f 5f 65 78 69 74 00 8d 03 5f 6f 5f 66 	m0_o_exit000_o_f
  0x90d0	72 65 65 00 36 04 5f 6f 5f 74 65 72 6d 69 6e 61 	ree060_o_termina
  0x90e0	74 65 00 00 47 04 5f 6f 5f 77 63 73 63 70 79 5f 	te00G0_o_wcscpy_
  0x90f0	73 00 0c 00 5f 5f 43 5f 73 70 65 63 69 66 69 63 	s000__C_specific
  0x9100	5f 68 61 6e 64 6c 65 72 00 00 20 00 5f 5f 63 75 	_handler00 0__cu
  0x9110	72 72 65 6e 74 5f 65 78 63 65 70 74 69 6f 6e 00 	rrent_exception0
  0x9120	21 00 5f 5f 63 75 72 72 65 6e 74 5f 65 78 63 65 	!0__current_exce
  0x9130	70 74 69 6f 6e 5f 63 6f 6e 74 65 78 74 00 83 00 	ption_context000
  0x9140	6d 65 6d 73 65 74 00 00 61 70 69 2d 6d 73 2d 77 	memset00api-ms-w
  0x9150	69 6e 2d 63 72 74 2d 70 72 69 76 61 74 65 2d 6c 	in-crt-private-l
  0x9160	31 2d 31 2d 30 2e 64 6c 6c 00 61 70 69 2d 6d 73 	1-1-0.dll0api-ms
  0x9170	2d 77 69 6e 2d 63 72 74 2d 73 74 72 69 6e 67 2d 	-win-crt-string-
  0x9180	6c 31 2d 31 2d 30 2e 64 6c 6c 00 00 0f 00 47 65 	l1-1-0.dll0000Ge
  0x9190	74 4d 6f 64 75 6c 65 46 69 6c 65 4e 61 6d 65 41 	tModuleFileNameA
  0x91a0	00 00 0b 00 43 72 65 61 74 65 53 65 6d 61 70 68 	0000CreateSemaph
  0x91b0	6f 72 65 45 78 57 00 00 06 00 48 65 61 70 46 72 	oreExW0000HeapFr
  0x91c0	65 65 00 00 0d 00 53 65 74 4c 61 73 74 45 72 72 	ee0000SetLastErr
  0x91d0	6f 72 00 00 40 00 43 6f 54 61 73 6b 4d 65 6d 41 	or00@0CoTaskMemA
  0x91e0	6c 6c 6f 63 00 00 26 00 52 65 6c 65 61 73 65 53 	lloc00&0ReleaseS
  0x91f0	65 6d 61 70 68 6f 72 65 00 00 13 00 47 65 74 4d 	emaphore0000GetM
  0x9200	6f 64 75 6c 65 48 61 6e 64 6c 65 45 78 57 00 00 	oduleHandleExW00
  0x9210	41 00 43 6f 54 61 73 6b 4d 65 6d 46 72 65 65 00 	A0CoTaskMemFree0
  0x9220	36 00 57 61 69 74 46 6f 72 53 69 6e 67 6c 65 4f 	60WaitForSingleO
  0x9230	62 6a 65 63 74 00 11 00 47 65 74 43 75 72 72 65 	bject000GetCurre
  0x9240	6e 74 54 68 72 65 61 64 49 64 00 00 23 00 52 65 	ntThreadId00#0Re
  0x9250	6c 65 61 73 65 4d 75 74 65 78 00 00 0f 00 47 65 	leaseMutex0000Ge
  0x9260	74 53 79 73 74 65 6d 44 69 72 65 63 74 6f 72 79 	tSystemDirectory
  0x9270	57 00 09 00 46 6f 72 6d 61 74 4d 65 73 73 61 67 	W000FormatMessag
  0x9280	65 57 00 00 05 00 47 65 74 4c 61 73 74 45 72 72 	eW0000GetLastErr
  0x9290	6f 72 00 00 07 00 4f 75 74 70 75 74 44 65 62 75 	or0000OutputDebu
  0x92a0	67 53 74 72 69 6e 67 57 00 00 37 00 57 61 69 74 	gStringW0070Wait
  0x92b0	46 6f 72 53 69 6e 67 6c 65 4f 62 6a 65 63 74 45 	ForSingleObjectE
  0x92c0	78 00 21 00 4f 70 65 6e 53 65 6d 61 70 68 6f 72 	x0!0OpenSemaphor
  0x92d0	65 57 00 00 00 00 43 6c 6f 73 65 48 61 6e 64 6c 	eW0000CloseHandl
  0x92e0	65 00 02 00 48 65 61 70 41 6c 6c 6f 63 00 15 00 	e000HeapAlloc000
  0x92f0	47 65 74 50 72 6f 63 41 64 64 72 65 73 73 00 00 	GetProcAddress00
  0x9300	09 00 43 72 65 61 74 65 4d 75 74 65 78 45 78 57 	00CreateMutexExW
  0x9310	00 00 0d 00 47 65 74 43 75 72 72 65 6e 74 50 72 	0000GetCurrentPr
  0x9320	6f 63 65 73 73 49 64 00 00 00 47 65 74 50 72 6f 	ocessId000GetPro
  0x9330	63 65 73 73 48 65 61 70 00 00 14 00 47 65 74 4d 	cessHeap0000GetM
  0x9340	6f 64 75 6c 65 48 61 6e 64 6c 65 57 00 00 0c 00 	oduleHandleW0000
  0x9350	46 72 65 65 4c 69 62 72 61 72 79 00 28 00 43 6f 	FreeLibrary0(0Co
  0x9360	49 6e 69 74 69 61 6c 69 7a 65 45 78 00 00 04 00 	InitializeEx0000
  0x9370	44 65 62 75 67 42 72 65 61 6b 00 00 18 00 4c 6f 	DebugBreak0000Lo
  0x9380	61 64 4c 69 62 72 61 72 79 45 78 57 00 00 05 00 	adLibraryExW0000
  0x9390	49 73 44 65 62 75 67 67 65 72 50 72 65 73 65 6e 	IsDebuggerPresen
  0x93a0	74 00 13 00 47 65 74 45 78 69 74 43 6f 64 65 50 	t000GetExitCodeP
  0x93b0	72 6f 63 65 73 73 00 00 02 00 52 74 6c 43 61 70 	rocess0000RtlCap
  0x93c0	74 75 72 65 43 6f 6e 74 65 78 74 00 0a 00 52 74 	tureContext000Rt
  0x93d0	6c 4c 6f 6f 6b 75 70 46 75 6e 63 74 69 6f 6e 45 	lLookupFunctionE
  0x93e0	6e 74 72 79 00 00 10 00 52 74 6c 56 69 72 74 75 	ntry0000RtlVirtu
  0x93f0	61 6c 55 6e 77 69 6e 64 00 00 11 00 55 6e 68 61 	alUnwind0000Unha
  0x9400	6e 64 6c 65 64 45 78 63 65 70 74 69 6f 6e 46 69 	ndledExceptionFi
  0x9410	6c 74 65 72 00 00 0f 00 53 65 74 55 6e 68 61 6e 	lter0000SetUnhan
  0x9420	64 6c 65 64 45 78 63 65 70 74 69 6f 6e 46 69 6c 	dledExceptionFil
  0x9430	74 65 72 00 0c 00 47 65 74 43 75 72 72 65 6e 74 	ter000GetCurrent
  0x9440	50 72 6f 63 65 73 73 00 4d 00 54 65 72 6d 69 6e 	Process0M0Termin
  0x9450	61 74 65 50 72 6f 63 65 73 73 00 00 2f 00 49 73 	ateProcess00/0Is
  0x9460	50 72 6f 63 65 73 73 6f 72 46 65 61 74 75 72 65 	ProcessorFeature
  0x9470	50 72 65 73 65 6e 74 00 00 00 51 75 65 72 79 50 	Present000QueryP
  0x9480	65 72 66 6f 72 6d 61 6e 63 65 43 6f 75 6e 74 65 	erformanceCounte
  0x9490	72 00 16 00 47 65 74 53 79 73 74 65 6d 54 69 6d 	r000GetSystemTim
  0x94a0	65 41 73 46 69 6c 65 54 69 6d 65 00 00 00 49 6e 	eAsFileTime000In
  0x94b0	69 74 69 61 6c 69 7a 65 53 4c 69 73 74 48 65 61 	itializeSListHea
  0x94c0	64 00 61 70 69 2d 6d 73 2d 77 69 6e 2d 63 6f 72 	d0api-ms-win-cor
  0x94d0	65 2d 6c 69 62 72 61 72 79 6c 6f 61 64 65 72 2d 	e-libraryloader-
  0x94e0	6c 31 2d 32 2d 30 2e 64 6c 6c 00 00 61 70 69 2d 	l1-2-0.dll00api-
  0x94f0	6d 73 2d 77 69 6e 2d 63 6f 72 65 2d 73 79 6e 63 	ms-win-core-sync
  0x9500	68 2d 6c 31 2d 31 2d 30 2e 64 6c 6c 00 00 61 70 	h-l1-1-0.dll00ap
  0x9510	69 2d 6d 73 2d 77 69 6e 2d 63 6f 72 65 2d 68 65 	i-ms-win-core-he
  0x9520	61 70 2d 6c 31 2d 31 2d 30 2e 64 6c 6c 00 61 70 	ap-l1-1-0.dll0ap
  0x9530	69 2d 6d 73 2d 77 69 6e 2d 63 6f 72 65 2d 65 72 	i-ms-win-core-er
  0x9540	72 6f 72 68 61 6e 64 6c 69 6e 67 2d 6c 31 2d 31 	rorhandling-l1-1
  0x9550	2d 30 2e 64 6c 6c 00 00 61 70 69 2d 6d 73 2d 77 	-0.dll00api-ms-w
  0x9560	69 6e 2d 63 6f 72 65 2d 63 6f 6d 2d 6c 31 2d 31 	in-core-com-l1-1
  0x9570	2d 30 2e 64 6c 6c 00 00 61 70 69 2d 6d 73 2d 77 	-0.dll00api-ms-w
  0x9580	69 6e 2d 63 6f 72 65 2d 70 72 6f 63 65 73 73 74 	in-core-processt
  0x9590	68 72 65 61 64 73 2d 6c 31 2d 31 2d 30 2e 64 6c 	hreads-l1-1-0.dl
  0x95a0	6c 00 61 70 69 2d 6d 73 2d 77 69 6e 2d 63 6f 72 	l0api-ms-win-cor
  0x95b0	65 2d 73 79 73 69 6e 66 6f 2d 6c 31 2d 31 2d 30 	e-sysinfo-l1-1-0
  0x95c0	2e 64 6c 6c 00 00 61 70 69 2d 6d 73 2d 77 69 6e 	.dll00api-ms-win
  0x95d0	2d 63 6f 72 65 2d 6c 6f 63 61 6c 69 7a 61 74 69 	-core-localizati
  0x95e0	6f 6e 2d 6c 31 2d 32 2d 30 2e 64 6c 6c 00 61 70 	on-l1-2-0.dll0ap
  0x95f0	69 2d 6d 73 2d 77 69 6e 2d 63 6f 72 65 2d 64 65 	i-ms-win-core-de
  0x9600	62 75 67 2d 6c 31 2d 31 2d 30 2e 64 6c 6c 00 00 	bug-l1-1-0.dll00
  0x9610	61 70 69 2d 6d 73 2d 77 69 6e 2d 63 6f 72 65 2d 	api-ms-win-core-
  0x9620	68 61 6e 64 6c 65 2d 6c 31 2d 31 2d 30 2e 64 6c 	handle-l1-1-0.dl
  0x9630	6c 00 61 70 69 2d 6d 73 2d 77 69 6e 2d 63 6f 72 	l0api-ms-win-cor
  0x9640	65 2d 72 74 6c 73 75 70 70 6f 72 74 2d 6c 31 2d 	e-rtlsupport-l1-
  0x9650	31 2d 30 2e 64 6c 6c 00 61 70 69 2d 6d 73 2d 77 	1-0.dll0api-ms-w
  0x9660	69 6e 2d 63 6f 72 65 2d 70 72 6f 63 65 73 73 74 	in-core-processt
  0x9670	68 72 65 61 64 73 2d 6c 31 2d 31 2d 31 2e 64 6c 	hreads-l1-1-1.dl
  0x9680	6c 00 61 70 69 2d 6d 73 2d 77 69 6e 2d 63 6f 72 	l0api-ms-win-cor
  0x9690	65 2d 70 72 6f 66 69 6c 65 2d 6c 31 2d 31 2d 30 	e-profile-l1-1-0
  0x96a0	2e 64 6c 6c 00 00 61 70 69 2d 6d 73 2d 77 69 6e 	.dll00api-ms-win
  0x96b0	2d 63 6f 72 65 2d 69 6e 74 65 72 6c 6f 63 6b 65 	-core-interlocke
  0x96c0	64 2d 6c 31 2d 31 2d 30 2e 64 6c 6c 00 00 01 00 	d-l1-1-0.dll0000
  0x96d0	5f 43 78 78 54 68 72 6f 77 45 78 63 65 70 74 69 	_CxxThrowExcepti
  0x96e0	6f 6e 00 00 63 04 6d 65 6d 63 70 79 00 00 00 00 	on00c0memcpy0000
  0x96f0	00 00 00 00 00 00 00 00 00 00 00 00 00 00 00 00 	0000000000000000
  0x9700	00 00 00 00 00 00 00 00 00 00 00 00 00 00 00 00 	0000000000000000
  0x9710	00 00 00 00 00 00 00 00 00 00 00 00 00 00 00 00 	0000000000000000
  0x9720	00 00 00 00 00 00 00 00 00 00 00 00 00 00 00 00 	0000000000000000
  0x9730	00 00 00 00 00 00 00 00 00 00 00 00 00 00 00 00 	0000000000000000
  0x9740	00 00 00 00 00 00 00 00 00 00 00 00 00 00 00 00 	0000000000000000
  0x9750	00 00 00 00 00 00 00 00 00 00 00 00 00 00 00 00 	0000000000000000
  0x9760	00 00 00 00 00 00 00 00 00 00 00 00 00 00 00 00 	0000000000000000
  0x9770	00 00 00 00 00 00 00 00 00 00 00 00 00 00 00 00 	0000000000000000
  0x9780	00 00 00 00 00 00 00 00 00 00 00 00 00 00 00 00 	0000000000000000
  0x9790	00 00 00 00 00 00 00 00 00 00 00 00 00 00 00 00 	0000000000000000
  0x97a0	00 00 00 00 00 00 00 00 00 00 00 00 00 00 00 00 	0000000000000000
  0x97b0	00 00 00 00 00 00 00 00 00 00 00 00 00 00 00 00 	0000000000000000
  0x97c0	00 00 00 00 00 00 00 00 00 00 00 00 00 00 00 00 	0000000000000000
  0x97d0	00 00 00 00 00 00 00 00 00 00 00 00 00 00 00 00 	0000000000000000
  0x97e0	00 00 00 00 00 00 00 00 00 00 00 00 00 00 00 00 	0000000000000000
  0x97f0	00 00 00 00 00 00 00 00 00 00 00 00 00 00 00 00 	0000000000000000
  0x9800	00 00 00 00 00 00 00 00 00 00 00 00 00 00 00 00 	0000000000000000
  0x9810	00 00 00 00 00 00 00 00 00 00 00 00 00 00 00 00 	0000000000000000
  0x9820	00 00 00 00 00 00 00 00 00 00 00 00 00 00 00 00 	0000000000000000
  0x9830	00 00 00 00 00 00 00 00 00 00 00 00 00 00 00 00 	0000000000000000
  0x9840	00 00 00 00 00 00 00 00 00 00 00 00 00 00 00 00 	0000000000000000
  0x9850	00 00 00 00 00 00 00 00 00 00 00 00 00 00 00 00 	0000000000000000
  0x9860	00 00 00 00 00 00 00 00 00 00 00 00 00 00 00 00 	0000000000000000
  0x9870	00 00 00 00 00 00 00 00 00 00 00 00 00 00 00 00 	0000000000000000
  0x9880	00 00 00 00 00 00 00 00 00 00 00 00 00 00 00 00 	0000000000000000
  0x9890	00 00 00 00 00 00 00 00 00 00 00 00 00 00 00 00 	0000000000000000
  0x98a0	00 00 00 00 00 00 00 00 00 00 00 00 00 00 00 00 	0000000000000000
  0x98b0	00 00 00 00 00 00 00 00 00 00 00 00 00 00 00 00 	0000000000000000
  0x98c0	00 00 00 00 00 00 00 00 00 00 00 00 00 00 00 00 	0000000000000000
  0x98d0	00 00 00 00 00 00 00 00 00 00 00 00 00 00 00 00 	0000000000000000
  0x98e0	00 00 00 00 00 00 00 00 00 00 00 00 00 00 00 00 	0000000000000000
  0x98f0	00 00 00 00 00 00 00 00 00 00 00 00 00 00 00 00 	0000000000000000
  0x9900	00 00 00 00 00 00 00 00 00 00 00 00 00 00 00 00 	0000000000000000
  0x9910	00 00 00 00 00 00 00 00 00 00 00 00 00 00 00 00 	0000000000000000
  0x9920	00 00 00 00 00 00 00 00 00 00 00 00 00 00 00 00 	0000000000000000
  0x9930	00 00 00 00 00 00 00 00 00 00 00 00 00 00 00 00 	0000000000000000
  0x9940	00 00 00 00 00 00 00 00 00 00 00 00 00 00 00 00 	0000000000000000
  0x9950	00 00 00 00 00 00 00 00 00 00 00 00 00 00 00 00 	0000000000000000
  0x9960	00 00 00 00 00 00 00 00 00 00 00 00 00 00 00 00 	0000000000000000
  0x9970	00 00 00 00 00 00 00 00 00 00 00 00 00 00 00 00 	0000000000000000
  0x9980	00 00 00 00 00 00 00 00 00 00 00 00 00 00 00 00 	0000000000000000
  0x9990	00 00 00 00 00 00 00 00 00 00 00 00 00 00 00 00 	0000000000000000
  0x99a0	00 00 00 00 00 00 00 00 00 00 00 00 00 00 00 00 	0000000000000000
  0x99b0	00 00 00 00 00 00 00 00 00 00 00 00 00 00 00 00 	0000000000000000
  0x99c0	00 00 00 00 00 00 00 00 00 00 00 00 00 00 00 00 	0000000000000000
  0x99d0	00 00 00 00 00 00 00 00 00 00 00 00 00 00 00 00 	0000000000000000
  0x99e0	00 00 00 00 00 00 00 00 00 00 00 00 00 00 00 00 	0000000000000000
  0x99f0	00 00 00 00 00 00 00 00 00 00 00 00 00 00 00 00 	0000000000000000
  0x9a00	00 00 00 00 00 00 00 00 00 00 00 00 00 00 00 00 	0000000000000000
  0x9a10	00 00 00 00 00 00 00 00 00 00 00 00 00 00 00 00 	0000000000000000
  0x9a20	00 00 00 00 00 00 00 00 00 00 00 00 00 00 00 00 	0000000000000000
  0x9a30	00 00 00 00 00 00 00 00 00 00 00 00 00 00 00 00 	0000000000000000
  0x9a40	00 00 00 00 00 00 00 00 00 00 00 00 00 00 00 00 	0000000000000000
  0x9a50	00 00 00 00 00 00 00 00 00 00 00 00 00 00 00 00 	0000000000000000
  0x9a60	00 00 00 00 00 00 00 00 00 00 00 00 00 00 00 00 	0000000000000000
  0x9a70	00 00 00 00 00 00 00 00 00 00 00 00 00 00 00 00 	0000000000000000
  0x9a80	00 00 00 00 00 00 00 00 00 00 00 00 00 00 00 00 	0000000000000000
  0x9a90	00 00 00 00 00 00 00 00 00 00 00 00 00 00 00 00 	0000000000000000
  0x9aa0	00 00 00 00 00 00 00 00 00 00 00 00 00 00 00 00 	0000000000000000
  0x9ab0	00 00 00 00 00 00 00 00 00 00 00 00 00 00 00 00 	0000000000000000
  0x9ac0	00 00 00 00 00 00 00 00 00 00 00 00 00 00 00 00 	0000000000000000
  0x9ad0	00 00 00 00 00 00 00 00 00 00 00 00 00 00 00 00 	0000000000000000
  0x9ae0	00 00 00 00 00 00 00 00 00 00 00 00 00 00 00 00 	0000000000000000
  0x9af0	00 00 00 00 00 00 00 00 00 00 00 00 00 00 00 00 	0000000000000000
  0x9b00	00 00 00 00 00 00 00 00 00 00 00 00 00 00 00 00 	0000000000000000
  0x9b10	00 00 00 00 00 00 00 00 00 00 00 00 00 00 00 00 	0000000000000000
  0x9b20	00 00 00 00 00 00 00 00 00 00 00 00 00 00 00 00 	0000000000000000
  0x9b30	00 00 00 00 00 00 00 00 00 00 00 00 00 00 00 00 	0000000000000000
  0x9b40	00 00 00 00 00 00 00 00 00 00 00 00 00 00 00 00 	0000000000000000
  0x9b50	00 00 00 00 00 00 00 00 00 00 00 00 00 00 00 00 	0000000000000000
  0x9b60	00 00 00 00 00 00 00 00 00 00 00 00 00 00 00 00 	0000000000000000
  0x9b70	00 00 00 00 00 00 00 00 00 00 00 00 00 00 00 00 	0000000000000000
  0x9b80	00 00 00 00 00 00 00 00 00 00 00 00 00 00 00 00 	0000000000000000
  0x9b90	00 00 00 00 00 00 00 00 00 00 00 00 00 00 00 00 	0000000000000000
  0x9ba0	00 00 00 00 00 00 00 00 00 00 00 00 00 00 00 00 	0000000000000000
  0x9bb0	00 00 00 00 00 00 00 00 00 00 00 00 00 00 00 00 	0000000000000000
  0x9bc0	00 00 00 00 00 00 00 00 00 00 00 00 00 00 00 00 	0000000000000000
  0x9bd0	00 00 00 00 00 00 00 00 00 00 00 00 00 00 00 00 	0000000000000000
  0x9be0	00 00 00 00 00 00 00 00 00 00 00 00 00 00 00 00 	0000000000000000
  0x9bf0	00 00 00 00 00 00 00 00 00 00 00 00 00 00 00 00 	0000000000000000
  0x9c00	00 00 00 00 00 00 00 00 00 00 00 00 00 00 00 00 	0000000000000000
  0x9c10	00 00 00 00 00 00 00 00 00 00 00 00 00 00 00 00 	0000000000000000
  0x9c20	00 00 00 00 00 00 00 00 00 00 00 00 00 00 00 00 	0000000000000000
  0x9c30	00 00 00 00 00 00 00 00 00 00 00 00 00 00 00 00 	0000000000000000
  0x9c40	00 00 00 00 00 00 00 00 00 00 00 00 00 00 00 00 	0000000000000000
  0x9c50	00 00 00 00 00 00 00 00 00 00 00 00 00 00 00 00 	0000000000000000
  0x9c60	00 00 00 00 00 00 00 00 00 00 00 00 00 00 00 00 	0000000000000000
  0x9c70	00 00 00 00 00 00 00 00 00 00 00 00 00 00 00 00 	0000000000000000
  0x9c80	00 00 00 00 00 00 00 00 00 00 00 00 00 00 00 00 	0000000000000000
  0x9c90	00 00 00 00 00 00 00 00 00 00 00 00 00 00 00 00 	0000000000000000
  0x9ca0	00 00 00 00 00 00 00 00 00 00 00 00 00 00 00 00 	0000000000000000
  0x9cb0	00 00 00 00 00 00 00 00 00 00 00 00 00 00 00 00 	0000000000000000
  0x9cc0	00 00 00 00 00 00 00 00 00 00 00 00 00 00 00 00 	0000000000000000
  0x9cd0	00 00 00 00 00 00 00 00 00 00 00 00 00 00 00 00 	0000000000000000
  0x9ce0	00 00 00 00 00 00 00 00 00 00 00 00 00 00 00 00 	0000000000000000
  0x9cf0	00 00 00 00 00 00 00 00 00 00 00 00 00 00 00 00 	0000000000000000
  0x9d00	00 00 00 00 00 00 00 00 00 00 00 00 00 00 00 00 	0000000000000000
  0x9d10	00 00 00 00 00 00 00 00 00 00 00 00 00 00 00 00 	0000000000000000
  0x9d20	00 00 00 00 00 00 00 00 00 00 00 00 00 00 00 00 	0000000000000000
  0x9d30	00 00 00 00 00 00 00 00 00 00 00 00 00 00 00 00 	0000000000000000
  0x9d40	00 00 00 00 00 00 00 00 00 00 00 00 00 00 00 00 	0000000000000000
  0x9d50	00 00 00 00 00 00 00 00 00 00 00 00 00 00 00 00 	0000000000000000
  0x9d60	00 00 00 00 00 00 00 00 00 00 00 00 00 00 00 00 	0000000000000000
  0x9d70	00 00 00 00 00 00 00 00 00 00 00 00 00 00 00 00 	0000000000000000
  0x9d80	00 00 00 00 00 00 00 00 00 00 00 00 00 00 00 00 	0000000000000000
  0x9d90	00 00 00 00 00 00 00 00 00 00 00 00 00 00 00 00 	0000000000000000
  0x9da0	00 00 00 00 00 00 00 00 00 00 00 00 00 00 00 00 	0000000000000000
  0x9db0	00 00 00 00 00 00 00 00 00 00 00 00 00 00 00 00 	0000000000000000
  0x9dc0	00 00 00 00 00 00 00 00 00 00 00 00 00 00 00 00 	0000000000000000
  0x9dd0	00 00 00 00 00 00 00 00 00 00 00 00 00 00 00 00 	0000000000000000
  0x9de0	00 00 00 00 00 00 00 00 00 00 00 00 00 00 00 00 	0000000000000000
  0x9df0	00 00 00 00 00 00 00 00 00 00 00 00 00 00 00 00 	0000000000000000
  0x9e00	00 00 00 00 00 00 00 00 00 00 00 00 00 00 00 00 	0000000000000000
  0x9e10	00 00 00 00 00 00 00 00 00 00 00 00 00 00 00 00 	0000000000000000
  0x9e20	00 00 00 00 00 00 00 00 00 00 00 00 00 00 00 00 	0000000000000000
  0x9e30	00 00 00 00 00 00 00 00 00 00 00 00 00 00 00 00 	0000000000000000
  0x9e40	00 00 00 00 00 00 00 00 00 00 00 00 00 00 00 00 	0000000000000000
  0x9e50	00 00 00 00 00 00 00 00 00 00 00 00 00 00 00 00 	0000000000000000
  0x9e60	00 00 00 00 00 00 00 00 00 00 00 00 00 00 00 00 	0000000000000000
  0x9e70	00 00 00 00 00 00 00 00 00 00 00 00 00 00 00 00 	0000000000000000
  0x9e80	00 00 00 00 00 00 00 00 00 00 00 00 00 00 00 00 	0000000000000000
  0x9e90	00 00 00 00 00 00 00 00 00 00 00 00 00 00 00 00 	0000000000000000
  0x9ea0	00 00 00 00 00 00 00 00 00 00 00 00 00 00 00 00 	0000000000000000
  0x9eb0	00 00 00 00 00 00 00 00 00 00 00 00 00 00 00 00 	0000000000000000
  0x9ec0	00 00 00 00 00 00 00 00 00 00 00 00 00 00 00 00 	0000000000000000
  0x9ed0	00 00 00 00 00 00 00 00 00 00 00 00 00 00 00 00 	0000000000000000
  0x9ee0	00 00 00 00 00 00 00 00 00 00 00 00 00 00 00 00 	0000000000000000
  0x9ef0	00 00 00 00 00 00 00 00 00 00 00 00 00 00 00 00 	0000000000000000
  0x9f00	00 00 00 00 00 00 00 00 00 00 00 00 00 00 00 00 	0000000000000000
  0x9f10	00 00 00 00 00 00 00 00 00 00 00 00 00 00 00 00 	0000000000000000
  0x9f20	00 00 00 00 00 00 00 00 00 00 00 00 00 00 00 00 	0000000000000000
  0x9f30	00 00 00 00 00 00 00 00 00 00 00 00 00 00 00 00 	0000000000000000
  0x9f40	00 00 00 00 00 00 00 00 00 00 00 00 00 00 00 00 	0000000000000000
  0x9f50	00 00 00 00 00 00 00 00 00 00 00 00 00 00 00 00 	0000000000000000
  0x9f60	00 00 00 00 00 00 00 00 00 00 00 00 00 00 00 00 	0000000000000000
  0x9f70	00 00 00 00 00 00 00 00 00 00 00 00 00 00 00 00 	0000000000000000
  0x9f80	00 00 00 00 00 00 00 00 00 00 00 00 00 00 00 00 	0000000000000000
  0x9f90	00 00 00 00 00 00 00 00 00 00 00 00 00 00 00 00 	0000000000000000
  0x9fa0	00 00 00 00 00 00 00 00 00 00 00 00 00 00 00 00 	0000000000000000
  0x9fb0	00 00 00 00 00 00 00 00 00 00 00 00 00 00 00 00 	0000000000000000
  0x9fc0	00 00 00 00 00 00 00 00 00 00 00 00 00 00 00 00 	0000000000000000
  0x9fd0	00 00 00 00 00 00 00 00 00 00 00 00 00 00 00 00 	0000000000000000
  0x9fe0	00 00 00 00 00 00 00 00 00 00 00 00 00 00 00 00 	0000000000000000
  0x9ff0	00 00 00 00 00 00 00 00 00 00 00 00 00 00 00 00 	0000000000000000
=== DATA BLOCK END ===

=== DATA BLOCK ADDRESS 0xa000 ===
  0xa000	a0 78 00 40 01 00 00 00 00 00 00 00 00 00 00 00 	0x0@000000000000
  0xa010	18 70 00 40 01 00 00 00 00 00 00 00 00 00 00 00 	0p0@000000000000
  0xa020	2e 3f 41 56 52 65 73 75 6c 74 45 78 63 65 70 74 	.?AVResultExcept
  0xa030	69 6f 6e 40 77 69 6c 40 40 00 00 00 00 00 00 00 	ion@wil@@0000000
  0xa040	18 70 00 40 01 00 00 00 00 00 00 00 00 00 00 00 	0p0@000000000000
  0xa050	2e 3f 41 56 65 78 63 65 70 74 69 6f 6e 40 73 74 	.?AVexception@st
  0xa060	64 40 40 00 00 00 00 00 18 70 00 40 01 00 00 00 	d@@000000p0@0000
  0xa070	00 00 00 00 00 00 00 00 2e 3f 41 56 74 79 70 65 	00000000.?AVtype
  0xa080	5f 69 6e 66 6f 40 40 00 00 00 00 00 00 00 00 00 	_info@@000000000
  0xa090	32 a2 df 2d 99 2b 00 00 cd 5d 20 d2 66 d4 ff ff 	200-0+000] 0f000
  0xa0a0	01 00 00 00 02 00 00 00 2f 20 00 00 00 00 00 00 	00000000/ 000000
  0xa0b0	01 00 00 00 01 00 00 00 01 00 00 00 00 00 00 00 	0000000000000000
  0xa0c0	00 00 00 00 00 00 00 00 00 00 00 00 00 00 00 00 	0000000000000000
  0xa0d0	00 00 00 00 00 00 00 00 00 00 00 00 00 00 00 00 	0000000000000000
  0xa0e0	00 00 00 00 00 00 00 00 00 00 00 00 00 00 00 00 	0000000000000000
  0xa0f0	00 00 00 00 00 00 00 00 00 00 00 00 00 00 00 00 	0000000000000000
  0xa100	00 00 00 00 00 00 00 00 00 00 00 00 00 00 00 00 	0000000000000000
  0xa110	01 01 00 00 00 00 00 00 00 00 00 00 00 00 00 00 	0000000000000000
  0xa120	00 00 00 00 00 00 00 00 00 00 00 00 00 00 00 00 	0000000000000000
  0xa130	00 00 00 00 00 00 00 00 00 00 00 00 00 00 00 00 	0000000000000000
  0xa140	00 00 00 00 00 00 00 00 00 00 00 00 00 00 00 00 	0000000000000000
  0xa150	00 00 00 00 00 00 00 00 00 00 00 00 00 00 00 00 	0000000000000000
  0xa160	00 00 00 00 00 00 00 00 00 00 00 00 00 00 00 00 	0000000000000000
  0xa170	00 00 00 00 00 00 00 00 00 00 00 00 00 00 00 00 	0000000000000000
  0xa180	00 00 00 00 00 00 00 00 00 00 00 00 00 00 00 00 	0000000000000000
  0xa190	00 00 00 00 00 00 00 00 00 00 00 00 00 00 00 00 	0000000000000000
  0xa1a0	00 00 00 00 00 00 00 00 00 00 00 00 00 00 00 00 	0000000000000000
  0xa1b0	00 00 00 00 00 00 00 00 00 00 00 00 00 00 00 00 	0000000000000000
  0xa1c0	00 00 00 00 00 00 00 00 00 00 00 00 00 00 00 00 	0000000000000000
  0xa1d0	00 00 00 00 00 00 00 00 00 00 00 00 00 00 00 00 	0000000000000000
  0xa1e0	00 00 00 00 00 00 00 00 00 00 00 00 00 00 00 00 	0000000000000000
  0xa1f0	00 00 00 00 00 00 00 00 00 00 00 00 00 00 00 00 	0000000000000000
  0xa200	00 00 00 00 00 00 00 00 00 00 00 00 00 00 00 00 	0000000000000000
  0xa210	00 00 00 00 00 00 00 00 00 00 00 00 00 00 00 00 	0000000000000000
  0xa220	00 00 00 00 00 00 00 00 00 00 00 00 00 00 00 00 	0000000000000000
  0xa230	00 00 00 00 00 00 00 00 00 00 00 00 00 00 00 00 	0000000000000000
  0xa240	00 00 00 00 00 00 00 00 00 00 00 00 00 00 00 00 	0000000000000000
  0xa250	00 00 00 00 00 00 00 00 00 00 00 00 00 00 00 00 	0000000000000000
  0xa260	00 00 00 00 00 00 00 00 00 00 00 00 00 00 00 00 	0000000000000000
  0xa270	00 00 00 00 00 00 00 00 00 00 00 00 00 00 00 00 	0000000000000000
  0xa280	00 00 00 00 00 00 00 00 00 00 00 00 00 00 00 00 	0000000000000000
  0xa290	00 00 00 00 00 00 00 00 00 00 00 00 00 00 00 00 	0000000000000000
  0xa2a0	00 00 00 00 00 00 00 00 00 00 00 00 00 00 00 00 	0000000000000000
  0xa2b0	00 00 00 00 00 00 00 00 00 00 00 00 00 00 00 00 	0000000000000000
  0xa2c0	00 00 00 00 00 00 00 00 00 00 00 00 00 00 00 00 	0000000000000000
  0xa2d0	00 00 00 00 00 00 00 00 00 00 00 00 00 00 00 00 	0000000000000000
  0xa2e0	00 00 00 00 00 00 00 00 00 00 00 00 00 00 00 00 	0000000000000000
  0xa2f0	00 00 00 00 00 00 00 00 00 00 00 00 00 00 00 00 	0000000000000000
  0xa300	00 00 00 00 00 00 00 00 00 00 00 00 00 00 00 00 	0000000000000000
  0xa310	00 00 00 00 00 00 00 00 00 00 00 00 00 00 00 00 	0000000000000000
  0xa320	00 00 00 00 00 00 00 00 00 00 00 00 00 00 00 00 	0000000000000000
  0xa330	00 00 00 00 00 00 00 00 00 00 00 00 00 00 00 00 	0000000000000000
  0xa340	00 00 00 00 00 00 00 00 00 00 00 00 00 00 00 00 	0000000000000000
  0xa350	00 00 00 00 00 00 00 00 00 00 00 00 00 00 00 00 	0000000000000000
  0xa360	00 00 00 00 00 00 00 00 00 00 00 00 00 00 00 00 	0000000000000000
  0xa370	00 00 00 00 00 00 00 00 00 00 00 00 00 00 00 00 	0000000000000000
  0xa380	00 00 00 00 00 00 00 00 00 00 00 00 00 00 00 00 	0000000000000000
  0xa390	00 00 00 00 00 00 00 00 00 00 00 00 00 00 00 00 	0000000000000000
  0xa3a0	00 00 00 00 00 00 00 00 00 00 00 00 00 00 00 00 	0000000000000000
  0xa3b0	00 00 00 00 00 00 00 00 00 00 00 00 00 00 00 00 	0000000000000000
  0xa3c0	00 00 00 00 00 00 00 00 00 00 00 00 00 00 00 00 	0000000000000000
  0xa3d0	00 00 00 00 00 00 00 00 00 00 00 00 00 00 00 00 	0000000000000000
  0xa3e0	00 00 00 00 00 00 00 00 00 00 00 00 00 00 00 00 	0000000000000000
  0xa3f0	00 00 00 00 00 00 00 00 00 00 00 00 00 00 00 00 	0000000000000000
  0xa400	00 00 00 00 00 00 00 00 00 00 00 00 00 00 00 00 	0000000000000000
  0xa410	00 00 00 00 00 00 00 00 00 00 00 00 00 00 00 00 	0000000000000000
  0xa420	00 00 00 00 00 00 00 00 00 00 00 00 00 00 00 00 	0000000000000000
  0xa430	00 00 00 00 00 00 00 00 00 00 00 00 00 00 00 00 	0000000000000000
  0xa440	00 00 00 00 00 00 00 00 00 00 00 00 00 00 00 00 	0000000000000000
  0xa450	00 00 00 00 00 00 00 00 00 00 00 00 00 00 00 00 	0000000000000000
  0xa460	00 00 00 00 00 00 00 00 00 00 00 00 00 00 00 00 	0000000000000000
  0xa470	00 00 00 00 00 00 00 00 00 00 00 00 00 00 00 00 	0000000000000000
  0xa480	00 00 00 00 00 00 00 00 00 00 00 00 00 00 00 00 	0000000000000000
  0xa490	00 00 00 00 00 00 00 00 00 00 00 00 00 00 00 00 	0000000000000000
  0xa4a0	00 00 00 00 00 00 00 00 00 00 00 00 00 00 00 00 	0000000000000000
  0xa4b0	00 00 00 00 00 00 00 00 00 00 00 00 00 00 00 00 	0000000000000000
  0xa4c0	00 00 00 00 00 00 00 00 00 00 00 00 00 00 00 00 	0000000000000000
  0xa4d0	00 00 00 00 00 00 00 00 00 00 00 00 00 00 00 00 	0000000000000000
  0xa4e0	00 00 00 00 00 00 00 00 00 00 00 00 00 00 00 00 	0000000000000000
  0xa4f0	00 00 00 00 00 00 00 00 00 00 00 00 00 00 00 00 	0000000000000000
  0xa500	00 00 00 00 00 00 00 00 00 00 00 00 00 00 00 00 	0000000000000000
  0xa510	00 00 00 00 00 00 00 00 00 00 00 00 00 00 00 00 	0000000000000000
  0xa520	00 00 00 00 00 00 00 00 00 00 00 00 00 00 00 00 	0000000000000000
  0xa530	00 00 00 00 00 00 00 00 00 00 00 00 00 00 00 00 	0000000000000000
  0xa540	00 00 00 00 00 00 00 00 00 00 00 00 00 00 00 00 	0000000000000000
  0xa550	00 00 00 00 00 00 00 00 00 00 00 00 00 00 00 00 	0000000000000000
  0xa560	00 00 00 00 00 00 00 00 00 00 00 00 00 00 00 00 	0000000000000000
  0xa570	00 00 00 00 00 00 00 00 00 00 00 00 00 00 00 00 	0000000000000000
  0xa580	00 00 00 00 00 00 00 00 00 00 00 00 00 00 00 00 	0000000000000000
  0xa590	00 00 00 00 00 00 00 00 00 00 00 00 00 00 00 00 	0000000000000000
  0xa5a0	00 00 00 00 00 00 00 00 00 00 00 00 00 00 00 00 	0000000000000000
  0xa5b0	00 00 00 00 00 00 00 00 00 00 00 00 00 00 00 00 	0000000000000000
  0xa5c0	00 00 00 00 00 00 00 00 00 00 00 00 00 00 00 00 	0000000000000000
  0xa5d0	00 00 00 00 00 00 00 00 00 00 00 00 00 00 00 00 	0000000000000000
  0xa5e0	00 00 00 00 00 00 00 00 00 00 00 00 00 00 00 00 	0000000000000000
  0xa5f0	00 00 00 00 00 00 00 00 00 00 00 00 00 00 00 00 	0000000000000000
  0xa600	00 00 00 00 00 00 00 00 00 00 00 00 00 00 00 00 	0000000000000000
  0xa610	00 00 00 00 00 00 00 00 00 00 00 00 00 00 00 00 	0000000000000000
  0xa620	00 00 00 00 00 00 00 00 00 00 00 00 00 00 00 00 	0000000000000000
  0xa630	00 00 00 00 00 00 00 00 00 00 00 00 00 00 00 00 	0000000000000000
  0xa640	00 00 00 00 00 00 00 00 00 00 00 00 00 00 00 00 	0000000000000000
  0xa650	00 00 00 00 00 00 00 00 00 00 00 00 00 00 00 00 	0000000000000000
  0xa660	00 00 00 00 00 00 00 00 00 00 00 00 00 00 00 00 	0000000000000000
  0xa670	00 00 00 00 00 00 00 00 00 00 00 00 00 00 00 00 	0000000000000000
  0xa680	00 00 00 00 00 00 00 00 00 00 00 00 00 00 00 00 	0000000000000000
  0xa690	00 00 00 00 00 00 00 00 00 00 00 00 00 00 00 00 	0000000000000000
  0xa6a0	00 00 00 00 00 00 00 00 00 00 00 00 00 00 00 00 	0000000000000000
  0xa6b0	00 00 00 00 00 00 00 00 00 00 00 00 00 00 00 00 	0000000000000000
  0xa6c0	00 00 00 00 00 00 00 00 00 00 00 00 00 00 00 00 	0000000000000000
  0xa6d0	00 00 00 00 00 00 00 00 00 00 00 00 00 00 00 00 	0000000000000000
  0xa6e0	00 00 00 00 00 00 00 00 00 00 00 00 00 00 00 00 	0000000000000000
  0xa6f0	00 00 00 00 00 00 00 00 00 00 00 00 00 00 00 00 	0000000000000000
  0xa700	00 00 00 00 00 00 00 00 00 00 00 00 00 00 00 00 	0000000000000000
  0xa710	00 00 00 00 00 00 00 00 00 00 00 00 00 00 00 00 	0000000000000000
  0xa720	00 00 00 00 00 00 00 00 00 00 00 00 00 00 00 00 	0000000000000000
  0xa730	00 00 00 00 00 00 00 00 00 00 00 00 00 00 00 00 	0000000000000000
  0xa740	00 00 00 00 00 00 00 00 00 00 00 00 00 00 00 00 	0000000000000000
  0xa750	00 00 00 00 00 00 00 00 00 00 00 00 00 00 00 00 	0000000000000000
  0xa760	00 00 00 00 00 00 00 00 00 00 00 00 00 00 00 00 	0000000000000000
  0xa770	00 00 00 00 00 00 00 00 00 00 00 00 00 00 00 00 	0000000000000000
  0xa780	00 00 00 00 00 00 00 00 00 00 00 00 00 00 00 00 	0000000000000000
  0xa790	00 00 00 00 00 00 00 00 00 00 00 00 00 00 00 00 	0000000000000000
  0xa7a0	00 00 00 00 00 00 00 00 00 00 00 00 00 00 00 00 	0000000000000000
  0xa7b0	00 00 00 00 00 00 00 00 00 00 00 00 00 00 00 00 	0000000000000000
  0xa7c0	00 00 00 00 00 00 00 00 00 00 00 00 00 00 00 00 	0000000000000000
  0xa7d0	00 00 00 00 00 00 00 00 00 00 00 00 00 00 00 00 	0000000000000000
  0xa7e0	00 00 00 00 00 00 00 00 00 00 00 00 00 00 00 00 	0000000000000000
  0xa7f0	00 00 00 00 00 00 00 00 00 00 00 00 00 00 00 00 	0000000000000000
  0xa800	00 00 00 00 00 00 00 00 00 00 00 00 00 00 00 00 	0000000000000000
  0xa810	00 00 00 00 00 00 00 00 00 00 00 00 00 00 00 00 	0000000000000000
  0xa820	00 00 00 00 00 00 00 00 00 00 00 00 00 00 00 00 	0000000000000000
  0xa830	00 00 00 00 00 00 00 00 00 00 00 00 00 00 00 00 	0000000000000000
  0xa840	00 00 00 00 00 00 00 00 00 00 00 00 00 00 00 00 	0000000000000000
  0xa850	00 00 00 00 00 00 00 00 00 00 00 00 00 00 00 00 	0000000000000000
  0xa860	00 00 00 00 00 00 00 00 00 00 00 00 00 00 00 00 	0000000000000000
  0xa870	00 00 00 00 00 00 00 00 00 00 00 00 00 00 00 00 	0000000000000000
  0xa880	00 00 00 00 00 00 00 00 00 00 00 00 00 00 00 00 	0000000000000000
  0xa890	00 00 00 00 00 00 00 00 00 00 00 00 00 00 00 00 	0000000000000000
  0xa8a0	00 00 00 00 00 00 00 00 00 00 00 00 00 00 00 00 	0000000000000000
  0xa8b0	00 00 00 00 00 00 00 00 00 00 00 00 00 00 00 00 	0000000000000000
  0xa8c0	00 00 00 00 00 00 00 00 00 00 00 00 00 00 00 00 	0000000000000000
  0xa8d0	00 00 00 00 00 00 00 00 00 00 00 00 00 00 00 00 	0000000000000000
  0xa8e0	00 00 00 00 00 00 00 00 00 00 00 00 00 00 00 00 	0000000000000000
  0xa8f0	00 00 00 00 00 00 00 00 00 00 00 00 00 00 00 00 	0000000000000000
  0xa900	00 00 00 00 00 00 00 00 00 00 00 00 00 00 00 00 	0000000000000000
  0xa910	00 00 00 00 00 00 00 00 00 00 00 00 00 00 00 00 	0000000000000000
  0xa920	00 00 00 00 00 00 00 00 00 00 00 00 00 00 00 00 	0000000000000000
  0xa930	00 00 00 00 00 00 00 00 00 00 00 00 00 00 00 00 	0000000000000000
  0xa940	00 00 00 00 00 00 00 00 00 00 00 00 00 00 00 00 	0000000000000000
  0xa950	00 00 00 00 00 00 00 00 00 00 00 00 00 00 00 00 	0000000000000000
  0xa960	00 00 00 00 00 00 00 00 00 00 00 00 00 00 00 00 	0000000000000000
  0xa970	00 00 00 00 00 00 00 00 00 00 00 00 00 00 00 00 	0000000000000000
  0xa980	00 00 00 00 00 00 00 00 00 00 00 00 00 00 00 00 	0000000000000000
  0xa990	00 00 00 00 00 00 00 00 00 00 00 00 00 00 00 00 	0000000000000000
  0xa9a0	00 00 00 00 00 00 00 00 00 00 00 00 00 00 00 00 	0000000000000000
  0xa9b0	00 00 00 00 00 00 00 00 00 00 00 00 00 00 00 00 	0000000000000000
  0xa9c0	00 00 00 00 00 00 00 00 00 00 00 00 00 00 00 00 	0000000000000000
  0xa9d0	00 00 00 00 00 00 00 00 00 00 00 00 00 00 00 00 	0000000000000000
  0xa9e0	00 00 00 00 00 00 00 00 00 00 00 00 00 00 00 00 	0000000000000000
  0xa9f0	00 00 00 00 00 00 00 00 00 00 00 00 00 00 00 00 	0000000000000000
  0xaa00	00 00 00 00 00 00 00 00 00 00 00 00 00 00 00 00 	0000000000000000
  0xaa10	00 00 00 00 00 00 00 00 00 00 00 00 00 00 00 00 	0000000000000000
  0xaa20	00 00 00 00 00 00 00 00 00 00 00 00 00 00 00 00 	0000000000000000
  0xaa30	00 00 00 00 00 00 00 00 00 00 00 00 00 00 00 00 	0000000000000000
  0xaa40	00 00 00 00 00 00 00 00 00 00 00 00 00 00 00 00 	0000000000000000
  0xaa50	00 00 00 00 00 00 00 00 00 00 00 00 00 00 00 00 	0000000000000000
  0xaa60	00 00 00 00 00 00 00 00 00 00 00 00 00 00 00 00 	0000000000000000
  0xaa70	00 00 00 00 00 00 00 00 00 00 00 00 00 00 00 00 	0000000000000000
  0xaa80	00 00 00 00 00 00 00 00 00 00 00 00 00 00 00 00 	0000000000000000
  0xaa90	00 00 00 00 00 00 00 00 00 00 00 00 00 00 00 00 	0000000000000000
  0xaaa0	00 00 00 00 00 00 00 00 00 00 00 00 00 00 00 00 	0000000000000000
  0xaab0	00 00 00 00 00 00 00 00 00 00 00 00 00 00 00 00 	0000000000000000
  0xaac0	00 00 00 00 00 00 00 00 00 00 00 00 00 00 00 00 	0000000000000000
  0xaad0	00 00 00 00 00 00 00 00 00 00 00 00 00 00 00 00 	0000000000000000
  0xaae0	00 00 00 00 00 00 00 00 00 00 00 00 00 00 00 00 	0000000000000000
  0xaaf0	00 00 00 00 00 00 00 00 00 00 00 00 00 00 00 00 	0000000000000000
  0xab00	00 00 00 00 00 00 00 00 00 00 00 00 00 00 00 00 	0000000000000000
  0xab10	00 00 00 00 00 00 00 00 00 00 00 00 00 00 00 00 	0000000000000000
  0xab20	00 00 00 00 00 00 00 00 00 00 00 00 00 00 00 00 	0000000000000000
  0xab30	00 00 00 00 00 00 00 00 00 00 00 00 00 00 00 00 	0000000000000000
  0xab40	00 00 00 00 00 00 00 00 00 00 00 00 00 00 00 00 	0000000000000000
  0xab50	00 00 00 00 00 00 00 00 00 00 00 00 00 00 00 00 	0000000000000000
  0xab60	00 00 00 00 00 00 00 00 00 00 00 00 00 00 00 00 	0000000000000000
  0xab70	00 00 00 00 00 00 00 00 00 00 00 00 00 00 00 00 	0000000000000000
  0xab80	00 00 00 00 00 00 00 00 00 00 00 00 00 00 00 00 	0000000000000000
  0xab90	00 00 00 00 00 00 00 00 00 00 00 00 00 00 00 00 	0000000000000000
  0xaba0	00 00 00 00 00 00 00 00 00 00 00 00 00 00 00 00 	0000000000000000
  0xabb0	00 00 00 00 00 00 00 00 00 00 00 00 00 00 00 00 	0000000000000000
  0xabc0	00 00 00 00 00 00 00 00 00 00 00 00 00 00 00 00 	0000000000000000
  0xabd0	00 00 00 00 00 00 00 00 00 00 00 00 00 00 00 00 	0000000000000000
  0xabe0	00 00 00 00 00 00 00 00 00 00 00 00 00 00 00 00 	0000000000000000
  0xabf0	00 00 00 00 00 00 00 00 00 00 00 00 00 00 00 00 	0000000000000000
  0xac00	00 00 00 00 00 00 00 00 00 00 00 00 00 00 00 00 	0000000000000000
  0xac10	00 00 00 00 00 00 00 00 00 00 00 00 00 00 00 00 	0000000000000000
  0xac20	00 00 00 00 00 00 00 00 00 00 00 00 00 00 00 00 	0000000000000000
  0xac30	00 00 00 00 00 00 00 00 00 00 00 00 00 00 00 00 	0000000000000000
  0xac40	00 00 00 00 00 00 00 00 00 00 00 00 00 00 00 00 	0000000000000000
  0xac50	00 00 00 00 00 00 00 00 00 00 00 00 00 00 00 00 	0000000000000000
  0xac60	00 00 00 00 00 00 00 00 00 00 00 00 00 00 00 00 	0000000000000000
  0xac70	00 00 00 00 00 00 00 00 00 00 00 00 00 00 00 00 	0000000000000000
  0xac80	00 00 00 00 00 00 00 00 00 00 00 00 00 00 00 00 	0000000000000000
  0xac90	00 00 00 00 00 00 00 00 00 00 00 00 00 00 00 00 	0000000000000000
  0xaca0	00 00 00 00 00 00 00 00 00 00 00 00 00 00 00 00 	0000000000000000
  0xacb0	00 00 00 00 00 00 00 00 00 00 00 00 00 00 00 00 	0000000000000000
  0xacc0	00 00 00 00 00 00 00 00 00 00 00 00 00 00 00 00 	0000000000000000
  0xacd0	00 00 00 00 00 00 00 00 00 00 00 00 00 00 00 00 	0000000000000000
  0xace0	00 00 00 00 00 00 00 00 00 00 00 00 00 00 00 00 	0000000000000000
  0xacf0	00 00 00 00 00 00 00 00 00 00 00 00 00 00 00 00 	0000000000000000
  0xad00	00 00 00 00 00 00 00 00 00 00 00 00 00 00 00 00 	0000000000000000
  0xad10	00 00 00 00 00 00 00 00 00 00 00 00 00 00 00 00 	0000000000000000
  0xad20	00 00 00 00 00 00 00 00 00 00 00 00 00 00 00 00 	0000000000000000
  0xad30	00 00 00 00 00 00 00 00 00 00 00 00 00 00 00 00 	0000000000000000
  0xad40	00 00 00 00 00 00 00 00 00 00 00 00 00 00 00 00 	0000000000000000
  0xad50	00 00 00 00 00 00 00 00 00 00 00 00 00 00 00 00 	0000000000000000
  0xad60	00 00 00 00 00 00 00 00 00 00 00 00 00 00 00 00 	0000000000000000
  0xad70	00 00 00 00 00 00 00 00 00 00 00 00 00 00 00 00 	0000000000000000
  0xad80	00 00 00 00 00 00 00 00 00 00 00 00 00 00 00 00 	0000000000000000
  0xad90	00 00 00 00 00 00 00 00 00 00 00 00 00 00 00 00 	0000000000000000
  0xada0	00 00 00 00 00 00 00 00 00 00 00 00 00 00 00 00 	0000000000000000
  0xadb0	00 00 00 00 00 00 00 00 00 00 00 00 00 00 00 00 	0000000000000000
  0xadc0	00 00 00 00 00 00 00 00 00 00 00 00 00 00 00 00 	0000000000000000
  0xadd0	00 00 00 00 00 00 00 00 00 00 00 00 00 00 00 00 	0000000000000000
  0xade0	00 00 00 00 00 00 00 00 00 00 00 00 00 00 00 00 	0000000000000000
  0xadf0	00 00 00 00 00 00 00 00 00 00 00 00 00 00 00 00 	0000000000000000
  0xae00	00 00 00 00 00 00 00 00 00 00 00 00 00 00 00 00 	0000000000000000
  0xae10	00 00 00 00 00 00 00 00 00 00 00 00 00 00 00 00 	0000000000000000
  0xae20	00 00 00 00 00 00 00 00 00 00 00 00 00 00 00 00 	0000000000000000
  0xae30	00 00 00 00 00 00 00 00 00 00 00 00 00 00 00 00 	0000000000000000
  0xae40	00 00 00 00 00 00 00 00 00 00 00 00 00 00 00 00 	0000000000000000
  0xae50	00 00 00 00 00 00 00 00 00 00 00 00 00 00 00 00 	0000000000000000
  0xae60	00 00 00 00 00 00 00 00 00 00 00 00 00 00 00 00 	0000000000000000
  0xae70	00 00 00 00 00 00 00 00 00 00 00 00 00 00 00 00 	0000000000000000
  0xae80	00 00 00 00 00 00 00 00 00 00 00 00 00 00 00 00 	0000000000000000
  0xae90	00 00 00 00 00 00 00 00 00 00 00 00 00 00 00 00 	0000000000000000
  0xaea0	00 00 00 00 00 00 00 00 00 00 00 00 00 00 00 00 	0000000000000000
  0xaeb0	00 00 00 00 00 00 00 00 00 00 00 00 00 00 00 00 	0000000000000000
  0xaec0	00 00 00 00 00 00 00 00 00 00 00 00 00 00 00 00 	0000000000000000
  0xaed0	00 00 00 00 00 00 00 00 00 00 00 00 00 00 00 00 	0000000000000000
  0xaee0	00 00 00 00 00 00 00 00 00 00 00 00 00 00 00 00 	0000000000000000
  0xaef0	00 00 00 00 00 00 00 00 00 00 00 00 00 00 00 00 	0000000000000000
  0xaf00	00 00 00 00 00 00 00 00 00 00 00 00 00 00 00 00 	0000000000000000
  0xaf10	00 00 00 00 00 00 00 00 00 00 00 00 00 00 00 00 	0000000000000000
  0xaf20	00 00 00 00 00 00 00 00 00 00 00 00 00 00 00 00 	0000000000000000
  0xaf30	00 00 00 00 00 00 00 00 00 00 00 00 00 00 00 00 	0000000000000000
  0xaf40	00 00 00 00 00 00 00 00 00 00 00 00 00 00 00 00 	0000000000000000
  0xaf50	00 00 00 00 00 00 00 00 00 00 00 00 00 00 00 00 	0000000000000000
  0xaf60	00 00 00 00 00 00 00 00 00 00 00 00 00 00 00 00 	0000000000000000
  0xaf70	00 00 00 00 00 00 00 00 00 00 00 00 00 00 00 00 	0000000000000000
  0xaf80	00 00 00 00 00 00 00 00 00 00 00 00 00 00 00 00 	0000000000000000
  0xaf90	00 00 00 00 00 00 00 00 00 00 00 00 00 00 00 00 	0000000000000000
  0xafa0	00 00 00 00 00 00 00 00 00 00 00 00 00 00 00 00 	0000000000000000
  0xafb0	00 00 00 00 00 00 00 00 00 00 00 00 00 00 00 00 	0000000000000000
  0xafc0	00 00 00 00 00 00 00 00 00 00 00 00 00 00 00 00 	0000000000000000
  0xafd0	00 00 00 00 00 00 00 00 00 00 00 00 00 00 00 00 	0000000000000000
  0xafe0	00 00 00 00 00 00 00 00 00 00 00 00 00 00 00 00 	0000000000000000
  0xaff0	00 00 00 00 00 00 00 00 00 00 00 00 00 00 00 00 	0000000000000000
=== DATA BLOCK END ===

=== DATA BLOCK ADDRESS 0xb000 ===
  0xb000	30 11 00 00 4d 11 00 00 28 85 00 00 70 11 00 00 	0000M000(000p000
  0xb010	8d 11 00 00 28 85 00 00 a0 11 00 00 41 12 00 00 	0000(0000000A000
  0xb020	20 85 00 00 50 12 00 00 60 12 00 00 28 85 00 00 	 000P000`000(000
  0xb030	70 12 00 00 89 12 00 00 28 85 00 00 8c 12 00 00 	p0000000(0000000
  0xb040	12 14 00 00 f0 82 00 00 20 14 00 00 32 14 00 00 	00000000 0002000
  0xb050	28 85 00 00 50 14 00 00 6e 14 00 00 30 83 00 00 	(000P000n0000000
  0xb060	70 14 00 00 a4 14 00 00 20 85 00 00 b0 14 00 00 	p0000000 0000000
  0xb070	82 15 00 00 34 83 00 00 84 15 00 00 f5 15 00 00 	0000400000000000
  0xb080	3c 83 00 00 f8 15 00 00 31 16 00 00 28 85 00 00 	<00000001000(000
  0xb090	34 16 00 00 7d 16 00 00 20 85 00 00 80 16 00 00 	4000}000 0000000
  0xb0a0	0b 17 00 00 20 85 00 00 0c 17 00 00 a4 17 00 00 	0000 00000000000
  0xb0b0	48 83 00 00 a4 17 00 00 c8 17 00 00 20 85 00 00 	H00000000000 000
  0xb0c0	c8 17 00 00 f1 17 00 00 20 85 00 00 f4 17 00 00 	00000000 0000000
  0xb0d0	2e 18 00 00 20 85 00 00 30 18 00 00 47 18 00 00 	.000 0000000G000
  0xb0e0	28 85 00 00 60 18 00 00 86 18 00 00 20 85 00 00 	(000`0000000 000
  0xb0f0	88 18 00 00 34 19 00 00 70 83 00 00 60 19 00 00 	00004000p000`000
  0xb100	7b 19 00 00 28 85 00 00 94 19 00 00 df 1a 00 00 	{000(00000000000
  0xb110	7c 83 00 00 e8 1a 00 00 39 1b 00 00 28 85 00 00 	|00000009000(000
  0xb120	60 1b 00 00 bb 1b 00 00 08 88 00 00 bc 1b 00 00 	`000000000000000
  0xb130	02 1c 00 00 08 88 00 00 10 1c 00 00 56 1c 00 00 	000000000000V000
  0xb140	08 88 00 00 64 1c 00 00 05 1e 00 00 8c 83 00 00 	0000d00000000000
  0xb150	ec 1e 00 00 4e 1f 00 00 ac 83 00 00 50 1f 00 00 	0000N0000000P000
  0xb160	a2 1f 00 00 c0 83 00 00 a4 1f 00 00 0c 20 00 00 	0000000000000 00
  0xb170	d0 83 00 00 18 20 00 00 52 20 00 00 e0 84 00 00 	00000 00R 000000
  0xb180	54 20 00 00 78 20 00 00 c8 87 00 00 78 20 00 00 	T 00x 000000x 00
  0xb190	e8 20 00 00 b8 87 00 00 e8 20 00 00 c7 21 00 00 	0 0000000 000!00
  0xb1a0	6c 84 00 00 c8 21 00 00 2c 22 00 00 64 84 00 00 	l0000!00,"00d000
  0xb1b0	2c 22 00 00 97 22 00 00 64 84 00 00 98 22 00 00 	,"000"00d0000"00
  0xb1c0	e4 22 00 00 64 84 00 00 e4 22 00 00 5c 23 00 00 	0"00d0000"000#00
  0xb1d0	64 84 00 00 5c 23 00 00 5b 24 00 00 e4 83 00 00 	d0000#00[$000000
  0xb1e0	5c 24 00 00 29 27 00 00 a0 84 00 00 2c 27 00 00 	0$00)'000000,'00
  0xb1f0	2f 2a 00 00 04 84 00 00 30 2a 00 00 03 2b 00 00 	/*0000000*000+00
  0xb200	50 84 00 00 04 2b 00 00 84 2b 00 00 e8 84 00 00 	P0000+000+000000
  0xb210	84 2b 00 00 d0 2b 00 00 20 85 00 00 d0 2b 00 00 	0+000+00 0000+00
  0xb220	dd 2c 00 00 08 88 00 00 e0 2c 00 00 12 2d 00 00 	0,0000000,000-00
  0xb230	20 85 00 00 14 2d 00 00 95 2d 00 00 20 85 00 00 	 0000-000-00 000
  0xb240	98 2d 00 00 fe 2d 00 00 e8 84 00 00 00 2e 00 00 	0-000-0000000.00
  0xb250	6f 2e 00 00 e8 84 00 00 70 2e 00 00 9b 2e 00 00 	o.000000p.000.00
  0xb260	28 85 00 00 9c 2e 00 00 b3 2e 00 00 28 85 00 00 	(0000.000.00(000
  0xb270	b4 2e 00 00 cb 2e 00 00 28 85 00 00 cc 2e 00 00 	0.000.00(0000.00
  0xb280	f7 2e 00 00 28 85 00 00 f8 2e 00 00 a8 2f 00 00 	0.00(0000.000/00
  0xb290	08 88 00 00 a8 2f 00 00 49 30 00 00 7c 86 00 00 	00000/00I000|000
  0xb2a0	60 30 00 00 94 30 00 00 08 88 00 00 a0 30 00 00 	`000000000000000
  0xb2b0	e2 30 00 00 08 88 00 00 e4 30 00 00 94 33 00 00 	0000000000000300
  0xb2c0	44 85 00 00 a8 33 00 00 c5 33 00 00 40 87 00 00 	D00003000300@000
  0xb2d0	d0 33 00 00 3d 34 00 00 f8 86 00 00 40 34 00 00 	0300=4000000@400
  0xb2e0	61 34 00 00 28 85 00 00 70 34 00 00 e0 35 00 00 	a400(000p4000500
  0xb2f0	00 86 00 00 f0 35 00 00 2c 36 00 00 28 85 00 00 	00000500,600(000
  0xb300	2c 36 00 00 f2 38 00 00 bc 88 00 00 f4 38 00 00 	,600080000000800
  0xb310	5f 39 00 00 70 88 00 00 60 39 00 00 b7 39 00 00 	_900p000`9000900
  0xb320	58 88 00 00 b8 39 00 00 e6 3a 00 00 a0 88 00 00 	X00009000:000000
  0xb330	e8 3a 00 00 d9 3b 00 00 e8 84 00 00 dc 3b 00 00 	0:000;0000000;00
  0xb340	a3 3c 00 00 40 86 00 00 a4 3c 00 00 ef 3d 00 00 	0<00@0000<000=00
  0xb350	d0 86 00 00 bc 3f 00 00 16 43 00 00 dc 87 00 00 	00000?000C000000
  0xb360	18 43 00 00 8e 43 00 00 e8 88 00 00 90 43 00 00 	0C000C0000000C00
  0xb370	54 46 00 00 fc 84 00 00 60 46 00 00 52 47 00 00 	TF000000`F00RG00
  0xb380	dc 86 00 00 bc 47 00 00 57 49 00 00 30 85 00 00 	00000G00WI000000
  0xb390	60 49 00 00 6e 49 00 00 28 85 00 00 70 49 00 00 	`I00nI00(000pI00
  0xb3a0	92 49 00 00 88 87 00 00 94 49 00 00 bb 49 00 00 	0I0000000I000I00
  0xb3b0	a0 87 00 00 bc 49 00 00 f3 49 00 00 70 87 00 00 	00000I000I00p000
  0xb3c0	00 4a 00 00 93 4a 00 00 08 87 00 00 a0 4a 00 00 	0J000J0000000J00
  0xb3d0	13 4b 00 00 28 87 00 00 14 4b 00 00 5a 4d 00 00 	0K00(0000K00ZM00
  0xb3e0	94 86 00 00 5c 4d 00 00 76 52 00 00 30 88 00 00 	00000M00vR000000
  0xb3f0	78 52 00 00 ba 53 00 00 60 86 00 00 bc 53 00 00 	xR000S00`0000S00
  0xb400	5b 54 00 00 08 89 00 00 5c 54 00 00 ca 54 00 00 	[T0000000T000T00
  0xb410	4c 88 00 00 cc 54 00 00 37 55 00 00 f8 88 00 00 	L0000T007U000000
  0xb420	40 55 00 00 66 55 00 00 14 88 00 00 68 55 00 00 	@U00fU000000hU00
  0xb430	0f 58 00 00 ac 86 00 00 20 58 00 00 83 58 00 00 	0X000000 X000X00
  0xb440	90 88 00 00 84 58 00 00 41 59 00 00 d0 87 00 00 	00000X00AY000000
  0xb450	44 59 00 00 72 59 00 00 28 85 00 00 7c 59 00 00 	DY00rY00(000|Y00
  0xb460	99 59 00 00 58 87 00 00 9c 59 00 00 32 5a 00 00 	0Y00X0000Y002Z00
  0xb470	88 85 00 00 34 5a 00 00 23 5b 00 00 7c 86 00 00 	00004Z00#[00|000
  0xb480	30 5b 00 00 de 5b 00 00 1c 88 00 00 04 5c 00 00 	0[000[0000000000
  0xb490	8d 5c 00 00 90 88 00 00 90 5c 00 00 04 60 00 00 	0000000000000`00
  0xb4a0	a0 85 00 00 04 60 00 00 21 60 00 00 28 85 00 00 	00000`00!`00(000
  0xb4b0	24 60 00 00 7f 60 00 00 10 89 00 00 80 60 00 00 	$`000`0000000`00
  0xb4c0	ff 60 00 00 7c 86 00 00 10 61 00 00 5e 61 00 00 	0`00|0000a00^a00
  0xb4d0	18 89 00 00 80 61 00 00 82 61 00 00 a0 83 00 00 	00000a000a000000
  0xb4e0	a0 61 00 00 a6 61 00 00 a8 83 00 00 a6 61 00 00 	0a000a0000000a00
  0xb4f0	c4 61 00 00 28 83 00 00 c4 61 00 00 dc 61 00 00 	0a00(0000a000a00
  0xb500	68 83 00 00 20 62 00 00 44 62 00 00 e8 85 00 00 	h000 b00Db000000
  0xb510	00 00 00 00 00 00 00 00 00 00 00 00 00 00 00 00 	0000000000000000
  0xb520	00 00 00 00 00 00 00 00 00 00 00 00 00 00 00 00 	0000000000000000
  0xb530	00 00 00 00 00 00 00 00 00 00 00 00 00 00 00 00 	0000000000000000
  0xb540	00 00 00 00 00 00 00 00 00 00 00 00 00 00 00 00 	0000000000000000
  0xb550	00 00 00 00 00 00 00 00 00 00 00 00 00 00 00 00 	0000000000000000
  0xb560	00 00 00 00 00 00 00 00 00 00 00 00 00 00 00 00 	0000000000000000
  0xb570	00 00 00 00 00 00 00 00 00 00 00 00 00 00 00 00 	0000000000000000
  0xb580	00 00 00 00 00 00 00 00 00 00 00 00 00 00 00 00 	0000000000000000
  0xb590	00 00 00 00 00 00 00 00 00 00 00 00 00 00 00 00 	0000000000000000
  0xb5a0	00 00 00 00 00 00 00 00 00 00 00 00 00 00 00 00 	0000000000000000
  0xb5b0	00 00 00 00 00 00 00 00 00 00 00 00 00 00 00 00 	0000000000000000
  0xb5c0	00 00 00 00 00 00 00 00 00 00 00 00 00 00 00 00 	0000000000000000
  0xb5d0	00 00 00 00 00 00 00 00 00 00 00 00 00 00 00 00 	0000000000000000
  0xb5e0	00 00 00 00 00 00 00 00 00 00 00 00 00 00 00 00 	0000000000000000
  0xb5f0	00 00 00 00 00 00 00 00 00 00 00 00 00 00 00 00 	0000000000000000
  0xb600	00 00 00 00 00 00 00 00 00 00 00 00 00 00 00 00 	0000000000000000
  0xb610	00 00 00 00 00 00 00 00 00 00 00 00 00 00 00 00 	0000000000000000
  0xb620	00 00 00 00 00 00 00 00 00 00 00 00 00 00 00 00 	0000000000000000
  0xb630	00 00 00 00 00 00 00 00 00 00 00 00 00 00 00 00 	0000000000000000
  0xb640	00 00 00 00 00 00 00 00 00 00 00 00 00 00 00 00 	0000000000000000
  0xb650	00 00 00 00 00 00 00 00 00 00 00 00 00 00 00 00 	0000000000000000
  0xb660	00 00 00 00 00 00 00 00 00 00 00 00 00 00 00 00 	0000000000000000
  0xb670	00 00 00 00 00 00 00 00 00 00 00 00 00 00 00 00 	0000000000000000
  0xb680	00 00 00 00 00 00 00 00 00 00 00 00 00 00 00 00 	0000000000000000
  0xb690	00 00 00 00 00 00 00 00 00 00 00 00 00 00 00 00 	0000000000000000
  0xb6a0	00 00 00 00 00 00 00 00 00 00 00 00 00 00 00 00 	0000000000000000
  0xb6b0	00 00 00 00 00 00 00 00 00 00 00 00 00 00 00 00 	0000000000000000
  0xb6c0	00 00 00 00 00 00 00 00 00 00 00 00 00 00 00 00 	0000000000000000
  0xb6d0	00 00 00 00 00 00 00 00 00 00 00 00 00 00 00 00 	0000000000000000
  0xb6e0	00 00 00 00 00 00 00 00 00 00 00 00 00 00 00 00 	0000000000000000
  0xb6f0	00 00 00 00 00 00 00 00 00 00 00 00 00 00 00 00 	0000000000000000
  0xb700	00 00 00 00 00 00 00 00 00 00 00 00 00 00 00 00 	0000000000000000
  0xb710	00 00 00 00 00 00 00 00 00 00 00 00 00 00 00 00 	0000000000000000
  0xb720	00 00 00 00 00 00 00 00 00 00 00 00 00 00 00 00 	0000000000000000
  0xb730	00 00 00 00 00 00 00 00 00 00 00 00 00 00 00 00 	0000000000000000
  0xb740	00 00 00 00 00 00 00 00 00 00 00 00 00 00 00 00 	0000000000000000
  0xb750	00 00 00 00 00 00 00 00 00 00 00 00 00 00 00 00 	0000000000000000
  0xb760	00 00 00 00 00 00 00 00 00 00 00 00 00 00 00 00 	0000000000000000
  0xb770	00 00 00 00 00 00 00 00 00 00 00 00 00 00 00 00 	0000000000000000
  0xb780	00 00 00 00 00 00 00 00 00 00 00 00 00 00 00 00 	0000000000000000
  0xb790	00 00 00 00 00 00 00 00 00 00 00 00 00 00 00 00 	0000000000000000
  0xb7a0	00 00 00 00 00 00 00 00 00 00 00 00 00 00 00 00 	0000000000000000
  0xb7b0	00 00 00 00 00 00 00 00 00 00 00 00 00 00 00 00 	0000000000000000
  0xb7c0	00 00 00 00 00 00 00 00 00 00 00 00 00 00 00 00 	0000000000000000
  0xb7d0	00 00 00 00 00 00 00 00 00 00 00 00 00 00 00 00 	0000000000000000
  0xb7e0	00 00 00 00 00 00 00 00 00 00 00 00 00 00 00 00 	0000000000000000
  0xb7f0	00 00 00 00 00 00 00 00 00 00 00 00 00 00 00 00 	0000000000000000
  0xb800	00 00 00 00 00 00 00 00 00 00 00 00 00 00 00 00 	0000000000000000
  0xb810	00 00 00 00 00 00 00 00 00 00 00 00 00 00 00 00 	0000000000000000
  0xb820	00 00 00 00 00 00 00 00 00 00 00 00 00 00 00 00 	0000000000000000
  0xb830	00 00 00 00 00 00 00 00 00 00 00 00 00 00 00 00 	0000000000000000
  0xb840	00 00 00 00 00 00 00 00 00 00 00 00 00 00 00 00 	0000000000000000
  0xb850	00 00 00 00 00 00 00 00 00 00 00 00 00 00 00 00 	0000000000000000
  0xb860	00 00 00 00 00 00 00 00 00 00 00 00 00 00 00 00 	0000000000000000
  0xb870	00 00 00 00 00 00 00 00 00 00 00 00 00 00 00 00 	0000000000000000
  0xb880	00 00 00 00 00 00 00 00 00 00 00 00 00 00 00 00 	0000000000000000
  0xb890	00 00 00 00 00 00 00 00 00 00 00 00 00 00 00 00 	0000000000000000
  0xb8a0	00 00 00 00 00 00 00 00 00 00 00 00 00 00 00 00 	0000000000000000
  0xb8b0	00 00 00 00 00 00 00 00 00 00 00 00 00 00 00 00 	0000000000000000
  0xb8c0	00 00 00 00 00 00 00 00 00 00 00 00 00 00 00 00 	0000000000000000
  0xb8d0	00 00 00 00 00 00 00 00 00 00 00 00 00 00 00 00 	0000000000000000
  0xb8e0	00 00 00 00 00 00 00 00 00 00 00 00 00 00 00 00 	0000000000000000
  0xb8f0	00 00 00 00 00 00 00 00 00 00 00 00 00 00 00 00 	0000000000000000
  0xb900	00 00 00 00 00 00 00 00 00 00 00 00 00 00 00 00 	0000000000000000
  0xb910	00 00 00 00 00 00 00 00 00 00 00 00 00 00 00 00 	0000000000000000
  0xb920	00 00 00 00 00 00 00 00 00 00 00 00 00 00 00 00 	0000000000000000
  0xb930	00 00 00 00 00 00 00 00 00 00 00 00 00 00 00 00 	0000000000000000
  0xb940	00 00 00 00 00 00 00 00 00 00 00 00 00 00 00 00 	0000000000000000
  0xb950	00 00 00 00 00 00 00 00 00 00 00 00 00 00 00 00 	0000000000000000
  0xb960	00 00 00 00 00 00 00 00 00 00 00 00 00 00 00 00 	0000000000000000
  0xb970	00 00 00 00 00 00 00 00 00 00 00 00 00 00 00 00 	0000000000000000
  0xb980	00 00 00 00 00 00 00 00 00 00 00 00 00 00 00 00 	0000000000000000
  0xb990	00 00 00 00 00 00 00 00 00 00 00 00 00 00 00 00 	0000000000000000
  0xb9a0	00 00 00 00 00 00 00 00 00 00 00 00 00 00 00 00 	0000000000000000
  0xb9b0	00 00 00 00 00 00 00 00 00 00 00 00 00 00 00 00 	0000000000000000
  0xb9c0	00 00 00 00 00 00 00 00 00 00 00 00 00 00 00 00 	0000000000000000
  0xb9d0	00 00 00 00 00 00 00 00 00 00 00 00 00 00 00 00 	0000000000000000
  0xb9e0	00 00 00 00 00 00 00 00 00 00 00 00 00 00 00 00 	0000000000000000
  0xb9f0	00 00 00 00 00 00 00 00 00 00 00 00 00 00 00 00 	0000000000000000
  0xba00	00 00 00 00 00 00 00 00 00 00 00 00 00 00 00 00 	0000000000000000
  0xba10	00 00 00 00 00 00 00 00 00 00 00 00 00 00 00 00 	0000000000000000
  0xba20	00 00 00 00 00 00 00 00 00 00 00 00 00 00 00 00 	0000000000000000
  0xba30	00 00 00 00 00 00 00 00 00 00 00 00 00 00 00 00 	0000000000000000
  0xba40	00 00 00 00 00 00 00 00 00 00 00 00 00 00 00 00 	0000000000000000
  0xba50	00 00 00 00 00 00 00 00 00 00 00 00 00 00 00 00 	0000000000000000
  0xba60	00 00 00 00 00 00 00 00 00 00 00 00 00 00 00 00 	0000000000000000
  0xba70	00 00 00 00 00 00 00 00 00 00 00 00 00 00 00 00 	0000000000000000
  0xba80	00 00 00 00 00 00 00 00 00 00 00 00 00 00 00 00 	0000000000000000
  0xba90	00 00 00 00 00 00 00 00 00 00 00 00 00 00 00 00 	0000000000000000
  0xbaa0	00 00 00 00 00 00 00 00 00 00 00 00 00 00 00 00 	0000000000000000
  0xbab0	00 00 00 00 00 00 00 00 00 00 00 00 00 00 00 00 	0000000000000000
  0xbac0	00 00 00 00 00 00 00 00 00 00 00 00 00 00 00 00 	0000000000000000
  0xbad0	00 00 00 00 00 00 00 00 00 00 00 00 00 00 00 00 	0000000000000000
  0xbae0	00 00 00 00 00 00 00 00 00 00 00 00 00 00 00 00 	0000000000000000
  0xbaf0	00 00 00 00 00 00 00 00 00 00 00 00 00 00 00 00 	0000000000000000
  0xbb00	00 00 00 00 00 00 00 00 00 00 00 00 00 00 00 00 	0000000000000000
  0xbb10	00 00 00 00 00 00 00 00 00 00 00 00 00 00 00 00 	0000000000000000
  0xbb20	00 00 00 00 00 00 00 00 00 00 00 00 00 00 00 00 	0000000000000000
  0xbb30	00 00 00 00 00 00 00 00 00 00 00 00 00 00 00 00 	0000000000000000
  0xbb40	00 00 00 00 00 00 00 00 00 00 00 00 00 00 00 00 	0000000000000000
  0xbb50	00 00 00 00 00 00 00 00 00 00 00 00 00 00 00 00 	0000000000000000
  0xbb60	00 00 00 00 00 00 00 00 00 00 00 00 00 00 00 00 	0000000000000000
  0xbb70	00 00 00 00 00 00 00 00 00 00 00 00 00 00 00 00 	0000000000000000
  0xbb80	00 00 00 00 00 00 00 00 00 00 00 00 00 00 00 00 	0000000000000000
  0xbb90	00 00 00 00 00 00 00 00 00 00 00 00 00 00 00 00 	0000000000000000
  0xbba0	00 00 00 00 00 00 00 00 00 00 00 00 00 00 00 00 	0000000000000000
  0xbbb0	00 00 00 00 00 00 00 00 00 00 00 00 00 00 00 00 	0000000000000000
  0xbbc0	00 00 00 00 00 00 00 00 00 00 00 00 00 00 00 00 	0000000000000000
  0xbbd0	00 00 00 00 00 00 00 00 00 00 00 00 00 00 00 00 	0000000000000000
  0xbbe0	00 00 00 00 00 00 00 00 00 00 00 00 00 00 00 00 	0000000000000000
  0xbbf0	00 00 00 00 00 00 00 00 00 00 00 00 00 00 00 00 	0000000000000000
  0xbc00	00 00 00 00 00 00 00 00 00 00 00 00 00 00 00 00 	0000000000000000
  0xbc10	00 00 00 00 00 00 00 00 00 00 00 00 00 00 00 00 	0000000000000000
  0xbc20	00 00 00 00 00 00 00 00 00 00 00 00 00 00 00 00 	0000000000000000
  0xbc30	00 00 00 00 00 00 00 00 00 00 00 00 00 00 00 00 	0000000000000000
  0xbc40	00 00 00 00 00 00 00 00 00 00 00 00 00 00 00 00 	0000000000000000
  0xbc50	00 00 00 00 00 00 00 00 00 00 00 00 00 00 00 00 	0000000000000000
  0xbc60	00 00 00 00 00 00 00 00 00 00 00 00 00 00 00 00 	0000000000000000
  0xbc70	00 00 00 00 00 00 00 00 00 00 00 00 00 00 00 00 	0000000000000000
  0xbc80	00 00 00 00 00 00 00 00 00 00 00 00 00 00 00 00 	0000000000000000
  0xbc90	00 00 00 00 00 00 00 00 00 00 00 00 00 00 00 00 	0000000000000000
  0xbca0	00 00 00 00 00 00 00 00 00 00 00 00 00 00 00 00 	0000000000000000
  0xbcb0	00 00 00 00 00 00 00 00 00 00 00 00 00 00 00 00 	0000000000000000
  0xbcc0	00 00 00 00 00 00 00 00 00 00 00 00 00 00 00 00 	0000000000000000
  0xbcd0	00 00 00 00 00 00 00 00 00 00 00 00 00 00 00 00 	0000000000000000
  0xbce0	00 00 00 00 00 00 00 00 00 00 00 00 00 00 00 00 	0000000000000000
  0xbcf0	00 00 00 00 00 00 00 00 00 00 00 00 00 00 00 00 	0000000000000000
  0xbd00	00 00 00 00 00 00 00 00 00 00 00 00 00 00 00 00 	0000000000000000
  0xbd10	00 00 00 00 00 00 00 00 00 00 00 00 00 00 00 00 	0000000000000000
  0xbd20	00 00 00 00 00 00 00 00 00 00 00 00 00 00 00 00 	0000000000000000
  0xbd30	00 00 00 00 00 00 00 00 00 00 00 00 00 00 00 00 	0000000000000000
  0xbd40	00 00 00 00 00 00 00 00 00 00 00 00 00 00 00 00 	0000000000000000
  0xbd50	00 00 00 00 00 00 00 00 00 00 00 00 00 00 00 00 	0000000000000000
  0xbd60	00 00 00 00 00 00 00 00 00 00 00 00 00 00 00 00 	0000000000000000
  0xbd70	00 00 00 00 00 00 00 00 00 00 00 00 00 00 00 00 	0000000000000000
  0xbd80	00 00 00 00 00 00 00 00 00 00 00 00 00 00 00 00 	0000000000000000
  0xbd90	00 00 00 00 00 00 00 00 00 00 00 00 00 00 00 00 	0000000000000000
  0xbda0	00 00 00 00 00 00 00 00 00 00 00 00 00 00 00 00 	0000000000000000
  0xbdb0	00 00 00 00 00 00 00 00 00 00 00 00 00 00 00 00 	0000000000000000
  0xbdc0	00 00 00 00 00 00 00 00 00 00 00 00 00 00 00 00 	0000000000000000
  0xbdd0	00 00 00 00 00 00 00 00 00 00 00 00 00 00 00 00 	0000000000000000
  0xbde0	00 00 00 00 00 00 00 00 00 00 00 00 00 00 00 00 	0000000000000000
  0xbdf0	00 00 00 00 00 00 00 00 00 00 00 00 00 00 00 00 	0000000000000000
  0xbe00	00 00 00 00 00 00 00 00 00 00 00 00 00 00 00 00 	0000000000000000
  0xbe10	00 00 00 00 00 00 00 00 00 00 00 00 00 00 00 00 	0000000000000000
  0xbe20	00 00 00 00 00 00 00 00 00 00 00 00 00 00 00 00 	0000000000000000
  0xbe30	00 00 00 00 00 00 00 00 00 00 00 00 00 00 00 00 	0000000000000000
  0xbe40	00 00 00 00 00 00 00 00 00 00 00 00 00 00 00 00 	0000000000000000
  0xbe50	00 00 00 00 00 00 00 00 00 00 00 00 00 00 00 00 	0000000000000000
  0xbe60	00 00 00 00 00 00 00 00 00 00 00 00 00 00 00 00 	0000000000000000
  0xbe70	00 00 00 00 00 00 00 00 00 00 00 00 00 00 00 00 	0000000000000000
  0xbe80	00 00 00 00 00 00 00 00 00 00 00 00 00 00 00 00 	0000000000000000
  0xbe90	00 00 00 00 00 00 00 00 00 00 00 00 00 00 00 00 	0000000000000000
  0xbea0	00 00 00 00 00 00 00 00 00 00 00 00 00 00 00 00 	0000000000000000
  0xbeb0	00 00 00 00 00 00 00 00 00 00 00 00 00 00 00 00 	0000000000000000
  0xbec0	00 00 00 00 00 00 00 00 00 00 00 00 00 00 00 00 	0000000000000000
  0xbed0	00 00 00 00 00 00 00 00 00 00 00 00 00 00 00 00 	0000000000000000
  0xbee0	00 00 00 00 00 00 00 00 00 00 00 00 00 00 00 00 	0000000000000000
  0xbef0	00 00 00 00 00 00 00 00 00 00 00 00 00 00 00 00 	0000000000000000
  0xbf00	00 00 00 00 00 00 00 00 00 00 00 00 00 00 00 00 	0000000000000000
  0xbf10	00 00 00 00 00 00 00 00 00 00 00 00 00 00 00 00 	0000000000000000
  0xbf20	00 00 00 00 00 00 00 00 00 00 00 00 00 00 00 00 	0000000000000000
  0xbf30	00 00 00 00 00 00 00 00 00 00 00 00 00 00 00 00 	0000000000000000
  0xbf40	00 00 00 00 00 00 00 00 00 00 00 00 00 00 00 00 	0000000000000000
  0xbf50	00 00 00 00 00 00 00 00 00 00 00 00 00 00 00 00 	0000000000000000
  0xbf60	00 00 00 00 00 00 00 00 00 00 00 00 00 00 00 00 	0000000000000000
  0xbf70	00 00 00 00 00 00 00 00 00 00 00 00 00 00 00 00 	0000000000000000
  0xbf80	00 00 00 00 00 00 00 00 00 00 00 00 00 00 00 00 	0000000000000000
  0xbf90	00 00 00 00 00 00 00 00 00 00 00 00 00 00 00 00 	0000000000000000
  0xbfa0	00 00 00 00 00 00 00 00 00 00 00 00 00 00 00 00 	0000000000000000
  0xbfb0	00 00 00 00 00 00 00 00 00 00 00 00 00 00 00 00 	0000000000000000
  0xbfc0	00 00 00 00 00 00 00 00 00 00 00 00 00 00 00 00 	0000000000000000
  0xbfd0	00 00 00 00 00 00 00 00 00 00 00 00 00 00 00 00 	0000000000000000
  0xbfe0	00 00 00 00 00 00 00 00 00 00 00 00 00 00 00 00 	0000000000000000
  0xbff0	00 00 00 00 00 00 00 00 00 00 00 00 00 00 00 00 	0000000000000000
=== DATA BLOCK END ===
