===== Assembly blocks =====

=== CODE BLOCK ADDRESS 0x1000 ===
  0x1000	int3   	
  0x1001	int3   	
  0x1002	int3   	
  0x1003	int3   	
  0x1004	int3   	
  === BLOCK LINK ===
    0x1005
=== CODE BLOCK END ===

=== CODE BLOCK ADDRESS 0x1005 ===
  0x1005	int3   	
  0x1006	int3   	
  0x1007	int3   	
  0x1008	inc    	eax
  0x1009	push   	ebx
  === BLOCK LINK ===
    0x100a
=== CODE BLOCK END ===

=== CODE BLOCK ADDRESS 0x100a ===
  0x100a	dec    	eax
  0x100b	sub    	esp, 0x50
  0x100e	dec    	eax
  0x100f	mov    	eax, dword ptr [0x1ff3]
  0x1015	dec    	eax
  === BLOCK LINK ===
    0x1016
=== CODE BLOCK END ===

=== CODE BLOCK ADDRESS 0x1016 ===
  0x1016	xor    	eax, esp
  0x1018	dec    	eax
  0x1019	mov    	dword ptr [esp + 0x48], eax
  0x101d	mov    	ecx, 1
  0x1022	dec    	eax
  === BLOCK LINK ===
    0x1023
=== CODE BLOCK END ===

=== CODE BLOCK ADDRESS 0x1023 ===
  0x1023	call   	dword ptr [0x119f]
  === BLOCK LINK ===
    0x1029
=== CODE BLOCK END ===

=== CODE BLOCK ADDRESS 0x1029 ===
  0x1029	nop    	dword ptr [eax + eax]
  0x102e	mov    	ebx, eax
  0x1030	test   	eax, eax
  0x1032	js     	0x10fb
  === BLOCK LINK ===
    0x1038
    0x10fb
=== CODE BLOCK END ===

=== CODE BLOCK ADDRESS 0x1038 ===
  0x1038	dec    	eax
  0x1039	and    	dword ptr [esp + 0x20], 0
  0x103e	dec    	esp
  0x103f	lea    	ecx, [esp + 0x28]
  0x1043	dec    	esp
  === BLOCK LINK ===
    0x1044
=== CODE BLOCK END ===

=== CODE BLOCK ADDRESS 0x1044 ===
  0x1044	lea    	eax, [esp + 0x30]
  0x1048	mov    	edx, 0x2d
  0x104d	dec    	eax
  0x104e	lea    	ecx, [0x129c]
  0x1054	dec    	eax
  === BLOCK LINK ===
    0x1055
=== CODE BLOCK END ===

=== CODE BLOCK ADDRESS 0x1055 ===
  0x1055	call   	dword ptr [0x117d]
  === BLOCK LINK ===
    0x105b
=== CODE BLOCK END ===

=== CODE BLOCK ADDRESS 0x105b ===
  0x105b	nop    	dword ptr [eax + eax]
  0x1060	test   	eax, eax
  0x1062	jns    	0x107f
  === BLOCK LINK ===
    0x1064
    0x107f
=== CODE BLOCK END ===

=== CODE BLOCK ADDRESS 0x1064 ===
  0x1064	inc    	ebp
  0x1065	xor    	ecx, ecx
  0x1067	inc    	ebp
  0x1068	xor    	eax, eax
  0x106a	mov    	ecx, 0xc000000d
  === BLOCK LINK ===
    0x106f
=== CODE BLOCK END ===

=== CODE BLOCK ADDRESS 0x106f ===
  0x106f	inc    	ecx
  0x1070	lea    	edx, [ecx + 1]
  0x1073	dec    	eax
  0x1074	call   	dword ptr [0x10ae]
  === BLOCK LINK ===
    0x107a
=== CODE BLOCK END ===

=== CODE BLOCK ADDRESS 0x107a ===
  0x107a	nop    	dword ptr [eax + eax]
  === BLOCK LINK ===
    0x107f
=== CODE BLOCK END ===

=== CODE BLOCK ADDRESS 0x1089 ===
  0x1089	dec    	eax
  0x108a	test   	ecx, ecx
  0x108c	je     	0x109b
  === BLOCK LINK ===
    0x108e
    0x109b
=== CODE BLOCK END ===

=== CODE BLOCK ADDRESS 0x108e ===
  0x108e	dec    	eax
  0x108f	mov    	eax, dword ptr [ecx]
  0x1091	dec    	eax
  0x1092	mov    	eax, dword ptr [eax + 0x10]
  0x1095	call   	dword ptr [0x11e5]
  === BLOCK LINK ===
    0x109b
=== CODE BLOCK END ===

=== CODE BLOCK ADDRESS 0x109b ===
  0x109b	dec    	esp
  0x109c	lea    	eax, [esp + 0x20]
  0x10a0	dec    	eax
  0x10a1	mov    	ecx, ebx
  0x10a3	dec    	eax
  === BLOCK LINK ===
    0x10a4
=== CODE BLOCK END ===

=== CODE BLOCK ADDRESS 0x10a4 ===
  0x10a4	lea    	edx, [0x12a6]
  0x10aa	dec    	eax
  0x10ab	call   	dword ptr [0x1107]
  === BLOCK LINK ===
    0x10b1
=== CODE BLOCK END ===

=== CODE BLOCK ADDRESS 0x10b1 ===
  0x10b1	nop    	dword ptr [eax + eax]
  0x10b6	mov    	ebx, eax
  0x10b8	test   	eax, eax
  0x10ba	js     	0x10d2
  === BLOCK LINK ===
    0x10bc
    0x10d2
=== CODE BLOCK END ===

=== CODE BLOCK ADDRESS 0x10bc ===
  0x10bc	dec    	eax
  0x10bd	mov    	ecx, dword ptr [esp + 0x20]
  0x10c1	xor    	edx, edx
  0x10c3	dec    	eax
  0x10c4	mov    	eax, dword ptr [ecx]
  === BLOCK LINK ===
    0x10c6
=== CODE BLOCK END ===

=== CODE BLOCK ADDRESS 0x10c6 ===
  0x10c6	dec    	eax
  0x10c7	mov    	eax, dword ptr [eax + 0x68]
  0x10ca	call   	dword ptr [0x11b0]
  === BLOCK LINK ===
    0x10d0
=== CODE BLOCK END ===

=== CODE BLOCK ADDRESS 0x10d0 ===
  0x10d0	mov    	ebx, eax
  === BLOCK LINK ===
    0x10d2
=== CODE BLOCK END ===

=== CODE BLOCK ADDRESS 0x10da ===
  0x10da	je     	0x10ef
  === BLOCK LINK ===
    0x10dc
    0x10ef
=== CODE BLOCK END ===

=== CODE BLOCK ADDRESS 0x10dc ===
  0x10dc	dec    	eax
  0x10dd	and    	dword ptr [esp + 0x20], 0
  0x10e2	dec    	eax
  0x10e3	mov    	eax, dword ptr [ecx]
  0x10e5	dec    	eax
  === BLOCK LINK ===
    0x10e6
=== CODE BLOCK END ===

=== CODE BLOCK ADDRESS 0x10e6 ===
  0x10e6	mov    	eax, dword ptr [eax + 0x10]
  0x10e9	call   	dword ptr [0x1191]
  === BLOCK LINK ===
    0x10ef
=== CODE BLOCK END ===

=== CODE BLOCK ADDRESS 0x10ef ===
  0x10ef	dec    	eax
  0x10f0	call   	dword ptr [0x10ca]
  === BLOCK LINK ===
    0x10f6
=== CODE BLOCK END ===

=== CODE BLOCK ADDRESS 0x10f6 ===
  0x10f6	nop    	dword ptr [eax + eax]
  === BLOCK LINK ===
    0x10fb
=== CODE BLOCK END ===

=== CODE BLOCK ADDRESS 0x1105 ===
  0x1105	dec    	eax
  0x1106	xor    	ecx, esp
  0x1108	call   	0x1450
  === BLOCK LINK ===
    0x110d
    0x1450
=== CODE BLOCK END ===

=== CODE BLOCK ADDRESS 0x110d ===
  0x110d	dec    	eax
  0x110e	add    	esp, 0x50
  0x1111	pop    	ebx
  0x1112	ret    	
  0x1113	int3   	
  === BLOCK LINK ===
    0x1114
=== CODE BLOCK END ===

=== CODE BLOCK ADDRESS 0x10fb ===
  0x10fb	shr    	ebx, 0x1f
  0x10fe	mov    	eax, ebx
  0x1100	dec    	eax
  0x1101	mov    	ecx, dword ptr [esp + 0x48]
  === BLOCK LINK ===
    0x1105
=== CODE BLOCK END ===

=== CODE BLOCK ADDRESS 0x1114 ===
  0x1114	int3   	
  0x1115	int3   	
  0x1116	int3   	
  0x1117	int3   	
  0x1118	int3   	
  === BLOCK LINK ===
    0x1119
=== CODE BLOCK END ===

=== CODE BLOCK ADDRESS 0x1119 ===
  0x1119	int3   	
  0x111a	int3   	
  0x111b	int3   	
  0x111c	int3   	
  0x111d	int3   	
  === BLOCK LINK ===
    0x111e
=== CODE BLOCK END ===

=== CODE BLOCK ADDRESS 0x111e ===
  0x111e	int3   	
  0x111f	int3   	
  0x1120	dec    	eax
  0x1121	sub    	esp, 0x28
  0x1124	mov    	eax, 0x5a4d
  === BLOCK LINK ===
    0x1129
=== CODE BLOCK END ===

=== CODE BLOCK ADDRESS 0x1129 ===
  0x1129	cmp    	word ptr [0xffffeed0], ax
  0x1130	je     	0x1136
  === BLOCK LINK ===
    0x1132
    0x1136
=== CODE BLOCK END ===

=== CODE BLOCK ADDRESS 0x1132 ===
  0x1132	xor    	eax, eax
  0x1134	jmp    	0x1189
  === BLOCK LINK ===
    0x1136
    0x1189
=== CODE BLOCK END ===

=== CODE BLOCK ADDRESS 0x1136 ===
  0x1136	dec    	eax
  0x1137	arpl   	word ptr [0xffffeeff], cx
  0x113d	dec    	eax
  0x113e	lea    	eax, [0xffffeebc]
  0x1144	dec    	eax
  === BLOCK LINK ===
    0x1145
=== CODE BLOCK END ===

=== CODE BLOCK ADDRESS 0x1145 ===
  0x1145	add    	ecx, eax
  0x1147	cmp    	dword ptr [ecx], 0x4550
  0x114d	jne    	0x1132
  === BLOCK LINK ===
    0x114f
    0x1132
=== CODE BLOCK END ===

=== CODE BLOCK ADDRESS 0x114f ===
  0x114f	mov    	eax, 0x10b
  0x1154	cmp    	word ptr [ecx + 0x18], ax
  0x1158	je     	0x1178
  === BLOCK LINK ===
    0x115a
    0x1178
=== CODE BLOCK END ===

=== CODE BLOCK ADDRESS 0x115a ===
  0x115a	mov    	eax, 0x20b
  0x115f	cmp    	word ptr [ecx + 0x18], ax
  0x1163	jne    	0x1132
  === BLOCK LINK ===
    0x1165
    0x1132
=== CODE BLOCK END ===

=== CODE BLOCK ADDRESS 0x1165 ===
  0x1165	xor    	eax, eax
  0x1167	cmp    	dword ptr [ecx + 0x84], 0xe
  0x116e	jbe    	0x1189
  === BLOCK LINK ===
    0x1170
    0x1189
=== CODE BLOCK END ===

=== CODE BLOCK ADDRESS 0x1170 ===
  0x1170	cmp    	dword ptr [ecx + 0xf8], eax
  0x1176	jmp    	0x1186
  === BLOCK LINK ===
    0x1178
    0x1186
=== CODE BLOCK END ===

=== CODE BLOCK ADDRESS 0x1178 ===
  0x1178	xor    	eax, eax
  0x117a	cmp    	dword ptr [ecx + 0x74], 0xe
  0x117e	jbe    	0x1189
  === BLOCK LINK ===
    0x1180
    0x1189
=== CODE BLOCK END ===

=== CODE BLOCK ADDRESS 0x1180 ===
  0x1180	cmp    	dword ptr [ecx + 0xe8], eax
  === BLOCK LINK ===
    0x1186
    0x1548
=== CODE BLOCK END ===

=== CODE BLOCK ADDRESS 0x1199 ===
  0x1199	mov    	ecx, eax
  0x119b	call   	dword ptr [0x1057]
  === BLOCK LINK ===
    0x11a1
=== CODE BLOCK END ===

=== CODE BLOCK ADDRESS 0x11a1 ===
  0x11a1	dec    	eax
  0x11a2	mov    	ecx, dword ptr [0x1070]
  0x11a8	dec    	eax
  0x11a9	or     	eax, 0xffffffff
  0x11ac	dec    	eax
  === BLOCK LINK ===
    0x11ad
=== CODE BLOCK END ===

=== CODE BLOCK ADDRESS 0x11ad ===
  0x11ad	mov    	dword ptr [0x2425], eax
  0x11b3	dec    	eax
  0x11b4	mov    	dword ptr [0x2426], eax
  0x11ba	mov    	eax, dword ptr [0x1e94]
  0x11c0	mov    	dword ptr [ecx], eax
  === BLOCK LINK ===
    0x11c2
=== CODE BLOCK END ===

=== CODE BLOCK ADDRESS 0x11c2 ===
  0x11c2	dec    	eax
  0x11c3	mov    	ecx, dword ptr [0x1047]
  0x11c9	mov    	eax, dword ptr [0x1e79]
  0x11cf	mov    	dword ptr [ecx], eax
  0x11d1	call   	0x15a0
  === BLOCK LINK ===
    0x11d6
    0x15a0
=== CODE BLOCK END ===

=== CODE BLOCK ADDRESS 0x11d6 ===
  0x11d6	cmp    	dword ptr [0x1e23], 0
  0x11dd	jne    	0x11ec
  === BLOCK LINK ===
    0x11df
    0x11ec
=== CODE BLOCK END ===

=== CODE BLOCK ADDRESS 0x11df ===
  0x11df	dec    	eax
  0x11e0	lea    	ecx, [0x3ba]
  0x11e6	call   	dword ptr [0x103c]
  === BLOCK LINK ===
    0x11ec
=== CODE BLOCK END ===

=== CODE BLOCK ADDRESS 0x11ec ===
  0x11ec	xor    	eax, eax
  0x11ee	dec    	eax
  0x11ef	add    	esp, 0x28
  0x11f2	ret    	
  0x11f3	int3   	
  === BLOCK LINK ===
    0x11f4
=== CODE BLOCK END ===

=== CODE BLOCK ADDRESS 0x107f ===
  0x107f	dec    	eax
  0x1080	mov    	ecx, dword ptr [esp + 0x20]
  0x1084	dec    	eax
  0x1085	mov    	ebx, dword ptr [esp + 0x28]
  === BLOCK LINK ===
    0x1089
=== CODE BLOCK END ===

=== CODE BLOCK ADDRESS 0x11f4 ===
  0x11f4	int3   	
  0x11f5	int3   	
  0x11f6	int3   	
  0x11f7	int3   	
  0x11f8	int3   	
  === BLOCK LINK ===
    0x11f9
=== CODE BLOCK END ===

=== CODE BLOCK ADDRESS 0x11f9 ===
  0x11f9	int3   	
  0x11fa	int3   	
  0x11fb	int3   	
  0x11fc	int3   	
  0x11fd	int3   	
  === BLOCK LINK ===
    0x11fe
=== CODE BLOCK END ===

=== CODE BLOCK ADDRESS 0x11fe ===
  0x11fe	int3   	
  0x11ff	int3   	
  0x1200	dec    	eax
  0x1201	sub    	esp, 0x38
  0x1204	mov    	eax, dword ptr [0x1e46]
  === BLOCK LINK ===
    0x120a
=== CODE BLOCK END ===

=== CODE BLOCK ADDRESS 0x120a ===
  0x120a	dec    	esp
  0x120b	lea    	eax, [0x1e27]
  0x1211	inc    	esp
  0x1212	mov    	ecx, dword ptr [0x1e34]
  0x1218	dec    	eax
  === BLOCK LINK ===
    0x1219
=== CODE BLOCK END ===

=== CODE BLOCK ADDRESS 0x1219 ===
  0x1219	lea    	edx, [0x1e11]
  0x121f	mov    	dword ptr [0x1e1f], eax
  0x1225	dec    	eax
  0x1226	lea    	ecx, [0x1dfc]
  0x122c	dec    	eax
  === BLOCK LINK ===
    0x122d
=== CODE BLOCK END ===

=== CODE BLOCK ADDRESS 0x122d ===
  0x122d	lea    	eax, [0x1e11]
  0x1233	dec    	eax
  0x1234	mov    	dword ptr [esp + 0x20], eax
  0x1238	call   	dword ptr [0xfaa]
  === BLOCK LINK ===
    0x123e
=== CODE BLOCK END ===

=== CODE BLOCK ADDRESS 0x123e ===
  0x123e	mov    	dword ptr [0x1de8], eax
  0x1244	dec    	eax
  0x1245	add    	esp, 0x38
  0x1248	ret    	
  0x1249	int3   	
  === BLOCK LINK ===
    0x124a
=== CODE BLOCK END ===

=== CODE BLOCK ADDRESS 0x124a ===
  0x124a	int3   	
  0x124b	int3   	
  0x124c	int3   	
  0x124d	int3   	
  0x124e	int3   	
  === BLOCK LINK ===
    0x124f
=== CODE BLOCK END ===

=== CODE BLOCK ADDRESS 0x124f ===
  0x124f	int3   	
  0x1250	dec    	eax
  0x1251	mov    	dword ptr [esp + 8], ebx
  0x1255	dec    	eax
  0x1256	mov    	dword ptr [esp + 0x10], esi
  === BLOCK LINK ===
    0x125a
=== CODE BLOCK END ===

=== CODE BLOCK ADDRESS 0x125a ===
  0x125a	dec    	eax
  0x125b	mov    	dword ptr [esp + 0x18], edi
  0x125f	inc    	ecx
  0x1260	push   	edi
  0x1261	dec    	eax
  === BLOCK LINK ===
    0x1262
=== CODE BLOCK END ===

=== CODE BLOCK ADDRESS 0x1262 ===
  0x1262	sub    	esp, 0x30
  0x1265	dec    	eax
  0x1267	mov    	eax, dword ptr [0x30]
  0x126e	dec    	eax
  0x126f	mov    	ebx, dword ptr [eax + 8]
  === BLOCK LINK ===
    0x1272
=== CODE BLOCK END ===

=== CODE BLOCK ADDRESS 0x1272 ===
  0x1272	xor    	esi, esi
  0x1274	xor    	eax, eax
  0x1276	.byte  	0xf0
  0x1277	dec    	eax
  0x1278	cmpxchg  	dword ptr [0x2369], ebx
  === BLOCK LINK ===
    0x127f
=== CODE BLOCK END ===

=== CODE BLOCK ADDRESS 0x127f ===
  0x127f	je     	0x129c
  === BLOCK LINK ===
    0x1281
    0x129c
=== CODE BLOCK END ===

=== CODE BLOCK ADDRESS 0x1281 ===
  0x1281	dec    	eax
  0x1282	cmp    	eax, ebx
  0x1284	jne    	0x128f
  === BLOCK LINK ===
    0x1286
    0x128f
=== CODE BLOCK END ===

=== CODE BLOCK ADDRESS 0x1286 ===
  0x1286	mov    	ebx, 1
  0x128b	mov    	esi, ebx
  0x128d	jmp    	0x12a1
  === BLOCK LINK ===
    0x128f
    0x12a1
=== CODE BLOCK END ===

=== CODE BLOCK ADDRESS 0x128f ===
  0x128f	mov    	ecx, 0x3e8
  0x1294	call   	dword ptr [0xef6]
  === BLOCK LINK ===
    0x129a
=== CODE BLOCK END ===

=== CODE BLOCK ADDRESS 0x129a ===
  0x129a	jmp    	0x1274
  === BLOCK LINK ===
    0x129c
=== CODE BLOCK END ===

=== CODE BLOCK ADDRESS 0x129c ===
  0x129c	mov    	ebx, 1
  === BLOCK LINK ===
    0x12a1
=== CODE BLOCK END ===

=== CODE BLOCK ADDRESS 0x12ab ===
  0x12ab	mov    	ecx, 0x1f
  0x12b0	call   	0x1593
  === BLOCK LINK ===
    0x12b5
=== CODE BLOCK END ===

=== CODE BLOCK ADDRESS 0x12b5 ===
  0x12b5	jmp    	0x131c
  === BLOCK LINK ===
    0x12b7
=== CODE BLOCK END ===

=== CODE BLOCK ADDRESS 0x12b7 ===
  0x12b7	mov    	eax, dword ptr [0x2333]
  0x12bd	test   	eax, eax
  0x12bf	jne    	0x1316
  === BLOCK LINK ===
    0x12c1
=== CODE BLOCK END ===

=== CODE BLOCK ADDRESS 0x12c1 ===
  0x12c1	mov    	dword ptr [0x2329], ebx
  0x12c7	dec    	esp
  0x12c8	lea    	edi, [0xfea]
  0x12ce	dec    	eax
  0x12cf	lea    	edi, [0xfcb]
  === BLOCK LINK ===
    0x12d5
=== CODE BLOCK END ===

=== CODE BLOCK ADDRESS 0x12d5 ===
  0x12d5	dec    	eax
  0x12d6	mov    	dword ptr [esp + 0x28], edi
  0x12da	mov    	dword ptr [esp + 0x20], eax
  0x12de	dec    	ecx
  0x12df	cmp    	edi, edi
  === BLOCK LINK ===
    0x12e1
=== CODE BLOCK END ===

=== CODE BLOCK ADDRESS 0x12e1 ===
  0x12e1	jae    	0x1308
  === BLOCK LINK ===
    0x12e3
=== CODE BLOCK END ===

=== CODE BLOCK ADDRESS 0x12e3 ===
  0x12e3	test   	eax, eax
  0x12e5	jne    	0x130c
  === BLOCK LINK ===
    0x12e7
=== CODE BLOCK END ===

=== CODE BLOCK ADDRESS 0x12e7 ===
  0x12e7	dec    	eax
  0x12e8	cmp    	dword ptr [edi], 0
  0x12eb	je     	0x12fd
  === BLOCK LINK ===
    0x12ed
=== CODE BLOCK END ===

=== CODE BLOCK ADDRESS 0x12ed ===
  0x12ed	dec    	eax
  0x12ee	mov    	eax, dword ptr [edi]
  0x12f0	dec    	eax
  0x12f1	mov    	ecx, dword ptr [0xf89]
  0x12f7	call   	ecx
  === BLOCK LINK ===
    0x12f9
=== CODE BLOCK END ===

=== CODE BLOCK ADDRESS 0x12f9 ===
  0x12f9	mov    	dword ptr [esp + 0x20], eax
  0x12fd	dec    	eax
  0x12fe	add    	edi, 8
  0x1301	dec    	eax
  0x1302	mov    	dword ptr [esp + 0x28], edi
  === BLOCK LINK ===
    0x1306
=== CODE BLOCK END ===

=== CODE BLOCK ADDRESS 0x1306 ===
  0x1306	jmp    	0x12de
  === BLOCK LINK ===
    0x1308
=== CODE BLOCK END ===

=== CODE BLOCK ADDRESS 0x1308 ===
  0x1308	test   	eax, eax
  0x130a	je     	0x131c
  === BLOCK LINK ===
    0x130c
=== CODE BLOCK END ===

=== CODE BLOCK ADDRESS 0x130c ===
  0x130c	mov    	eax, 0xff
  0x1311	jmp    	0x13f8
  === BLOCK LINK ===
    0x1316
=== CODE BLOCK END ===

=== CODE BLOCK ADDRESS 0x1316 ===
  0x1316	mov    	dword ptr [0x1d08], ebx
  0x131c	mov    	eax, dword ptr [0x22ce]
  0x1322	cmp    	eax, ebx
  0x1324	jne    	0x1343
  === BLOCK LINK ===
    0x1326
=== CODE BLOCK END ===

=== CODE BLOCK ADDRESS 0x1326 ===
  0x1326	dec    	eax
  0x1327	lea    	edx, [0xf6b]
  0x132d	dec    	eax
  0x132e	lea    	ecx, [0xf54]
  0x1334	call   	0x176e
  === BLOCK LINK ===
    0x1339
=== CODE BLOCK END ===

=== CODE BLOCK ADDRESS 0x1339 ===
  0x1339	mov    	dword ptr [0x22ad], 2
  0x1343	test   	esi, esi
  0x1345	jne    	0x1350
  === BLOCK LINK ===
    0x1347
=== CODE BLOCK END ===

=== CODE BLOCK ADDRESS 0x1347 ===
  0x1347	xor    	eax, eax
  0x1349	dec    	eax
  0x134a	xchg   	dword ptr [0x2298], eax
  0x1350	dec    	eax
  0x1351	cmp    	dword ptr [0x22a0], 0
  === BLOCK LINK ===
    0x1358
=== CODE BLOCK END ===

=== CODE BLOCK ADDRESS 0x1358 ===
  0x1358	je     	0x1384
  === BLOCK LINK ===
    0x135a
=== CODE BLOCK END ===

=== CODE BLOCK ADDRESS 0x135a ===
  0x135a	dec    	eax
  0x135b	lea    	ecx, [0x2297]
  0x1361	call   	0x1600
  === BLOCK LINK ===
    0x1366
=== CODE BLOCK END ===

=== CODE BLOCK ADDRESS 0x1366 ===
  0x1366	test   	eax, eax
  0x1368	je     	0x1384
  === BLOCK LINK ===
    0x136a
=== CODE BLOCK END ===

=== CODE BLOCK ADDRESS 0x136a ===
  0x136a	inc    	ebp
  0x136b	xor    	eax, eax
  0x136d	inc    	ecx
  0x136e	lea    	edx, [eax + 2]
  0x1371	xor    	ecx, ecx
  === BLOCK LINK ===
    0x1373
=== CODE BLOCK END ===

=== CODE BLOCK ADDRESS 0x1373 ===
  0x1373	dec    	eax
  0x1374	mov    	eax, dword ptr [0x227e]
  0x137a	dec    	esp
  0x137b	mov    	ecx, dword ptr [0xeff]
  0x1381	inc    	ecx
  === BLOCK LINK ===
    0x1382
=== CODE BLOCK END ===

=== CODE BLOCK ADDRESS 0x1382 ===
  0x1382	call   	ecx
  === BLOCK LINK ===
    0x1384
=== CODE BLOCK END ===

=== CODE BLOCK ADDRESS 0x1384 ===
  0x1384	dec    	esp
  0x1385	mov    	eax, dword ptr [0x1cad]
  0x138b	dec    	eax
  0x138c	mov    	edx, dword ptr [0x1c9e]
  0x1392	mov    	ecx, dword ptr [0x1c90]
  === BLOCK LINK ===
    0x1398
=== CODE BLOCK END ===

=== CODE BLOCK ADDRESS 0x1398 ===
  0x1398	call   	0x1008
  === BLOCK LINK ===
    0x139d
=== CODE BLOCK END ===

=== CODE BLOCK ADDRESS 0x139d ===
  0x139d	mov    	dword ptr [0x1c7d], eax
  0x13a3	cmp    	dword ptr [0x1c96], 0
  0x13aa	jne    	0x13b4
  === BLOCK LINK ===
    0x13ac
=== CODE BLOCK END ===

=== CODE BLOCK ADDRESS 0x13ac ===
  0x13ac	mov    	ecx, eax
  0x13ae	call   	dword ptr [0xe94]
  === BLOCK LINK ===
    0x13b4
=== CODE BLOCK END ===

=== CODE BLOCK ADDRESS 0x13b4 ===
  0x13b4	cmp    	dword ptr [0x1c69], 0
  0x13bb	jne    	0x13c9
  === BLOCK LINK ===
    0x13bd
=== CODE BLOCK END ===

=== CODE BLOCK ADDRESS 0x13bd ===
  0x13bd	call   	dword ptr [0xe6d]
  === BLOCK LINK ===
    0x13c3
=== CODE BLOCK END ===

=== CODE BLOCK ADDRESS 0x13c3 ===
  0x13c3	mov    	eax, dword ptr [0x1c57]
  0x13c9	jmp    	0x13f8
  === BLOCK LINK ===
    0x13cb
=== CODE BLOCK END ===

=== CODE BLOCK ADDRESS 0x13cb ===
  0x13cb	mov    	dword ptr [0x1c4f], eax
  0x13d1	cmp    	dword ptr [0x1c68], 0
  0x13d8	jne    	0x13e3
  === BLOCK LINK ===
    0x13da
=== CODE BLOCK END ===

=== CODE BLOCK ADDRESS 0x13da ===
  0x13da	mov    	ecx, eax
  0x13dc	call   	dword ptr [0xe56]
  === BLOCK LINK ===
    0x13e2
=== CODE BLOCK END ===

=== CODE BLOCK ADDRESS 0x13e2 ===
  0x13e2	int3   	
  0x13e3	cmp    	dword ptr [0x1c3a], 0
  0x13ea	jne    	0x13f8
  === BLOCK LINK ===
    0x13ec
=== CODE BLOCK END ===

=== CODE BLOCK ADDRESS 0x13ec ===
  0x13ec	call   	dword ptr [0xe3e]
  === BLOCK LINK ===
    0x13f2
=== CODE BLOCK END ===

=== CODE BLOCK ADDRESS 0x13f2 ===
  0x13f2	mov    	eax, dword ptr [0x1c28]
  0x13f8	dec    	eax
  0x13f9	mov    	ebx, dword ptr [esp + 0x40]
  0x13fd	dec    	eax
  0x13fe	mov    	esi, dword ptr [esp + 0x48]
  === BLOCK LINK ===
    0x1402
=== CODE BLOCK END ===

=== CODE BLOCK ADDRESS 0x1402 ===
  0x1402	dec    	eax
  0x1403	mov    	edi, dword ptr [esp + 0x50]
  0x1407	dec    	eax
  0x1408	add    	esp, 0x30
  0x140b	inc    	ecx
  === BLOCK LINK ===
    0x140c
=== CODE BLOCK END ===

=== CODE BLOCK ADDRESS 0x140c ===
  0x140c	pop    	edi
  0x140d	ret    	
  0x140e	int3   	
  0x140f	int3   	
  0x1410	int3   	
  === BLOCK LINK ===
    0x1411
=== CODE BLOCK END ===

=== CODE BLOCK ADDRESS 0x10d2 ===
  0x10d2	dec    	eax
  0x10d3	mov    	ecx, dword ptr [esp + 0x20]
  0x10d7	dec    	eax
  0x10d8	test   	ecx, ecx
  === BLOCK LINK ===
    0x10da
=== CODE BLOCK END ===

=== CODE BLOCK ADDRESS 0x1411 ===
  0x1411	int3   	
  0x1412	int3   	
  0x1413	int3   	
  0x1414	int3   	
  0x1415	int3   	
  === BLOCK LINK ===
    0x1416
=== CODE BLOCK END ===

=== CODE BLOCK ADDRESS 0x1416 ===
  0x1416	int3   	
  0x1417	int3   	
  0x1418	int3   	
  0x1419	int3   	
  0x141a	int3   	
  === BLOCK LINK ===
    0x141b
=== CODE BLOCK END ===

=== CODE BLOCK ADDRESS 0x141b ===
  0x141b	int3   	
  0x141c	int3   	
  0x141d	int3   	
  0x141e	int3   	
  0x141f	int3   	
  === BLOCK LINK ===
    0x1420
=== CODE BLOCK END ===

=== CODE BLOCK ADDRESS 0x1420 ===
  0x1420	dec    	eax
  0x1421	sub    	esp, 0x28
  0x1424	call   	0x1694
  === BLOCK LINK ===
    0x1429
=== CODE BLOCK END ===

=== CODE BLOCK ADDRESS 0x1429 ===
  0x1429	dec    	eax
  0x142a	add    	esp, 0x28
  0x142d	jmp    	0x1250
  === BLOCK LINK ===
    0x1432
=== CODE BLOCK END ===

=== CODE BLOCK ADDRESS 0x1432 ===
  0x1432	int3   	
  0x1433	int3   	
  0x1434	int3   	
  0x1435	int3   	
  0x1436	int3   	
  === BLOCK LINK ===
    0x1437
=== CODE BLOCK END ===

=== CODE BLOCK ADDRESS 0x1437 ===
  0x1437	int3   	
  0x1438	int3   	
  0x1439	int3   	
  0x143a	int3   	
  0x143b	int3   	
  === BLOCK LINK ===
    0x143c
=== CODE BLOCK END ===

=== CODE BLOCK ADDRESS 0x143c ===
  0x143c	int3   	
  0x143d	int3   	
  0x143e	int3   	
  0x143f	int3   	
  0x1440	int3   	
  === BLOCK LINK ===
    0x1441
=== CODE BLOCK END ===

=== CODE BLOCK ADDRESS 0x1441 ===
  0x1441	int3   	
  0x1442	int3   	
  0x1443	int3   	
  0x1444	int3   	
  0x1445	int3   	
  === BLOCK LINK ===
    0x1446
=== CODE BLOCK END ===

=== CODE BLOCK ADDRESS 0x1446 ===
  0x1446	nop    	word ptr [eax + eax]
  === BLOCK LINK ===
    0x1450
=== CODE BLOCK END ===

=== CODE BLOCK ADDRESS 0x1459 ===
  0x1459	dec    	eax
  0x145a	rol    	ecx, 0x10
  0x145d	test   	cx, 0xffff
  0x1462	jne    	0x1465
  === BLOCK LINK ===
    0x1464
=== CODE BLOCK END ===

=== CODE BLOCK ADDRESS 0x1464 ===
  0x1464	ret    	
  0x1465	dec    	eax
  0x1466	ror    	ecx, 0x10
  0x1469	jmp    	0x17e0
  === BLOCK LINK ===
    0x146e
=== CODE BLOCK END ===

=== CODE BLOCK ADDRESS 0x146e ===
  0x146e	int3   	
  0x146f	int3   	
  0x1470	int3   	
  0x1471	int3   	
  0x1472	int3   	
  === BLOCK LINK ===
    0x1473
=== CODE BLOCK END ===

=== CODE BLOCK ADDRESS 0x1473 ===
  0x1473	int3   	
  0x1474	int3   	
  0x1475	int3   	
  0x1476	int3   	
  0x1477	int3   	
  === BLOCK LINK ===
    0x1478
=== CODE BLOCK END ===

=== CODE BLOCK ADDRESS 0x1478 ===
  0x1478	int3   	
  0x1479	int3   	
  0x147a	int3   	
  0x147b	int3   	
  0x147c	int3   	
  === BLOCK LINK ===
    0x147d
=== CODE BLOCK END ===

=== CODE BLOCK ADDRESS 0x147d ===
  0x147d	int3   	
  0x147e	int3   	
  0x147f	int3   	
  0x1480	dec    	eax
  0x1481	sub    	esp, 0x28
  === BLOCK LINK ===
    0x1484
=== CODE BLOCK END ===

=== CODE BLOCK ADDRESS 0x1484 ===
  0x1484	dec    	eax
  0x1485	mov    	eax, dword ptr [ecx]
  0x1487	cmp    	dword ptr [eax], 0xe06d7363
  0x148d	jne    	0x14b2
  === BLOCK LINK ===
    0x148f
=== CODE BLOCK END ===

=== CODE BLOCK ADDRESS 0x148f ===
  0x148f	cmp    	dword ptr [eax + 0x18], 4
  0x1493	jne    	0x14b2
  === BLOCK LINK ===
    0x1495
=== CODE BLOCK END ===

=== CODE BLOCK ADDRESS 0x1495 ===
  0x1495	mov    	ecx, dword ptr [eax + 0x20]
  0x1498	lea    	eax, [ecx - 0x19930520]
  0x149e	cmp    	eax, 2
  0x14a1	jbe    	0x14ab
  === BLOCK LINK ===
    0x14a3
=== CODE BLOCK END ===

=== CODE BLOCK ADDRESS 0x14a3 ===
  0x14a3	cmp    	ecx, 0x1994000
  0x14a9	jne    	0x14b2
  === BLOCK LINK ===
    0x14ab
=== CODE BLOCK END ===

=== CODE BLOCK ADDRESS 0x14ab ===
  0x14ab	call   	dword ptr [0xd57]
  === BLOCK LINK ===
    0x14b1
=== CODE BLOCK END ===

=== CODE BLOCK ADDRESS 0x14b1 ===
  0x14b1	int3   	
  0x14b2	xor    	eax, eax
  0x14b4	dec    	eax
  0x14b5	add    	esp, 0x28
  0x14b8	ret    	
  === BLOCK LINK ===
    0x14b9
=== CODE BLOCK END ===

=== CODE BLOCK ADDRESS 0x1450 ===
  0x1450	dec    	eax
  0x1451	cmp    	ecx, dword ptr [0x1bb1]
  0x1457	jne    	0x1469
  === BLOCK LINK ===
    0x1459
=== CODE BLOCK END ===

=== CODE BLOCK ADDRESS 0x14b9 ===
  0x14b9	int3   	
  0x14ba	int3   	
  0x14bb	int3   	
  0x14bc	int3   	
  0x14bd	int3   	
  === BLOCK LINK ===
    0x14be
=== CODE BLOCK END ===

=== CODE BLOCK ADDRESS 0x14be ===
  0x14be	int3   	
  0x14bf	int3   	
  0x14c0	dec    	eax
  0x14c1	sub    	esp, 0x28
  0x14c4	dec    	eax
  === BLOCK LINK ===
    0x14c5
=== CODE BLOCK END ===

=== CODE BLOCK ADDRESS 0x14c5 ===
  0x14c5	lea    	ecx, [0xffffffb5]
  0x14cb	call   	dword ptr [0xc5f]
  === BLOCK LINK ===
    0x14d1
=== CODE BLOCK END ===

=== CODE BLOCK ADDRESS 0x14d1 ===
  0x14d1	xor    	eax, eax
  0x14d3	dec    	eax
  0x14d4	add    	esp, 0x28
  0x14d7	ret    	
  0x14d8	int3   	
  === BLOCK LINK ===
    0x14d9
=== CODE BLOCK END ===

=== CODE BLOCK ADDRESS 0x14d9 ===
  0x14d9	int3   	
  0x14da	int3   	
  0x14db	int3   	
  0x14dc	int3   	
  0x14dd	int3   	
  === BLOCK LINK ===
    0x14de
=== CODE BLOCK END ===

=== CODE BLOCK ADDRESS 0x14de ===
  0x14de	jmp    	dword ptr [0xd1c]
  === BLOCK LINK ===
    0x14e4
=== CODE BLOCK END ===

=== CODE BLOCK ADDRESS 0x14e4 ===
  0x14e4	int3   	
  0x14e5	int3   	
  0x14e6	int3   	
  0x14e7	int3   	
  0x14e8	int3   	
  === BLOCK LINK ===
    0x14e9
=== CODE BLOCK END ===

=== CODE BLOCK ADDRESS 0x14e9 ===
  0x14e9	int3   	
  0x14ea	int3   	
  0x14eb	int3   	
  0x14ec	dec    	eax
  0x14ed	sub    	esp, 0x18
  === BLOCK LINK ===
    0x14f0
=== CODE BLOCK END ===

=== CODE BLOCK ADDRESS 0x14f0 ===
  0x14f0	xor    	edx, edx
  0x14f2	dec    	eax
  0x14f3	lea    	eax, [ecx - 1]
  0x14f6	dec    	eax
  0x14f7	cmp    	eax, -3
  === BLOCK LINK ===
    0x14fa
=== CODE BLOCK END ===

=== CODE BLOCK ADDRESS 0x14fa ===
  0x14fa	ja     	0x1538
  === BLOCK LINK ===
    0x14fc
=== CODE BLOCK END ===

=== CODE BLOCK ADDRESS 0x14fc ===
  0x14fc	mov    	eax, 0x5a4d
  0x1501	cmp    	word ptr [ecx], ax
  0x1504	jne    	0x1530
  === BLOCK LINK ===
    0x1506
=== CODE BLOCK END ===

=== CODE BLOCK ADDRESS 0x1506 ===
  0x1506	cmp    	dword ptr [ecx + 0x3c], edx
  0x1509	jl     	0x1530
  === BLOCK LINK ===
    0x150b
=== CODE BLOCK END ===

=== CODE BLOCK ADDRESS 0x150b ===
  0x150b	cmp    	dword ptr [ecx + 0x3c], 0x10000000
  0x1512	jae    	0x1530
  === BLOCK LINK ===
    0x1514
=== CODE BLOCK END ===

=== CODE BLOCK ADDRESS 0x1514 ===
  0x1514	dec    	eax
  0x1515	arpl   	word ptr [ecx + 0x3c], ax
  0x1518	dec    	eax
  0x1519	add    	eax, ecx
  0x151b	dec    	eax
  === BLOCK LINK ===
    0x151c
=== CODE BLOCK END ===

=== CODE BLOCK ADDRESS 0x151c ===
  0x151c	mov    	dword ptr [esp], eax
  0x151f	cmp    	dword ptr [eax], 0x4550
  0x1525	dec    	eax
  0x1526	cmovne  	eax, edx
  0x1529	dec    	eax
  === BLOCK LINK ===
    0x152a
=== CODE BLOCK END ===

=== CODE BLOCK ADDRESS 0x152a ===
  0x152a	mov    	edx, eax
  0x152c	dec    	eax
  0x152d	mov    	dword ptr [esp], eax
  0x1530	jmp    	0x1538
  === BLOCK LINK ===
    0x1532
=== CODE BLOCK END ===

=== CODE BLOCK ADDRESS 0x1532 ===
  0x1532	xor    	edx, edx
  0x1534	dec    	eax
  0x1535	mov    	dword ptr [esp], edx
  0x1538	dec    	eax
  0x1539	mov    	eax, edx
  === BLOCK LINK ===
    0x153b
=== CODE BLOCK END ===

=== CODE BLOCK ADDRESS 0x153b ===
  0x153b	dec    	eax
  0x153c	add    	esp, 0x18
  0x153f	ret    	
  0x1540	int3   	
  0x1541	int3   	
  === BLOCK LINK ===
    0x1542
=== CODE BLOCK END ===

=== CODE BLOCK ADDRESS 0x1189 ===
  0x1189	mov    	ecx, 1
  0x118e	mov    	dword ptr [0x1eac], eax
  0x1194	call   	0x1548
  === BLOCK LINK ===
    0x1199
=== CODE BLOCK END ===

=== CODE BLOCK ADDRESS 0x1542 ===
  0x1542	int3   	
  0x1543	int3   	
  0x1544	int3   	
  0x1545	int3   	
  0x1546	int3   	
  === BLOCK LINK ===
    0x1547
=== CODE BLOCK END ===

=== CODE BLOCK ADDRESS 0x1547 ===
  0x1547	int3   	
  === BLOCK LINK ===
    0x1548
=== CODE BLOCK END ===

=== CODE BLOCK ADDRESS 0x154e ===
  0x154e	mov    	ebx, ecx
  0x1550	xor    	ecx, ecx
  0x1552	call   	dword ptr [0xbf0]
  === BLOCK LINK ===
    0x1558
=== CODE BLOCK END ===

=== CODE BLOCK ADDRESS 0x1558 ===
  0x1558	dec    	eax
  0x1559	test   	eax, eax
  0x155b	je     	0x1585
  === BLOCK LINK ===
    0x155d
=== CODE BLOCK END ===

=== CODE BLOCK ADDRESS 0x155d ===
  0x155d	dec    	eax
  0x155e	mov    	ecx, eax
  0x1560	call   	0x14ec
  === BLOCK LINK ===
    0x1565
=== CODE BLOCK END ===

=== CODE BLOCK ADDRESS 0x1565 ===
  0x1565	dec    	eax
  0x1566	test   	eax, eax
  0x1568	je     	0x1585
  === BLOCK LINK ===
    0x156a
=== CODE BLOCK END ===

=== CODE BLOCK ADDRESS 0x156a ===
  0x156a	mov    	ecx, 2
  0x156f	cmp    	word ptr [eax + 0x5c], cx
  0x1573	jne    	0x1579
  === BLOCK LINK ===
    0x1575
=== CODE BLOCK END ===

=== CODE BLOCK ADDRESS 0x1575 ===
  0x1575	mov    	eax, ecx
  0x1577	jmp    	0x1587
  === BLOCK LINK ===
    0x1579
=== CODE BLOCK END ===

=== CODE BLOCK ADDRESS 0x1579 ===
  0x1579	cmp    	word ptr [eax + 0x5c], 3
  0x157e	mov    	eax, 1
  0x1583	je     	0x1587
  === BLOCK LINK ===
    0x1585
=== CODE BLOCK END ===

=== CODE BLOCK ADDRESS 0x1585 ===
  0x1585	mov    	eax, ebx
  0x1587	dec    	eax
  0x1588	add    	esp, 0x20
  0x158b	pop    	ebx
  0x158c	ret    	
  === BLOCK LINK ===
    0x158d
=== CODE BLOCK END ===

=== CODE BLOCK ADDRESS 0x158d ===
  0x158d	int3   	
  0x158e	int3   	
  0x158f	int3   	
  0x1590	int3   	
  0x1591	int3   	
  === BLOCK LINK ===
    0x1592
=== CODE BLOCK END ===

=== CODE BLOCK ADDRESS 0x1592 ===
  0x1592	int3   	
  0x1593	jmp    	dword ptr [0xc57]
  === BLOCK LINK ===
    0x1599
=== CODE BLOCK END ===

=== CODE BLOCK ADDRESS 0x1599 ===
  0x1599	int3   	
  0x159a	int3   	
  0x159b	int3   	
  0x159c	int3   	
  0x159d	int3   	
  === BLOCK LINK ===
    0x159e
=== CODE BLOCK END ===

=== CODE BLOCK ADDRESS 0x159e ===
  0x159e	int3   	
  0x159f	int3   	
  === BLOCK LINK ===
    0x15a0
=== CODE BLOCK END ===

=== CODE BLOCK ADDRESS 0x15a4 ===
  0x15a4	int3   	
  0x15a5	int3   	
  0x15a6	int3   	
  0x15a7	int3   	
  0x15a8	int3   	
  === BLOCK LINK ===
    0x15a9
=== CODE BLOCK END ===

=== CODE BLOCK ADDRESS 0x15a9 ===
  0x15a9	int3   	
  0x15aa	int3   	
  0x15ab	int3   	
  0x15ac	int3   	
  0x15ad	int3   	
  === BLOCK LINK ===
    0x15ae
=== CODE BLOCK END ===

=== CODE BLOCK ADDRESS 0x15ae ===
  0x15ae	int3   	
  0x15af	int3   	
  0x15b0	dec    	esp
  0x15b1	arpl   	word ptr [ecx + 0x3c], ax
  0x15b4	inc    	ebp
  === BLOCK LINK ===
    0x15b5
=== CODE BLOCK END ===

=== CODE BLOCK ADDRESS 0x15b5 ===
  0x15b5	xor    	ecx, ecx
  0x15b7	dec    	esp
  0x15b8	add    	eax, ecx
  0x15ba	dec    	esp
  0x15bb	mov    	edx, edx
  === BLOCK LINK ===
    0x15bd
=== CODE BLOCK END ===

=== CODE BLOCK ADDRESS 0x15bd ===
  0x15bd	inc    	ecx
  0x15be	movzx  	eax, word ptr [eax + 0x14]
  0x15c2	inc    	ebp
  0x15c3	movzx  	ebx, word ptr [eax + 6]
  0x15c7	dec    	eax
  === BLOCK LINK ===
    0x15c8
=== CODE BLOCK END ===

=== CODE BLOCK ADDRESS 0x15c8 ===
  0x15c8	add    	eax, 0x18
  0x15cb	dec    	ecx
  0x15cc	add    	eax, eax
  0x15ce	inc    	ebp
  0x15cf	test   	ebx, ebx
  === BLOCK LINK ===
    0x15d1
=== CODE BLOCK END ===

=== CODE BLOCK ADDRESS 0x15d1 ===
  0x15d1	je     	0x15f1
  === BLOCK LINK ===
    0x15d3
=== CODE BLOCK END ===

=== CODE BLOCK ADDRESS 0x15d3 ===
  0x15d3	mov    	edx, dword ptr [eax + 0xc]
  0x15d6	dec    	esp
  0x15d7	cmp    	edx, edx
  0x15d9	jb     	0x15e5
  === BLOCK LINK ===
    0x15db
=== CODE BLOCK END ===

=== CODE BLOCK ADDRESS 0x15db ===
  0x15db	mov    	ecx, dword ptr [eax + 8]
  0x15de	add    	ecx, edx
  0x15e0	dec    	esp
  0x15e1	cmp    	edx, ecx
  0x15e3	jb     	0x15f3
  === BLOCK LINK ===
    0x15e5
=== CODE BLOCK END ===

=== CODE BLOCK ADDRESS 0x15e5 ===
  0x15e5	inc    	ecx
  0x15e6	inc    	ecx
  0x15e8	dec    	eax
  0x15e9	add    	eax, 0x28
  0x15ec	inc    	ebp
  === BLOCK LINK ===
    0x15ed
=== CODE BLOCK END ===

=== CODE BLOCK ADDRESS 0x15ed ===
  0x15ed	cmp    	ecx, ebx
  0x15ef	jb     	0x15d3
  === BLOCK LINK ===
    0x15f1
=== CODE BLOCK END ===

=== CODE BLOCK ADDRESS 0x15f1 ===
  0x15f1	xor    	eax, eax
  0x15f3	ret    	
  0x15f4	int3   	
  0x15f5	int3   	
  0x15f6	int3   	
  === BLOCK LINK ===
    0x15f7
=== CODE BLOCK END ===

=== CODE BLOCK ADDRESS 0x15f7 ===
  0x15f7	int3   	
  0x15f8	int3   	
  0x15f9	int3   	
  0x15fa	int3   	
  0x15fb	int3   	
  === BLOCK LINK ===
    0x15fc
=== CODE BLOCK END ===

=== CODE BLOCK ADDRESS 0x15fc ===
  0x15fc	int3   	
  0x15fd	int3   	
  0x15fe	int3   	
  0x15ff	int3   	
  0x1600	dec    	eax
  === BLOCK LINK ===
    0x1601
=== CODE BLOCK END ===

=== CODE BLOCK ADDRESS 0x1601 ===
  0x1601	mov    	dword ptr [esp + 8], ebx
  0x1605	push   	edi
  0x1606	dec    	eax
  0x1607	sub    	esp, 0x20
  0x160a	dec    	eax
  === BLOCK LINK ===
    0x160b
=== CODE BLOCK END ===

=== CODE BLOCK ADDRESS 0x160b ===
  0x160b	mov    	ebx, ecx
  0x160d	dec    	eax
  0x160e	lea    	edi, [0xffffe9ec]
  0x1614	dec    	eax
  0x1615	mov    	ecx, edi
  === BLOCK LINK ===
    0x1617
=== CODE BLOCK END ===

=== CODE BLOCK ADDRESS 0x1617 ===
  0x1617	call   	0x1660
  === BLOCK LINK ===
    0x161c
=== CODE BLOCK END ===

=== CODE BLOCK ADDRESS 0x161c ===
  0x161c	test   	eax, eax
  0x161e	je     	0x1642
  === BLOCK LINK ===
    0x1620
=== CODE BLOCK END ===

=== CODE BLOCK ADDRESS 0x1620 ===
  0x1620	dec    	eax
  0x1621	sub    	ebx, edi
  0x1623	dec    	eax
  0x1624	mov    	edx, ebx
  0x1626	dec    	eax
  === BLOCK LINK ===
    0x1627
=== CODE BLOCK END ===

=== CODE BLOCK ADDRESS 0x1627 ===
  0x1627	mov    	ecx, edi
  0x1629	call   	0x15b0
  === BLOCK LINK ===
    0x162e
=== CODE BLOCK END ===

=== CODE BLOCK ADDRESS 0x162e ===
  0x162e	dec    	eax
  0x162f	test   	eax, eax
  0x1631	je     	0x1642
  === BLOCK LINK ===
    0x1633
=== CODE BLOCK END ===

=== CODE BLOCK ADDRESS 0x1633 ===
  0x1633	mov    	eax, dword ptr [eax + 0x24]
  0x1636	shr    	eax, 0x1f
  0x1639	not    	eax
  0x163b	and    	eax, 1
  0x163e	jmp    	0x1642
  === BLOCK LINK ===
    0x1640
=== CODE BLOCK END ===

=== CODE BLOCK ADDRESS 0x1640 ===
  0x1640	xor    	eax, eax
  0x1642	dec    	eax
  0x1643	mov    	ebx, dword ptr [esp + 0x30]
  0x1647	dec    	eax
  0x1648	add    	esp, 0x20
  === BLOCK LINK ===
    0x164b
=== CODE BLOCK END ===

=== CODE BLOCK ADDRESS 0x164b ===
  0x164b	pop    	edi
  0x164c	ret    	
  0x164d	int3   	
  0x164e	int3   	
  0x164f	int3   	
  === BLOCK LINK ===
    0x1650
=== CODE BLOCK END ===

=== CODE BLOCK ADDRESS 0x1650 ===
  0x1650	int3   	
  0x1651	int3   	
  0x1652	int3   	
  0x1653	int3   	
  0x1654	int3   	
  === BLOCK LINK ===
    0x1655
=== CODE BLOCK END ===

=== CODE BLOCK ADDRESS 0x1655 ===
  0x1655	int3   	
  0x1656	int3   	
  0x1657	int3   	
  0x1658	int3   	
  0x1659	int3   	
  === BLOCK LINK ===
    0x165a
=== CODE BLOCK END ===

=== CODE BLOCK ADDRESS 0x165a ===
  0x165a	int3   	
  0x165b	int3   	
  0x165c	int3   	
  0x165d	int3   	
  0x165e	int3   	
  === BLOCK LINK ===
    0x165f
=== CODE BLOCK END ===

=== CODE BLOCK ADDRESS 0x165f ===
  0x165f	int3   	
  0x1660	mov    	eax, 0x5a4d
  0x1665	cmp    	word ptr [ecx], ax
  0x1668	jne    	0x168a
  === BLOCK LINK ===
    0x166a
=== CODE BLOCK END ===

=== CODE BLOCK ADDRESS 0x166a ===
  0x166a	dec    	eax
  0x166b	arpl   	word ptr [ecx + 0x3c], ax
  0x166e	dec    	eax
  0x166f	add    	eax, ecx
  0x1671	cmp    	dword ptr [eax], 0x4550
  === BLOCK LINK ===
    0x1677
=== CODE BLOCK END ===

=== CODE BLOCK ADDRESS 0x1677 ===
  0x1677	jne    	0x168a
  === BLOCK LINK ===
    0x1679
=== CODE BLOCK END ===

=== CODE BLOCK ADDRESS 0x1679 ===
  0x1679	mov    	ecx, 0x20b
  0x167e	cmp    	word ptr [eax + 0x18], cx
  0x1682	jne    	0x168a
  === BLOCK LINK ===
    0x1684
=== CODE BLOCK END ===

=== CODE BLOCK ADDRESS 0x1684 ===
  0x1684	mov    	eax, 1
  0x1689	ret    	
  0x168a	xor    	eax, eax
  0x168c	ret    	
  0x168d	int3   	
  === BLOCK LINK ===
    0x168e
=== CODE BLOCK END ===

=== CODE BLOCK ADDRESS 0x1186 ===
  0x1186	setne  	al
  === BLOCK LINK ===
    0x1189
=== CODE BLOCK END ===

=== CODE BLOCK ADDRESS 0x168e ===
  0x168e	int3   	
  0x168f	int3   	
  0x1690	int3   	
  0x1691	int3   	
  0x1692	int3   	
  === BLOCK LINK ===
    0x1693
=== CODE BLOCK END ===

=== CODE BLOCK ADDRESS 0x1693 ===
  0x1693	int3   	
  0x1694	dec    	eax
  0x1695	mov    	dword ptr [esp + 0x20], ebx
  0x1699	push   	ebp
  0x169a	dec    	eax
  === BLOCK LINK ===
    0x169b
=== CODE BLOCK END ===

=== CODE BLOCK ADDRESS 0x169b ===
  0x169b	mov    	ebp, esp
  0x169d	dec    	eax
  0x169e	sub    	esp, 0x20
  0x16a1	dec    	eax
  0x16a2	and    	dword ptr [ebp + 0x18], 0
  === BLOCK LINK ===
    0x16a6
=== CODE BLOCK END ===

=== CODE BLOCK ADDRESS 0x16a6 ===
  0x16a6	dec    	eax
  0x16a7	mov    	ebx, 0x2ddfa232
  0x16ac	cdq    	
  0x16ad	sub    	eax, dword ptr [eax]
  0x16af	add    	byte ptr [eax - 0x75], cl
  === BLOCK LINK ===
    0x16b2
=== CODE BLOCK END ===

=== CODE BLOCK ADDRESS 0x16b2 ===
  0x16b2	add    	eax, 0x1951
  0x16b7	dec    	eax
  0x16b8	cmp    	eax, ebx
  0x16ba	jne    	0x1753
  === BLOCK LINK ===
    0x16c0
=== CODE BLOCK END ===

=== CODE BLOCK ADDRESS 0x16c0 ===
  0x16c0	dec    	eax
  0x16c1	lea    	ecx, [ebp + 0x18]
  0x16c4	call   	dword ptr [0xad6]
  === BLOCK LINK ===
    0x16ca
=== CODE BLOCK END ===

=== CODE BLOCK ADDRESS 0x16ca ===
  0x16ca	dec    	eax
  0x16cb	mov    	eax, dword ptr [ebp + 0x18]
  0x16ce	dec    	eax
  0x16cf	mov    	dword ptr [ebp + 0x10], eax
  0x16d2	call   	dword ptr [0xa90]
  === BLOCK LINK ===
    0x16d8
=== CODE BLOCK END ===

=== CODE BLOCK ADDRESS 0x16d8 ===
  0x16d8	mov    	eax, eax
  0x16da	dec    	eax
  0x16db	xor    	dword ptr [ebp + 0x10], eax
  0x16de	call   	dword ptr [0xa8c]
  === BLOCK LINK ===
    0x16e4
=== CODE BLOCK END ===

=== CODE BLOCK ADDRESS 0x16e4 ===
  0x16e4	mov    	eax, eax
  0x16e6	dec    	eax
  0x16e7	xor    	dword ptr [ebp + 0x10], eax
  0x16ea	call   	dword ptr [0xab8]
  === BLOCK LINK ===
    0x16f0
=== CODE BLOCK END ===

=== CODE BLOCK ADDRESS 0x16f0 ===
  0x16f0	mov    	eax, eax
  0x16f2	dec    	eax
  0x16f3	shl    	eax, 0x18
  0x16f6	dec    	eax
  0x16f7	xor    	dword ptr [ebp + 0x10], eax
  === BLOCK LINK ===
    0x16fa
=== CODE BLOCK END ===

=== CODE BLOCK ADDRESS 0x16fa ===
  0x16fa	call   	dword ptr [0xaa8]
  === BLOCK LINK ===
    0x1700
=== CODE BLOCK END ===

=== CODE BLOCK ADDRESS 0x1700 ===
  0x1700	mov    	eax, eax
  0x1702	dec    	eax
  0x1703	lea    	ecx, [ebp + 0x10]
  0x1706	dec    	eax
  0x1707	xor    	eax, dword ptr [ebp + 0x10]
  === BLOCK LINK ===
    0x170a
=== CODE BLOCK END ===

=== CODE BLOCK ADDRESS 0x170a ===
  0x170a	dec    	eax
  0x170b	xor    	eax, ecx
  0x170d	dec    	eax
  0x170e	lea    	ecx, [ebp + 0x20]
  0x1711	dec    	eax
  === BLOCK LINK ===
    0x1712
=== CODE BLOCK END ===

=== CODE BLOCK ADDRESS 0x1712 ===
  0x1712	mov    	dword ptr [ebp + 0x10], eax
  0x1715	call   	dword ptr [0xa65]
  === BLOCK LINK ===
    0x171b
=== CODE BLOCK END ===

=== CODE BLOCK ADDRESS 0x171b ===
  0x171b	mov    	eax, dword ptr [ebp + 0x20]
  0x171e	dec    	eax
  0x171f	mov    	ecx, 0xffffffff
  0x1724	.byte  	0xff
  0x1725	inc    	dword ptr [eax]
  === BLOCK LINK ===
    0x1727
=== CODE BLOCK END ===

=== CODE BLOCK ADDRESS 0x1727 ===
  0x1727	add    	byte ptr [eax - 0x3f], cl
  0x172a	loopne  	0x174c
  === BLOCK LINK ===
    0x172c
=== CODE BLOCK END ===

=== CODE BLOCK ADDRESS 0x172c ===
  0x172c	dec    	eax
  0x172d	xor    	eax, dword ptr [ebp + 0x20]
  0x1730	dec    	eax
  0x1731	xor    	eax, dword ptr [ebp + 0x10]
  0x1734	dec    	eax
  === BLOCK LINK ===
    0x1735
=== CODE BLOCK END ===

=== CODE BLOCK ADDRESS 0x1735 ===
  0x1735	and    	eax, ecx
  0x1737	dec    	eax
  0x1738	mov    	ecx, eax
  0x173a	dec    	eax
  0x173b	cmp    	eax, ebx
  === BLOCK LINK ===
    0x173d
=== CODE BLOCK END ===

=== CODE BLOCK ADDRESS 0x173d ===
  0x173d	jne    	0x174c
  === BLOCK LINK ===
    0x173f
=== CODE BLOCK END ===

=== CODE BLOCK ADDRESS 0x173f ===
  0x173f	dec    	eax
  0x1740	mov    	eax, 0x2ddfa233
  0x1745	cdq    	
  0x1746	sub    	eax, dword ptr [eax]
  0x1748	add    	byte ptr [eax - 0x75], cl
  === BLOCK LINK ===
    0x174b
=== CODE BLOCK END ===

=== CODE BLOCK ADDRESS 0x174b ===
  0x174b	enter  	-0x76b8, 0xd
  0x174f	mov    	ch, 0x18
  0x1751	add    	byte ptr [eax], al
  0x1753	dec    	eax
  0x1754	mov    	ebx, dword ptr [esp + 0x48]
  === BLOCK LINK ===
    0x1758
=== CODE BLOCK END ===

=== CODE BLOCK ADDRESS 0x1758 ===
  0x1758	dec    	eax
  0x1759	not    	eax
  0x175b	dec    	eax
  0x175c	mov    	dword ptr [0x18ae], eax
  0x1762	dec    	eax
  === BLOCK LINK ===
    0x1763
=== CODE BLOCK END ===

=== CODE BLOCK ADDRESS 0x1763 ===
  0x1763	add    	esp, 0x20
  0x1766	pop    	ebp
  0x1767	ret    	
  0x1768	int3   	
  0x1769	int3   	
  === BLOCK LINK ===
    0x176a
=== CODE BLOCK END ===

=== CODE BLOCK ADDRESS 0x1548 ===
  0x1548	inc    	eax
  0x1549	push   	ebx
  0x154a	dec    	eax
  0x154b	sub    	esp, 0x20
  === BLOCK LINK ===
    0x154e
=== CODE BLOCK END ===

=== CODE BLOCK ADDRESS 0x176a ===
  0x176a	int3   	
  0x176b	int3   	
  0x176c	int3   	
  0x176d	int3   	
  0x176e	jmp    	dword ptr [0xaac]
  === BLOCK LINK ===
    0x1774
=== CODE BLOCK END ===

=== CODE BLOCK ADDRESS 0x1774 ===
  0x1774	int3   	
  0x1775	int3   	
  0x1776	int3   	
  0x1777	int3   	
  0x1778	int3   	
  === BLOCK LINK ===
    0x1779
=== CODE BLOCK END ===

=== CODE BLOCK ADDRESS 0x1779 ===
  0x1779	int3   	
  0x177a	jmp    	dword ptr [0xac0]
  === BLOCK LINK ===
    0x1780
=== CODE BLOCK END ===

=== CODE BLOCK ADDRESS 0x1780 ===
  0x1780	int3   	
  0x1781	int3   	
  0x1782	int3   	
  0x1783	int3   	
  0x1784	int3   	
  === BLOCK LINK ===
    0x1785
=== CODE BLOCK END ===

=== CODE BLOCK ADDRESS 0x1785 ===
  0x1785	int3   	
  0x1786	int3   	
  0x1787	int3   	
  0x1788	int3   	
  0x1789	int3   	
  === BLOCK LINK ===
    0x178a
=== CODE BLOCK END ===

=== CODE BLOCK ADDRESS 0x178a ===
  0x178a	int3   	
  0x178b	int3   	
  0x178c	int3   	
  0x178d	int3   	
  0x178e	int3   	
  === BLOCK LINK ===
    0x178f
=== CODE BLOCK END ===

=== CODE BLOCK ADDRESS 0x178f ===
  0x178f	int3   	
  0x1790	ret    	0
  0x1793	int3   	
  0x1794	int3   	
  0x1795	int3   	
  === BLOCK LINK ===
    0x1796
=== CODE BLOCK END ===

=== CODE BLOCK ADDRESS 0x15a0 ===
  0x15a0	xor    	eax, eax
  0x15a2	ret    	
  0x15a3	int3   	
  === BLOCK LINK ===
    0x15a4
=== CODE BLOCK END ===

=== CODE BLOCK ADDRESS 0x1796 ===
  0x1796	int3   	
  0x1797	int3   	
  0x1798	int3   	
  0x1799	int3   	
  0x179a	int3   	
  === BLOCK LINK ===
    0x179b
=== CODE BLOCK END ===

=== CODE BLOCK ADDRESS 0x179b ===
  0x179b	int3   	
  0x179c	inc    	eax
  0x179d	push   	ebx
  0x179e	dec    	eax
  0x179f	sub    	esp, 0x20
  === BLOCK LINK ===
    0x17a2
=== CODE BLOCK END ===

=== CODE BLOCK ADDRESS 0x17a2 ===
  0x17a2	dec    	eax
  0x17a3	mov    	ebx, ecx
  0x17a5	xor    	ecx, ecx
  0x17a7	call   	dword ptr [0x983]
  === BLOCK LINK ===
    0x17ad
=== CODE BLOCK END ===

=== CODE BLOCK ADDRESS 0x17ad ===
  0x17ad	dec    	eax
  0x17ae	mov    	ecx, ebx
  0x17b0	call   	dword ptr [0x982]
  === BLOCK LINK ===
    0x17b6
=== CODE BLOCK END ===

=== CODE BLOCK ADDRESS 0x17b6 ===
  0x17b6	call   	dword ptr [0x99c]
  === BLOCK LINK ===
    0x17bc
=== CODE BLOCK END ===

=== CODE BLOCK ADDRESS 0x17bc ===
  0x17bc	dec    	eax
  0x17bd	mov    	ecx, eax
  0x17bf	mov    	edx, 0xc0000409
  0x17c4	dec    	eax
  0x17c5	add    	esp, 0x20
  === BLOCK LINK ===
    0x17c8
=== CODE BLOCK END ===

=== CODE BLOCK ADDRESS 0x17c8 ===
  0x17c8	pop    	ebx
  0x17c9	dec    	eax
  0x17ca	jmp    	dword ptr [0x990]
  === BLOCK LINK ===
    0x17d0
=== CODE BLOCK END ===

=== CODE BLOCK ADDRESS 0x17d0 ===
  0x17d0	int3   	
  0x17d1	int3   	
  0x17d2	int3   	
  0x17d3	int3   	
  0x17d4	int3   	
  === BLOCK LINK ===
    0x17d5
=== CODE BLOCK END ===

=== CODE BLOCK ADDRESS 0x17d5 ===
  0x17d5	int3   	
  0x17d6	int3   	
  0x17d7	int3   	
  0x17d8	int3   	
  0x17d9	int3   	
  === BLOCK LINK ===
    0x17da
=== CODE BLOCK END ===

=== CODE BLOCK ADDRESS 0x17da ===
  0x17da	int3   	
  0x17db	int3   	
  0x17dc	int3   	
  0x17dd	int3   	
  0x17de	int3   	
  === BLOCK LINK ===
    0x17df
=== CODE BLOCK END ===

=== CODE BLOCK ADDRESS 0x17df ===
  0x17df	int3   	
  0x17e0	dec    	eax
  0x17e1	mov    	dword ptr [esp + 8], ecx
  0x17e5	dec    	eax
  0x17e6	sub    	esp, 0x88
  === BLOCK LINK ===
    0x17ec
=== CODE BLOCK END ===

=== CODE BLOCK ADDRESS 0x17ec ===
  0x17ec	dec    	eax
  0x17ed	lea    	ecx, [0x190d]
  0x17f3	call   	dword ptr [0xa6f]
  === BLOCK LINK ===
    0x17f9
=== CODE BLOCK END ===

=== CODE BLOCK ADDRESS 0x17f9 ===
  0x17f9	dec    	eax
  0x17fa	mov    	eax, dword ptr [0x19f8]
  0x1800	dec    	eax
  0x1801	mov    	dword ptr [esp + 0x48], eax
  0x1805	inc    	ebp
  === BLOCK LINK ===
    0x1806
=== CODE BLOCK END ===

=== CODE BLOCK ADDRESS 0x1806 ===
  0x1806	xor    	eax, eax
  0x1808	dec    	eax
  0x1809	lea    	edx, [esp + 0x50]
  0x180d	dec    	eax
  0x180e	mov    	ecx, dword ptr [esp + 0x48]
  === BLOCK LINK ===
    0x1812
=== CODE BLOCK END ===

=== CODE BLOCK ADDRESS 0x1812 ===
  0x1812	call   	dword ptr [0xa40]
  === BLOCK LINK ===
    0x1818
=== CODE BLOCK END ===

=== CODE BLOCK ADDRESS 0x1818 ===
  0x1818	dec    	eax
  0x1819	mov    	dword ptr [esp + 0x40], eax
  0x181d	dec    	eax
  0x181e	cmp    	dword ptr [esp + 0x40], 0
  0x1823	je     	0x1867
  === BLOCK LINK ===
    0x1825
=== CODE BLOCK END ===

=== CODE BLOCK ADDRESS 0x1825 ===
  0x1825	dec    	eax
  0x1826	mov    	dword ptr [esp + 0x38], 0
  0x182e	dec    	eax
  0x182f	lea    	eax, [esp + 0x58]
  0x1833	dec    	eax
  === BLOCK LINK ===
    0x1834
=== CODE BLOCK END ===

=== CODE BLOCK ADDRESS 0x1834 ===
  0x1834	mov    	dword ptr [esp + 0x30], eax
  0x1838	dec    	eax
  0x1839	lea    	eax, [esp + 0x60]
  0x183d	dec    	eax
  0x183e	mov    	dword ptr [esp + 0x28], eax
  === BLOCK LINK ===
    0x1842
=== CODE BLOCK END ===

=== CODE BLOCK ADDRESS 0x1842 ===
  0x1842	dec    	eax
  0x1843	lea    	eax, [0x18b7]
  0x1849	dec    	eax
  0x184a	mov    	dword ptr [esp + 0x20], eax
  0x184e	dec    	esp
  === BLOCK LINK ===
    0x184f
=== CODE BLOCK END ===

=== CODE BLOCK ADDRESS 0x184f ===
  0x184f	mov    	ecx, dword ptr [esp + 0x40]
  0x1853	dec    	esp
  0x1854	mov    	eax, dword ptr [esp + 0x48]
  0x1858	dec    	eax
  0x1859	mov    	edx, dword ptr [esp + 0x50]
  === BLOCK LINK ===
    0x185d
=== CODE BLOCK END ===

=== CODE BLOCK ADDRESS 0x185d ===
  0x185d	xor    	ecx, ecx
  0x185f	call   	dword ptr [0x9fb]
  === BLOCK LINK ===
    0x1865
=== CODE BLOCK END ===

=== CODE BLOCK ADDRESS 0x1865 ===
  0x1865	jmp    	0x188a
  === BLOCK LINK ===
    0x1867
=== CODE BLOCK END ===

=== CODE BLOCK ADDRESS 0x1867 ===
  0x1867	dec    	eax
  0x1868	mov    	eax, dword ptr [0x192a]
  0x186e	dec    	eax
  0x186f	mov    	eax, dword ptr [eax]
  0x1871	dec    	eax
  === BLOCK LINK ===
    0x1872
=== CODE BLOCK END ===

=== CODE BLOCK ADDRESS 0x1872 ===
  0x1872	mov    	dword ptr [0x1980], eax
  0x1878	dec    	eax
  0x1879	mov    	eax, dword ptr [0x1919]
  0x187f	dec    	eax
  0x1880	add    	eax, 8
  === BLOCK LINK ===
    0x1883
=== CODE BLOCK END ===

=== CODE BLOCK ADDRESS 0x1883 ===
  0x1883	dec    	eax
  0x1884	mov    	dword ptr [0x190e], eax
  0x188a	dec    	eax
  0x188b	mov    	eax, dword ptr [0x1967]
  0x1891	dec    	eax
  === BLOCK LINK ===
    0x1892
=== CODE BLOCK END ===

=== CODE BLOCK ADDRESS 0x1892 ===
  0x1892	mov    	dword ptr [0x17d8], eax
  0x1898	dec    	eax
  0x1899	mov    	eax, dword ptr [esp + 0x90]
  0x18a0	dec    	eax
  0x18a1	mov    	dword ptr [0x18d9], eax
  === BLOCK LINK ===
    0x18a7
=== CODE BLOCK END ===

=== CODE BLOCK ADDRESS 0x18a7 ===
  0x18a7	mov    	dword ptr [0x17af], 0xc0000409
  0x18b1	mov    	dword ptr [0x17a9], 1
  0x18bb	mov    	dword ptr [0x17b3], 3
  0x18c5	mov    	eax, 8
  0x18ca	dec    	eax
  === BLOCK LINK ===
    0x18cb
=== CODE BLOCK END ===

=== CODE BLOCK ADDRESS 0x18cb ===
  0x18cb	imul   	eax, eax, 0
  0x18ce	dec    	eax
  0x18cf	lea    	ecx, [0x17ab]
  0x18d5	dec    	eax
  0x18d6	mov    	dword ptr [ecx + eax], 2
  === BLOCK LINK ===
    0x18dd
=== CODE BLOCK END ===

=== CODE BLOCK ADDRESS 0x18dd ===
  0x18dd	mov    	eax, 8
  0x18e2	dec    	eax
  0x18e3	imul   	eax, eax, 1
  0x18e6	dec    	eax
  0x18e7	lea    	ecx, [0x1793]
  === BLOCK LINK ===
    0x18ed
=== CODE BLOCK END ===

=== CODE BLOCK ADDRESS 0x18ed ===
  0x18ed	dec    	eax
  0x18ee	mov    	edx, dword ptr [0x1714]
  0x18f4	dec    	eax
  0x18f5	mov    	dword ptr [ecx + eax], edx
  0x18f8	mov    	eax, 8
  === BLOCK LINK ===
    0x18fd
=== CODE BLOCK END ===

=== CODE BLOCK ADDRESS 0x18fd ===
  0x18fd	dec    	eax
  0x18fe	imul   	eax, eax, 2
  0x1901	dec    	eax
  0x1902	lea    	ecx, [0x1778]
  0x1908	dec    	eax
  === BLOCK LINK ===
    0x1909
=== CODE BLOCK END ===

=== CODE BLOCK ADDRESS 0x1909 ===
  0x1909	mov    	edx, dword ptr [0x1701]
  0x190f	dec    	eax
  0x1910	mov    	dword ptr [ecx + eax], edx
  0x1913	mov    	eax, 8
  0x1918	dec    	eax
  === BLOCK LINK ===
    0x1919
=== CODE BLOCK END ===

=== CODE BLOCK ADDRESS 0x1919 ===
  0x1919	imul   	eax, eax, 0
  0x191c	dec    	eax
  0x191d	mov    	ecx, dword ptr [0x16e5]
  0x1923	dec    	eax
  0x1924	mov    	dword ptr [esp + eax + 0x68], ecx
  === BLOCK LINK ===
    0x1928
=== CODE BLOCK END ===

=== CODE BLOCK ADDRESS 0x1928 ===
  0x1928	mov    	eax, 8
  0x192d	dec    	eax
  0x192e	imul   	eax, eax, 1
  0x1931	dec    	eax
  0x1932	mov    	ecx, dword ptr [0x16d8]
  === BLOCK LINK ===
    0x1938
=== CODE BLOCK END ===

=== CODE BLOCK ADDRESS 0x1938 ===
  0x1938	dec    	eax
  0x1939	mov    	dword ptr [esp + eax + 0x68], ecx
  0x193d	dec    	eax
  0x193e	lea    	ecx, [0x6bc]
  0x1944	call   	0x179c
  === BLOCK LINK ===
    0x1949
=== CODE BLOCK END ===

=== CODE BLOCK ADDRESS 0x1949 ===
  0x1949	dec    	eax
  0x194a	add    	esp, 0x88
  0x1950	ret    	
  0x1951	int3   	
  0x1952	int3   	
  === BLOCK LINK ===
    0x1953
=== CODE BLOCK END ===

=== CODE BLOCK ADDRESS 0x1953 ===
  0x1953	int3   	
  0x1954	int3   	
  0x1955	int3   	
  0x1956	int3   	
  0x1957	int3   	
  === BLOCK LINK ===
    0x1958
=== CODE BLOCK END ===

=== CODE BLOCK ADDRESS 0x1958 ===
  0x1958	int3   	
  0x1959	int3   	
  0x195a	int3   	
  0x195b	int3   	
  0x195c	int3   	
  === BLOCK LINK ===
    0x195d
=== CODE BLOCK END ===

=== CODE BLOCK ADDRESS 0x195d ===
  0x195d	int3   	
  0x195e	int3   	
  0x195f	int3   	
  0x1960	int3   	
  0x1961	int3   	
  === BLOCK LINK ===
    0x1962
=== CODE BLOCK END ===

=== CODE BLOCK ADDRESS 0x1962 ===
  0x1962	int3   	
  0x1963	int3   	
  0x1964	int3   	
  0x1965	int3   	
  0x1966	int3   	
  === BLOCK LINK ===
    0x1967
=== CODE BLOCK END ===

=== CODE BLOCK ADDRESS 0x1967 ===
  0x1967	int3   	
  0x1968	dec    	eax
  0x1969	sub    	esp, 0x28
  0x196c	dec    	ebp
  0x196d	mov    	eax, dword ptr [ecx + 0x38]
  === BLOCK LINK ===
    0x1970
=== CODE BLOCK END ===

=== CODE BLOCK ADDRESS 0x1970 ===
  0x1970	dec    	eax
  0x1971	mov    	ecx, edx
  0x1973	dec    	ecx
  0x1974	mov    	edx, ecx
  0x1976	call   	0x198c
  === BLOCK LINK ===
    0x197b
=== CODE BLOCK END ===

=== CODE BLOCK ADDRESS 0x197b ===
  0x197b	mov    	eax, 1
  0x1980	dec    	eax
  0x1981	add    	esp, 0x28
  0x1984	ret    	
  0x1985	int3   	
  === BLOCK LINK ===
    0x1986
=== CODE BLOCK END ===

=== CODE BLOCK ADDRESS 0x1986 ===
  0x1986	int3   	
  0x1987	int3   	
  0x1988	int3   	
  0x1989	int3   	
  0x198a	int3   	
  === BLOCK LINK ===
    0x198b
=== CODE BLOCK END ===

=== CODE BLOCK ADDRESS 0x198b ===
  0x198b	int3   	
  0x198c	inc    	eax
  0x198d	push   	ebx
  0x198e	inc    	ebp
  0x198f	mov    	ebx, dword ptr [eax]
  === BLOCK LINK ===
    0x1991
=== CODE BLOCK END ===

=== CODE BLOCK ADDRESS 0x1991 ===
  0x1991	dec    	eax
  0x1992	mov    	ebx, edx
  0x1994	inc    	ecx
  0x1995	and    	ebx, 0xfffffff8
  0x1998	dec    	esp
  === BLOCK LINK ===
    0x1999
=== CODE BLOCK END ===

=== CODE BLOCK ADDRESS 0x1999 ===
  0x1999	mov    	ecx, ecx
  0x199b	inc    	ecx
  0x199c	test   	byte ptr [eax], 4
  0x199f	dec    	esp
  0x19a0	mov    	edx, ecx
  === BLOCK LINK ===
    0x19a2
=== CODE BLOCK END ===

=== CODE BLOCK ADDRESS 0x19a2 ===
  0x19a2	je     	0x19b7
  === BLOCK LINK ===
    0x19a4
=== CODE BLOCK END ===

=== CODE BLOCK ADDRESS 0x19a4 ===
  0x19a4	inc    	ecx
  0x19a5	mov    	eax, dword ptr [eax + 8]
  0x19a8	dec    	ebp
  0x19a9	arpl   	word ptr [eax + 4], dx
  0x19ac	neg    	eax
  === BLOCK LINK ===
    0x19ae
=== CODE BLOCK END ===

=== CODE BLOCK ADDRESS 0x19ae ===
  0x19ae	dec    	esp
  0x19af	add    	edx, ecx
  0x19b1	dec    	eax
  0x19b2	arpl   	ax, cx
  0x19b4	dec    	esp
  === BLOCK LINK ===
    0x19b5
=== CODE BLOCK END ===

=== CODE BLOCK ADDRESS 0x19b5 ===
  0x19b5	and    	edx, ecx
  0x19b7	dec    	ecx
  0x19b8	arpl   	bx, ax
  0x19ba	dec    	edx
  0x19bb	mov    	edx, dword ptr [eax + edx]
  === BLOCK LINK ===
    0x19be
=== CODE BLOCK END ===

=== CODE BLOCK ADDRESS 0x19be ===
  0x19be	dec    	eax
  0x19bf	mov    	eax, dword ptr [ebx + 0x10]
  0x19c2	mov    	ecx, dword ptr [eax + 8]
  0x19c5	dec    	eax
  0x19c6	mov    	eax, dword ptr [ebx + 8]
  === BLOCK LINK ===
    0x19c9
=== CODE BLOCK END ===

=== CODE BLOCK ADDRESS 0x19c9 ===
  0x19c9	test   	byte ptr [ecx + eax + 3], 0xf
  0x19ce	je     	0x19db
  === BLOCK LINK ===
    0x19d0
=== CODE BLOCK END ===

=== CODE BLOCK ADDRESS 0x19d0 ===
  0x19d0	movzx  	eax, byte ptr [ecx + eax + 3]
  0x19d5	and    	eax, 0xfffffff0
  0x19d8	dec    	esp
  0x19d9	add    	ecx, eax
  0x19db	dec    	esp
  === BLOCK LINK ===
    0x19dc
=== CODE BLOCK END ===

=== CODE BLOCK ADDRESS 0x19dc ===
  0x19dc	xor    	ecx, edx
  0x19de	dec    	ecx
  0x19df	mov    	ecx, ecx
  0x19e1	pop    	ebx
  0x19e2	jmp    	0x1450
  === BLOCK LINK ===
    0x19e7
=== CODE BLOCK END ===

=== CODE BLOCK ADDRESS 0x19e7 ===
  0x19e7	int3   	
  0x19e8	int3   	
  0x19e9	int3   	
  0x19ea	int3   	
  0x19eb	int3   	
  === BLOCK LINK ===
    0x19ec
=== CODE BLOCK END ===

=== CODE BLOCK ADDRESS 0x19ec ===
  0x19ec	int3   	
  0x19ed	int3   	
  0x19ee	int3   	
  0x19ef	int3   	
  0x19f0	int3   	
  === BLOCK LINK ===
    0x19f1
=== CODE BLOCK END ===

=== CODE BLOCK ADDRESS 0x19f1 ===
  0x19f1	int3   	
  0x19f2	int3   	
  0x19f3	int3   	
  0x19f4	int3   	
  0x19f5	int3   	
  === BLOCK LINK ===
    0x19f6
=== CODE BLOCK END ===

=== CODE BLOCK ADDRESS 0x19f6 ===
  0x19f6	nop    	word ptr [eax + eax]
  0x1a00	jmp    	eax
  === BLOCK LINK ===
    0x1a02
=== CODE BLOCK END ===

=== CODE BLOCK ADDRESS 0x1a02 ===
  0x1a02	int3   	
  0x1a03	int3   	
  0x1a04	int3   	
  0x1a05	int3   	
  0x1a06	int3   	
  === BLOCK LINK ===
    0x1a07
=== CODE BLOCK END ===

=== CODE BLOCK ADDRESS 0x1a07 ===
  0x1a07	int3   	
  0x1a08	int3   	
  0x1a09	int3   	
  0x1a0a	int3   	
  0x1a0b	int3   	
  === BLOCK LINK ===
    0x1a0c
=== CODE BLOCK END ===

=== CODE BLOCK ADDRESS 0x1a0c ===
  0x1a0c	int3   	
  0x1a0d	int3   	
  0x1a0e	int3   	
  0x1a0f	int3   	
  0x1a10	inc    	eax
  === BLOCK LINK ===
    0x1a11
=== CODE BLOCK END ===

=== CODE BLOCK ADDRESS 0x1a11 ===
  0x1a11	push   	ebp
  0x1a12	dec    	eax
  0x1a13	sub    	esp, 0x20
  0x1a16	dec    	eax
  0x1a17	mov    	ebp, edx
  === BLOCK LINK ===
    0x1a19
=== CODE BLOCK END ===

=== CODE BLOCK ADDRESS 0x1a19 ===
  0x1a19	dec    	eax
  0x1a1a	mov    	eax, dword ptr [ecx]
  0x1a1c	dec    	eax
  0x1a1d	mov    	edx, ecx
  0x1a1f	mov    	ecx, dword ptr [eax]
  === BLOCK LINK ===
    0x1a21
=== CODE BLOCK END ===

=== CODE BLOCK ADDRESS 0x1a21 ===
  0x1a21	call   	0x14de
  === BLOCK LINK ===
    0x1a26
=== CODE BLOCK END ===

=== CODE BLOCK ADDRESS 0x1a26 ===
  0x1a26	nop    	
  0x1a27	dec    	eax
  0x1a28	add    	esp, 0x20
  0x1a2b	pop    	ebp
  0x1a2c	ret    	
  === BLOCK LINK ===
    0x1a2d
=== CODE BLOCK END ===

=== CODE BLOCK ADDRESS 0x1a2d ===
  0x1a2d	int3   	
  0x1a2e	int3   	
  0x1a2f	int3   	
  0x1a30	int3   	
  0x1a31	int3   	
  === BLOCK LINK ===
    0x1a32
=== CODE BLOCK END ===

=== CODE BLOCK ADDRESS 0x1a32 ===
  0x1a32	int3   	
  0x1a33	int3   	
  0x1a34	int3   	
  0x1a35	int3   	
  0x1a36	int3   	
  === BLOCK LINK ===
    0x1a37
=== CODE BLOCK END ===

=== CODE BLOCK ADDRESS 0x1a37 ===
  0x1a37	int3   	
  0x1a38	int3   	
  0x1a39	int3   	
  0x1a3a	int3   	
  0x1a3b	int3   	
  === BLOCK LINK ===
    0x1a3c
=== CODE BLOCK END ===

=== CODE BLOCK ADDRESS 0x1a3c ===
  0x1a3c	int3   	
  0x1a3d	int3   	
  0x1a3e	int3   	
  0x1a3f	int3   	
  0x1a40	inc    	eax
  === BLOCK LINK ===
    0x1a41
=== CODE BLOCK END ===

=== CODE BLOCK ADDRESS 0x1a41 ===
  0x1a41	push   	ebp
  0x1a42	dec    	eax
  0x1a43	sub    	esp, 0x20
  0x1a46	dec    	eax
  0x1a47	mov    	ebp, edx
  === BLOCK LINK ===
    0x1a49
=== CODE BLOCK END ===

=== CODE BLOCK ADDRESS 0x1a49 ===
  0x1a49	dec    	eax
  0x1a4a	mov    	eax, dword ptr [ecx]
  0x1a4c	xor    	ecx, ecx
  0x1a4e	cmp    	dword ptr [eax], 0xc0000005
  0x1a54	sete   	cl
  === BLOCK LINK ===
    0x1a57
=== CODE BLOCK END ===

=== CODE BLOCK ADDRESS 0x1a57 ===
  0x1a57	mov    	eax, ecx
  0x1a59	dec    	eax
  0x1a5a	add    	esp, 0x20
  0x1a5d	pop    	ebp
  0x1a5e	ret    	
  === BLOCK LINK ===
    0x1a5f
=== CODE BLOCK END ===

=== CODE BLOCK ADDRESS 0x12a1 ===
  0x12a1	mov    	eax, dword ptr [0x2349]
  0x12a7	cmp    	eax, ebx
  0x12a9	jne    	0x12b7
  === BLOCK LINK ===
    0x12ab
=== CODE BLOCK END ===

=== CODE BLOCK ADDRESS 0x1a5f ===
  0x1a5f	int3   	
  0x1a60	add    	byte ptr [eax], al
  0x1a62	add    	byte ptr [eax], al
  0x1a64	add    	byte ptr [eax], al
  0x1a66	add    	byte ptr [eax], al
  === BLOCK LINK ===
    0x1a68
=== CODE BLOCK END ===

=== CODE BLOCK ADDRESS 0x1a68 ===
  0x1a68	add    	byte ptr [eax], al
  0x1a6a	add    	byte ptr [eax], al
  0x1a6c	add    	byte ptr [eax], al
  0x1a6e	add    	byte ptr [eax], al
  0x1a70	add    	byte ptr [eax], al
  === BLOCK LINK ===
    0x1a72
=== CODE BLOCK END ===

=== CODE BLOCK ADDRESS 0x1a72 ===
  0x1a72	add    	byte ptr [eax], al
  0x1a74	add    	byte ptr [eax], al
  0x1a76	add    	byte ptr [eax], al
  0x1a78	add    	byte ptr [eax], al
  0x1a7a	add    	byte ptr [eax], al
  === BLOCK LINK ===
    0x1a7c
=== CODE BLOCK END ===

=== CODE BLOCK ADDRESS 0x1a7c ===
  0x1a7c	add    	byte ptr [eax], al
  0x1a7e	add    	byte ptr [eax], al
  0x1a80	add    	byte ptr [eax], al
  0x1a82	add    	byte ptr [eax], al
  0x1a84	add    	byte ptr [eax], al
  === BLOCK LINK ===
    0x1a86
=== CODE BLOCK END ===

=== CODE BLOCK ADDRESS 0x1a86 ===
  0x1a86	add    	byte ptr [eax], al
  0x1a88	add    	byte ptr [eax], al
  0x1a8a	add    	byte ptr [eax], al
  0x1a8c	add    	byte ptr [eax], al
  0x1a8e	add    	byte ptr [eax], al
  === BLOCK LINK ===
    0x1a90
=== CODE BLOCK END ===

=== CODE BLOCK ADDRESS 0x1a90 ===
  0x1a90	add    	byte ptr [eax], al
  0x1a92	add    	byte ptr [eax], al
  0x1a94	add    	byte ptr [eax], al
  0x1a96	add    	byte ptr [eax], al
  0x1a98	add    	byte ptr [eax], al
  === BLOCK LINK ===
    0x1a9a
=== CODE BLOCK END ===

=== CODE BLOCK ADDRESS 0x1a9a ===
  0x1a9a	add    	byte ptr [eax], al
  0x1a9c	add    	byte ptr [eax], al
  0x1a9e	add    	byte ptr [eax], al
  0x1aa0	add    	byte ptr [eax], al
  0x1aa2	add    	byte ptr [eax], al
  === BLOCK LINK ===
    0x1aa4
=== CODE BLOCK END ===

=== CODE BLOCK ADDRESS 0x1aa4 ===
  0x1aa4	add    	byte ptr [eax], al
  0x1aa6	add    	byte ptr [eax], al
  0x1aa8	add    	byte ptr [eax], al
  0x1aaa	add    	byte ptr [eax], al
  0x1aac	add    	byte ptr [eax], al
  === BLOCK LINK ===
    0x1aae
=== CODE BLOCK END ===

=== CODE BLOCK ADDRESS 0x1aae ===
  0x1aae	add    	byte ptr [eax], al
  0x1ab0	add    	byte ptr [eax], al
  0x1ab2	add    	byte ptr [eax], al
  0x1ab4	add    	byte ptr [eax], al
  0x1ab6	add    	byte ptr [eax], al
  === BLOCK LINK ===
    0x1ab8
=== CODE BLOCK END ===

=== CODE BLOCK ADDRESS 0x1ab8 ===
  0x1ab8	add    	byte ptr [eax], al
  0x1aba	add    	byte ptr [eax], al
  0x1abc	add    	byte ptr [eax], al
  0x1abe	add    	byte ptr [eax], al
  0x1ac0	add    	byte ptr [eax], al
  === BLOCK LINK ===
    0x1ac2
=== CODE BLOCK END ===

=== CODE BLOCK ADDRESS 0x1ac2 ===
  0x1ac2	add    	byte ptr [eax], al
  0x1ac4	add    	byte ptr [eax], al
  0x1ac6	add    	byte ptr [eax], al
  0x1ac8	add    	byte ptr [eax], al
  0x1aca	add    	byte ptr [eax], al
  === BLOCK LINK ===
    0x1acc
=== CODE BLOCK END ===

=== CODE BLOCK ADDRESS 0x1acc ===
  0x1acc	add    	byte ptr [eax], al
  0x1ace	add    	byte ptr [eax], al
  0x1ad0	add    	byte ptr [eax], al
  0x1ad2	add    	byte ptr [eax], al
  0x1ad4	add    	byte ptr [eax], al
  === BLOCK LINK ===
    0x1ad6
=== CODE BLOCK END ===

=== CODE BLOCK ADDRESS 0x1ad6 ===
  0x1ad6	add    	byte ptr [eax], al
  0x1ad8	add    	byte ptr [eax], al
  0x1ada	add    	byte ptr [eax], al
  0x1adc	add    	byte ptr [eax], al
  0x1ade	add    	byte ptr [eax], al
  === BLOCK LINK ===
    0x1ae0
=== CODE BLOCK END ===

=== CODE BLOCK ADDRESS 0x1ae0 ===
  0x1ae0	add    	byte ptr [eax], al
  0x1ae2	add    	byte ptr [eax], al
  0x1ae4	add    	byte ptr [eax], al
  0x1ae6	add    	byte ptr [eax], al
  0x1ae8	add    	byte ptr [eax], al
  === BLOCK LINK ===
    0x1aea
=== CODE BLOCK END ===

=== CODE BLOCK ADDRESS 0x1aea ===
  0x1aea	add    	byte ptr [eax], al
  0x1aec	add    	byte ptr [eax], al
  0x1aee	add    	byte ptr [eax], al
  0x1af0	add    	byte ptr [eax], al
  0x1af2	add    	byte ptr [eax], al
  === BLOCK LINK ===
    0x1af4
=== CODE BLOCK END ===

=== CODE BLOCK ADDRESS 0x1af4 ===
  0x1af4	add    	byte ptr [eax], al
  0x1af6	add    	byte ptr [eax], al
  0x1af8	add    	byte ptr [eax], al
  0x1afa	add    	byte ptr [eax], al
  0x1afc	add    	byte ptr [eax], al
  === BLOCK LINK ===
    0x1afe
=== CODE BLOCK END ===

=== CODE BLOCK ADDRESS 0x1afe ===
  0x1afe	add    	byte ptr [eax], al
  0x1b00	add    	byte ptr [eax], al
  0x1b02	add    	byte ptr [eax], al
  0x1b04	add    	byte ptr [eax], al
  0x1b06	add    	byte ptr [eax], al
  === BLOCK LINK ===
    0x1b08
=== CODE BLOCK END ===

=== CODE BLOCK ADDRESS 0x1b08 ===
  0x1b08	add    	byte ptr [eax], al
  0x1b0a	add    	byte ptr [eax], al
  0x1b0c	add    	byte ptr [eax], al
  0x1b0e	add    	byte ptr [eax], al
  0x1b10	add    	byte ptr [eax], al
  === BLOCK LINK ===
    0x1b12
=== CODE BLOCK END ===

=== CODE BLOCK ADDRESS 0x1b12 ===
  0x1b12	add    	byte ptr [eax], al
  0x1b14	add    	byte ptr [eax], al
  0x1b16	add    	byte ptr [eax], al
  0x1b18	add    	byte ptr [eax], al
  0x1b1a	add    	byte ptr [eax], al
  === BLOCK LINK ===
    0x1b1c
=== CODE BLOCK END ===

=== CODE BLOCK ADDRESS 0x1b1c ===
  0x1b1c	add    	byte ptr [eax], al
  0x1b1e	add    	byte ptr [eax], al
  0x1b20	add    	byte ptr [eax], al
  0x1b22	add    	byte ptr [eax], al
  0x1b24	add    	byte ptr [eax], al
  === BLOCK LINK ===
    0x1b26
=== CODE BLOCK END ===

=== CODE BLOCK ADDRESS 0x1b26 ===
  0x1b26	add    	byte ptr [eax], al
  0x1b28	add    	byte ptr [eax], al
  0x1b2a	add    	byte ptr [eax], al
  0x1b2c	add    	byte ptr [eax], al
  0x1b2e	add    	byte ptr [eax], al
  === BLOCK LINK ===
    0x1b30
=== CODE BLOCK END ===

=== CODE BLOCK ADDRESS 0x1b30 ===
  0x1b30	add    	byte ptr [eax], al
  0x1b32	add    	byte ptr [eax], al
  0x1b34	add    	byte ptr [eax], al
  0x1b36	add    	byte ptr [eax], al
  0x1b38	add    	byte ptr [eax], al
  === BLOCK LINK ===
    0x1b3a
=== CODE BLOCK END ===

=== CODE BLOCK ADDRESS 0x1b3a ===
  0x1b3a	add    	byte ptr [eax], al
  0x1b3c	add    	byte ptr [eax], al
  0x1b3e	add    	byte ptr [eax], al
  0x1b40	add    	byte ptr [eax], al
  0x1b42	add    	byte ptr [eax], al
  === BLOCK LINK ===
    0x1b44
=== CODE BLOCK END ===

=== CODE BLOCK ADDRESS 0x1b44 ===
  0x1b44	add    	byte ptr [eax], al
  0x1b46	add    	byte ptr [eax], al
  0x1b48	add    	byte ptr [eax], al
  0x1b4a	add    	byte ptr [eax], al
  0x1b4c	add    	byte ptr [eax], al
  === BLOCK LINK ===
    0x1b4e
=== CODE BLOCK END ===

=== CODE BLOCK ADDRESS 0x1b4e ===
  0x1b4e	add    	byte ptr [eax], al
  0x1b50	add    	byte ptr [eax], al
  0x1b52	add    	byte ptr [eax], al
  0x1b54	add    	byte ptr [eax], al
  0x1b56	add    	byte ptr [eax], al
  === BLOCK LINK ===
    0x1b58
=== CODE BLOCK END ===

=== CODE BLOCK ADDRESS 0x1b58 ===
  0x1b58	add    	byte ptr [eax], al
  0x1b5a	add    	byte ptr [eax], al
  0x1b5c	add    	byte ptr [eax], al
  0x1b5e	add    	byte ptr [eax], al
  0x1b60	add    	byte ptr [eax], al
  === BLOCK LINK ===
    0x1b62
=== CODE BLOCK END ===

=== CODE BLOCK ADDRESS 0x1b62 ===
  0x1b62	add    	byte ptr [eax], al
  0x1b64	add    	byte ptr [eax], al
  0x1b66	add    	byte ptr [eax], al
  0x1b68	add    	byte ptr [eax], al
  0x1b6a	add    	byte ptr [eax], al
  === BLOCK LINK ===
    0x1b6c
=== CODE BLOCK END ===

=== CODE BLOCK ADDRESS 0x1b6c ===
  0x1b6c	add    	byte ptr [eax], al
  0x1b6e	add    	byte ptr [eax], al
  0x1b70	add    	byte ptr [eax], al
  0x1b72	add    	byte ptr [eax], al
  0x1b74	add    	byte ptr [eax], al
  === BLOCK LINK ===
    0x1b76
=== CODE BLOCK END ===

=== CODE BLOCK ADDRESS 0x1b76 ===
  0x1b76	add    	byte ptr [eax], al
  0x1b78	add    	byte ptr [eax], al
  0x1b7a	add    	byte ptr [eax], al
  0x1b7c	add    	byte ptr [eax], al
  0x1b7e	add    	byte ptr [eax], al
  === BLOCK LINK ===
    0x1b80
=== CODE BLOCK END ===

=== CODE BLOCK ADDRESS 0x1b80 ===
  0x1b80	add    	byte ptr [eax], al
  0x1b82	add    	byte ptr [eax], al
  0x1b84	add    	byte ptr [eax], al
  0x1b86	add    	byte ptr [eax], al
  0x1b88	add    	byte ptr [eax], al
  === BLOCK LINK ===
    0x1b8a
=== CODE BLOCK END ===

=== CODE BLOCK ADDRESS 0x1b8a ===
  0x1b8a	add    	byte ptr [eax], al
  0x1b8c	add    	byte ptr [eax], al
  0x1b8e	add    	byte ptr [eax], al
  0x1b90	add    	byte ptr [eax], al
  0x1b92	add    	byte ptr [eax], al
  === BLOCK LINK ===
    0x1b94
=== CODE BLOCK END ===

=== CODE BLOCK ADDRESS 0x1b94 ===
  0x1b94	add    	byte ptr [eax], al
  0x1b96	add    	byte ptr [eax], al
  0x1b98	add    	byte ptr [eax], al
  0x1b9a	add    	byte ptr [eax], al
  0x1b9c	add    	byte ptr [eax], al
  === BLOCK LINK ===
    0x1b9e
=== CODE BLOCK END ===

=== CODE BLOCK ADDRESS 0x1b9e ===
  0x1b9e	add    	byte ptr [eax], al
  0x1ba0	add    	byte ptr [eax], al
  0x1ba2	add    	byte ptr [eax], al
  0x1ba4	add    	byte ptr [eax], al
  0x1ba6	add    	byte ptr [eax], al
  === BLOCK LINK ===
    0x1ba8
=== CODE BLOCK END ===

=== CODE BLOCK ADDRESS 0x1ba8 ===
  0x1ba8	add    	byte ptr [eax], al
  0x1baa	add    	byte ptr [eax], al
  0x1bac	add    	byte ptr [eax], al
  0x1bae	add    	byte ptr [eax], al
  0x1bb0	add    	byte ptr [eax], al
  === BLOCK LINK ===
    0x1bb2
=== CODE BLOCK END ===

=== CODE BLOCK ADDRESS 0x1bb2 ===
  0x1bb2	add    	byte ptr [eax], al
  0x1bb4	add    	byte ptr [eax], al
  0x1bb6	add    	byte ptr [eax], al
  0x1bb8	add    	byte ptr [eax], al
  0x1bba	add    	byte ptr [eax], al
  === BLOCK LINK ===
    0x1bbc
=== CODE BLOCK END ===

=== CODE BLOCK ADDRESS 0x1bbc ===
  0x1bbc	add    	byte ptr [eax], al
  0x1bbe	add    	byte ptr [eax], al
  0x1bc0	add    	byte ptr [eax], al
  0x1bc2	add    	byte ptr [eax], al
  0x1bc4	add    	byte ptr [eax], al
  === BLOCK LINK ===
    0x1bc6
=== CODE BLOCK END ===

=== CODE BLOCK ADDRESS 0x1bc6 ===
  0x1bc6	add    	byte ptr [eax], al
  0x1bc8	add    	byte ptr [eax], al
  0x1bca	add    	byte ptr [eax], al
  0x1bcc	add    	byte ptr [eax], al
  0x1bce	add    	byte ptr [eax], al
  === BLOCK LINK ===
    0x1bd0
=== CODE BLOCK END ===

=== CODE BLOCK ADDRESS 0x1bd0 ===
  0x1bd0	add    	byte ptr [eax], al
  0x1bd2	add    	byte ptr [eax], al
  0x1bd4	add    	byte ptr [eax], al
  0x1bd6	add    	byte ptr [eax], al
  0x1bd8	add    	byte ptr [eax], al
  === BLOCK LINK ===
    0x1bda
=== CODE BLOCK END ===

=== CODE BLOCK ADDRESS 0x1bda ===
  0x1bda	add    	byte ptr [eax], al
  0x1bdc	add    	byte ptr [eax], al
  0x1bde	add    	byte ptr [eax], al
  0x1be0	add    	byte ptr [eax], al
  0x1be2	add    	byte ptr [eax], al
  === BLOCK LINK ===
    0x1be4
=== CODE BLOCK END ===

=== CODE BLOCK ADDRESS 0x1be4 ===
  0x1be4	add    	byte ptr [eax], al
  0x1be6	add    	byte ptr [eax], al
  0x1be8	add    	byte ptr [eax], al
  0x1bea	add    	byte ptr [eax], al
  0x1bec	add    	byte ptr [eax], al
  === BLOCK LINK ===
    0x1bee
=== CODE BLOCK END ===

=== CODE BLOCK ADDRESS 0x1bee ===
  0x1bee	add    	byte ptr [eax], al
  0x1bf0	add    	byte ptr [eax], al
  0x1bf2	add    	byte ptr [eax], al
  0x1bf4	add    	byte ptr [eax], al
  0x1bf6	add    	byte ptr [eax], al
  === BLOCK LINK ===
    0x1bf8
=== CODE BLOCK END ===

=== CODE BLOCK ADDRESS 0x1bf8 ===
  0x1bf8	add    	byte ptr [eax], al
  0x1bfa	add    	byte ptr [eax], al
  0x1bfc	add    	byte ptr [eax], al
=== CODE BLOCK END ===

=== DATA BLOCK ADDRESS 0x2000 ===
  0x2000	60 30 00 40 01 00 00 00 00 31 00 40 01 00 00 00 	`00@0000010@0000
  0x2010	18 01 00 00 00 00 00 00 00 00 00 00 00 00 00 00 	0000000000000000
  0x2020	00 00 00 00 00 00 00 00 00 00 00 00 00 00 00 00 	0000000000000000
  0x2030	00 00 00 00 00 00 00 00 00 00 00 00 00 00 00 00 	0000000000000000
  0x2040	00 00 00 00 00 00 00 00 00 00 00 00 00 00 00 00 	0000000000000000
  0x2050	00 00 00 00 00 00 00 00 00 00 00 00 00 00 00 00 	0000000000000000
  0x2060	00 00 00 00 00 00 00 00 08 30 00 40 01 00 00 00 	00000000000@0000
  0x2070	00 00 00 00 00 00 00 00 00 00 00 00 00 00 00 00 	0000000000000000
  0x2080	78 22 00 40 01 00 00 00 80 22 00 40 01 00 00 00 	x"0@00000"0@0000
  0x2090	cc 22 00 40 01 00 00 00 08 00 00 00 00 00 00 00 	0"0@000000000000
  0x20a0	00 75 41 00 00 00 00 00 00 00 00 00 00 00 00 00 	0uA0000000000000
  0x20b0	00 00 00 00 00 00 00 00 00 00 00 00 00 00 00 00 	0000000000000000
  0x20c0	00 00 00 00 00 00 00 00 00 00 00 00 00 00 00 00 	0000000000000000
  0x20d0	00 00 00 00 00 00 00 00 00 00 00 00 00 00 00 00 	0000000000000000
  0x20e0	00 00 00 00 00 00 00 00 00 00 00 00 00 00 00 00 	0000000000000000
  0x20f0	00 00 00 00 00 00 00 00 00 00 00 00 00 00 00 00 	0000000000000000
  0x2100	00 00 00 00 00 00 00 00 00 00 00 00 00 00 00 00 	0000000000000000
  0x2110	00 00 00 00 00 00 00 00 c0 22 00 40 01 00 00 00 	000000000"0@0000
  0x2120	03 00 00 00 00 00 00 00 64 2a 00 00 00 00 00 00 	00000000d*000000
  0x2130	98 2a 00 00 00 00 00 00 3a 2b 00 00 00 00 00 00 	0*000000:+000000
  0x2140	00 00 00 00 00 00 00 00 b6 2a 00 00 00 00 00 00 	000000000*000000
  0x2150	00 00 00 00 00 00 00 00 56 2b 00 00 00 00 00 00 	00000000V+000000
  0x2160	6a 2b 00 00 00 00 00 00 e4 2a 00 00 00 00 00 00 	j+0000000*000000
  0x2170	fa 2a 00 00 00 00 00 00 00 00 00 00 00 00 00 00 	0*00000000000000
  0x2180	ca 2a 00 00 00 00 00 00 00 00 00 00 00 00 00 00 	0*00000000000000
  0x2190	90 2a 00 00 00 00 00 00 00 00 00 00 00 00 00 00 	0*00000000000000
  0x21a0	10 2b 00 00 00 00 00 00 2a 2b 00 00 00 00 00 00 	0+000000*+000000
  0x21b0	00 00 00 00 00 00 00 00 76 2a 00 00 00 00 00 00 	00000000v*000000
  0x21c0	32 2a 00 00 00 00 00 00 22 2a 00 00 00 00 00 00 	2*000000"*000000
  0x21d0	00 00 00 00 00 00 00 00 44 2a 00 00 00 00 00 00 	00000000D*000000
  0x21e0	00 00 00 00 00 00 00 00 2c 29 00 00 00 00 00 00 	00000000,)000000
  0x21f0	1e 29 00 00 00 00 00 00 3c 29 00 00 00 00 00 00 	0)000000<)000000
  0x2200	10 29 00 00 00 00 00 00 c2 29 00 00 00 00 00 00 	0)0000000)000000
  0x2210	aa 29 00 00 00 00 00 00 a0 29 00 00 00 00 00 00 	0)0000000)000000
  0x2220	7c 29 00 00 00 00 00 00 68 29 00 00 00 00 00 00 	|)000000h)000000
  0x2230	5e 29 00 00 00 00 00 00 56 29 00 00 00 00 00 00 	^)000000V)000000
  0x2240	88 29 00 00 00 00 00 00 4e 29 00 00 00 00 00 00 	0)000000N)000000
  0x2250	00 00 00 00 00 00 00 00 ea 29 00 00 00 00 00 00 	000000000)000000
  0x2260	04 2a 00 00 00 00 00 00 d6 29 00 00 00 00 00 00 	0*0000000)000000
  0x2270	00 00 00 00 00 00 00 00 90 17 00 40 01 00 00 00 	00000000000@0000
  0x2280	00 1a 00 40 01 00 00 00 00 00 00 00 00 00 00 00 	000@000000000000
  0x2290	00 12 00 40 01 00 00 00 00 00 00 00 00 00 00 00 	000@000000000000
  0x22a0	00 00 00 00 00 00 00 00 20 11 00 40 01 00 00 00 	00000000 00@0000
  0x22b0	c0 14 00 40 01 00 00 00 00 00 00 00 00 00 00 00 	000@000000000000
  0x22c0	cb 13 00 00 32 15 00 00 40 16 00 00 20 11 00 00 	00002000@000 000
  0x22d0	00 12 00 00 20 14 00 00 80 14 00 00 c0 14 00 00 	0000 00000000000
  0x22e0	a0 15 00 00 90 17 00 00 e0 17 00 00 00 00 00 00 	0000000000000000
  0x22f0	57 00 69 00 6e 00 64 00 6f 00 77 00 73 00 2e 00 	W0i0n0d0o0w0s0.0
  0x2300	41 00 70 00 70 00 6c 00 69 00 63 00 61 00 74 00 	A0p0p0l0i0c0a0t0
  0x2310	69 00 6f 00 6e 00 4d 00 6f 00 64 00 65 00 6c 00 	i0o0n0M0o0d0e0l0
  0x2320	2e 00 43 00 6f 00 72 00 65 00 2e 00 43 00 6f 00 	.0C0o0r0e0.0C0o0
  0x2330	72 00 65 00 41 00 70 00 70 00 6c 00 69 00 63 00 	r0e0A0p0p0l0i0c0
  0x2340	61 00 74 00 69 00 6f 00 6e 00 00 00 00 00 00 00 	a0t0i0o0n0000000
  0x2350	a4 f7 ac 0a 1d 5e df 49 80 34 fb 6a 68 bc 5e d1 	00000^0I040jh0^0
  0x2360	00 00 00 00 e7 15 3a 1d 00 00 00 00 02 00 00 00 	000000:000000000
  0x2370	2f 00 00 00 b4 23 00 00 b4 13 00 00 00 00 00 00 	/0000#0000000000
  0x2380	e7 15 3a 1d 00 00 00 00 0d 00 00 00 04 02 00 00 	00:0000000000000
  0x2390	e4 23 00 00 e4 13 00 00 00 00 00 00 e7 15 3a 1d 	0#000000000000:0
  0x23a0	00 00 00 00 10 00 00 00 24 00 00 00 e8 25 00 00 	00000000$0000%00
  0x23b0	e8 15 00 00 52 53 44 53 80 03 9b 9a 20 1c 2c e4 	0000RSDS0000 0,0
  0x23c0	bf 0a 29 a8 49 a6 ec 30 01 00 00 00 62 61 63 6b 	00)0I0000000back
  0x23d0	67 72 6f 75 6e 64 54 61 73 6b 48 6f 73 74 2e 70 	groundTaskHost.p
  0x23e0	64 62 00 00 47 43 54 4c 00 10 00 00 f0 09 00 00 	db00GCTL00000000
  0x23f0	2e 74 65 78 74 24 6d 6e 00 00 00 00 f0 19 00 00 	.text$mn00000000
  0x2400	20 00 00 00 2e 74 65 78 74 24 6d 6e 24 30 30 00 	 000.text$mn$000
  0x2410	10 1a 00 00 50 00 00 00 2e 74 65 78 74 24 78 00 	0000P000.text$x0
  0x2420	00 20 00 00 28 01 00 00 2e 72 64 61 74 61 24 62 	0 00(000.rdata$b
  0x2430	72 63 00 00 28 21 00 00 50 01 00 00 2e 69 64 61 	rc00(!00P000.ida
  0x2440	74 61 24 35 00 00 00 00 78 22 00 00 10 00 00 00 	ta$50000x"000000
  0x2450	2e 30 30 63 66 67 00 00 88 22 00 00 08 00 00 00 	.00cfg000"000000
  0x2460	2e 43 52 54 24 58 43 41 00 00 00 00 90 22 00 00 	.CRT$XCA00000"00
  0x2470	08 00 00 00 2e 43 52 54 24 58 43 41 41 00 00 00 	0000.CRT$XCAA000
  0x2480	98 22 00 00 08 00 00 00 2e 43 52 54 24 58 43 5a 	0"000000.CRT$XCZ
  0x2490	00 00 00 00 a0 22 00 00 08 00 00 00 2e 43 52 54 	00000"000000.CRT
  0x24a0	24 58 49 41 00 00 00 00 a8 22 00 00 08 00 00 00 	$XIA00000"000000
  0x24b0	2e 43 52 54 24 58 49 41 41 00 00 00 b0 22 00 00 	.CRT$XIAA0000"00
  0x24c0	08 00 00 00 2e 43 52 54 24 58 49 59 00 00 00 00 	0000.CRT$XIY0000
  0x24d0	b8 22 00 00 08 00 00 00 2e 43 52 54 24 58 49 5a 	0"000000.CRT$XIZ
  0x24e0	00 00 00 00 c0 22 00 00 0c 00 00 00 2e 67 65 68 	00000"000000.geh
  0x24f0	63 6f 6e 74 00 00 00 00 cc 22 00 00 24 00 00 00 	cont00000"00$000
  0x2500	2e 67 66 69 64 73 00 00 f0 22 00 00 c4 00 00 00 	.gfids000"000000
  0x2510	2e 72 64 61 74 61 00 00 b4 23 00 00 5c 02 00 00 	.rdata000#000000
  0x2520	2e 72 64 61 74 61 24 7a 7a 7a 64 62 67 00 00 00 	.rdata$zzzdbg000
  0x2530	10 26 00 00 d0 00 00 00 2e 78 64 61 74 61 00 00 	0&000000.xdata00
  0x2540	e0 26 00 00 c8 00 00 00 2e 69 64 61 74 61 24 32 	0&000000.idata$2
  0x2550	00 00 00 00 a8 27 00 00 18 00 00 00 2e 69 64 61 	00000'000000.ida
  0x2560	74 61 24 33 00 00 00 00 c0 27 00 00 50 01 00 00 	ta$300000'00P000
  0x2570	2e 69 64 61 74 61 24 34 00 00 00 00 10 29 00 00 	.idata$400000)00
  0x2580	a0 03 00 00 2e 69 64 61 74 61 24 36 00 00 00 00 	0000.idata$60000
  0x2590	00 30 00 00 20 00 00 00 2e 64 61 74 61 00 00 00 	0000 000.data000
  0x25a0	20 30 00 00 60 06 00 00 2e 62 73 73 00 00 00 00 	 000`000.bss0000
  0x25b0	00 40 00 00 e4 00 00 00 2e 70 64 61 74 61 00 00 	0@000000.pdata00
  0x25c0	00 50 00 00 a0 00 00 00 2e 72 73 72 63 24 30 31 	0P000000.rsrc$01
  0x25d0	00 00 00 00 a0 50 00 00 88 06 00 00 2e 72 73 72 	00000P000000.rsr
  0x25e0	63 24 30 32 00 00 00 00 20 00 00 00 80 03 9b 9a 	c$020000 0000000
  0x25f0	20 1c 2c e4 bf 0a 29 a8 49 a6 ec 30 0b df 4c 76 	 0,000)0I00000Lv
  0x2600	98 17 ff 20 fd 2d 41 c2 e7 15 3a 1d 00 00 00 00 	000 0-A000:00000
  0x2610	19 15 02 00 06 92 02 30 68 19 00 00 48 00 00 00 	00000000h000H000
  0x2620	01 04 01 00 04 42 00 00 01 04 01 00 04 62 00 00 	00000B0000000b00
  0x2630	09 15 08 00 15 74 0a 00 15 64 09 00 15 34 08 00 	00000t000d000400
  0x2640	15 52 11 f0 7a 17 00 00 01 00 00 00 65 12 00 00 	0R00z0000000e000
  0x2650	cb 13 00 00 10 1a 00 00 cb 13 00 00 01 06 02 00 	0000000000000000
  0x2660	06 32 02 50 00 00 00 00 01 00 00 00 09 04 01 00 	020P000000000000
  0x2670	04 22 00 00 7a 17 00 00 01 00 00 00 fc 14 00 00 	0"00z00000000000
  0x2680	32 15 00 00 01 00 00 00 32 15 00 00 01 06 02 00 	2000000020000000
  0x2690	06 32 02 30 09 0a 04 00 0a 34 06 00 0a 32 06 70 	020000000400020p
  0x26a0	7a 17 00 00 01 00 00 00 0d 16 00 00 40 16 00 00 	z00000000000@000
  0x26b0	40 1a 00 00 40 16 00 00 01 0d 04 00 0d 34 09 00 	@000@00000000400
  0x26c0	0d 32 06 50 01 0c 02 00 0c 01 11 00 00 00 00 00 	020P000000000000
  0x26d0	01 00 00 00 01 02 01 00 02 30 00 00 00 00 00 00 	0000000000000000
  0x26e0	80 28 00 00 00 00 00 00 00 00 00 00 b6 29 00 00 	0(00000000000)00
  0x26f0	e8 21 00 00 f0 28 00 00 00 00 00 00 00 00 00 00 	0!000(0000000000
  0x2700	18 2a 00 00 58 22 00 00 50 28 00 00 00 00 00 00 	0*00X"00P(000000
  0x2710	00 00 00 00 7e 2b 00 00 b8 21 00 00 70 28 00 00 	0000~+000!00p(00
  0x2720	00 00 00 00 00 00 00 00 a0 2b 00 00 d8 21 00 00 	000000000+000!00
  0x2730	c0 27 00 00 00 00 00 00 00 00 00 00 c8 2b 00 00 	0'00000000000+00
  0x2740	28 21 00 00 28 28 00 00 00 00 00 00 00 00 00 00 	(!00((0000000000
  0x2750	f2 2b 00 00 90 21 00 00 e0 27 00 00 00 00 00 00 	0+000!000'000000
  0x2760	00 00 00 00 14 2c 00 00 48 21 00 00 18 28 00 00 	00000,00H!000(00
  0x2770	00 00 00 00 00 00 00 00 3e 2c 00 00 80 21 00 00 	00000000>,000!00
  0x2780	f0 27 00 00 00 00 00 00 00 00 00 00 62 2c 00 00 	0'0000000000b,00
  0x2790	58 21 00 00 38 28 00 00 00 00 00 00 00 00 00 00 	X!008(0000000000
  0x27a0	8c 2c 00 00 a0 21 00 00 00 00 00 00 00 00 00 00 	0,000!0000000000
  0x27b0	00 00 00 00 00 00 00 00 00 00 00 00 00 00 00 00 	0000000000000000
  0x27c0	64 2a 00 00 00 00 00 00 98 2a 00 00 00 00 00 00 	d*0000000*000000
  0x27d0	3a 2b 00 00 00 00 00 00 00 00 00 00 00 00 00 00 	:+00000000000000
  0x27e0	b6 2a 00 00 00 00 00 00 00 00 00 00 00 00 00 00 	0*00000000000000
  0x27f0	56 2b 00 00 00 00 00 00 6a 2b 00 00 00 00 00 00 	V+000000j+000000
  0x2800	e4 2a 00 00 00 00 00 00 fa 2a 00 00 00 00 00 00 	0*0000000*000000
  0x2810	00 00 00 00 00 00 00 00 ca 2a 00 00 00 00 00 00 	000000000*000000
  0x2820	00 00 00 00 00 00 00 00 90 2a 00 00 00 00 00 00 	000000000*000000
  0x2830	00 00 00 00 00 00 00 00 10 2b 00 00 00 00 00 00 	000000000+000000
  0x2840	2a 2b 00 00 00 00 00 00 00 00 00 00 00 00 00 00 	*+00000000000000
  0x2850	76 2a 00 00 00 00 00 00 32 2a 00 00 00 00 00 00 	v*0000002*000000
  0x2860	22 2a 00 00 00 00 00 00 00 00 00 00 00 00 00 00 	"*00000000000000
  0x2870	44 2a 00 00 00 00 00 00 00 00 00 00 00 00 00 00 	D*00000000000000
  0x2880	2c 29 00 00 00 00 00 00 1e 29 00 00 00 00 00 00 	,)0000000)000000
  0x2890	3c 29 00 00 00 00 00 00 10 29 00 00 00 00 00 00 	<)0000000)000000
  0x28a0	c2 29 00 00 00 00 00 00 aa 29 00 00 00 00 00 00 	0)0000000)000000
  0x28b0	a0 29 00 00 00 00 00 00 7c 29 00 00 00 00 00 00 	0)000000|)000000
  0x28c0	68 29 00 00 00 00 00 00 5e 29 00 00 00 00 00 00 	h)000000^)000000
  0x28d0	56 29 00 00 00 00 00 00 88 29 00 00 00 00 00 00 	V)0000000)000000
  0x28e0	4e 29 00 00 00 00 00 00 00 00 00 00 00 00 00 00 	N)00000000000000
  0x28f0	ea 29 00 00 00 00 00 00 04 2a 00 00 00 00 00 00 	0)0000000*000000
  0x2900	d6 29 00 00 00 00 00 00 00 00 00 00 00 00 00 00 	0)00000000000000
  0x2910	55 00 5f 58 63 70 74 46 69 6c 74 65 72 00 ae 00 	U0_XcptFilter000
  0x2920	5f 61 6d 73 67 5f 65 78 69 74 00 00 7f 00 5f 5f 	_amsg_exit0000__
  0x2930	67 65 74 6d 61 69 6e 61 72 67 73 00 8e 00 5f 5f 	getmainargs000__
  0x2940	73 65 74 5f 61 70 70 5f 74 79 70 65 00 00 32 04 	set_app_type0020
  0x2950	65 78 69 74 00 00 0e 01 5f 65 78 69 74 00 c1 00 	exit0000_exit000
  0x2960	5f 63 65 78 69 74 00 00 90 00 5f 5f 73 65 74 75 	_cexit0000__setu
  0x2970	73 65 72 6d 61 74 68 65 72 72 00 00 7d 01 5f 69 	sermatherr00}0_i
  0x2980	6e 69 74 74 65 72 6d 00 57 00 5f 5f 43 5f 73 70 	nitterm0W0__C_sp
  0x2990	65 63 69 66 69 63 5f 68 61 6e 64 6c 65 72 00 00 	ecific_handler00
  0x29a0	27 01 5f 66 6d 6f 64 65 00 00 d2 00 5f 63 6f 6d 	'0_fmode0000_com
  0x29b0	6d 6f 64 65 00 00 6d 73 76 63 72 74 2e 64 6c 6c 	mode00msvcrt.dll
  0x29c0	00 00 2f 00 3f 74 65 72 6d 69 6e 61 74 65 40 40 	00/0?terminate@@
  0x29d0	59 41 58 58 5a 00 f3 02 52 74 6c 43 61 70 74 75 	YAXXZ000RtlCaptu
  0x29e0	72 65 43 6f 6e 74 65 78 74 00 e9 04 52 74 6c 4c 	reContext000RtlL
  0x29f0	6f 6f 6b 75 70 46 75 6e 63 74 69 6f 6e 45 6e 74 	ookupFunctionEnt
  0x2a00	72 79 00 00 28 06 52 74 6c 56 69 72 74 75 61 6c 	ry00(0RtlVirtual
  0x2a10	55 6e 77 69 6e 64 00 00 6e 74 64 6c 6c 2e 64 6c 	Unwind00ntdll.dl
  0x2a20	6c 00 03 00 52 6f 49 6e 69 74 69 61 6c 69 7a 65 	l000RoInitialize
  0x2a30	00 00 07 00 52 6f 55 6e 69 6e 69 74 69 61 6c 69 	0000RoUninitiali
  0x2a40	7a 65 00 00 0b 00 57 69 6e 64 6f 77 73 43 72 65 	ze0000WindowsCre
  0x2a50	61 74 65 53 74 72 69 6e 67 52 65 66 65 72 65 6e 	ateStringReferen
  0x2a60	63 65 00 00 07 00 52 61 69 73 65 45 78 63 65 70 	ce0000RaiseExcep
  0x2a70	74 69 6f 6e 00 00 01 00 52 6f 47 65 74 41 63 74 	tion0000RoGetAct
  0x2a80	69 76 61 74 69 6f 6e 46 61 63 74 6f 72 79 00 00 	ivationFactory00
  0x2a90	2d 00 53 6c 65 65 70 00 0f 00 53 65 74 55 6e 68 	-0Sleep000SetUnh
  0x2aa0	61 6e 64 6c 65 64 45 78 63 65 70 74 69 6f 6e 46 	andledExceptionF
  0x2ab0	69 6c 74 65 72 00 14 00 47 65 74 4d 6f 64 75 6c 	ilter000GetModul
  0x2ac0	65 48 61 6e 64 6c 65 57 00 00 00 00 51 75 65 72 	eHandleW0000Quer
  0x2ad0	79 50 65 72 66 6f 72 6d 61 6e 63 65 43 6f 75 6e 	yPerformanceCoun
  0x2ae0	74 65 72 00 0d 00 47 65 74 43 75 72 72 65 6e 74 	ter000GetCurrent
  0x2af0	50 72 6f 63 65 73 73 49 64 00 11 00 47 65 74 43 	ProcessId000GetC
  0x2b00	75 72 72 65 6e 74 54 68 72 65 61 64 49 64 00 00 	urrentThreadId00
  0x2b10	16 00 47 65 74 53 79 73 74 65 6d 54 69 6d 65 41 	00GetSystemTimeA
  0x2b20	73 46 69 6c 65 54 69 6d 65 00 1a 00 47 65 74 54 	sFileTime000GetT
  0x2b30	69 63 6b 43 6f 75 6e 74 00 00 11 00 55 6e 68 61 	ickCount0000Unha
  0x2b40	6e 64 6c 65 64 45 78 63 65 70 74 69 6f 6e 46 69 	ndledExceptionFi
  0x2b50	6c 74 65 72 00 00 0c 00 47 65 74 43 75 72 72 65 	lter0000GetCurre
  0x2b60	6e 74 50 72 6f 63 65 73 73 00 4e 00 54 65 72 6d 	ntProcess0N0Term
  0x2b70	69 6e 61 74 65 50 72 6f 63 65 73 73 00 00 61 70 	inateProcess00ap
  0x2b80	69 2d 6d 73 2d 77 69 6e 2d 63 6f 72 65 2d 77 69 	i-ms-win-core-wi
  0x2b90	6e 72 74 2d 6c 31 2d 31 2d 30 2e 64 6c 6c 00 00 	nrt-l1-1-0.dll00
  0x2ba0	61 70 69 2d 6d 73 2d 77 69 6e 2d 63 6f 72 65 2d 	api-ms-win-core-
  0x2bb0	77 69 6e 72 74 2d 73 74 72 69 6e 67 2d 6c 31 2d 	winrt-string-l1-
  0x2bc0	31 2d 30 2e 64 6c 6c 00 61 70 69 2d 6d 73 2d 77 	1-0.dll0api-ms-w
  0x2bd0	69 6e 2d 63 6f 72 65 2d 65 72 72 6f 72 68 61 6e 	in-core-errorhan
  0x2be0	64 6c 69 6e 67 2d 6c 31 2d 31 2d 30 2e 64 6c 6c 	dling-l1-1-0.dll
  0x2bf0	00 00 61 70 69 2d 6d 73 2d 77 69 6e 2d 63 6f 72 	00api-ms-win-cor
  0x2c00	65 2d 73 79 6e 63 68 2d 6c 31 2d 32 2d 30 2e 64 	e-synch-l1-2-0.d
  0x2c10	6c 6c 00 00 61 70 69 2d 6d 73 2d 77 69 6e 2d 63 	ll00api-ms-win-c
  0x2c20	6f 72 65 2d 6c 69 62 72 61 72 79 6c 6f 61 64 65 	ore-libraryloade
  0x2c30	72 2d 6c 31 2d 32 2d 30 2e 64 6c 6c 00 00 61 70 	r-l1-2-0.dll00ap
  0x2c40	69 2d 6d 73 2d 77 69 6e 2d 63 6f 72 65 2d 70 72 	i-ms-win-core-pr
  0x2c50	6f 66 69 6c 65 2d 6c 31 2d 31 2d 30 2e 64 6c 6c 	ofile-l1-1-0.dll
  0x2c60	00 00 61 70 69 2d 6d 73 2d 77 69 6e 2d 63 6f 72 	00api-ms-win-cor
  0x2c70	65 2d 70 72 6f 63 65 73 73 74 68 72 65 61 64 73 	e-processthreads
  0x2c80	2d 6c 31 2d 31 2d 30 2e 64 6c 6c 00 61 70 69 2d 	-l1-1-0.dll0api-
  0x2c90	6d 73 2d 77 69 6e 2d 63 6f 72 65 2d 73 79 73 69 	ms-win-core-sysi
  0x2ca0	6e 66 6f 2d 6c 31 2d 31 2d 30 2e 64 6c 6c 00 00 	nfo-l1-1-0.dll00
  0x2cb0	00 00 00 00 00 00 00 00 00 00 00 00 00 00 00 00 	0000000000000000
  0x2cc0	00 00 00 00 00 00 00 00 00 00 00 00 00 00 00 00 	0000000000000000
  0x2cd0	00 00 00 00 00 00 00 00 00 00 00 00 00 00 00 00 	0000000000000000
  0x2ce0	00 00 00 00 00 00 00 00 00 00 00 00 00 00 00 00 	0000000000000000
  0x2cf0	00 00 00 00 00 00 00 00 00 00 00 00 00 00 00 00 	0000000000000000
  0x2d00	00 00 00 00 00 00 00 00 00 00 00 00 00 00 00 00 	0000000000000000
  0x2d10	00 00 00 00 00 00 00 00 00 00 00 00 00 00 00 00 	0000000000000000
  0x2d20	00 00 00 00 00 00 00 00 00 00 00 00 00 00 00 00 	0000000000000000
  0x2d30	00 00 00 00 00 00 00 00 00 00 00 00 00 00 00 00 	0000000000000000
  0x2d40	00 00 00 00 00 00 00 00 00 00 00 00 00 00 00 00 	0000000000000000
  0x2d50	00 00 00 00 00 00 00 00 00 00 00 00 00 00 00 00 	0000000000000000
  0x2d60	00 00 00 00 00 00 00 00 00 00 00 00 00 00 00 00 	0000000000000000
  0x2d70	00 00 00 00 00 00 00 00 00 00 00 00 00 00 00 00 	0000000000000000
  0x2d80	00 00 00 00 00 00 00 00 00 00 00 00 00 00 00 00 	0000000000000000
  0x2d90	00 00 00 00 00 00 00 00 00 00 00 00 00 00 00 00 	0000000000000000
  0x2da0	00 00 00 00 00 00 00 00 00 00 00 00 00 00 00 00 	0000000000000000
  0x2db0	00 00 00 00 00 00 00 00 00 00 00 00 00 00 00 00 	0000000000000000
  0x2dc0	00 00 00 00 00 00 00 00 00 00 00 00 00 00 00 00 	0000000000000000
  0x2dd0	00 00 00 00 00 00 00 00 00 00 00 00 00 00 00 00 	0000000000000000
  0x2de0	00 00 00 00 00 00 00 00 00 00 00 00 00 00 00 00 	0000000000000000
  0x2df0	00 00 00 00 00 00 00 00 00 00 00 00 00 00 00 00 	0000000000000000
=== DATA BLOCK END ===

=== DATA BLOCK ADDRESS 0x3000 ===
  0x3000	01 00 00 00 00 00 00 00 32 a2 df 2d 99 2b 00 00 	00000000200-0+00
  0x3010	cd 5d 20 d2 66 d4 ff ff 00 00 00 00 00 00 00 00 	0] 0f00000000000
  0x3020	00 00 00 00 00 00 00 00 00 00 00 00 00 00 00 00 	0000000000000000
  0x3030	00 00 00 00 00 00 00 00 00 00 00 00 00 00 00 00 	0000000000000000
  0x3040	00 00 00 00 00 00 00 00 00 00 00 00 00 00 00 00 	0000000000000000
  0x3050	00 00 00 00 00 00 00 00 00 00 00 00 00 00 00 00 	0000000000000000
  0x3060	00 00 00 00 00 00 00 00 00 00 00 00 00 00 00 00 	0000000000000000
  0x3070	00 00 00 00 00 00 00 00 00 00 00 00 00 00 00 00 	0000000000000000
  0x3080	00 00 00 00 00 00 00 00 00 00 00 00 00 00 00 00 	0000000000000000
  0x3090	00 00 00 00 00 00 00 00 00 00 00 00 00 00 00 00 	0000000000000000
  0x30a0	00 00 00 00 00 00 00 00 00 00 00 00 00 00 00 00 	0000000000000000
  0x30b0	00 00 00 00 00 00 00 00 00 00 00 00 00 00 00 00 	0000000000000000
  0x30c0	00 00 00 00 00 00 00 00 00 00 00 00 00 00 00 00 	0000000000000000
  0x30d0	00 00 00 00 00 00 00 00 00 00 00 00 00 00 00 00 	0000000000000000
  0x30e0	00 00 00 00 00 00 00 00 00 00 00 00 00 00 00 00 	0000000000000000
  0x30f0	00 00 00 00 00 00 00 00 00 00 00 00 00 00 00 00 	0000000000000000
  0x3100	00 00 00 00 00 00 00 00 00 00 00 00 00 00 00 00 	0000000000000000
  0x3110	00 00 00 00 00 00 00 00 00 00 00 00 00 00 00 00 	0000000000000000
  0x3120	00 00 00 00 00 00 00 00 00 00 00 00 00 00 00 00 	0000000000000000
  0x3130	00 00 00 00 00 00 00 00 00 00 00 00 00 00 00 00 	0000000000000000
  0x3140	00 00 00 00 00 00 00 00 00 00 00 00 00 00 00 00 	0000000000000000
  0x3150	00 00 00 00 00 00 00 00 00 00 00 00 00 00 00 00 	0000000000000000
  0x3160	00 00 00 00 00 00 00 00 00 00 00 00 00 00 00 00 	0000000000000000
  0x3170	00 00 00 00 00 00 00 00 00 00 00 00 00 00 00 00 	0000000000000000
  0x3180	00 00 00 00 00 00 00 00 00 00 00 00 00 00 00 00 	0000000000000000
  0x3190	00 00 00 00 00 00 00 00 00 00 00 00 00 00 00 00 	0000000000000000
  0x31a0	00 00 00 00 00 00 00 00 00 00 00 00 00 00 00 00 	0000000000000000
  0x31b0	00 00 00 00 00 00 00 00 00 00 00 00 00 00 00 00 	0000000000000000
  0x31c0	00 00 00 00 00 00 00 00 00 00 00 00 00 00 00 00 	0000000000000000
  0x31d0	00 00 00 00 00 00 00 00 00 00 00 00 00 00 00 00 	0000000000000000
  0x31e0	00 00 00 00 00 00 00 00 00 00 00 00 00 00 00 00 	0000000000000000
  0x31f0	00 00 00 00 00 00 00 00 00 00 00 00 00 00 00 00 	0000000000000000
=== DATA BLOCK END ===

=== DATA BLOCK ADDRESS 0x4000 ===
  0x4000	08 10 00 00 14 11 00 00 10 26 00 00 20 11 00 00 	000000000&00 000
  0x4010	f3 11 00 00 20 26 00 00 00 12 00 00 49 12 00 00 	0000 &000000I000
  0x4020	28 26 00 00 50 12 00 00 0e 14 00 00 30 26 00 00 	(&00P00000000&00
  0x4030	20 14 00 00 32 14 00 00 20 26 00 00 50 14 00 00 	 0002000 &00P000
  0x4040	6e 14 00 00 68 26 00 00 80 14 00 00 b9 14 00 00 	n000h&0000000000
  0x4050	20 26 00 00 c0 14 00 00 d8 14 00 00 20 26 00 00 	 &0000000000 &00
  0x4060	ec 14 00 00 40 15 00 00 6c 26 00 00 48 15 00 00 	0000@000l&00H000
  0x4070	8d 15 00 00 8c 26 00 00 00 16 00 00 4d 16 00 00 	00000&000000M000
  0x4080	94 26 00 00 94 16 00 00 68 17 00 00 b8 26 00 00 	0&000000h0000&00
  0x4090	9c 17 00 00 d0 17 00 00 8c 26 00 00 e0 17 00 00 	000000000&000000
  0x40a0	51 19 00 00 c4 26 00 00 68 19 00 00 85 19 00 00 	Q0000&00h0000000
  0x40b0	20 26 00 00 8c 19 00 00 e7 19 00 00 d4 26 00 00 	 &00000000000&00
  0x40c0	00 1a 00 00 02 1a 00 00 d0 26 00 00 10 1a 00 00 	000000000&000000
  0x40d0	2e 1a 00 00 5c 26 00 00 40 1a 00 00 60 1a 00 00 	.0000&00@000`000
  0x40e0	5c 26 00 00 00 00 00 00 00 00 00 00 00 00 00 00 	0&00000000000000
  0x40f0	00 00 00 00 00 00 00 00 00 00 00 00 00 00 00 00 	0000000000000000
  0x4100	00 00 00 00 00 00 00 00 00 00 00 00 00 00 00 00 	0000000000000000
  0x4110	00 00 00 00 00 00 00 00 00 00 00 00 00 00 00 00 	0000000000000000
  0x4120	00 00 00 00 00 00 00 00 00 00 00 00 00 00 00 00 	0000000000000000
  0x4130	00 00 00 00 00 00 00 00 00 00 00 00 00 00 00 00 	0000000000000000
  0x4140	00 00 00 00 00 00 00 00 00 00 00 00 00 00 00 00 	0000000000000000
  0x4150	00 00 00 00 00 00 00 00 00 00 00 00 00 00 00 00 	0000000000000000
  0x4160	00 00 00 00 00 00 00 00 00 00 00 00 00 00 00 00 	0000000000000000
  0x4170	00 00 00 00 00 00 00 00 00 00 00 00 00 00 00 00 	0000000000000000
  0x4180	00 00 00 00 00 00 00 00 00 00 00 00 00 00 00 00 	0000000000000000
  0x4190	00 00 00 00 00 00 00 00 00 00 00 00 00 00 00 00 	0000000000000000
  0x41a0	00 00 00 00 00 00 00 00 00 00 00 00 00 00 00 00 	0000000000000000
  0x41b0	00 00 00 00 00 00 00 00 00 00 00 00 00 00 00 00 	0000000000000000
  0x41c0	00 00 00 00 00 00 00 00 00 00 00 00 00 00 00 00 	0000000000000000
  0x41d0	00 00 00 00 00 00 00 00 00 00 00 00 00 00 00 00 	0000000000000000
  0x41e0	00 00 00 00 00 00 00 00 00 00 00 00 00 00 00 00 	0000000000000000
  0x41f0	00 00 00 00 00 00 00 00 00 00 00 00 00 00 00 00 	0000000000000000
=== DATA BLOCK END ===
