===== Assembly blocks =====

=== CODE BLOCK ADDRESS 0x1000 ===
  0x1000	int3   	
  0x1001	int3   	
  0x1002	int3   	
  0x1003	int3   	
  0x1004	int3   	
  === BLOCK LINK ===
    0x1005
=== CODE BLOCK END ===

=== CODE BLOCK ADDRESS 0x1005 ===
  0x1005	int3   	
  0x1006	int3   	
  0x1007	int3   	
  0x1008	mov    	edx, 0x106
  0x100d	dec    	ebp
  === BLOCK LINK ===
    0x100e
=== CODE BLOCK END ===

=== CODE BLOCK ADDRESS 0x100e ===
  0x100e	mov    	edx, eax
  0x1010	inc    	esp
  0x1011	mov    	ecx, edx
  0x1013	dec    	eax
  0x1014	mov    	eax, ecx
  === BLOCK LINK ===
    0x1016
=== CODE BLOCK END ===

=== CODE BLOCK ADDRESS 0x1016 ===
  0x1016	inc    	ebp
  0x1017	xor    	ebx, ebx
  === BLOCK LINK ===
    0x1019
=== CODE BLOCK END ===

=== CODE BLOCK ADDRESS 0x101f ===
  0x101f	dec    	eax
  0x1020	add    	eax, 2
  0x1023	dec    	ecx
  0x1024	sub    	ecx, 1
  0x1027	jne    	0x1019
  === BLOCK LINK ===
    0x1029
    0x1019
=== CODE BLOCK END ===

=== CODE BLOCK ADDRESS 0x1029 ===
  0x1029	dec    	ecx
  0x102a	mov    	eax, ecx
  0x102c	dec    	eax
  0x102d	neg    	eax
  0x102f	sbb    	eax, eax
  === BLOCK LINK ===
    0x1031
=== CODE BLOCK END ===

=== CODE BLOCK ADDRESS 0x1031 ===
  0x1031	not    	eax
  0x1033	and    	eax, 0x80070057
  0x1038	dec    	ebp
  0x1039	test   	ecx, ecx
  0x103b	je     	0x1045
  === BLOCK LINK ===
    0x103d
    0x1045
=== CODE BLOCK END ===

=== CODE BLOCK ADDRESS 0x103d ===
  0x103d	dec    	esp
  0x103e	mov    	eax, edx
  0x1040	dec    	ebp
  0x1041	sub    	eax, ecx
  0x1043	jmp    	0x1048
  === BLOCK LINK ===
    0x1045
    0x1048
=== CODE BLOCK END ===

=== CODE BLOCK ADDRESS 0x1045 ===
  0x1045	dec    	ebp
  0x1046	mov    	eax, ebx
  === BLOCK LINK ===
    0x1048
    0x109f
=== CODE BLOCK END ===

=== CODE BLOCK ADDRESS 0x104d ===
  0x104d	dec    	edx
  0x104e	lea    	ecx, [ecx + eax*2]
  0x1051	dec    	ecx
  0x1052	sub    	edx, eax
  0x1054	je     	0x1084
  === BLOCK LINK ===
    0x1056
    0x1084
=== CODE BLOCK END ===

=== CODE BLOCK ADDRESS 0x1056 ===
  0x1056	dec    	ecx
  0x1057	lea    	eax, [eax + 0x7ffffef8]
  0x105d	dec    	eax
  0x105e	add    	eax, edx
  0x1060	dec    	esp
  === BLOCK LINK ===
    0x1061
=== CODE BLOCK END ===

=== CODE BLOCK ADDRESS 0x1061 ===
  0x1061	sub    	edx, ecx
  === BLOCK LINK ===
    0x1063
=== CODE BLOCK END ===

=== CODE BLOCK ADDRESS 0x1068 ===
  0x1068	inc    	ebp
  0x1069	movzx  	eax, word ptr [edx + ecx]
  0x106d	inc    	bp
  0x106f	test   	eax, eax
  0x1071	je     	0x1084
  === BLOCK LINK ===
    0x1073
    0x1084
=== CODE BLOCK END ===

=== CODE BLOCK ADDRESS 0x1073 ===
  0x1073	inc    	sp
  0x1075	mov    	dword ptr [ecx], eax
  0x1077	dec    	eax
  0x1078	dec    	eax
  0x107a	dec    	eax
  === BLOCK LINK ===
    0x107b
=== CODE BLOCK END ===

=== CODE BLOCK ADDRESS 0x107b ===
  0x107b	add    	ecx, 2
  0x107e	dec    	eax
  0x107f	sub    	edx, 1
  0x1082	jne    	0x1063
  === BLOCK LINK ===
    0x1084
    0x1063
=== CODE BLOCK END ===

=== CODE BLOCK ADDRESS 0x1084 ===
  0x1084	dec    	eax
  0x1085	test   	edx, edx
  0x1087	dec    	eax
  0x1088	lea    	eax, [ecx - 2]
  0x108b	dec    	eax
  === BLOCK LINK ===
    0x108c
=== CODE BLOCK END ===

=== CODE BLOCK ADDRESS 0x108c ===
  0x108c	cmovne  	eax, ecx
  0x108f	dec    	eax
  0x1090	neg    	edx
  0x1092	inc    	sp
  0x1094	mov    	dword ptr [eax], ebx
  === BLOCK LINK ===
    0x1096
=== CODE BLOCK END ===

=== CODE BLOCK ADDRESS 0x1096 ===
  0x1096	sbb    	eax, eax
  0x1098	not    	eax
  0x109a	and    	eax, 0x8007007a
  === BLOCK LINK ===
    0x109f
=== CODE BLOCK END ===

=== CODE BLOCK ADDRESS 0x10a1 ===
  0x10a1	int3   	
  0x10a2	int3   	
  0x10a3	int3   	
  0x10a4	int3   	
  0x10a5	int3   	
  === BLOCK LINK ===
    0x10a6
=== CODE BLOCK END ===

=== CODE BLOCK ADDRESS 0x10a6 ===
  0x10a6	int3   	
  0x10a7	int3   	
  0x10a8	dec    	eax
  0x10a9	mov    	eax, esp
  0x10ab	dec    	eax
  === BLOCK LINK ===
    0x10ac
=== CODE BLOCK END ===

=== CODE BLOCK ADDRESS 0x10ac ===
  0x10ac	mov    	dword ptr [eax + 8], ebx
  0x10af	dec    	eax
  0x10b0	mov    	dword ptr [eax + 0x10], esi
  0x10b3	dec    	eax
  0x10b4	mov    	dword ptr [eax + 0x18], edi
  === BLOCK LINK ===
    0x10b7
=== CODE BLOCK END ===

=== CODE BLOCK ADDRESS 0x10b7 ===
  0x10b7	push   	ebp
  0x10b8	inc    	ecx
  0x10b9	push   	esp
  0x10ba	inc    	ecx
  0x10bb	push   	esi
  === BLOCK LINK ===
    0x10bc
=== CODE BLOCK END ===

=== CODE BLOCK ADDRESS 0x10bc ===
  0x10bc	dec    	eax
  0x10bd	lea    	ebp, [eax - 0x398]
  0x10c3	dec    	eax
  0x10c4	sub    	esp, 0x480
  0x10ca	dec    	eax
  === BLOCK LINK ===
    0x10cb
=== CODE BLOCK END ===

=== CODE BLOCK ADDRESS 0x10cb ===
  0x10cb	mov    	eax, dword ptr [0x2f37]
  0x10d1	dec    	eax
  0x10d2	xor    	eax, esp
  0x10d4	dec    	eax
  0x10d5	mov    	dword ptr [ebp + 0x370], eax
  === BLOCK LINK ===
    0x10db
=== CODE BLOCK END ===

=== CODE BLOCK ADDRESS 0x10db ===
  0x10db	xor    	edi, edi
  0x10dd	dec    	eax
  0x10de	lea    	ecx, [esp + 0x50]
  0x10e2	xor    	edx, edx
  0x10e4	inc    	ecx
  === BLOCK LINK ===
    0x10e5
=== CODE BLOCK END ===

=== CODE BLOCK ADDRESS 0x10e5 ===
  0x10e5	mov    	eax, 0x208
  0x10ea	mov    	ebx, edi
  0x10ec	call   	0x1e7d
  === BLOCK LINK ===
    0x10f1
    0x1e7d
=== CODE BLOCK END ===

=== CODE BLOCK ADDRESS 0x10f1 ===
  0x10f1	movups  	xmm0, xmmword ptr [0x17f8]
  0x10f8	xor    	edx, edx
  0x10fa	dec    	eax
  0x10fb	lea    	ecx, [ebp + 0x160]
  0x1101	inc    	ecx
  === BLOCK LINK ===
    0x1102
=== CODE BLOCK END ===

=== CODE BLOCK ADDRESS 0x1102 ===
  0x1102	mov    	eax, 0x20c
  0x1107	movdqu  	xmmword ptr [esp + 0x38], xmm0
  0x110d	call   	0x1e7d
  === BLOCK LINK ===
    0x1112
    0x1e7d
=== CODE BLOCK END ===

=== CODE BLOCK ADDRESS 0x1112 ===
  0x1112	inc    	ebp
  0x1113	xor    	ecx, ecx
  0x1115	mov    	dword ptr [esp + 0x34], 2
  0x111d	inc    	ebp
  0x111e	xor    	eax, eax
  === BLOCK LINK ===
    0x1120
=== CODE BLOCK END ===

=== CODE BLOCK ADDRESS 0x1120 ===
  0x1120	mov    	dword ptr [esp + 0x30], edi
  0x1124	lea    	edx, [edi + 1]
  0x1127	xor    	ecx, ecx
  0x1129	dec    	eax
  0x112a	call   	dword ptr [0x1088]
  === BLOCK LINK ===
    0x1130
=== CODE BLOCK END ===

=== CODE BLOCK ADDRESS 0x1130 ===
  0x1130	nop    	dword ptr [eax + eax]
  0x1135	test   	eax, eax
  0x1137	jne    	0x1158
  === BLOCK LINK ===
    0x1139
    0x1158
=== CODE BLOCK END ===

=== CODE BLOCK ADDRESS 0x1139 ===
  0x1139	dec    	eax
  0x113a	call   	dword ptr [0x1038]
  === BLOCK LINK ===
    0x1140
=== CODE BLOCK END ===

=== CODE BLOCK ADDRESS 0x1140 ===
  0x1140	nop    	dword ptr [eax + eax]
  0x1145	movzx  	ebx, ax
  0x1148	or     	ebx, 0x80070000
  0x114e	test   	eax, eax
  0x1150	cmovle  	ebx, eax
  === BLOCK LINK ===
    0x1153
=== CODE BLOCK END ===

=== CODE BLOCK ADDRESS 0x1153 ===
  0x1153	jmp    	0x14c6
  === BLOCK LINK ===
    0x1158
    0x14c6
=== CODE BLOCK END ===

=== CODE BLOCK ADDRESS 0x1158 ===
  0x1158	dec    	eax
  0x1159	call   	dword ptr [0xfe1]
  === BLOCK LINK ===
    0x115f
=== CODE BLOCK END ===

=== CODE BLOCK ADDRESS 0x115f ===
  0x115f	nop    	dword ptr [eax + eax]
  0x1164	inc    	ecx
  0x1165	mov    	ecx, 4
  0x116a	dec    	esp
  0x116b	lea    	eax, [esp + 0x34]
  === BLOCK LINK ===
    0x116f
=== CODE BLOCK END ===

=== CODE BLOCK ADDRESS 0x116f ===
  0x116f	dec    	eax
  0x1170	mov    	ecx, eax
  0x1172	xor    	edx, edx
  0x1174	dec    	eax
  0x1175	call   	dword ptr [0x103d]
  === BLOCK LINK ===
    0x117b
=== CODE BLOCK END ===

=== CODE BLOCK ADDRESS 0x117b ===
  0x117b	nop    	dword ptr [eax + eax]
  0x1180	dec    	eax
  0x1181	call   	dword ptr [0xfa9]
  === BLOCK LINK ===
    0x1187
=== CODE BLOCK END ===

=== CODE BLOCK ADDRESS 0x1187 ===
  0x1187	nop    	dword ptr [eax + eax]
  0x118c	dec    	eax
  0x118d	call   	dword ptr [0x1035]
  === BLOCK LINK ===
    0x1193
=== CODE BLOCK END ===

=== CODE BLOCK ADDRESS 0x1193 ===
  0x1193	nop    	dword ptr [eax + eax]
  0x1198	dec    	eax
  0x1199	test   	eax, eax
  0x119b	jne    	0x11a7
  === BLOCK LINK ===
    0x119d
    0x11a7
=== CODE BLOCK END ===

=== CODE BLOCK ADDRESS 0x119d ===
  0x119d	mov    	ebx, 0x80004005
  0x11a2	jmp    	0x14c6
  === BLOCK LINK ===
    0x11a7
    0x14c6
=== CODE BLOCK END ===

=== CODE BLOCK ADDRESS 0x11a7 ===
  0x11a7	dec    	eax
  0x11a8	lea    	edx, [esp + 0x30]
  0x11ac	dec    	eax
  0x11ad	mov    	ecx, eax
  0x11af	dec    	eax
  === BLOCK LINK ===
    0x11b0
=== CODE BLOCK END ===

=== CODE BLOCK ADDRESS 0x11b0 ===
  0x11b0	call   	dword ptr [0x102a]
  === BLOCK LINK ===
    0x11b6
=== CODE BLOCK END ===

=== CODE BLOCK ADDRESS 0x11b6 ===
  0x11b6	nop    	dword ptr [eax + eax]
  0x11bb	dec    	esp
  0x11bc	mov    	esi, eax
  0x11be	dec    	eax
  0x11bf	test   	eax, eax
  === BLOCK LINK ===
    0x11c1
=== CODE BLOCK END ===

=== CODE BLOCK ADDRESS 0x11c1 ===
  0x11c1	je     	0x1139
  === BLOCK LINK ===
    0x11c7
    0x1139
=== CODE BLOCK END ===

=== CODE BLOCK ADDRESS 0x11c7 ===
  0x11c7	mov    	eax, dword ptr [esp + 0x30]
  0x11cb	add    	eax, -3
  0x11ce	cmp    	eax, 1
  0x11d1	ja     	0x14a6
  === BLOCK LINK ===
    0x11d7
    0x14a6
=== CODE BLOCK END ===

=== CODE BLOCK ADDRESS 0x11d7 ===
  0x11d7	dec    	ebp
  0x11d8	mov    	esp, dword ptr [esi]
  0x11da	dec    	eax
  0x11db	or     	eax, 0xffffffff
  0x11de	dec    	ecx
  === BLOCK LINK ===
    0x11df
=== CODE BLOCK END ===

=== CODE BLOCK ADDRESS 0x11df ===
  0x11df	mov    	ecx, dword ptr [esi + 8]
  0x11e2	dec    	eax
  0x11e3	mov    	edx, eax
  === BLOCK LINK ===
    0x11e5
=== CODE BLOCK END ===

=== CODE BLOCK ADDRESS 0x11e8 ===
  0x11e8	cmp    	word ptr [ecx + edx*2], di
  0x11ec	jne    	0x11e5
  === BLOCK LINK ===
    0x11ee
    0x11e5
=== CODE BLOCK END ===

=== CODE BLOCK ADDRESS 0x11ee ===
  0x11ee	mov    	esi, 3
  0x11f3	dec    	eax
  0x11f4	cmp    	edx, 2
  0x11f7	jb     	0x126f
  === BLOCK LINK ===
    0x11f9
    0x126f
=== CODE BLOCK END ===

=== CODE BLOCK ADDRESS 0x11f9 ===
  0x11f9	dec    	eax
  0x11fa	inc    	eax
  0x11fc	cmp    	word ptr [ecx + eax*2], di
  0x1200	jne    	0x11f9
  === BLOCK LINK ===
    0x1202
    0x11f9
=== CODE BLOCK END ===

=== CODE BLOCK ADDRESS 0x1202 ===
  0x1202	dec    	eax
  0x1203	cmp    	eax, esi
  0x1205	ja     	0x126f
  === BLOCK LINK ===
    0x1207
    0x126f
=== CODE BLOCK END ===

=== CODE BLOCK ADDRESS 0x1207 ===
  0x1207	movzx  	edx, word ptr [ecx]
  0x120a	lea    	eax, [edx - 0x61]
  0x120d	cmp    	ax, 0x19
  0x1211	jbe    	0x121c
  === BLOCK LINK ===
    0x1213
    0x121c
=== CODE BLOCK END ===

=== CODE BLOCK ADDRESS 0x1213 ===
  0x1213	lea    	eax, [edx - 0x41]
  0x1216	cmp    	ax, 0x19
  0x121a	ja     	0x126f
  === BLOCK LINK ===
    0x121c
=== CODE BLOCK END ===

=== CODE BLOCK ADDRESS 0x121c ===
  0x121c	cmp    	word ptr [ecx + 2], 0x3a
  0x1221	jne    	0x126f
  === BLOCK LINK ===
    0x1223
=== CODE BLOCK END ===

=== CODE BLOCK ADDRESS 0x1223 ===
  0x1223	dec    	esp
  0x1224	lea    	eax, [esp + 0x38]
  0x1228	mov    	word ptr [esp + 0x40], dx
  0x122d	dec    	eax
  0x122e	lea    	eax, [esp + 0x50]
  === BLOCK LINK ===
    0x1232
=== CODE BLOCK END ===

=== CODE BLOCK ADDRESS 0x1232 ===
  0x1232	mov    	edx, 0x104
  0x1237	dec    	esp
  0x1238	sub    	eax, eax
  0x123a	dec    	eax
  0x123b	lea    	ecx, [esp + 0x50]
  === BLOCK LINK ===
    0x123f
=== CODE BLOCK END ===

=== CODE BLOCK ADDRESS 0x123f ===
  0x123f	dec    	eax
  0x1240	lea    	eax, [edx + 0x7ffffefa]
  0x1246	dec    	eax
  0x1247	test   	eax, eax
  0x1249	je     	0x1262
  === BLOCK LINK ===
    0x124b
=== CODE BLOCK END ===

=== CODE BLOCK ADDRESS 0x124b ===
  0x124b	inc    	ecx
  0x124c	movzx  	eax, word ptr [eax + ecx]
  0x1250	test   	ax, ax
  0x1253	je     	0x1262
  === BLOCK LINK ===
    0x1255
=== CODE BLOCK END ===

=== CODE BLOCK ADDRESS 0x1255 ===
  0x1255	mov    	word ptr [ecx], ax
  0x1258	dec    	eax
  0x1259	add    	ecx, 2
  0x125c	dec    	eax
  0x125d	sub    	edx, 1
  === BLOCK LINK ===
    0x1260
=== CODE BLOCK END ===

=== CODE BLOCK ADDRESS 0x1260 ===
  0x1260	jne    	0x123f
  === BLOCK LINK ===
    0x1262
=== CODE BLOCK END ===

=== CODE BLOCK ADDRESS 0x1262 ===
  0x1262	dec    	eax
  0x1263	test   	edx, edx
  0x1265	dec    	eax
  0x1266	lea    	eax, [ecx - 2]
  0x1269	dec    	eax
  === BLOCK LINK ===
    0x126a
=== CODE BLOCK END ===

=== CODE BLOCK ADDRESS 0x126a ===
  0x126a	cmovne  	eax, ecx
  0x126d	jmp    	0x12aa
  === BLOCK LINK ===
    0x126f
=== CODE BLOCK END ===

=== CODE BLOCK ADDRESS 0x126f ===
  0x126f	mov    	edx, 0x104
  0x1274	dec    	esp
  0x1275	lea    	eax, [esp + 0x50]
  0x1279	dec    	eax
  0x127a	lea    	eax, [edx + 0x7ffffefa]
  === BLOCK LINK ===
    0x1280
=== CODE BLOCK END ===

=== CODE BLOCK ADDRESS 0x1280 ===
  0x1280	dec    	eax
  0x1281	test   	eax, eax
  0x1283	je     	0x129f
  === BLOCK LINK ===
    0x1285
=== CODE BLOCK END ===

=== CODE BLOCK ADDRESS 0x1285 ===
  0x1285	movzx  	eax, word ptr [ecx]
  0x1288	test   	ax, ax
  0x128b	je     	0x129f
  === BLOCK LINK ===
    0x128d
=== CODE BLOCK END ===

=== CODE BLOCK ADDRESS 0x128d ===
  0x128d	inc    	cx
  0x128f	mov    	dword ptr [eax], eax
  0x1291	dec    	eax
  0x1292	add    	ecx, 2
  0x1295	dec    	ecx
  === BLOCK LINK ===
    0x1296
=== CODE BLOCK END ===

=== CODE BLOCK ADDRESS 0x1296 ===
  0x1296	add    	eax, 2
  0x1299	dec    	eax
  0x129a	sub    	edx, 1
  0x129d	jne    	0x1279
  === BLOCK LINK ===
    0x129f
=== CODE BLOCK END ===

=== CODE BLOCK ADDRESS 0x129f ===
  0x129f	dec    	eax
  0x12a0	test   	edx, edx
  0x12a2	dec    	ecx
  0x12a3	lea    	eax, [eax - 2]
  0x12a6	dec    	ecx
  === BLOCK LINK ===
    0x12a7
=== CODE BLOCK END ===

=== CODE BLOCK ADDRESS 0x12a7 ===
  0x12a7	cmovne  	eax, eax
  0x12aa	mov    	word ptr [eax], di
  0x12ad	dec    	eax
  0x12ae	mov    	eax, edx
  0x12b0	dec    	eax
  === BLOCK LINK ===
    0x12b1
=== CODE BLOCK END ===

=== CODE BLOCK ADDRESS 0x12b1 ===
  0x12b1	neg    	eax
  0x12b3	sbb    	ebx, ebx
  0x12b5	not    	ebx
  0x12b7	and    	ebx, 0x8007007a
  0x12bd	dec    	eax
  === BLOCK LINK ===
    0x12be
=== CODE BLOCK END ===

=== CODE BLOCK ADDRESS 0x12be ===
  0x12be	test   	edx, edx
  0x12c0	je     	0x14c6
  === BLOCK LINK ===
    0x12c6
=== CODE BLOCK END ===

=== CODE BLOCK ADDRESS 0x12c6 ===
  0x12c6	dec    	ecx
  0x12c7	mov    	eax, dword ptr [esi + 0x10]
  0x12ca	movzx  	ecx, word ptr [eax]
  0x12cd	dec    	eax
  0x12ce	call   	dword ptr [0xfb4]
  === BLOCK LINK ===
    0x12d4
=== CODE BLOCK END ===

=== CODE BLOCK ADDRESS 0x12d4 ===
  0x12d4	nop    	dword ptr [eax + eax]
  0x12d9	movzx  	ecx, ax
  0x12dc	cmp    	ecx, 0x54
  0x12df	ja     	0x1333
  === BLOCK LINK ===
    0x12e1
=== CODE BLOCK END ===

=== CODE BLOCK ADDRESS 0x12e1 ===
  0x12e1	je     	0x132c
  === BLOCK LINK ===
    0x12e3
=== CODE BLOCK END ===

=== CODE BLOCK ADDRESS 0x12e3 ===
  0x12e3	sub    	ecx, 0x49
  0x12e6	je     	0x1325
  === BLOCK LINK ===
    0x12e8
=== CODE BLOCK END ===

=== CODE BLOCK ADDRESS 0x12e8 ===
  0x12e8	sub    	ecx, 1
  0x12eb	je     	0x131e
  === BLOCK LINK ===
    0x12ed
=== CODE BLOCK END ===

=== CODE BLOCK ADDRESS 0x12ed ===
  0x12ed	sub    	ecx, 1
  0x12f0	je     	0x1317
  === BLOCK LINK ===
    0x12f2
=== CODE BLOCK END ===

=== CODE BLOCK ADDRESS 0x12f2 ===
  0x12f2	sub    	ecx, 5
  0x12f5	je     	0x1310
  === BLOCK LINK ===
    0x12f7
=== CODE BLOCK END ===

=== CODE BLOCK ADDRESS 0x12f7 ===
  0x12f7	sub    	ecx, 2
  0x12fa	je     	0x1309
  === BLOCK LINK ===
    0x12fc
=== CODE BLOCK END ===

=== CODE BLOCK ADDRESS 0x12fc ===
  0x12fc	cmp    	ecx, 1
  0x12ff	jne    	0x14a6
  === BLOCK LINK ===
    0x1305
=== CODE BLOCK END ===

=== CODE BLOCK ADDRESS 0x1305 ===
  0x1305	mov    	esi, ecx
  0x1307	jmp    	0x1374
  === BLOCK LINK ===
    0x1309
=== CODE BLOCK END ===

=== CODE BLOCK ADDRESS 0x1309 ===
  0x1309	mov    	esi, 0x20
  0x130e	jmp    	0x1374
  === BLOCK LINK ===
    0x1310
=== CODE BLOCK END ===

=== CODE BLOCK ADDRESS 0x1310 ===
  0x1310	mov    	esi, 0x40
  0x1315	jmp    	0x1374
  === BLOCK LINK ===
    0x1317
=== CODE BLOCK END ===

=== CODE BLOCK ADDRESS 0x1317 ===
  0x1317	mov    	esi, 7
  0x131c	jmp    	0x1374
  === BLOCK LINK ===
    0x131e
=== CODE BLOCK END ===

=== CODE BLOCK ADDRESS 0x131e ===
  0x131e	mov    	esi, 8
  0x1323	jmp    	0x1374
  === BLOCK LINK ===
    0x1325
=== CODE BLOCK END ===

=== CODE BLOCK ADDRESS 0x1325 ===
  0x1325	mov    	esi, 9
  0x132a	jmp    	0x1374
  === BLOCK LINK ===
    0x132c
=== CODE BLOCK END ===

=== CODE BLOCK ADDRESS 0x132c ===
  0x132c	mov    	esi, 2
  0x1331	jmp    	0x1374
  === BLOCK LINK ===
    0x1333
=== CODE BLOCK END ===

=== CODE BLOCK ADDRESS 0x1333 ===
  0x1333	sub    	ecx, 0x55
  0x1336	je     	0x1374
  === BLOCK LINK ===
    0x1338
=== CODE BLOCK END ===

=== CODE BLOCK ADDRESS 0x1338 ===
  0x1338	sub    	ecx, 1
  0x133b	je     	0x136f
  === BLOCK LINK ===
    0x133d
=== CODE BLOCK END ===

=== CODE BLOCK ADDRESS 0x133d ===
  0x133d	sub    	ecx, 1
  0x1340	je     	0x1368
  === BLOCK LINK ===
    0x1342
=== CODE BLOCK END ===

=== CODE BLOCK ADDRESS 0x1342 ===
  0x1342	sub    	ecx, 1
  0x1345	je     	0x1361
  === BLOCK LINK ===
    0x1347
=== CODE BLOCK END ===

=== CODE BLOCK ADDRESS 0x1347 ===
  0x1347	sub    	ecx, 1
  0x134a	je     	0x135a
  === BLOCK LINK ===
    0x134c
=== CODE BLOCK END ===

=== CODE BLOCK ADDRESS 0x134c ===
  0x134c	cmp    	ecx, 1
  0x134f	jne    	0x14a6
  === BLOCK LINK ===
    0x1355
=== CODE BLOCK END ===

=== CODE BLOCK ADDRESS 0x1355 ===
  0x1355	lea    	esi, [ecx + 5]
  0x1358	jmp    	0x1374
  === BLOCK LINK ===
    0x135a
=== CODE BLOCK END ===

=== CODE BLOCK ADDRESS 0x135a ===
  0x135a	mov    	esi, 5
  0x135f	jmp    	0x1374
  === BLOCK LINK ===
    0x1361
=== CODE BLOCK END ===

=== CODE BLOCK ADDRESS 0x1361 ===
  0x1361	mov    	esi, 0x100
  0x1366	jmp    	0x1374
  === BLOCK LINK ===
    0x1368
=== CODE BLOCK END ===

=== CODE BLOCK ADDRESS 0x1368 ===
  0x1368	mov    	esi, 0x80
  0x136d	jmp    	0x1374
  === BLOCK LINK ===
    0x136f
=== CODE BLOCK END ===

=== CODE BLOCK ADDRESS 0x136f ===
  0x136f	mov    	esi, 4
  0x1374	cmp    	dword ptr [esp + 0x30], 4
  0x1379	jne    	0x1466
  === BLOCK LINK ===
    0x137f
=== CODE BLOCK END ===

=== CODE BLOCK ADDRESS 0x137f ===
  0x137f	dec    	ecx
  0x1380	mov    	eax, dword ptr [esi + 0x18]
  0x1383	movzx  	ecx, word ptr [eax]
  0x1386	dec    	eax
  0x1387	call   	dword ptr [0xefb]
  === BLOCK LINK ===
    0x138d
=== CODE BLOCK END ===

=== CODE BLOCK ADDRESS 0x138d ===
  0x138d	nop    	dword ptr [eax + eax]
  0x1392	cmp    	ax, 0x46
  0x1396	jne    	0x14a6
  === BLOCK LINK ===
    0x139c
=== CODE BLOCK END ===

=== CODE BLOCK ADDRESS 0x139c ===
  0x139c	dec    	esp
  0x139d	lea    	eax, [esp + 0x50]
  0x13a1	mov    	edx, 0x106
  0x13a6	dec    	eax
  0x13a7	lea    	eax, [ebp + 0x160]
  === BLOCK LINK ===
    0x13ad
=== CODE BLOCK END ===

=== CODE BLOCK ADDRESS 0x13ad ===
  0x13ad	dec    	esp
  0x13ae	sub    	eax, eax
  0x13b0	dec    	eax
  0x13b1	lea    	ecx, [ebp + 0x160]
  0x13b7	dec    	eax
  === BLOCK LINK ===
    0x13b8
=== CODE BLOCK END ===

=== CODE BLOCK ADDRESS 0x13b8 ===
  0x13b8	lea    	eax, [edx + 0x7ffffef8]
  0x13be	dec    	eax
  0x13bf	test   	eax, eax
  0x13c1	je     	0x13da
  === BLOCK LINK ===
    0x13c3
=== CODE BLOCK END ===

=== CODE BLOCK ADDRESS 0x13c3 ===
  0x13c3	inc    	ecx
  0x13c4	movzx  	eax, word ptr [eax + ecx]
  0x13c8	test   	ax, ax
  0x13cb	je     	0x13da
  === BLOCK LINK ===
    0x13cd
=== CODE BLOCK END ===

=== CODE BLOCK ADDRESS 0x13cd ===
  0x13cd	mov    	word ptr [ecx], ax
  0x13d0	dec    	eax
  0x13d1	add    	ecx, 2
  0x13d4	dec    	eax
  0x13d5	sub    	edx, 1
  === BLOCK LINK ===
    0x13d8
=== CODE BLOCK END ===

=== CODE BLOCK ADDRESS 0x13d8 ===
  0x13d8	jne    	0x13b7
  === BLOCK LINK ===
    0x13da
=== CODE BLOCK END ===

=== CODE BLOCK ADDRESS 0x13da ===
  0x13da	dec    	eax
  0x13db	test   	edx, edx
  0x13dd	dec    	eax
  0x13de	lea    	eax, [ecx - 2]
  0x13e1	dec    	eax
  === BLOCK LINK ===
    0x13e2
=== CODE BLOCK END ===

=== CODE BLOCK ADDRESS 0x13e2 ===
  0x13e2	cmovne  	eax, ecx
  0x13e5	mov    	word ptr [eax], di
  0x13e8	dec    	eax
  0x13e9	mov    	eax, edx
  0x13eb	dec    	eax
  === BLOCK LINK ===
    0x13ec
=== CODE BLOCK END ===

=== CODE BLOCK ADDRESS 0x13ec ===
  0x13ec	neg    	eax
  0x13ee	sbb    	ebx, ebx
  0x13f0	not    	ebx
  0x13f2	and    	ebx, 0x8007007a
  0x13f8	dec    	eax
  === BLOCK LINK ===
    0x13f9
=== CODE BLOCK END ===

=== CODE BLOCK ADDRESS 0x13f9 ===
  0x13f9	test   	edx, edx
  0x13fb	je     	0x14c6
  === BLOCK LINK ===
    0x1401
=== CODE BLOCK END ===

=== CODE BLOCK ADDRESS 0x1401 ===
  0x1401	dec    	esp
  0x1402	lea    	eax, [0x14f8]
  0x1408	dec    	eax
  0x1409	lea    	ecx, [ebp + 0x160]
  0x140f	call   	0x1008
  === BLOCK LINK ===
    0x1414
=== CODE BLOCK END ===

=== CODE BLOCK ADDRESS 0x1414 ===
  0x1414	mov    	ebx, eax
  0x1416	test   	eax, eax
  0x1418	js     	0x14c6
  === BLOCK LINK ===
    0x141e
=== CODE BLOCK END ===

=== CODE BLOCK ADDRESS 0x141e ===
  0x141e	dec    	ebp
  0x141f	mov    	eax, dword ptr [esi + 0x10]
  0x1422	dec    	eax
  0x1423	lea    	ecx, [ebp + 0x160]
  0x1429	call   	0x1008
  === BLOCK LINK ===
    0x142e
=== CODE BLOCK END ===

=== CODE BLOCK ADDRESS 0x142e ===
  0x142e	mov    	ebx, eax
  0x1430	test   	eax, eax
  0x1432	js     	0x14c6
  === BLOCK LINK ===
    0x1438
=== CODE BLOCK END ===

=== CODE BLOCK ADDRESS 0x1438 ===
  0x1438	mov    	dword ptr [esp + 0x28], 1
  0x1440	dec    	esp
  0x1441	lea    	ecx, [ebp + 0x160]
  0x1447	dec    	ebp
  0x1448	mov    	eax, esp
  === BLOCK LINK ===
    0x144a
=== CODE BLOCK END ===

=== CODE BLOCK ADDRESS 0x144a ===
  0x144a	dec    	eax
  0x144b	mov    	dword ptr [esp + 0x20], edi
  0x144f	dec    	eax
  0x1450	lea    	edx, [0x14b2]
  0x1456	xor    	ecx, ecx
  === BLOCK LINK ===
    0x1458
=== CODE BLOCK END ===

=== CODE BLOCK ADDRESS 0x1458 ===
  0x1458	dec    	eax
  0x1459	call   	dword ptr [0xd89]
  === BLOCK LINK ===
    0x145f
=== CODE BLOCK END ===

=== CODE BLOCK ADDRESS 0x145f ===
  0x145f	nop    	dword ptr [eax + eax]
  0x1464	jmp    	0x14c6
  === BLOCK LINK ===
    0x1466
=== CODE BLOCK END ===

=== CODE BLOCK ADDRESS 0x1466 ===
  0x1466	xor    	ecx, ecx
  0x1468	dec    	eax
  0x1469	call   	dword ptr [0xe29]
  === BLOCK LINK ===
    0x146f
=== CODE BLOCK END ===

=== CODE BLOCK ADDRESS 0x146f ===
  0x146f	nop    	dword ptr [eax + eax]
  0x1474	mov    	ebx, eax
  0x1476	cmp    	eax, 1
  0x1479	ja     	0x14c6
  === BLOCK LINK ===
    0x147b
=== CODE BLOCK END ===

=== CODE BLOCK ADDRESS 0x147b ===
  0x147b	inc    	ecx
  0x147c	mov    	ecx, 0x104
  0x1481	dec    	esp
  0x1482	lea    	eax, [esp + 0x50]
  0x1486	mov    	edx, esi
  === BLOCK LINK ===
    0x1488
=== CODE BLOCK END ===

=== CODE BLOCK ADDRESS 0x1488 ===
  0x1488	xor    	ecx, ecx
  0x148a	dec    	eax
  0x148b	call   	dword ptr [0xc97]
  === BLOCK LINK ===
    0x1491
=== CODE BLOCK END ===

=== CODE BLOCK ADDRESS 0x1491 ===
  0x1491	nop    	dword ptr [eax + eax]
  0x1496	mov    	ebx, eax
  0x1498	dec    	eax
  0x1499	call   	dword ptr [0xe01]
  === BLOCK LINK ===
    0x149f
=== CODE BLOCK END ===

=== CODE BLOCK ADDRESS 0x149f ===
  0x149f	nop    	dword ptr [eax + eax]
  0x14a4	jmp    	0x14c6
  === BLOCK LINK ===
    0x14a6
=== CODE BLOCK END ===

=== CODE BLOCK ADDRESS 0x14a6 ===
  0x14a6	mov    	ecx, 2
  0x14ab	call   	0x1dc8
  === BLOCK LINK ===
    0x14b0
=== CODE BLOCK END ===

=== CODE BLOCK ADDRESS 0x14b0 ===
  0x14b0	dec    	eax
  0x14b1	mov    	ecx, eax
  0x14b3	dec    	eax
  0x14b4	lea    	edx, [0xe76]
  0x14ba	dec    	eax
  === BLOCK LINK ===
    0x14bb
=== CODE BLOCK END ===

=== CODE BLOCK ADDRESS 0x14bb ===
  0x14bb	call   	dword ptr [0xdbf]
  === BLOCK LINK ===
    0x14c1
=== CODE BLOCK END ===

=== CODE BLOCK ADDRESS 0x14c1 ===
  0x14c1	nop    	dword ptr [eax + eax]
  === BLOCK LINK ===
    0x14c6
=== CODE BLOCK END ===

=== CODE BLOCK ADDRESS 0x14ce ===
  0x14ce	dec    	eax
  0x14cf	mov    	ecx, dword ptr [ebp + 0x370]
  0x14d5	dec    	eax
  0x14d6	xor    	ecx, esp
  0x14d8	call   	0x18b0
  === BLOCK LINK ===
    0x14dd
=== CODE BLOCK END ===

=== CODE BLOCK ADDRESS 0x14dd ===
  0x14dd	dec    	esp
  0x14de	lea    	ebx, [esp + 0x480]
  0x14e5	dec    	ecx
  0x14e6	mov    	ebx, dword ptr [ebx + 0x20]
  0x14e9	dec    	ecx
  === BLOCK LINK ===
    0x14ea
=== CODE BLOCK END ===

=== CODE BLOCK ADDRESS 0x14ea ===
  0x14ea	mov    	esi, dword ptr [ebx + 0x28]
  0x14ed	dec    	ecx
  0x14ee	mov    	edi, dword ptr [ebx + 0x30]
  0x14f1	dec    	ecx
  0x14f2	mov    	esp, ebx
  === BLOCK LINK ===
    0x14f4
=== CODE BLOCK END ===

=== CODE BLOCK ADDRESS 0x14f4 ===
  0x14f4	inc    	ecx
  0x14f5	pop    	esi
  0x14f6	inc    	ecx
  0x14f7	pop    	esp
  0x14f8	pop    	ebp
  === BLOCK LINK ===
    0x14f9
=== CODE BLOCK END ===

=== CODE BLOCK ADDRESS 0x14f9 ===
  0x14f9	ret    	
  0x14fa	int3   	
  0x14fb	int3   	
  0x14fc	int3   	
  0x14fd	int3   	
  === BLOCK LINK ===
    0x14fe
=== CODE BLOCK END ===

=== CODE BLOCK ADDRESS 0x1019 ===
  0x1019	inc    	sp
  0x101b	cmp    	dword ptr [eax], ebx
  0x101d	je     	0x1029
  === BLOCK LINK ===
    0x101f
    0x1029
=== CODE BLOCK END ===

=== CODE BLOCK ADDRESS 0x14fe ===
  0x14fe	int3   	
  0x14ff	int3   	
  0x1500	int3   	
  0x1501	int3   	
  0x1502	int3   	
  === BLOCK LINK ===
    0x1503
=== CODE BLOCK END ===

=== CODE BLOCK ADDRESS 0x1503 ===
  0x1503	int3   	
  0x1504	int3   	
  0x1505	int3   	
  0x1506	int3   	
  0x1507	int3   	
  === BLOCK LINK ===
    0x1508
=== CODE BLOCK END ===

=== CODE BLOCK ADDRESS 0x1508 ===
  0x1508	int3   	
  0x1509	int3   	
  0x150a	int3   	
  0x150b	int3   	
  0x150c	int3   	
  === BLOCK LINK ===
    0x150d
=== CODE BLOCK END ===

=== CODE BLOCK ADDRESS 0x150d ===
  0x150d	int3   	
  0x150e	int3   	
  0x150f	int3   	
  0x1510	dec    	eax
  0x1511	sub    	esp, 0x28
  === BLOCK LINK ===
    0x1514
=== CODE BLOCK END ===

=== CODE BLOCK ADDRESS 0x1514 ===
  0x1514	mov    	eax, 0x5a4d
  0x1519	cmp    	word ptr [0xffffeae0], ax
  0x1520	je     	0x1526
  === BLOCK LINK ===
    0x1522
=== CODE BLOCK END ===

=== CODE BLOCK ADDRESS 0x1522 ===
  0x1522	xor    	eax, eax
  0x1524	jmp    	0x1579
  === BLOCK LINK ===
    0x1526
=== CODE BLOCK END ===

=== CODE BLOCK ADDRESS 0x1526 ===
  0x1526	dec    	eax
  0x1527	arpl   	word ptr [0xffffeb0f], cx
  0x152d	dec    	eax
  0x152e	lea    	eax, [0xffffeacc]
  0x1534	dec    	eax
  === BLOCK LINK ===
    0x1535
=== CODE BLOCK END ===

=== CODE BLOCK ADDRESS 0x1535 ===
  0x1535	add    	ecx, eax
  0x1537	cmp    	dword ptr [ecx], 0x4550
  0x153d	jne    	0x1522
  === BLOCK LINK ===
    0x153f
=== CODE BLOCK END ===

=== CODE BLOCK ADDRESS 0x153f ===
  0x153f	mov    	eax, 0x10b
  0x1544	cmp    	word ptr [ecx + 0x18], ax
  0x1548	je     	0x1568
  === BLOCK LINK ===
    0x154a
=== CODE BLOCK END ===

=== CODE BLOCK ADDRESS 0x154a ===
  0x154a	mov    	eax, 0x20b
  0x154f	cmp    	word ptr [ecx + 0x18], ax
  0x1553	jne    	0x1522
  === BLOCK LINK ===
    0x1555
=== CODE BLOCK END ===

=== CODE BLOCK ADDRESS 0x1555 ===
  0x1555	xor    	eax, eax
  0x1557	cmp    	dword ptr [ecx + 0x84], 0xe
  0x155e	jbe    	0x1579
  === BLOCK LINK ===
    0x1560
=== CODE BLOCK END ===

=== CODE BLOCK ADDRESS 0x1560 ===
  0x1560	cmp    	dword ptr [ecx + 0xf8], eax
  0x1566	jmp    	0x1576
  === BLOCK LINK ===
    0x1568
=== CODE BLOCK END ===

=== CODE BLOCK ADDRESS 0x1568 ===
  0x1568	xor    	eax, eax
  0x156a	cmp    	dword ptr [ecx + 0x74], 0xe
  0x156e	jbe    	0x1579
  === BLOCK LINK ===
    0x1570
=== CODE BLOCK END ===

=== CODE BLOCK ADDRESS 0x1570 ===
  0x1570	cmp    	dword ptr [ecx + 0xe8], eax
  0x1576	setne  	al
  0x1579	mov    	ecx, 2
  0x157e	mov    	dword ptr [0x2abc], eax
  0x1584	call   	0x19a8
  === BLOCK LINK ===
    0x1589
=== CODE BLOCK END ===

=== CODE BLOCK ADDRESS 0x1589 ===
  0x1589	mov    	ecx, eax
  0x158b	call   	dword ptr [0xccf]
  === BLOCK LINK ===
    0x1591
=== CODE BLOCK END ===

=== CODE BLOCK ADDRESS 0x1591 ===
  0x1591	dec    	eax
  0x1592	mov    	ecx, dword ptr [0xc70]
  0x1598	dec    	eax
  0x1599	or     	eax, 0xffffffff
  0x159c	dec    	eax
  === BLOCK LINK ===
    0x159d
=== CODE BLOCK END ===

=== CODE BLOCK ADDRESS 0x159d ===
  0x159d	mov    	dword ptr [0x302d], eax
  0x15a3	dec    	eax
  0x15a4	mov    	dword ptr [0x302e], eax
  0x15aa	mov    	eax, dword ptr [0x2aa4]
  0x15b0	mov    	dword ptr [ecx], eax
  === BLOCK LINK ===
    0x15b2
=== CODE BLOCK END ===

=== CODE BLOCK ADDRESS 0x15b2 ===
  0x15b2	dec    	eax
  0x15b3	mov    	ecx, dword ptr [0xc47]
  0x15b9	mov    	eax, dword ptr [0x2a89]
  0x15bf	mov    	dword ptr [ecx], eax
  0x15c1	call   	0x1a00
  === BLOCK LINK ===
    0x15c6
=== CODE BLOCK END ===

=== CODE BLOCK ADDRESS 0x15c6 ===
  0x15c6	cmp    	dword ptr [0x2a33], 0
  0x15cd	jne    	0x15dc
  === BLOCK LINK ===
    0x15cf
=== CODE BLOCK END ===

=== CODE BLOCK ADDRESS 0x15cf ===
  0x15cf	dec    	eax
  0x15d0	lea    	ecx, [0x42a]
  0x15d6	call   	dword ptr [0xc5c]
  === BLOCK LINK ===
    0x15dc
=== CODE BLOCK END ===

=== CODE BLOCK ADDRESS 0x15dc ===
  0x15dc	xor    	eax, eax
  0x15de	dec    	eax
  0x15df	add    	esp, 0x28
  0x15e2	ret    	
  0x15e3	int3   	
  === BLOCK LINK ===
    0x15e4
=== CODE BLOCK END ===

=== CODE BLOCK ADDRESS 0x15e4 ===
  0x15e4	int3   	
  0x15e5	int3   	
  0x15e6	int3   	
  0x15e7	int3   	
  0x15e8	int3   	
  === BLOCK LINK ===
    0x15e9
=== CODE BLOCK END ===

=== CODE BLOCK ADDRESS 0x15e9 ===
  0x15e9	int3   	
  0x15ea	int3   	
  0x15eb	int3   	
  0x15ec	int3   	
  0x15ed	int3   	
  === BLOCK LINK ===
    0x15ee
=== CODE BLOCK END ===

=== CODE BLOCK ADDRESS 0x15ee ===
  0x15ee	int3   	
  0x15ef	int3   	
  0x15f0	dec    	eax
  0x15f1	sub    	esp, 0x38
  0x15f4	mov    	eax, dword ptr [0x2a56]
  === BLOCK LINK ===
    0x15fa
=== CODE BLOCK END ===

=== CODE BLOCK ADDRESS 0x15fa ===
  0x15fa	dec    	esp
  0x15fb	lea    	eax, [0x2a37]
  0x1601	inc    	esp
  0x1602	mov    	ecx, dword ptr [0x2a44]
  0x1608	dec    	eax
  === BLOCK LINK ===
    0x1609
=== CODE BLOCK END ===

=== CODE BLOCK ADDRESS 0x1609 ===
  0x1609	lea    	edx, [0x2a21]
  0x160f	mov    	dword ptr [0x2a2f], eax
  0x1615	dec    	eax
  0x1616	lea    	ecx, [0x2a0c]
  0x161c	dec    	eax
  === BLOCK LINK ===
    0x161d
=== CODE BLOCK END ===

=== CODE BLOCK ADDRESS 0x161d ===
  0x161d	lea    	eax, [0x2a21]
  0x1623	dec    	eax
  0x1624	mov    	dword ptr [esp + 0x20], eax
  0x1628	call   	dword ptr [0xc3a]
  === BLOCK LINK ===
    0x162e
=== CODE BLOCK END ===

=== CODE BLOCK ADDRESS 0x162e ===
  0x162e	mov    	dword ptr [0x29f8], eax
  0x1634	dec    	eax
  0x1635	add    	esp, 0x38
  0x1638	ret    	
  0x1639	int3   	
  === BLOCK LINK ===
    0x163a
=== CODE BLOCK END ===

=== CODE BLOCK ADDRESS 0x1048 ===
  0x1048	dec    	ebp
  0x1049	test   	ecx, ecx
  0x104b	je     	0x109f
  === BLOCK LINK ===
    0x104d
=== CODE BLOCK END ===

=== CODE BLOCK ADDRESS 0x163a ===
  0x163a	int3   	
  0x163b	int3   	
  0x163c	int3   	
  0x163d	int3   	
  0x163e	int3   	
  === BLOCK LINK ===
    0x163f
=== CODE BLOCK END ===

=== CODE BLOCK ADDRESS 0x163f ===
  0x163f	int3   	
  0x1640	dec    	eax
  0x1641	sub    	esp, 0x28
  0x1644	call   	0x1af4
  === BLOCK LINK ===
    0x1649
=== CODE BLOCK END ===

=== CODE BLOCK ADDRESS 0x1649 ===
  0x1649	dec    	eax
  0x164a	add    	esp, 0x28
  0x164d	jmp    	0x1658
  === BLOCK LINK ===
    0x1652
=== CODE BLOCK END ===

=== CODE BLOCK ADDRESS 0x1652 ===
  0x1652	int3   	
  0x1653	int3   	
  0x1654	int3   	
  0x1655	int3   	
  0x1656	int3   	
  === BLOCK LINK ===
    0x1657
=== CODE BLOCK END ===

=== CODE BLOCK ADDRESS 0x1657 ===
  0x1657	int3   	
  0x1658	dec    	eax
  0x1659	mov    	dword ptr [esp + 8], ebx
  0x165d	dec    	eax
  0x165e	mov    	dword ptr [esp + 0x10], edi
  === BLOCK LINK ===
    0x1662
=== CODE BLOCK END ===

=== CODE BLOCK ADDRESS 0x1662 ===
  0x1662	inc    	ecx
  0x1663	push   	esi
  0x1664	dec    	eax
  0x1665	sub    	esp, 0xb0
  0x166b	and    	dword ptr [esp + 0x20], 0
  === BLOCK LINK ===
    0x1670
=== CODE BLOCK END ===

=== CODE BLOCK ADDRESS 0x1670 ===
  0x1670	dec    	eax
  0x1671	lea    	ecx, [esp + 0x40]
  0x1675	call   	dword ptr [0xb1d]
  === BLOCK LINK ===
    0x167b
=== CODE BLOCK END ===

=== CODE BLOCK ADDRESS 0x167b ===
  0x167b	nop    	
  0x167c	dec    	eax
  0x167e	mov    	eax, dword ptr [0x30]
  0x1685	dec    	eax
  0x1686	mov    	ebx, dword ptr [eax + 8]
  === BLOCK LINK ===
    0x1689
=== CODE BLOCK END ===

=== CODE BLOCK ADDRESS 0x1689 ===
  0x1689	xor    	edi, edi
  0x168b	xor    	eax, eax
  0x168d	.byte  	0xf0
  0x168e	dec    	eax
  0x168f	cmpxchg  	dword ptr [0x2f4a], ebx
  === BLOCK LINK ===
    0x1696
=== CODE BLOCK END ===

=== CODE BLOCK ADDRESS 0x1696 ===
  0x1696	je     	0x16a2
  === BLOCK LINK ===
    0x1698
=== CODE BLOCK END ===

=== CODE BLOCK ADDRESS 0x1698 ===
  0x1698	dec    	eax
  0x1699	cmp    	eax, ebx
  0x169b	jne    	0x16b7
  === BLOCK LINK ===
    0x169d
=== CODE BLOCK END ===

=== CODE BLOCK ADDRESS 0x169d ===
  0x169d	mov    	edi, 1
  0x16a2	mov    	eax, dword ptr [0x2f40]
  0x16a8	cmp    	eax, 1
  0x16ab	jne    	0x16c4
  === BLOCK LINK ===
    0x16ad
=== CODE BLOCK END ===

=== CODE BLOCK ADDRESS 0x16ad ===
  0x16ad	lea    	ecx, [eax + 0x1e]
  0x16b0	call   	0x19f3
  === BLOCK LINK ===
    0x16b5
=== CODE BLOCK END ===

=== CODE BLOCK ADDRESS 0x16b5 ===
  0x16b5	jmp    	0x1731
  === BLOCK LINK ===
    0x16b7
=== CODE BLOCK END ===

=== CODE BLOCK ADDRESS 0x16b7 ===
  0x16b7	mov    	ecx, 0x3e8
  0x16bc	call   	dword ptr [0xade]
  === BLOCK LINK ===
    0x16c2
=== CODE BLOCK END ===

=== CODE BLOCK ADDRESS 0x16c2 ===
  0x16c2	jmp    	0x168b
  === BLOCK LINK ===
    0x16c4
=== CODE BLOCK END ===

=== CODE BLOCK ADDRESS 0x16c4 ===
  0x16c4	mov    	eax, dword ptr [0x2f1e]
  0x16ca	test   	eax, eax
  0x16cc	jne    	0x1727
  === BLOCK LINK ===
    0x16ce
=== CODE BLOCK END ===

=== CODE BLOCK ADDRESS 0x16ce ===
  0x16ce	mov    	dword ptr [0x2f10], 1
  0x16d8	dec    	esp
  0x16d9	lea    	esi, [0xc11]
  0x16df	dec    	eax
  0x16e0	lea    	ebx, [0xbf2]
  === BLOCK LINK ===
    0x16e6
=== CODE BLOCK END ===

=== CODE BLOCK ADDRESS 0x16e6 ===
  0x16e6	dec    	eax
  0x16e7	mov    	dword ptr [esp + 0x30], ebx
  0x16eb	mov    	dword ptr [esp + 0x24], eax
  0x16ef	dec    	ecx
  0x16f0	cmp    	ebx, esi
  === BLOCK LINK ===
    0x16f2
=== CODE BLOCK END ===

=== CODE BLOCK ADDRESS 0x16f2 ===
  0x16f2	jae    	0x1719
  === BLOCK LINK ===
    0x16f4
=== CODE BLOCK END ===

=== CODE BLOCK ADDRESS 0x16f4 ===
  0x16f4	test   	eax, eax
  0x16f6	jne    	0x171d
  === BLOCK LINK ===
    0x16f8
=== CODE BLOCK END ===

=== CODE BLOCK ADDRESS 0x16f8 ===
  0x16f8	dec    	eax
  0x16f9	cmp    	dword ptr [ebx], 0
  0x16fc	je     	0x170e
  === BLOCK LINK ===
    0x16fe
=== CODE BLOCK END ===

=== CODE BLOCK ADDRESS 0x16fe ===
  0x16fe	dec    	eax
  0x16ff	mov    	eax, dword ptr [ebx]
  0x1701	dec    	eax
  0x1702	mov    	ecx, dword ptr [0xbb0]
  0x1708	call   	ecx
  === BLOCK LINK ===
    0x170a
=== CODE BLOCK END ===

=== CODE BLOCK ADDRESS 0x170a ===
  0x170a	mov    	dword ptr [esp + 0x24], eax
  0x170e	dec    	eax
  0x170f	add    	ebx, 8
  0x1712	dec    	eax
  0x1713	mov    	dword ptr [esp + 0x30], ebx
  === BLOCK LINK ===
    0x1717
=== CODE BLOCK END ===

=== CODE BLOCK ADDRESS 0x1717 ===
  0x1717	jmp    	0x16ef
  === BLOCK LINK ===
    0x1719
=== CODE BLOCK END ===

=== CODE BLOCK ADDRESS 0x1719 ===
  0x1719	test   	eax, eax
  0x171b	je     	0x1731
  === BLOCK LINK ===
    0x171d
=== CODE BLOCK END ===

=== CODE BLOCK ADDRESS 0x171d ===
  0x171d	mov    	eax, 0xff
  0x1722	jmp    	0x1884
  === BLOCK LINK ===
    0x1727
=== CODE BLOCK END ===

=== CODE BLOCK ADDRESS 0x1727 ===
  0x1727	mov    	dword ptr [0x28f3], 1
  0x1731	mov    	eax, dword ptr [0x2eb1]
  0x1737	cmp    	eax, 1
  0x173a	jne    	0x1759
  === BLOCK LINK ===
    0x173c
=== CODE BLOCK END ===

=== CODE BLOCK ADDRESS 0x173c ===
  0x173c	dec    	eax
  0x173d	lea    	edx, [0xb8d]
  0x1743	dec    	eax
  0x1744	lea    	ecx, [0xb76]
  0x174a	call   	0x1bce
  === BLOCK LINK ===
    0x174f
=== CODE BLOCK END ===

=== CODE BLOCK ADDRESS 0x174f ===
  0x174f	mov    	dword ptr [0x2e8f], 2
  0x1759	test   	edi, edi
  0x175b	jne    	0x1766
  === BLOCK LINK ===
    0x175d
=== CODE BLOCK END ===

=== CODE BLOCK ADDRESS 0x175d ===
  0x175d	xor    	eax, eax
  0x175f	dec    	eax
  0x1760	xchg   	dword ptr [0x2e7a], eax
  0x1766	dec    	eax
  0x1767	cmp    	dword ptr [0x2e82], 0
  === BLOCK LINK ===
    0x176e
=== CODE BLOCK END ===

=== CODE BLOCK ADDRESS 0x176e ===
  0x176e	je     	0x179a
  === BLOCK LINK ===
    0x1770
=== CODE BLOCK END ===

=== CODE BLOCK ADDRESS 0x1770 ===
  0x1770	dec    	eax
  0x1771	lea    	ecx, [0x2e79]
  0x1777	call   	0x1a60
  === BLOCK LINK ===
    0x177c
=== CODE BLOCK END ===

=== CODE BLOCK ADDRESS 0x177c ===
  0x177c	test   	eax, eax
  0x177e	je     	0x179a
  === BLOCK LINK ===
    0x1780
=== CODE BLOCK END ===

=== CODE BLOCK ADDRESS 0x1780 ===
  0x1780	inc    	ebp
  0x1781	xor    	eax, eax
  0x1783	inc    	ecx
  0x1784	lea    	edx, [eax + 2]
  0x1787	xor    	ecx, ecx
  === BLOCK LINK ===
    0x1789
=== CODE BLOCK END ===

=== CODE BLOCK ADDRESS 0x1789 ===
  0x1789	dec    	eax
  0x178a	mov    	eax, dword ptr [0x2e60]
  0x1790	dec    	esp
  0x1791	mov    	ecx, dword ptr [0xb21]
  0x1797	inc    	ecx
  === BLOCK LINK ===
    0x1798
=== CODE BLOCK END ===

=== CODE BLOCK ADDRESS 0x1798 ===
  0x1798	call   	ecx
  === BLOCK LINK ===
    0x179a
=== CODE BLOCK END ===

=== CODE BLOCK ADDRESS 0x179a ===
  0x179a	dec    	eax
  0x179b	mov    	eax, dword ptr [0xa6f]
  0x17a1	dec    	eax
  0x17a2	mov    	ebx, dword ptr [eax]
  0x17a4	dec    	eax
  === BLOCK LINK ===
    0x17a5
=== CODE BLOCK END ===

=== CODE BLOCK ADDRESS 0x17a5 ===
  0x17a5	mov    	dword ptr [esp + 0x28], ebx
  0x17a9	mov    	edi, dword ptr [esp + 0x20]
  0x17ad	movzx  	ecx, byte ptr [ebx]
  0x17b0	cmp    	cl, 0x20
  0x17b3	ja     	0x1826
  === BLOCK LINK ===
    0x17b5
=== CODE BLOCK END ===

=== CODE BLOCK ADDRESS 0x17b5 ===
  0x17b5	test   	cl, cl
  0x17b7	je     	0x17bd
  === BLOCK LINK ===
    0x17b9
=== CODE BLOCK END ===

=== CODE BLOCK ADDRESS 0x17b9 ===
  0x17b9	test   	edi, edi
  0x17bb	jne    	0x1826
  === BLOCK LINK ===
    0x17bd
=== CODE BLOCK END ===

=== CODE BLOCK ADDRESS 0x17bd ===
  0x17bd	dec    	cl
  0x17bf	cmp    	cl, 0x1f
  0x17c2	ja     	0x17d0
  === BLOCK LINK ===
    0x17c4
=== CODE BLOCK END ===

=== CODE BLOCK ADDRESS 0x17c4 ===
  0x17c4	dec    	eax
  0x17c5	inc    	ebx
  0x17c7	dec    	eax
  0x17c8	mov    	dword ptr [esp + 0x28], ebx
  0x17cc	mov    	cl, byte ptr [ebx]
  === BLOCK LINK ===
    0x17ce
=== CODE BLOCK END ===

=== CODE BLOCK ADDRESS 0x17ce ===
  0x17ce	jmp    	0x17bd
  === BLOCK LINK ===
    0x17d0
=== CODE BLOCK END ===

=== CODE BLOCK ADDRESS 0x17d0 ===
  0x17d0	test   	byte ptr [esp + 0x7c], 1
  0x17d5	movzx  	eax, word ptr [esp + 0x80]
  0x17dd	inc    	ecx
  0x17de	mov    	ecx, 0xa
  0x17e3	inc    	esp
  === BLOCK LINK ===
    0x17e4
=== CODE BLOCK END ===

=== CODE BLOCK ADDRESS 0x17e4 ===
  0x17e4	cmovne  	ecx, eax
  0x17e7	dec    	esp
  0x17e8	mov    	eax, ebx
  0x17ea	xor    	edx, edx
  0x17ec	dec    	eax
  === BLOCK LINK ===
    0x17ed
=== CODE BLOCK END ===

=== CODE BLOCK ADDRESS 0x17ed ===
  0x17ed	lea    	ecx, [0xffffe80d]
  0x17f3	call   	0x10a8
  === BLOCK LINK ===
    0x17f8
=== CODE BLOCK END ===

=== CODE BLOCK ADDRESS 0x17f8 ===
  0x17f8	mov    	dword ptr [0x2822], eax
  0x17fe	cmp    	dword ptr [0x283b], 0
  0x1805	jne    	0x180f
  === BLOCK LINK ===
    0x1807
=== CODE BLOCK END ===

=== CODE BLOCK ADDRESS 0x1807 ===
  0x1807	mov    	ecx, eax
  0x1809	call   	dword ptr [0xa49]
  === BLOCK LINK ===
    0x180f
=== CODE BLOCK END ===

=== CODE BLOCK ADDRESS 0x180f ===
  0x180f	cmp    	dword ptr [0x280e], 0
  0x1816	jne    	0x1824
  === BLOCK LINK ===
    0x1818
=== CODE BLOCK END ===

=== CODE BLOCK ADDRESS 0x1818 ===
  0x1818	call   	dword ptr [0xa2a]
  === BLOCK LINK ===
    0x181e
=== CODE BLOCK END ===

=== CODE BLOCK ADDRESS 0x181e ===
  0x181e	mov    	eax, dword ptr [0x27fc]
  0x1824	jmp    	0x1884
  === BLOCK LINK ===
    0x1826
=== CODE BLOCK END ===

=== CODE BLOCK ADDRESS 0x1826 ===
  0x1826	cmp    	cl, 0x22
  0x1829	jne    	0x1838
  === BLOCK LINK ===
    0x182b
=== CODE BLOCK END ===

=== CODE BLOCK ADDRESS 0x182b ===
  0x182b	xor    	eax, eax
  0x182d	test   	edi, edi
  0x182f	sete   	al
  0x1832	mov    	edi, eax
  0x1834	mov    	dword ptr [esp + 0x20], eax
  === BLOCK LINK ===
    0x1838
=== CODE BLOCK END ===

=== CODE BLOCK ADDRESS 0x1838 ===
  0x1838	call   	dword ptr [0xa02]
  === BLOCK LINK ===
    0x183e
=== CODE BLOCK END ===

=== CODE BLOCK ADDRESS 0x183e ===
  0x183e	test   	eax, eax
  0x1840	je     	0x184a
  === BLOCK LINK ===
    0x1842
=== CODE BLOCK END ===

=== CODE BLOCK ADDRESS 0x1842 ===
  0x1842	dec    	eax
  0x1843	inc    	ebx
  0x1845	dec    	eax
  0x1846	mov    	dword ptr [esp + 0x28], ebx
  0x184a	dec    	eax
  === BLOCK LINK ===
    0x184b
=== CODE BLOCK END ===

=== CODE BLOCK ADDRESS 0x184b ===
  0x184b	inc    	ebx
  0x184d	dec    	eax
  0x184e	mov    	dword ptr [esp + 0x28], ebx
  0x1852	jmp    	0x17ad
  === BLOCK LINK ===
    0x1857
=== CODE BLOCK END ===

=== CODE BLOCK ADDRESS 0x1857 ===
  0x1857	mov    	dword ptr [0x27c3], eax
  0x185d	cmp    	dword ptr [0x27dc], 0
  0x1864	jne    	0x186f
  === BLOCK LINK ===
    0x1866
=== CODE BLOCK END ===

=== CODE BLOCK ADDRESS 0x1866 ===
  0x1866	mov    	ecx, eax
  0x1868	call   	dword ptr [0x9e2]
  === BLOCK LINK ===
    0x186e
=== CODE BLOCK END ===

=== CODE BLOCK ADDRESS 0x186e ===
  0x186e	int3   	
  0x186f	cmp    	dword ptr [0x27ae], 0
  0x1876	jne    	0x1884
  === BLOCK LINK ===
    0x1878
=== CODE BLOCK END ===

=== CODE BLOCK ADDRESS 0x1878 ===
  0x1878	call   	dword ptr [0x9ca]
  === BLOCK LINK ===
    0x187e
=== CODE BLOCK END ===

=== CODE BLOCK ADDRESS 0x187e ===
  0x187e	mov    	eax, dword ptr [0x279c]
  0x1884	dec    	esp
  0x1885	lea    	ebx, [esp + 0xb0]
  0x188c	dec    	ecx
  0x188d	mov    	ebx, dword ptr [ebx + 0x10]
  === BLOCK LINK ===
    0x1890
=== CODE BLOCK END ===

=== CODE BLOCK ADDRESS 0x1890 ===
  0x1890	dec    	ecx
  0x1891	mov    	edi, dword ptr [ebx + 0x18]
  0x1894	dec    	ecx
  0x1895	mov    	esp, ebx
  0x1897	inc    	ecx
  === BLOCK LINK ===
    0x1898
=== CODE BLOCK END ===

=== CODE BLOCK ADDRESS 0x1898 ===
  0x1898	pop    	esi
  0x1899	ret    	
  0x189a	int3   	
  0x189b	int3   	
  0x189c	int3   	
  === BLOCK LINK ===
    0x189d
=== CODE BLOCK END ===

=== CODE BLOCK ADDRESS 0x109f ===
  0x109f	ret    	
  0x10a0	int3   	
  === BLOCK LINK ===
    0x10a1
=== CODE BLOCK END ===

=== CODE BLOCK ADDRESS 0x189d ===
  0x189d	int3   	
  0x189e	int3   	
  0x189f	int3   	
  0x18a0	int3   	
  0x18a1	int3   	
  === BLOCK LINK ===
    0x18a2
=== CODE BLOCK END ===

=== CODE BLOCK ADDRESS 0x18a2 ===
  0x18a2	int3   	
  0x18a3	int3   	
  0x18a4	int3   	
  0x18a5	int3   	
  0x18a6	nop    	word ptr [eax + eax]
  === BLOCK LINK ===
    0x18b0
=== CODE BLOCK END ===

=== CODE BLOCK ADDRESS 0x18b0 ===
  0x18b0	dec    	eax
  0x18b1	cmp    	ecx, dword ptr [0x2751]
  0x18b7	jne    	0x18c9
  === BLOCK LINK ===
    0x18b9
=== CODE BLOCK END ===

=== CODE BLOCK ADDRESS 0x18b9 ===
  0x18b9	dec    	eax
  0x18ba	rol    	ecx, 0x10
  0x18bd	test   	cx, 0xffff
  0x18c2	jne    	0x18c5
  === BLOCK LINK ===
    0x18c4
=== CODE BLOCK END ===

=== CODE BLOCK ADDRESS 0x18c4 ===
  0x18c4	ret    	
  0x18c5	dec    	eax
  0x18c6	ror    	ecx, 0x10
  0x18c9	jmp    	0x1c40
  === BLOCK LINK ===
    0x18ce
=== CODE BLOCK END ===

=== CODE BLOCK ADDRESS 0x18ce ===
  0x18ce	int3   	
  0x18cf	int3   	
  0x18d0	int3   	
  0x18d1	int3   	
  0x18d2	int3   	
  === BLOCK LINK ===
    0x18d3
=== CODE BLOCK END ===

=== CODE BLOCK ADDRESS 0x18d3 ===
  0x18d3	int3   	
  0x18d4	int3   	
  0x18d5	int3   	
  0x18d6	int3   	
  0x18d7	int3   	
  === BLOCK LINK ===
    0x18d8
=== CODE BLOCK END ===

=== CODE BLOCK ADDRESS 0x18d8 ===
  0x18d8	int3   	
  0x18d9	int3   	
  0x18da	int3   	
  0x18db	int3   	
  0x18dc	int3   	
  === BLOCK LINK ===
    0x18dd
=== CODE BLOCK END ===

=== CODE BLOCK ADDRESS 0x18dd ===
  0x18dd	int3   	
  0x18de	int3   	
  0x18df	int3   	
  0x18e0	dec    	eax
  0x18e1	sub    	esp, 0x28
  === BLOCK LINK ===
    0x18e4
=== CODE BLOCK END ===

=== CODE BLOCK ADDRESS 0x18e4 ===
  0x18e4	dec    	eax
  0x18e5	mov    	eax, dword ptr [ecx]
  0x18e7	cmp    	dword ptr [eax], 0xe06d7363
  0x18ed	jne    	0x1912
  === BLOCK LINK ===
    0x18ef
=== CODE BLOCK END ===

=== CODE BLOCK ADDRESS 0x18ef ===
  0x18ef	cmp    	dword ptr [eax + 0x18], 4
  0x18f3	jne    	0x1912
  === BLOCK LINK ===
    0x18f5
=== CODE BLOCK END ===

=== CODE BLOCK ADDRESS 0x18f5 ===
  0x18f5	mov    	ecx, dword ptr [eax + 0x20]
  0x18f8	lea    	eax, [ecx - 0x19930520]
  0x18fe	cmp    	eax, 2
  0x1901	jbe    	0x190b
  === BLOCK LINK ===
    0x1903
=== CODE BLOCK END ===

=== CODE BLOCK ADDRESS 0x1903 ===
  0x1903	cmp    	ecx, 0x1994000
  0x1909	jne    	0x1912
  === BLOCK LINK ===
    0x190b
=== CODE BLOCK END ===

=== CODE BLOCK ADDRESS 0x190b ===
  0x190b	call   	dword ptr [0x91f]
  === BLOCK LINK ===
    0x1911
=== CODE BLOCK END ===

=== CODE BLOCK ADDRESS 0x1911 ===
  0x1911	int3   	
  0x1912	xor    	eax, eax
  0x1914	dec    	eax
  0x1915	add    	esp, 0x28
  0x1918	ret    	
  === BLOCK LINK ===
    0x1919
=== CODE BLOCK END ===

=== CODE BLOCK ADDRESS 0x1919 ===
  0x1919	int3   	
  0x191a	int3   	
  0x191b	int3   	
  0x191c	int3   	
  0x191d	int3   	
  === BLOCK LINK ===
    0x191e
=== CODE BLOCK END ===

=== CODE BLOCK ADDRESS 0x191e ===
  0x191e	int3   	
  0x191f	int3   	
  0x1920	dec    	eax
  0x1921	sub    	esp, 0x28
  0x1924	dec    	eax
  === BLOCK LINK ===
    0x1925
=== CODE BLOCK END ===

=== CODE BLOCK ADDRESS 0x1925 ===
  0x1925	lea    	ecx, [0xffffffb5]
  0x192b	call   	dword ptr [0x85f]
  === BLOCK LINK ===
    0x1931
=== CODE BLOCK END ===

=== CODE BLOCK ADDRESS 0x1931 ===
  0x1931	xor    	eax, eax
  0x1933	dec    	eax
  0x1934	add    	esp, 0x28
  0x1937	ret    	
  0x1938	int3   	
  === BLOCK LINK ===
    0x1939
=== CODE BLOCK END ===

=== CODE BLOCK ADDRESS 0x1939 ===
  0x1939	int3   	
  0x193a	int3   	
  0x193b	int3   	
  0x193c	int3   	
  0x193d	int3   	
  === BLOCK LINK ===
    0x193e
=== CODE BLOCK END ===

=== CODE BLOCK ADDRESS 0x193e ===
  0x193e	jmp    	dword ptr [0x934]
  === BLOCK LINK ===
    0x1944
=== CODE BLOCK END ===

=== CODE BLOCK ADDRESS 0x1944 ===
  0x1944	int3   	
  0x1945	int3   	
  0x1946	int3   	
  0x1947	int3   	
  0x1948	int3   	
  === BLOCK LINK ===
    0x1949
=== CODE BLOCK END ===

=== CODE BLOCK ADDRESS 0x1949 ===
  0x1949	int3   	
  0x194a	int3   	
  0x194b	int3   	
  0x194c	dec    	eax
  0x194d	sub    	esp, 0x18
  === BLOCK LINK ===
    0x1950
=== CODE BLOCK END ===

=== CODE BLOCK ADDRESS 0x1950 ===
  0x1950	xor    	edx, edx
  0x1952	dec    	eax
  0x1953	lea    	eax, [ecx - 1]
  0x1956	dec    	eax
  0x1957	cmp    	eax, -3
  === BLOCK LINK ===
    0x195a
=== CODE BLOCK END ===

=== CODE BLOCK ADDRESS 0x195a ===
  0x195a	ja     	0x1998
  === BLOCK LINK ===
    0x195c
=== CODE BLOCK END ===

=== CODE BLOCK ADDRESS 0x195c ===
  0x195c	mov    	eax, 0x5a4d
  0x1961	cmp    	word ptr [ecx], ax
  0x1964	jne    	0x1990
  === BLOCK LINK ===
    0x1966
=== CODE BLOCK END ===

=== CODE BLOCK ADDRESS 0x1966 ===
  0x1966	cmp    	dword ptr [ecx + 0x3c], edx
  0x1969	jl     	0x1990
  === BLOCK LINK ===
    0x196b
=== CODE BLOCK END ===

=== CODE BLOCK ADDRESS 0x196b ===
  0x196b	cmp    	dword ptr [ecx + 0x3c], 0x10000000
  0x1972	jae    	0x1990
  === BLOCK LINK ===
    0x1974
=== CODE BLOCK END ===

=== CODE BLOCK ADDRESS 0x1974 ===
  0x1974	dec    	eax
  0x1975	arpl   	word ptr [ecx + 0x3c], ax
  0x1978	dec    	eax
  0x1979	add    	eax, ecx
  0x197b	dec    	eax
  === BLOCK LINK ===
    0x197c
=== CODE BLOCK END ===

=== CODE BLOCK ADDRESS 0x197c ===
  0x197c	mov    	dword ptr [esp], eax
  0x197f	cmp    	dword ptr [eax], 0x4550
  0x1985	dec    	eax
  0x1986	cmovne  	eax, edx
  0x1989	dec    	eax
  === BLOCK LINK ===
    0x198a
=== CODE BLOCK END ===

=== CODE BLOCK ADDRESS 0x198a ===
  0x198a	mov    	edx, eax
  0x198c	dec    	eax
  0x198d	mov    	dword ptr [esp], eax
  0x1990	jmp    	0x1998
  === BLOCK LINK ===
    0x1992
=== CODE BLOCK END ===

=== CODE BLOCK ADDRESS 0x1992 ===
  0x1992	xor    	edx, edx
  0x1994	dec    	eax
  0x1995	mov    	dword ptr [esp], edx
  0x1998	dec    	eax
  0x1999	mov    	eax, edx
  === BLOCK LINK ===
    0x199b
=== CODE BLOCK END ===

=== CODE BLOCK ADDRESS 0x199b ===
  0x199b	dec    	eax
  0x199c	add    	esp, 0x18
  0x199f	ret    	
  0x19a0	int3   	
  0x19a1	int3   	
  === BLOCK LINK ===
    0x19a2
=== CODE BLOCK END ===

=== CODE BLOCK ADDRESS 0x1063 ===
  0x1063	dec    	eax
  0x1064	test   	eax, eax
  0x1066	je     	0x1084
  === BLOCK LINK ===
    0x1068
    0x1084
=== CODE BLOCK END ===

=== CODE BLOCK ADDRESS 0x19a2 ===
  0x19a2	int3   	
  0x19a3	int3   	
  0x19a4	int3   	
  0x19a5	int3   	
  0x19a6	int3   	
  === BLOCK LINK ===
    0x19a7
=== CODE BLOCK END ===

=== CODE BLOCK ADDRESS 0x19a7 ===
  0x19a7	int3   	
  0x19a8	inc    	eax
  0x19a9	push   	ebx
  0x19aa	dec    	eax
  0x19ab	sub    	esp, 0x20
  === BLOCK LINK ===
    0x19ae
=== CODE BLOCK END ===

=== CODE BLOCK ADDRESS 0x19ae ===
  0x19ae	mov    	ebx, ecx
  0x19b0	xor    	ecx, ecx
  0x19b2	call   	dword ptr [0x7d0]
  === BLOCK LINK ===
    0x19b8
=== CODE BLOCK END ===

=== CODE BLOCK ADDRESS 0x19b8 ===
  0x19b8	dec    	eax
  0x19b9	test   	eax, eax
  0x19bb	je     	0x19e5
  === BLOCK LINK ===
    0x19bd
=== CODE BLOCK END ===

=== CODE BLOCK ADDRESS 0x19bd ===
  0x19bd	dec    	eax
  0x19be	mov    	ecx, eax
  0x19c0	call   	0x194c
  === BLOCK LINK ===
    0x19c5
=== CODE BLOCK END ===

=== CODE BLOCK ADDRESS 0x19c5 ===
  0x19c5	dec    	eax
  0x19c6	test   	eax, eax
  0x19c8	je     	0x19e5
  === BLOCK LINK ===
    0x19ca
=== CODE BLOCK END ===

=== CODE BLOCK ADDRESS 0x19ca ===
  0x19ca	mov    	ecx, 2
  0x19cf	cmp    	word ptr [eax + 0x5c], cx
  0x19d3	jne    	0x19d9
  === BLOCK LINK ===
    0x19d5
=== CODE BLOCK END ===

=== CODE BLOCK ADDRESS 0x19d5 ===
  0x19d5	mov    	eax, ecx
  0x19d7	jmp    	0x19e7
  === BLOCK LINK ===
    0x19d9
=== CODE BLOCK END ===

=== CODE BLOCK ADDRESS 0x19d9 ===
  0x19d9	cmp    	word ptr [eax + 0x5c], 3
  0x19de	mov    	eax, 1
  0x19e3	je     	0x19e7
  === BLOCK LINK ===
    0x19e5
=== CODE BLOCK END ===

=== CODE BLOCK ADDRESS 0x19e5 ===
  0x19e5	mov    	eax, ebx
  0x19e7	dec    	eax
  0x19e8	add    	esp, 0x20
  0x19eb	pop    	ebx
  0x19ec	ret    	
  === BLOCK LINK ===
    0x19ed
=== CODE BLOCK END ===

=== CODE BLOCK ADDRESS 0x1e7d ===
=== CODE BLOCK END ===

=== CODE BLOCK ADDRESS 0x19ed ===
  0x19ed	int3   	
  0x19ee	int3   	
  0x19ef	int3   	
  0x19f0	int3   	
  0x19f1	int3   	
  === BLOCK LINK ===
    0x19f2
=== CODE BLOCK END ===

=== CODE BLOCK ADDRESS 0x19f2 ===
  0x19f2	int3   	
  0x19f3	jmp    	dword ptr [0x877]
  === BLOCK LINK ===
    0x19f9
=== CODE BLOCK END ===

=== CODE BLOCK ADDRESS 0x19f9 ===
  0x19f9	int3   	
  0x19fa	int3   	
  0x19fb	int3   	
  0x19fc	int3   	
  0x19fd	int3   	
  === BLOCK LINK ===
    0x19fe
=== CODE BLOCK END ===

=== CODE BLOCK ADDRESS 0x19fe ===
  0x19fe	int3   	
  0x19ff	int3   	
  0x1a00	xor    	eax, eax
  0x1a02	ret    	
  0x1a03	int3   	
  === BLOCK LINK ===
    0x1a04
=== CODE BLOCK END ===

=== CODE BLOCK ADDRESS 0x1a04 ===
  0x1a04	int3   	
  0x1a05	int3   	
  0x1a06	int3   	
  0x1a07	int3   	
  0x1a08	int3   	
  === BLOCK LINK ===
    0x1a09
=== CODE BLOCK END ===

=== CODE BLOCK ADDRESS 0x1a09 ===
  0x1a09	int3   	
  0x1a0a	int3   	
  0x1a0b	int3   	
  0x1a0c	int3   	
  0x1a0d	int3   	
  === BLOCK LINK ===
    0x1a0e
=== CODE BLOCK END ===

=== CODE BLOCK ADDRESS 0x1a0e ===
  0x1a0e	int3   	
  0x1a0f	int3   	
  0x1a10	dec    	esp
  0x1a11	arpl   	word ptr [ecx + 0x3c], ax
  0x1a14	inc    	ebp
  === BLOCK LINK ===
    0x1a15
=== CODE BLOCK END ===

=== CODE BLOCK ADDRESS 0x1a15 ===
  0x1a15	xor    	ecx, ecx
  0x1a17	dec    	esp
  0x1a18	add    	eax, ecx
  0x1a1a	dec    	esp
  0x1a1b	mov    	edx, edx
  === BLOCK LINK ===
    0x1a1d
=== CODE BLOCK END ===

=== CODE BLOCK ADDRESS 0x1a1d ===
  0x1a1d	inc    	ecx
  0x1a1e	movzx  	eax, word ptr [eax + 0x14]
  0x1a22	inc    	ebp
  0x1a23	movzx  	ebx, word ptr [eax + 6]
  0x1a27	dec    	eax
  === BLOCK LINK ===
    0x1a28
=== CODE BLOCK END ===

=== CODE BLOCK ADDRESS 0x1a28 ===
  0x1a28	add    	eax, 0x18
  0x1a2b	dec    	ecx
  0x1a2c	add    	eax, eax
  0x1a2e	inc    	ebp
  0x1a2f	test   	ebx, ebx
  === BLOCK LINK ===
    0x1a31
=== CODE BLOCK END ===

=== CODE BLOCK ADDRESS 0x1a31 ===
  0x1a31	je     	0x1a51
  === BLOCK LINK ===
    0x1a33
=== CODE BLOCK END ===

=== CODE BLOCK ADDRESS 0x1a33 ===
  0x1a33	mov    	edx, dword ptr [eax + 0xc]
  0x1a36	dec    	esp
  0x1a37	cmp    	edx, edx
  0x1a39	jb     	0x1a45
  === BLOCK LINK ===
    0x1a3b
=== CODE BLOCK END ===

=== CODE BLOCK ADDRESS 0x1a3b ===
  0x1a3b	mov    	ecx, dword ptr [eax + 8]
  0x1a3e	add    	ecx, edx
  0x1a40	dec    	esp
  0x1a41	cmp    	edx, ecx
  0x1a43	jb     	0x1a53
  === BLOCK LINK ===
    0x1a45
=== CODE BLOCK END ===

=== CODE BLOCK ADDRESS 0x1a45 ===
  0x1a45	inc    	ecx
  0x1a46	inc    	ecx
  0x1a48	dec    	eax
  0x1a49	add    	eax, 0x28
  0x1a4c	inc    	ebp
  === BLOCK LINK ===
    0x1a4d
=== CODE BLOCK END ===

=== CODE BLOCK ADDRESS 0x1a4d ===
  0x1a4d	cmp    	ecx, ebx
  0x1a4f	jb     	0x1a33
  === BLOCK LINK ===
    0x1a51
=== CODE BLOCK END ===

=== CODE BLOCK ADDRESS 0x1a51 ===
  0x1a51	xor    	eax, eax
  0x1a53	ret    	
  0x1a54	int3   	
  0x1a55	int3   	
  0x1a56	int3   	
  === BLOCK LINK ===
    0x1a57
=== CODE BLOCK END ===

=== CODE BLOCK ADDRESS 0x1a57 ===
  0x1a57	int3   	
  0x1a58	int3   	
  0x1a59	int3   	
  0x1a5a	int3   	
  0x1a5b	int3   	
  === BLOCK LINK ===
    0x1a5c
=== CODE BLOCK END ===

=== CODE BLOCK ADDRESS 0x1a5c ===
  0x1a5c	int3   	
  0x1a5d	int3   	
  0x1a5e	int3   	
  0x1a5f	int3   	
  0x1a60	dec    	eax
  === BLOCK LINK ===
    0x1a61
=== CODE BLOCK END ===

=== CODE BLOCK ADDRESS 0x1a61 ===
  0x1a61	mov    	dword ptr [esp + 8], ebx
  0x1a65	push   	edi
  0x1a66	dec    	eax
  0x1a67	sub    	esp, 0x20
  0x1a6a	dec    	eax
  === BLOCK LINK ===
    0x1a6b
=== CODE BLOCK END ===

=== CODE BLOCK ADDRESS 0x1a6b ===
  0x1a6b	mov    	ebx, ecx
  0x1a6d	dec    	eax
  0x1a6e	lea    	edi, [0xffffe58c]
  0x1a74	dec    	eax
  0x1a75	mov    	ecx, edi
  === BLOCK LINK ===
    0x1a77
=== CODE BLOCK END ===

=== CODE BLOCK ADDRESS 0x1a77 ===
  0x1a77	call   	0x1ac0
  === BLOCK LINK ===
    0x1a7c
=== CODE BLOCK END ===

=== CODE BLOCK ADDRESS 0x1a7c ===
  0x1a7c	test   	eax, eax
  0x1a7e	je     	0x1aa2
  === BLOCK LINK ===
    0x1a80
=== CODE BLOCK END ===

=== CODE BLOCK ADDRESS 0x1a80 ===
  0x1a80	dec    	eax
  0x1a81	sub    	ebx, edi
  0x1a83	dec    	eax
  0x1a84	mov    	edx, ebx
  0x1a86	dec    	eax
  === BLOCK LINK ===
    0x1a87
=== CODE BLOCK END ===

=== CODE BLOCK ADDRESS 0x1a87 ===
  0x1a87	mov    	ecx, edi
  0x1a89	call   	0x1a10
  === BLOCK LINK ===
    0x1a8e
=== CODE BLOCK END ===

=== CODE BLOCK ADDRESS 0x1a8e ===
  0x1a8e	dec    	eax
  0x1a8f	test   	eax, eax
  0x1a91	je     	0x1aa2
  === BLOCK LINK ===
    0x1a93
=== CODE BLOCK END ===

=== CODE BLOCK ADDRESS 0x1a93 ===
  0x1a93	mov    	eax, dword ptr [eax + 0x24]
  0x1a96	shr    	eax, 0x1f
  0x1a99	not    	eax
  0x1a9b	and    	eax, 1
  0x1a9e	jmp    	0x1aa2
  === BLOCK LINK ===
    0x1aa0
=== CODE BLOCK END ===

=== CODE BLOCK ADDRESS 0x1aa0 ===
  0x1aa0	xor    	eax, eax
  0x1aa2	dec    	eax
  0x1aa3	mov    	ebx, dword ptr [esp + 0x30]
  0x1aa7	dec    	eax
  0x1aa8	add    	esp, 0x20
  === BLOCK LINK ===
    0x1aab
=== CODE BLOCK END ===

=== CODE BLOCK ADDRESS 0x1aab ===
  0x1aab	pop    	edi
  0x1aac	ret    	
  0x1aad	int3   	
  0x1aae	int3   	
  0x1aaf	int3   	
  === BLOCK LINK ===
    0x1ab0
=== CODE BLOCK END ===

=== CODE BLOCK ADDRESS 0x14c6 ===
  0x14c6	test   	ebx, ebx
  0x14c8	inc    	eax
  0x14c9	setne  	bh
  0x14cc	mov    	eax, edi
  === BLOCK LINK ===
    0x14ce
=== CODE BLOCK END ===

=== CODE BLOCK ADDRESS 0x1ab0 ===
  0x1ab0	int3   	
  0x1ab1	int3   	
  0x1ab2	int3   	
  0x1ab3	int3   	
  0x1ab4	int3   	
  === BLOCK LINK ===
    0x1ab5
=== CODE BLOCK END ===

=== CODE BLOCK ADDRESS 0x1ab5 ===
  0x1ab5	int3   	
  0x1ab6	int3   	
  0x1ab7	int3   	
  0x1ab8	int3   	
  0x1ab9	int3   	
  === BLOCK LINK ===
    0x1aba
=== CODE BLOCK END ===

=== CODE BLOCK ADDRESS 0x1aba ===
  0x1aba	int3   	
  0x1abb	int3   	
  0x1abc	int3   	
  0x1abd	int3   	
  0x1abe	int3   	
  === BLOCK LINK ===
    0x1abf
=== CODE BLOCK END ===

=== CODE BLOCK ADDRESS 0x1abf ===
  0x1abf	int3   	
  0x1ac0	mov    	eax, 0x5a4d
  0x1ac5	cmp    	word ptr [ecx], ax
  0x1ac8	jne    	0x1aea
  === BLOCK LINK ===
    0x1aca
=== CODE BLOCK END ===

=== CODE BLOCK ADDRESS 0x1aca ===
  0x1aca	dec    	eax
  0x1acb	arpl   	word ptr [ecx + 0x3c], ax
  0x1ace	dec    	eax
  0x1acf	add    	eax, ecx
  0x1ad1	cmp    	dword ptr [eax], 0x4550
  === BLOCK LINK ===
    0x1ad7
=== CODE BLOCK END ===

=== CODE BLOCK ADDRESS 0x1ad7 ===
  0x1ad7	jne    	0x1aea
  === BLOCK LINK ===
    0x1ad9
=== CODE BLOCK END ===

=== CODE BLOCK ADDRESS 0x1ad9 ===
  0x1ad9	mov    	ecx, 0x20b
  0x1ade	cmp    	word ptr [eax + 0x18], cx
  0x1ae2	jne    	0x1aea
  === BLOCK LINK ===
    0x1ae4
=== CODE BLOCK END ===

=== CODE BLOCK ADDRESS 0x1ae4 ===
  0x1ae4	mov    	eax, 1
  0x1ae9	ret    	
  0x1aea	xor    	eax, eax
  0x1aec	ret    	
  0x1aed	int3   	
  === BLOCK LINK ===
    0x1aee
=== CODE BLOCK END ===

=== CODE BLOCK ADDRESS 0x1aee ===
  0x1aee	int3   	
  0x1aef	int3   	
  0x1af0	int3   	
  0x1af1	int3   	
  0x1af2	int3   	
  === BLOCK LINK ===
    0x1af3
=== CODE BLOCK END ===

=== CODE BLOCK ADDRESS 0x1af3 ===
  0x1af3	int3   	
  0x1af4	dec    	eax
  0x1af5	mov    	dword ptr [esp + 0x20], ebx
  0x1af9	push   	ebp
  0x1afa	dec    	eax
  === BLOCK LINK ===
    0x1afb
=== CODE BLOCK END ===

=== CODE BLOCK ADDRESS 0x1afb ===
  0x1afb	mov    	ebp, esp
  0x1afd	dec    	eax
  0x1afe	sub    	esp, 0x20
  0x1b01	dec    	eax
  0x1b02	and    	dword ptr [ebp + 0x18], 0
  === BLOCK LINK ===
    0x1b06
=== CODE BLOCK END ===

=== CODE BLOCK ADDRESS 0x1b06 ===
  0x1b06	dec    	eax
  0x1b07	mov    	ebx, 0x2ddfa232
  0x1b0c	cdq    	
  0x1b0d	sub    	eax, dword ptr [eax]
  0x1b0f	add    	byte ptr [eax - 0x75], cl
  === BLOCK LINK ===
    0x1b12
=== CODE BLOCK END ===

=== CODE BLOCK ADDRESS 0x1b12 ===
  0x1b12	add    	eax, 0x24f1
  0x1b17	dec    	eax
  0x1b18	cmp    	eax, ebx
  0x1b1a	jne    	0x1bb3
  === BLOCK LINK ===
    0x1b20
=== CODE BLOCK END ===

=== CODE BLOCK ADDRESS 0x1b20 ===
  0x1b20	dec    	eax
  0x1b21	lea    	ecx, [ebp + 0x18]
  0x1b24	call   	dword ptr [0x63e]
  === BLOCK LINK ===
    0x1b2a
=== CODE BLOCK END ===

=== CODE BLOCK ADDRESS 0x1b2a ===
  0x1b2a	dec    	eax
  0x1b2b	mov    	eax, dword ptr [ebp + 0x18]
  0x1b2e	dec    	eax
  0x1b2f	mov    	dword ptr [ebp + 0x10], eax
  0x1b32	call   	dword ptr [0x688]
  === BLOCK LINK ===
    0x1b38
=== CODE BLOCK END ===

=== CODE BLOCK ADDRESS 0x1b38 ===
  0x1b38	mov    	eax, eax
  0x1b3a	dec    	eax
  0x1b3b	xor    	dword ptr [ebp + 0x10], eax
  0x1b3e	call   	dword ptr [0x62c]
  === BLOCK LINK ===
    0x1b44
=== CODE BLOCK END ===

=== CODE BLOCK ADDRESS 0x1b44 ===
  0x1b44	mov    	eax, eax
  0x1b46	dec    	eax
  0x1b47	xor    	dword ptr [ebp + 0x10], eax
  0x1b4a	call   	dword ptr [0x610]
  === BLOCK LINK ===
    0x1b50
=== CODE BLOCK END ===

=== CODE BLOCK ADDRESS 0x1b50 ===
  0x1b50	mov    	eax, eax
  0x1b52	dec    	eax
  0x1b53	shl    	eax, 0x18
  0x1b56	dec    	eax
  0x1b57	xor    	dword ptr [ebp + 0x10], eax
  === BLOCK LINK ===
    0x1b5a
=== CODE BLOCK END ===

=== CODE BLOCK ADDRESS 0x1b5a ===
  0x1b5a	call   	dword ptr [0x600]
  === BLOCK LINK ===
    0x1b60
=== CODE BLOCK END ===

=== CODE BLOCK ADDRESS 0x1b60 ===
  0x1b60	mov    	eax, eax
  0x1b62	dec    	eax
  0x1b63	lea    	ecx, [ebp + 0x10]
  0x1b66	dec    	eax
  0x1b67	xor    	eax, dword ptr [ebp + 0x10]
  === BLOCK LINK ===
    0x1b6a
=== CODE BLOCK END ===

=== CODE BLOCK ADDRESS 0x1b6a ===
  0x1b6a	dec    	eax
  0x1b6b	xor    	eax, ecx
  0x1b6d	dec    	eax
  0x1b6e	lea    	ecx, [ebp + 0x20]
  0x1b71	dec    	eax
  === BLOCK LINK ===
    0x1b72
=== CODE BLOCK END ===

=== CODE BLOCK ADDRESS 0x1b72 ===
  0x1b72	mov    	dword ptr [ebp + 0x10], eax
  0x1b75	call   	dword ptr [0x605]
  === BLOCK LINK ===
    0x1b7b
=== CODE BLOCK END ===

=== CODE BLOCK ADDRESS 0x1b7b ===
  0x1b7b	mov    	eax, dword ptr [ebp + 0x20]
  0x1b7e	dec    	eax
  0x1b7f	mov    	ecx, 0xffffffff
  0x1b84	.byte  	0xff
  0x1b85	inc    	dword ptr [eax]
  === BLOCK LINK ===
    0x1b87
=== CODE BLOCK END ===

=== CODE BLOCK ADDRESS 0x1b87 ===
  0x1b87	add    	byte ptr [eax - 0x3f], cl
  0x1b8a	loopne  	0x1bac
  === BLOCK LINK ===
    0x1b8c
=== CODE BLOCK END ===

=== CODE BLOCK ADDRESS 0x1b8c ===
  0x1b8c	dec    	eax
  0x1b8d	xor    	eax, dword ptr [ebp + 0x20]
  0x1b90	dec    	eax
  0x1b91	xor    	eax, dword ptr [ebp + 0x10]
  0x1b94	dec    	eax
  === BLOCK LINK ===
    0x1b95
=== CODE BLOCK END ===

=== CODE BLOCK ADDRESS 0x1b95 ===
  0x1b95	and    	eax, ecx
  0x1b97	dec    	eax
  0x1b98	mov    	ecx, eax
  0x1b9a	dec    	eax
  0x1b9b	cmp    	eax, ebx
  === BLOCK LINK ===
    0x1b9d
=== CODE BLOCK END ===

=== CODE BLOCK ADDRESS 0x1b9d ===
  0x1b9d	jne    	0x1bac
  === BLOCK LINK ===
    0x1b9f
=== CODE BLOCK END ===

=== CODE BLOCK ADDRESS 0x1b9f ===
  0x1b9f	dec    	eax
  0x1ba0	mov    	eax, 0x2ddfa233
  0x1ba5	cdq    	
  0x1ba6	sub    	eax, dword ptr [eax]
  0x1ba8	add    	byte ptr [eax - 0x75], cl
  === BLOCK LINK ===
    0x1bab
=== CODE BLOCK END ===

=== CODE BLOCK ADDRESS 0x1bab ===
  0x1bab	enter  	-0x76b8, 0xd
  0x1baf	push   	ebp
  0x1bb0	and    	al, 0
  0x1bb2	add    	byte ptr [eax - 0x75], cl
  0x1bb5	pop    	esp
  === BLOCK LINK ===
    0x1bb6
=== CODE BLOCK END ===

=== CODE BLOCK ADDRESS 0x1bb6 ===
  0x1bb6	and    	al, 0x48
  0x1bb8	dec    	eax
  0x1bb9	not    	eax
  0x1bbb	dec    	eax
  0x1bbc	mov    	dword ptr [0x244e], eax
  === BLOCK LINK ===
    0x1bc2
=== CODE BLOCK END ===

=== CODE BLOCK ADDRESS 0x1bc2 ===
  0x1bc2	dec    	eax
  0x1bc3	add    	esp, 0x20
  0x1bc6	pop    	ebp
  0x1bc7	ret    	
  0x1bc8	int3   	
  === BLOCK LINK ===
    0x1bc9
=== CODE BLOCK END ===

=== CODE BLOCK ADDRESS 0x1bc9 ===
  0x1bc9	int3   	
  0x1bca	int3   	
  0x1bcb	int3   	
  0x1bcc	int3   	
  0x1bcd	int3   	
  === BLOCK LINK ===
    0x1bce
=== CODE BLOCK END ===

=== CODE BLOCK ADDRESS 0x1bce ===
  0x1bce	jmp    	dword ptr [0x654]
  === BLOCK LINK ===
    0x1bd4
=== CODE BLOCK END ===

=== CODE BLOCK ADDRESS 0x1bd4 ===
  0x1bd4	int3   	
  0x1bd5	int3   	
  0x1bd6	int3   	
  0x1bd7	int3   	
  0x1bd8	int3   	
  === BLOCK LINK ===
    0x1bd9
=== CODE BLOCK END ===

=== CODE BLOCK ADDRESS 0x1bd9 ===
  0x1bd9	int3   	
  0x1bda	jmp    	dword ptr [0x640]
  === BLOCK LINK ===
    0x1be0
=== CODE BLOCK END ===

=== CODE BLOCK ADDRESS 0x1be0 ===
  0x1be0	int3   	
  0x1be1	int3   	
  0x1be2	int3   	
  0x1be3	int3   	
  0x1be4	int3   	
  === BLOCK LINK ===
    0x1be5
=== CODE BLOCK END ===

=== CODE BLOCK ADDRESS 0x1be5 ===
  0x1be5	int3   	
  0x1be6	int3   	
  0x1be7	int3   	
  0x1be8	int3   	
  0x1be9	int3   	
  === BLOCK LINK ===
    0x1bea
=== CODE BLOCK END ===

=== CODE BLOCK ADDRESS 0x1bea ===
  0x1bea	int3   	
  0x1beb	int3   	
  0x1bec	int3   	
  0x1bed	int3   	
  0x1bee	int3   	
  === BLOCK LINK ===
    0x1bef
=== CODE BLOCK END ===

=== CODE BLOCK ADDRESS 0x1bef ===
  0x1bef	int3   	
  0x1bf0	ret    	0
  0x1bf3	int3   	
  0x1bf4	int3   	
  0x1bf5	int3   	
  === BLOCK LINK ===
    0x1bf6
=== CODE BLOCK END ===

=== CODE BLOCK ADDRESS 0x1bf6 ===
  0x1bf6	int3   	
  0x1bf7	int3   	
  0x1bf8	int3   	
  0x1bf9	int3   	
  0x1bfa	int3   	
  === BLOCK LINK ===
    0x1bfb
=== CODE BLOCK END ===

=== CODE BLOCK ADDRESS 0x1bfb ===
  0x1bfb	int3   	
  0x1bfc	inc    	eax
  0x1bfd	push   	ebx
  0x1bfe	dec    	eax
  0x1bff	sub    	esp, 0x20
  === BLOCK LINK ===
    0x1c02
=== CODE BLOCK END ===

=== CODE BLOCK ADDRESS 0x1c02 ===
  0x1c02	dec    	eax
  0x1c03	mov    	ebx, ecx
  0x1c05	xor    	ecx, ecx
  0x1c07	call   	dword ptr [0x583]
  === BLOCK LINK ===
    0x1c0d
=== CODE BLOCK END ===

=== CODE BLOCK ADDRESS 0x1c0d ===
  0x1c0d	dec    	eax
  0x1c0e	mov    	ecx, ebx
  0x1c10	call   	dword ptr [0x5ba]
  === BLOCK LINK ===
    0x1c16
=== CODE BLOCK END ===

=== CODE BLOCK ADDRESS 0x1c16 ===
  0x1c16	call   	dword ptr [0x58c]
  === BLOCK LINK ===
    0x1c1c
=== CODE BLOCK END ===

=== CODE BLOCK ADDRESS 0x1c1c ===
  0x1c1c	dec    	eax
  0x1c1d	mov    	ecx, eax
  0x1c1f	mov    	edx, 0xc0000409
  0x1c24	dec    	eax
  0x1c25	add    	esp, 0x20
  === BLOCK LINK ===
    0x1c28
=== CODE BLOCK END ===

=== CODE BLOCK ADDRESS 0x1c28 ===
  0x1c28	pop    	ebx
  0x1c29	dec    	eax
  0x1c2a	jmp    	dword ptr [0x580]
  === BLOCK LINK ===
    0x1c30
=== CODE BLOCK END ===

=== CODE BLOCK ADDRESS 0x1c30 ===
  0x1c30	int3   	
  0x1c31	int3   	
  0x1c32	int3   	
  0x1c33	int3   	
  0x1c34	int3   	
  === BLOCK LINK ===
    0x1c35
=== CODE BLOCK END ===

=== CODE BLOCK ADDRESS 0x1c35 ===
  0x1c35	int3   	
  0x1c36	int3   	
  0x1c37	int3   	
  0x1c38	int3   	
  0x1c39	int3   	
  === BLOCK LINK ===
    0x1c3a
=== CODE BLOCK END ===

=== CODE BLOCK ADDRESS 0x1c3a ===
  0x1c3a	int3   	
  0x1c3b	int3   	
  0x1c3c	int3   	
  0x1c3d	int3   	
  0x1c3e	int3   	
  === BLOCK LINK ===
    0x1c3f
=== CODE BLOCK END ===

=== CODE BLOCK ADDRESS 0x1c3f ===
  0x1c3f	int3   	
  0x1c40	dec    	eax
  0x1c41	mov    	dword ptr [esp + 8], ecx
  0x1c45	dec    	eax
  0x1c46	sub    	esp, 0x88
  === BLOCK LINK ===
    0x1c4c
=== CODE BLOCK END ===

=== CODE BLOCK ADDRESS 0x1c4c ===
  0x1c4c	dec    	eax
  0x1c4d	lea    	ecx, [0x24ad]
  0x1c53	call   	dword ptr [0x4ff]
  === BLOCK LINK ===
    0x1c59
=== CODE BLOCK END ===

=== CODE BLOCK ADDRESS 0x1c59 ===
  0x1c59	dec    	eax
  0x1c5a	mov    	eax, dword ptr [0x2598]
  0x1c60	dec    	eax
  0x1c61	mov    	dword ptr [esp + 0x48], eax
  0x1c65	inc    	ebp
  === BLOCK LINK ===
    0x1c66
=== CODE BLOCK END ===

=== CODE BLOCK ADDRESS 0x1c66 ===
  0x1c66	xor    	eax, eax
  0x1c68	dec    	eax
  0x1c69	lea    	edx, [esp + 0x50]
  0x1c6d	dec    	eax
  0x1c6e	mov    	ecx, dword ptr [esp + 0x48]
  === BLOCK LINK ===
    0x1c72
=== CODE BLOCK END ===

=== CODE BLOCK ADDRESS 0x1c72 ===
  0x1c72	call   	dword ptr [0x4d8]
  === BLOCK LINK ===
    0x1c78
=== CODE BLOCK END ===

=== CODE BLOCK ADDRESS 0x1c78 ===
  0x1c78	dec    	eax
  0x1c79	mov    	dword ptr [esp + 0x40], eax
  0x1c7d	dec    	eax
  0x1c7e	cmp    	dword ptr [esp + 0x40], 0
  0x1c83	je     	0x1cc7
  === BLOCK LINK ===
    0x1c85
=== CODE BLOCK END ===

=== CODE BLOCK ADDRESS 0x1c85 ===
  0x1c85	dec    	eax
  0x1c86	mov    	dword ptr [esp + 0x38], 0
  0x1c8e	dec    	eax
  0x1c8f	lea    	eax, [esp + 0x58]
  0x1c93	dec    	eax
  === BLOCK LINK ===
    0x1c94
=== CODE BLOCK END ===

=== CODE BLOCK ADDRESS 0x1c94 ===
  0x1c94	mov    	dword ptr [esp + 0x30], eax
  0x1c98	dec    	eax
  0x1c99	lea    	eax, [esp + 0x60]
  0x1c9d	dec    	eax
  0x1c9e	mov    	dword ptr [esp + 0x28], eax
  === BLOCK LINK ===
    0x1ca2
=== CODE BLOCK END ===

=== CODE BLOCK ADDRESS 0x1ca2 ===
  0x1ca2	dec    	eax
  0x1ca3	lea    	eax, [0x2457]
  0x1ca9	dec    	eax
  0x1caa	mov    	dword ptr [esp + 0x20], eax
  0x1cae	dec    	esp
  === BLOCK LINK ===
    0x1caf
=== CODE BLOCK END ===

=== CODE BLOCK ADDRESS 0x1caf ===
  0x1caf	mov    	ecx, dword ptr [esp + 0x40]
  0x1cb3	dec    	esp
  0x1cb4	mov    	eax, dword ptr [esp + 0x48]
  0x1cb8	dec    	eax
  0x1cb9	mov    	edx, dword ptr [esp + 0x50]
  === BLOCK LINK ===
    0x1cbd
=== CODE BLOCK END ===

=== CODE BLOCK ADDRESS 0x1cbd ===
  0x1cbd	xor    	ecx, ecx
  0x1cbf	call   	dword ptr [0x483]
  === BLOCK LINK ===
    0x1cc5
=== CODE BLOCK END ===

=== CODE BLOCK ADDRESS 0x1cc5 ===
  0x1cc5	jmp    	0x1cea
  === BLOCK LINK ===
    0x1cc7
=== CODE BLOCK END ===

=== CODE BLOCK ADDRESS 0x1cc7 ===
  0x1cc7	dec    	eax
  0x1cc8	mov    	eax, dword ptr [0x24ca]
  0x1cce	dec    	eax
  0x1ccf	mov    	eax, dword ptr [eax]
  0x1cd1	dec    	eax
  === BLOCK LINK ===
    0x1cd2
=== CODE BLOCK END ===

=== CODE BLOCK ADDRESS 0x1cd2 ===
  0x1cd2	mov    	dword ptr [0x2520], eax
  0x1cd8	dec    	eax
  0x1cd9	mov    	eax, dword ptr [0x24b9]
  0x1cdf	dec    	eax
  0x1ce0	add    	eax, 8
  === BLOCK LINK ===
    0x1ce3
=== CODE BLOCK END ===

=== CODE BLOCK ADDRESS 0x1ce3 ===
  0x1ce3	dec    	eax
  0x1ce4	mov    	dword ptr [0x24ae], eax
  0x1cea	dec    	eax
  0x1ceb	mov    	eax, dword ptr [0x2507]
  0x1cf1	dec    	eax
  === BLOCK LINK ===
    0x1cf2
=== CODE BLOCK END ===

=== CODE BLOCK ADDRESS 0x1cf2 ===
  0x1cf2	mov    	dword ptr [0x2378], eax
  0x1cf8	dec    	eax
  0x1cf9	mov    	eax, dword ptr [esp + 0x90]
  0x1d00	dec    	eax
  0x1d01	mov    	dword ptr [0x2479], eax
  === BLOCK LINK ===
    0x1d07
=== CODE BLOCK END ===

=== CODE BLOCK ADDRESS 0x1d07 ===
  0x1d07	mov    	dword ptr [0x234f], 0xc0000409
  0x1d11	mov    	dword ptr [0x2349], 1
  0x1d1b	mov    	dword ptr [0x2353], 3
  0x1d25	mov    	eax, 8
  0x1d2a	dec    	eax
  === BLOCK LINK ===
    0x1d2b
=== CODE BLOCK END ===

=== CODE BLOCK ADDRESS 0x1d2b ===
  0x1d2b	imul   	eax, eax, 0
  0x1d2e	dec    	eax
  0x1d2f	lea    	ecx, [0x234b]
  0x1d35	dec    	eax
  0x1d36	mov    	dword ptr [ecx + eax], 2
  === BLOCK LINK ===
    0x1d3d
=== CODE BLOCK END ===

=== CODE BLOCK ADDRESS 0x1d3d ===
  0x1d3d	mov    	eax, 8
  0x1d42	dec    	eax
  0x1d43	imul   	eax, eax, 1
  0x1d46	dec    	eax
  0x1d47	lea    	ecx, [0x2333]
  === BLOCK LINK ===
    0x1d4d
=== CODE BLOCK END ===

=== CODE BLOCK ADDRESS 0x1d4d ===
  0x1d4d	dec    	eax
  0x1d4e	mov    	edx, dword ptr [0x22b4]
  0x1d54	dec    	eax
  0x1d55	mov    	dword ptr [ecx + eax], edx
  0x1d58	mov    	eax, 8
  === BLOCK LINK ===
    0x1d5d
=== CODE BLOCK END ===

=== CODE BLOCK ADDRESS 0x1d5d ===
  0x1d5d	dec    	eax
  0x1d5e	imul   	eax, eax, 2
  0x1d61	dec    	eax
  0x1d62	lea    	ecx, [0x2318]
  0x1d68	dec    	eax
  === BLOCK LINK ===
    0x1d69
=== CODE BLOCK END ===

=== CODE BLOCK ADDRESS 0x1d69 ===
  0x1d69	mov    	edx, dword ptr [0x22a1]
  0x1d6f	dec    	eax
  0x1d70	mov    	dword ptr [ecx + eax], edx
  0x1d73	mov    	eax, 8
  0x1d78	dec    	eax
  === BLOCK LINK ===
    0x1d79
=== CODE BLOCK END ===

=== CODE BLOCK ADDRESS 0x1d79 ===
  0x1d79	imul   	eax, eax, 0
  0x1d7c	dec    	eax
  0x1d7d	mov    	ecx, dword ptr [0x2285]
  0x1d83	dec    	eax
  0x1d84	mov    	dword ptr [esp + eax + 0x68], ecx
  === BLOCK LINK ===
    0x1d88
=== CODE BLOCK END ===

=== CODE BLOCK ADDRESS 0x1d88 ===
  0x1d88	mov    	eax, 8
  0x1d8d	dec    	eax
  0x1d8e	imul   	eax, eax, 1
  0x1d91	dec    	eax
  0x1d92	mov    	ecx, dword ptr [0x2278]
  === BLOCK LINK ===
    0x1d98
=== CODE BLOCK END ===

=== CODE BLOCK ADDRESS 0x1d98 ===
  0x1d98	dec    	eax
  0x1d99	mov    	dword ptr [esp + eax + 0x68], ecx
  0x1d9d	dec    	eax
  0x1d9e	lea    	ecx, [0x25c]
  0x1da4	call   	0x1bfc
  === BLOCK LINK ===
    0x1da9
=== CODE BLOCK END ===

=== CODE BLOCK ADDRESS 0x1da9 ===
  0x1da9	dec    	eax
  0x1daa	add    	esp, 0x88
  0x1db0	ret    	
  0x1db1	int3   	
  0x1db2	int3   	
  === BLOCK LINK ===
    0x1db3
=== CODE BLOCK END ===

=== CODE BLOCK ADDRESS 0x11e5 ===
  0x11e5	dec    	eax
  0x11e6	inc    	edx
  === BLOCK LINK ===
    0x11e8
=== CODE BLOCK END ===

=== CODE BLOCK ADDRESS 0x1db3 ===
  0x1db3	int3   	
  0x1db4	int3   	
  0x1db5	int3   	
  0x1db6	int3   	
  0x1db7	int3   	
  === BLOCK LINK ===
    0x1db8
=== CODE BLOCK END ===

=== CODE BLOCK ADDRESS 0x1db8 ===
  0x1db8	int3   	
  0x1db9	int3   	
  0x1dba	int3   	
  0x1dbb	int3   	
  0x1dbc	int3   	
  === BLOCK LINK ===
    0x1dbd
=== CODE BLOCK END ===

=== CODE BLOCK ADDRESS 0x1dbd ===
  0x1dbd	int3   	
  0x1dbe	int3   	
  0x1dbf	int3   	
  0x1dc0	int3   	
  0x1dc1	int3   	
  === BLOCK LINK ===
    0x1dc2
=== CODE BLOCK END ===

=== CODE BLOCK ADDRESS 0x1dc2 ===
  0x1dc2	int3   	
  0x1dc3	int3   	
  0x1dc4	int3   	
  0x1dc5	int3   	
  0x1dc6	int3   	
  === BLOCK LINK ===
    0x1dc7
=== CODE BLOCK END ===

=== CODE BLOCK ADDRESS 0x1dc7 ===
  0x1dc7	int3   	
  0x1dc8	inc    	eax
  0x1dc9	push   	ebx
  0x1dca	dec    	eax
  0x1dcb	sub    	esp, 0x20
  === BLOCK LINK ===
    0x1dce
=== CODE BLOCK END ===

=== CODE BLOCK ADDRESS 0x1dce ===
  0x1dce	mov    	ebx, ecx
  0x1dd0	call   	0x1dec
  === BLOCK LINK ===
    0x1dd5
=== CODE BLOCK END ===

=== CODE BLOCK ADDRESS 0x1dd5 ===
  0x1dd5	dec    	eax
  0x1dd6	lea    	edx, [ebx + ebx*2]
  0x1dd9	dec    	eax
  0x1dda	shl    	edx, 4
  0x1ddd	dec    	eax
  === BLOCK LINK ===
    0x1dde
=== CODE BLOCK END ===

=== CODE BLOCK ADDRESS 0x1dde ===
  0x1dde	add    	eax, edx
  0x1de0	dec    	eax
  0x1de1	add    	esp, 0x20
  0x1de4	pop    	ebx
  0x1de5	ret    	
  === BLOCK LINK ===
    0x1de6
=== CODE BLOCK END ===

=== CODE BLOCK ADDRESS 0x1de6 ===
  0x1de6	int3   	
  0x1de7	int3   	
  0x1de8	int3   	
  0x1de9	int3   	
  0x1dea	int3   	
  === BLOCK LINK ===
    0x1deb
=== CODE BLOCK END ===

=== CODE BLOCK ADDRESS 0x1deb ===
  0x1deb	int3   	
  0x1dec	jmp    	dword ptr [0x426]
  === BLOCK LINK ===
    0x1df2
=== CODE BLOCK END ===

=== CODE BLOCK ADDRESS 0x1df2 ===
  0x1df2	int3   	
  0x1df3	int3   	
  0x1df4	int3   	
  0x1df5	int3   	
  0x1df6	int3   	
  === BLOCK LINK ===
    0x1df7
=== CODE BLOCK END ===

=== CODE BLOCK ADDRESS 0x1df7 ===
  0x1df7	int3   	
  0x1df8	dec    	eax
  0x1df9	sub    	esp, 0x28
  0x1dfc	dec    	ebp
  0x1dfd	mov    	eax, dword ptr [ecx + 0x38]
  === BLOCK LINK ===
    0x1e00
=== CODE BLOCK END ===

=== CODE BLOCK ADDRESS 0x1e00 ===
  0x1e00	dec    	eax
  0x1e01	mov    	ecx, edx
  0x1e03	dec    	ecx
  0x1e04	mov    	edx, ecx
  0x1e06	call   	0x1e1c
  === BLOCK LINK ===
    0x1e0b
=== CODE BLOCK END ===

=== CODE BLOCK ADDRESS 0x1e0b ===
  0x1e0b	mov    	eax, 1
  0x1e10	dec    	eax
  0x1e11	add    	esp, 0x28
  0x1e14	ret    	
  0x1e15	int3   	
  === BLOCK LINK ===
    0x1e16
=== CODE BLOCK END ===

=== CODE BLOCK ADDRESS 0x1e16 ===
  0x1e16	int3   	
  0x1e17	int3   	
  0x1e18	int3   	
  0x1e19	int3   	
  0x1e1a	int3   	
  === BLOCK LINK ===
    0x1e1b
=== CODE BLOCK END ===

=== CODE BLOCK ADDRESS 0x1e1b ===
  0x1e1b	int3   	
  0x1e1c	inc    	eax
  0x1e1d	push   	ebx
  0x1e1e	inc    	ebp
  0x1e1f	mov    	ebx, dword ptr [eax]
  === BLOCK LINK ===
    0x1e21
=== CODE BLOCK END ===

=== CODE BLOCK ADDRESS 0x1e21 ===
  0x1e21	dec    	eax
  0x1e22	mov    	ebx, edx
  0x1e24	inc    	ecx
  0x1e25	and    	ebx, 0xfffffff8
  0x1e28	dec    	esp
  === BLOCK LINK ===
    0x1e29
=== CODE BLOCK END ===

=== CODE BLOCK ADDRESS 0x1e29 ===
  0x1e29	mov    	ecx, ecx
  0x1e2b	inc    	ecx
  0x1e2c	test   	byte ptr [eax], 4
  0x1e2f	dec    	esp
  0x1e30	mov    	edx, ecx
  === BLOCK LINK ===
    0x1e32
=== CODE BLOCK END ===

=== CODE BLOCK ADDRESS 0x1e32 ===
  0x1e32	je     	0x1e47
  === BLOCK LINK ===
    0x1e34
=== CODE BLOCK END ===

=== CODE BLOCK ADDRESS 0x1e34 ===
  0x1e34	inc    	ecx
  0x1e35	mov    	eax, dword ptr [eax + 8]
  0x1e38	dec    	ebp
  0x1e39	arpl   	word ptr [eax + 4], dx
  0x1e3c	neg    	eax
  === BLOCK LINK ===
    0x1e3e
=== CODE BLOCK END ===

=== CODE BLOCK ADDRESS 0x1e3e ===
  0x1e3e	dec    	esp
  0x1e3f	add    	edx, ecx
  0x1e41	dec    	eax
  0x1e42	arpl   	ax, cx
  0x1e44	dec    	esp
  === BLOCK LINK ===
    0x1e45
=== CODE BLOCK END ===

=== CODE BLOCK ADDRESS 0x1e45 ===
  0x1e45	and    	edx, ecx
  0x1e47	dec    	ecx
  0x1e48	arpl   	bx, ax
  0x1e4a	dec    	edx
  0x1e4b	mov    	edx, dword ptr [eax + edx]
  === BLOCK LINK ===
    0x1e4e
=== CODE BLOCK END ===

=== CODE BLOCK ADDRESS 0x1e4e ===
  0x1e4e	dec    	eax
  0x1e4f	mov    	eax, dword ptr [ebx + 0x10]
  0x1e52	mov    	ecx, dword ptr [eax + 8]
  0x1e55	dec    	eax
  0x1e56	mov    	eax, dword ptr [ebx + 8]
  === BLOCK LINK ===
    0x1e59
=== CODE BLOCK END ===

=== CODE BLOCK ADDRESS 0x1e59 ===
  0x1e59	test   	byte ptr [ecx + eax + 3], 0xf
  0x1e5e	je     	0x1e6b
  === BLOCK LINK ===
    0x1e60
=== CODE BLOCK END ===

=== CODE BLOCK ADDRESS 0x1e60 ===
  0x1e60	movzx  	eax, byte ptr [ecx + eax + 3]
  0x1e65	and    	eax, 0xfffffff0
  0x1e68	dec    	esp
  0x1e69	add    	ecx, eax
  0x1e6b	dec    	esp
  === BLOCK LINK ===
    0x1e6c
=== CODE BLOCK END ===

=== CODE BLOCK ADDRESS 0x1e6c ===
  0x1e6c	xor    	ecx, edx
  0x1e6e	dec    	ecx
  0x1e6f	mov    	ecx, ecx
  0x1e71	pop    	ebx
  0x1e72	jmp    	0x18b0
  === BLOCK LINK ===
    0x1e77
=== CODE BLOCK END ===

=== CODE BLOCK ADDRESS 0x1e77 ===
  0x1e77	int3   	
  0x1e78	int3   	
  0x1e79	int3   	
  0x1e7a	int3   	
  0x1e7b	int3   	
  === BLOCK LINK ===
    0x1e7c
=== CODE BLOCK END ===

=== CODE BLOCK ADDRESS 0x1e7c ===
  0x1e7c	int3   	
  0x1e7d	jmp    	dword ptr [0x375]
  === BLOCK LINK ===
    0x1e83
=== CODE BLOCK END ===

=== CODE BLOCK ADDRESS 0x1e83 ===
  0x1e83	int3   	
  0x1e84	int3   	
  0x1e85	int3   	
  0x1e86	int3   	
  0x1e87	int3   	
  === BLOCK LINK ===
    0x1e88
=== CODE BLOCK END ===

=== CODE BLOCK ADDRESS 0x1e88 ===
  0x1e88	int3   	
  0x1e89	int3   	
  0x1e8a	int3   	
  0x1e8b	int3   	
  0x1e8c	int3   	
  === BLOCK LINK ===
    0x1e8d
=== CODE BLOCK END ===

=== CODE BLOCK ADDRESS 0x1e8d ===
  0x1e8d	int3   	
  0x1e8e	int3   	
  0x1e8f	int3   	
  0x1e90	int3   	
  0x1e91	int3   	
  === BLOCK LINK ===
    0x1e92
=== CODE BLOCK END ===

=== CODE BLOCK ADDRESS 0x1e92 ===
  0x1e92	int3   	
  0x1e93	int3   	
  0x1e94	int3   	
  0x1e95	int3   	
  0x1e96	nop    	word ptr [eax + eax]
  === BLOCK LINK ===
    0x1ea0
=== CODE BLOCK END ===

=== CODE BLOCK ADDRESS 0x1ea0 ===
  0x1ea0	jmp    	eax
  === BLOCK LINK ===
    0x1ea2
=== CODE BLOCK END ===

=== CODE BLOCK ADDRESS 0x1ea2 ===
  0x1ea2	int3   	
  0x1ea3	int3   	
  0x1ea4	int3   	
  0x1ea5	int3   	
  0x1ea6	int3   	
  === BLOCK LINK ===
    0x1ea7
=== CODE BLOCK END ===

=== CODE BLOCK ADDRESS 0x1ea7 ===
  0x1ea7	int3   	
  0x1ea8	int3   	
  0x1ea9	int3   	
  0x1eaa	int3   	
  0x1eab	int3   	
  === BLOCK LINK ===
    0x1eac
=== CODE BLOCK END ===

=== CODE BLOCK ADDRESS 0x1eac ===
  0x1eac	int3   	
  0x1ead	int3   	
  0x1eae	int3   	
  0x1eaf	int3   	
  0x1eb0	inc    	eax
  === BLOCK LINK ===
    0x1eb1
=== CODE BLOCK END ===

=== CODE BLOCK ADDRESS 0x1eb1 ===
  0x1eb1	push   	ebp
  0x1eb2	dec    	eax
  0x1eb3	sub    	esp, 0x20
  0x1eb6	dec    	eax
  0x1eb7	mov    	ebp, edx
  === BLOCK LINK ===
    0x1eb9
=== CODE BLOCK END ===

=== CODE BLOCK ADDRESS 0x1eb9 ===
  0x1eb9	dec    	eax
  0x1eba	mov    	eax, dword ptr [ecx]
  0x1ebc	dec    	eax
  0x1ebd	mov    	edx, ecx
  0x1ebf	mov    	ecx, dword ptr [eax]
  === BLOCK LINK ===
    0x1ec1
=== CODE BLOCK END ===

=== CODE BLOCK ADDRESS 0x1ec1 ===
  0x1ec1	call   	0x193e
  === BLOCK LINK ===
    0x1ec6
=== CODE BLOCK END ===

=== CODE BLOCK ADDRESS 0x1ec6 ===
  0x1ec6	nop    	
  0x1ec7	dec    	eax
  0x1ec8	add    	esp, 0x20
  0x1ecb	pop    	ebp
  0x1ecc	ret    	
  === BLOCK LINK ===
    0x1ecd
=== CODE BLOCK END ===

=== CODE BLOCK ADDRESS 0x1ecd ===
  0x1ecd	int3   	
  0x1ece	int3   	
  0x1ecf	int3   	
  0x1ed0	int3   	
  0x1ed1	int3   	
  === BLOCK LINK ===
    0x1ed2
=== CODE BLOCK END ===

=== CODE BLOCK ADDRESS 0x1ed2 ===
  0x1ed2	int3   	
  0x1ed3	int3   	
  0x1ed4	int3   	
  0x1ed5	int3   	
  0x1ed6	int3   	
  === BLOCK LINK ===
    0x1ed7
=== CODE BLOCK END ===

=== CODE BLOCK ADDRESS 0x1ed7 ===
  0x1ed7	int3   	
  0x1ed8	int3   	
  0x1ed9	int3   	
  0x1eda	int3   	
  0x1edb	int3   	
  === BLOCK LINK ===
    0x1edc
=== CODE BLOCK END ===

=== CODE BLOCK ADDRESS 0x1edc ===
  0x1edc	int3   	
  0x1edd	int3   	
  0x1ede	int3   	
  0x1edf	int3   	
  0x1ee0	inc    	eax
  === BLOCK LINK ===
    0x1ee1
=== CODE BLOCK END ===

=== CODE BLOCK ADDRESS 0x1ee1 ===
  0x1ee1	push   	ebp
  0x1ee2	dec    	eax
  0x1ee3	sub    	esp, 0x20
  0x1ee6	dec    	eax
  0x1ee7	mov    	ebp, edx
  === BLOCK LINK ===
    0x1ee9
=== CODE BLOCK END ===

=== CODE BLOCK ADDRESS 0x1ee9 ===
  0x1ee9	dec    	eax
  0x1eea	mov    	eax, dword ptr [ecx]
  0x1eec	xor    	ecx, ecx
  0x1eee	cmp    	dword ptr [eax], 0xc0000005
  0x1ef4	sete   	cl
  === BLOCK LINK ===
    0x1ef7
=== CODE BLOCK END ===

=== CODE BLOCK ADDRESS 0x1ef7 ===
  0x1ef7	mov    	eax, ecx
  0x1ef9	dec    	eax
  0x1efa	add    	esp, 0x20
  0x1efd	pop    	ebp
  0x1efe	ret    	
  === BLOCK LINK ===
    0x1eff
=== CODE BLOCK END ===

=== CODE BLOCK ADDRESS 0x1eff ===
  0x1eff	int3   	
  0x1f00	add    	byte ptr [eax], al
  0x1f02	add    	byte ptr [eax], al
  0x1f04	add    	byte ptr [eax], al
  0x1f06	add    	byte ptr [eax], al
  === BLOCK LINK ===
    0x1f08
=== CODE BLOCK END ===

=== CODE BLOCK ADDRESS 0x1f08 ===
  0x1f08	add    	byte ptr [eax], al
  0x1f0a	add    	byte ptr [eax], al
  0x1f0c	add    	byte ptr [eax], al
  0x1f0e	add    	byte ptr [eax], al
  0x1f10	add    	byte ptr [eax], al
  === BLOCK LINK ===
    0x1f12
=== CODE BLOCK END ===

=== CODE BLOCK ADDRESS 0x1f12 ===
  0x1f12	add    	byte ptr [eax], al
  0x1f14	add    	byte ptr [eax], al
  0x1f16	add    	byte ptr [eax], al
  0x1f18	add    	byte ptr [eax], al
  0x1f1a	add    	byte ptr [eax], al
  === BLOCK LINK ===
    0x1f1c
=== CODE BLOCK END ===

=== CODE BLOCK ADDRESS 0x1f1c ===
  0x1f1c	add    	byte ptr [eax], al
  0x1f1e	add    	byte ptr [eax], al
  0x1f20	add    	byte ptr [eax], al
  0x1f22	add    	byte ptr [eax], al
  0x1f24	add    	byte ptr [eax], al
  === BLOCK LINK ===
    0x1f26
=== CODE BLOCK END ===

=== CODE BLOCK ADDRESS 0x1f26 ===
  0x1f26	add    	byte ptr [eax], al
  0x1f28	add    	byte ptr [eax], al
  0x1f2a	add    	byte ptr [eax], al
  0x1f2c	add    	byte ptr [eax], al
  0x1f2e	add    	byte ptr [eax], al
  === BLOCK LINK ===
    0x1f30
=== CODE BLOCK END ===

=== CODE BLOCK ADDRESS 0x1f30 ===
  0x1f30	add    	byte ptr [eax], al
  0x1f32	add    	byte ptr [eax], al
  0x1f34	add    	byte ptr [eax], al
  0x1f36	add    	byte ptr [eax], al
  0x1f38	add    	byte ptr [eax], al
  === BLOCK LINK ===
    0x1f3a
=== CODE BLOCK END ===

=== CODE BLOCK ADDRESS 0x1f3a ===
  0x1f3a	add    	byte ptr [eax], al
  0x1f3c	add    	byte ptr [eax], al
  0x1f3e	add    	byte ptr [eax], al
  0x1f40	add    	byte ptr [eax], al
  0x1f42	add    	byte ptr [eax], al
  === BLOCK LINK ===
    0x1f44
=== CODE BLOCK END ===

=== CODE BLOCK ADDRESS 0x1f44 ===
  0x1f44	add    	byte ptr [eax], al
  0x1f46	add    	byte ptr [eax], al
  0x1f48	add    	byte ptr [eax], al
  0x1f4a	add    	byte ptr [eax], al
  0x1f4c	add    	byte ptr [eax], al
  === BLOCK LINK ===
    0x1f4e
=== CODE BLOCK END ===

=== CODE BLOCK ADDRESS 0x1f4e ===
  0x1f4e	add    	byte ptr [eax], al
  0x1f50	add    	byte ptr [eax], al
  0x1f52	add    	byte ptr [eax], al
  0x1f54	add    	byte ptr [eax], al
  0x1f56	add    	byte ptr [eax], al
  === BLOCK LINK ===
    0x1f58
=== CODE BLOCK END ===

=== CODE BLOCK ADDRESS 0x1f58 ===
  0x1f58	add    	byte ptr [eax], al
  0x1f5a	add    	byte ptr [eax], al
  0x1f5c	add    	byte ptr [eax], al
  0x1f5e	add    	byte ptr [eax], al
  0x1f60	add    	byte ptr [eax], al
  === BLOCK LINK ===
    0x1f62
=== CODE BLOCK END ===

=== CODE BLOCK ADDRESS 0x1f62 ===
  0x1f62	add    	byte ptr [eax], al
  0x1f64	add    	byte ptr [eax], al
  0x1f66	add    	byte ptr [eax], al
  0x1f68	add    	byte ptr [eax], al
  0x1f6a	add    	byte ptr [eax], al
  === BLOCK LINK ===
    0x1f6c
=== CODE BLOCK END ===

=== CODE BLOCK ADDRESS 0x1f6c ===
  0x1f6c	add    	byte ptr [eax], al
  0x1f6e	add    	byte ptr [eax], al
  0x1f70	add    	byte ptr [eax], al
  0x1f72	add    	byte ptr [eax], al
  0x1f74	add    	byte ptr [eax], al
  === BLOCK LINK ===
    0x1f76
=== CODE BLOCK END ===

=== CODE BLOCK ADDRESS 0x1f76 ===
  0x1f76	add    	byte ptr [eax], al
  0x1f78	add    	byte ptr [eax], al
  0x1f7a	add    	byte ptr [eax], al
  0x1f7c	add    	byte ptr [eax], al
  0x1f7e	add    	byte ptr [eax], al
  === BLOCK LINK ===
    0x1f80
=== CODE BLOCK END ===

=== CODE BLOCK ADDRESS 0x1f80 ===
  0x1f80	add    	byte ptr [eax], al
  0x1f82	add    	byte ptr [eax], al
  0x1f84	add    	byte ptr [eax], al
  0x1f86	add    	byte ptr [eax], al
  0x1f88	add    	byte ptr [eax], al
  === BLOCK LINK ===
    0x1f8a
=== CODE BLOCK END ===

=== CODE BLOCK ADDRESS 0x1f8a ===
  0x1f8a	add    	byte ptr [eax], al
  0x1f8c	add    	byte ptr [eax], al
  0x1f8e	add    	byte ptr [eax], al
  0x1f90	add    	byte ptr [eax], al
  0x1f92	add    	byte ptr [eax], al
  === BLOCK LINK ===
    0x1f94
=== CODE BLOCK END ===

=== CODE BLOCK ADDRESS 0x1f94 ===
  0x1f94	add    	byte ptr [eax], al
  0x1f96	add    	byte ptr [eax], al
  0x1f98	add    	byte ptr [eax], al
  0x1f9a	add    	byte ptr [eax], al
  0x1f9c	add    	byte ptr [eax], al
  === BLOCK LINK ===
    0x1f9e
=== CODE BLOCK END ===

=== CODE BLOCK ADDRESS 0x1f9e ===
  0x1f9e	add    	byte ptr [eax], al
  0x1fa0	add    	byte ptr [eax], al
  0x1fa2	add    	byte ptr [eax], al
  0x1fa4	add    	byte ptr [eax], al
  0x1fa6	add    	byte ptr [eax], al
  === BLOCK LINK ===
    0x1fa8
=== CODE BLOCK END ===

=== CODE BLOCK ADDRESS 0x1fa8 ===
  0x1fa8	add    	byte ptr [eax], al
  0x1faa	add    	byte ptr [eax], al
  0x1fac	add    	byte ptr [eax], al
  0x1fae	add    	byte ptr [eax], al
  0x1fb0	add    	byte ptr [eax], al
  === BLOCK LINK ===
    0x1fb2
=== CODE BLOCK END ===

=== CODE BLOCK ADDRESS 0x1fb2 ===
  0x1fb2	add    	byte ptr [eax], al
  0x1fb4	add    	byte ptr [eax], al
  0x1fb6	add    	byte ptr [eax], al
  0x1fb8	add    	byte ptr [eax], al
  0x1fba	add    	byte ptr [eax], al
  === BLOCK LINK ===
    0x1fbc
=== CODE BLOCK END ===

=== CODE BLOCK ADDRESS 0x1fbc ===
  0x1fbc	add    	byte ptr [eax], al
  0x1fbe	add    	byte ptr [eax], al
  0x1fc0	add    	byte ptr [eax], al
  0x1fc2	add    	byte ptr [eax], al
  0x1fc4	add    	byte ptr [eax], al
  === BLOCK LINK ===
    0x1fc6
=== CODE BLOCK END ===

=== CODE BLOCK ADDRESS 0x1fc6 ===
  0x1fc6	add    	byte ptr [eax], al
  0x1fc8	add    	byte ptr [eax], al
  0x1fca	add    	byte ptr [eax], al
  0x1fcc	add    	byte ptr [eax], al
  0x1fce	add    	byte ptr [eax], al
  === BLOCK LINK ===
    0x1fd0
=== CODE BLOCK END ===

=== CODE BLOCK ADDRESS 0x1fd0 ===
  0x1fd0	add    	byte ptr [eax], al
  0x1fd2	add    	byte ptr [eax], al
  0x1fd4	add    	byte ptr [eax], al
  0x1fd6	add    	byte ptr [eax], al
  0x1fd8	add    	byte ptr [eax], al
  === BLOCK LINK ===
    0x1fda
=== CODE BLOCK END ===

=== CODE BLOCK ADDRESS 0x1fda ===
  0x1fda	add    	byte ptr [eax], al
  0x1fdc	add    	byte ptr [eax], al
  0x1fde	add    	byte ptr [eax], al
  0x1fe0	add    	byte ptr [eax], al
  0x1fe2	add    	byte ptr [eax], al
  === BLOCK LINK ===
    0x1fe4
=== CODE BLOCK END ===

=== CODE BLOCK ADDRESS 0x1fe4 ===
  0x1fe4	add    	byte ptr [eax], al
  0x1fe6	add    	byte ptr [eax], al
  0x1fe8	add    	byte ptr [eax], al
  0x1fea	add    	byte ptr [eax], al
  0x1fec	add    	byte ptr [eax], al
  === BLOCK LINK ===
    0x1fee
=== CODE BLOCK END ===

=== CODE BLOCK ADDRESS 0x1fee ===
  0x1fee	add    	byte ptr [eax], al
  0x1ff0	add    	byte ptr [eax], al
  0x1ff2	add    	byte ptr [eax], al
  0x1ff4	add    	byte ptr [eax], al
  0x1ff6	add    	byte ptr [eax], al
  === BLOCK LINK ===
    0x1ff8
=== CODE BLOCK END ===

=== CODE BLOCK ADDRESS 0x1ff8 ===
  0x1ff8	add    	byte ptr [eax], al
  0x1ffa	add    	byte ptr [eax], al
  0x1ffc	add    	byte ptr [eax], al
=== CODE BLOCK END ===

=== DATA BLOCK ADDRESS 0x2000 ===
  0x2000	60 40 00 40 01 00 00 00 00 41 00 40 01 00 00 00 	`@0@00000A0@0000
  0x2010	18 01 00 00 00 00 00 00 00 00 00 00 00 00 00 00 	0000000000000000
  0x2020	00 00 00 00 00 00 00 00 00 00 00 00 00 00 00 00 	0000000000000000
  0x2030	00 00 00 00 00 00 00 00 00 00 00 00 00 00 00 00 	0000000000000000
  0x2040	00 00 00 00 00 00 00 00 00 00 00 00 00 00 00 00 	0000000000000000
  0x2050	00 00 00 00 00 00 00 00 00 00 00 00 00 00 00 00 	0000000000000000
  0x2060	00 00 00 00 00 00 00 00 08 40 00 40 01 00 00 00 	000000000@0@0000
  0x2070	00 00 00 00 00 00 00 00 00 00 00 00 00 00 00 00 	0000000000000000
  0x2080	b0 22 00 40 01 00 00 00 b8 22 00 40 01 00 00 00 	0"0@00000"0@0000
  0x2090	04 23 00 40 01 00 00 00 08 00 00 00 00 00 00 00 	0#0@000000000000
  0x20a0	00 75 41 00 00 00 00 00 00 00 00 00 00 00 00 00 	0uA0000000000000
  0x20b0	00 00 00 00 00 00 00 00 00 00 00 00 00 00 00 00 	0000000000000000
  0x20c0	00 00 00 00 00 00 00 00 00 00 00 00 00 00 00 00 	0000000000000000
  0x20d0	00 00 00 00 00 00 00 00 00 00 00 00 00 00 00 00 	0000000000000000
  0x20e0	00 00 00 00 00 00 00 00 00 00 00 00 00 00 00 00 	0000000000000000
  0x20f0	00 00 00 00 00 00 00 00 00 00 00 00 00 00 00 00 	0000000000000000
  0x2100	00 00 00 00 00 00 00 00 00 00 00 00 00 00 00 00 	0000000000000000
  0x2110	00 00 00 00 00 00 00 00 f8 22 00 40 01 00 00 00 	000000000"0@0000
  0x2120	03 00 00 00 00 00 00 00 fe 2f 00 00 00 00 00 00 	000000000/000000
  0x2130	0c 30 00 00 00 00 00 00 00 00 00 00 00 00 00 00 	0000000000000000
  0x2140	e8 2e 00 00 00 00 00 00 7e 31 00 00 00 00 00 00 	0.000000~1000000
  0x2150	64 31 00 00 00 00 00 00 50 31 00 00 00 00 00 00 	d1000000P1000000
  0x2160	40 31 00 00 00 00 00 00 26 31 00 00 00 00 00 00 	@1000000&1000000
  0x2170	10 31 00 00 00 00 00 00 c2 2e 00 00 00 00 00 00 	010000000.000000
  0x2180	e0 30 00 00 00 00 00 00 cc 30 00 00 00 00 00 00 	0000000000000000
  0x2190	ae 30 00 00 00 00 00 00 9c 30 00 00 00 00 00 00 	0000000000000000
  0x21a0	94 30 00 00 00 00 00 00 ae 31 00 00 00 00 00 00 	0000000001000000
  0x21b0	c2 31 00 00 00 00 00 00 d2 2e 00 00 00 00 00 00 	010000000.000000
  0x21c0	fa 30 00 00 00 00 00 00 b0 2e 00 00 00 00 00 00 	000000000.000000
  0x21d0	92 31 00 00 00 00 00 00 00 00 00 00 00 00 00 00 	0100000000000000
  0x21e0	72 30 00 00 00 00 00 00 62 30 00 00 00 00 00 00 	r0000000b0000000
  0x21f0	00 00 00 00 00 00 00 00 e4 31 00 00 00 00 00 00 	0000000001000000
  0x2200	d2 2f 00 00 00 00 00 00 c8 2f 00 00 00 00 00 00 	0/0000000/000000
  0x2210	be 2f 00 00 00 00 00 00 d6 31 00 00 00 00 00 00 	0/00000001000000
  0x2220	a6 2f 00 00 00 00 00 00 9a 2f 00 00 00 00 00 00 	0/0000000/000000
  0x2230	ea 2f 00 00 00 00 00 00 86 2f 00 00 00 00 00 00 	0/0000000/000000
  0x2240	78 2f 00 00 00 00 00 00 6e 2f 00 00 00 00 00 00 	x/000000n/000000
  0x2250	66 2f 00 00 00 00 00 00 5e 2f 00 00 00 00 00 00 	f/000000^/000000
  0x2260	4c 2f 00 00 00 00 00 00 3c 2f 00 00 00 00 00 00 	L/000000</000000
  0x2270	2e 2f 00 00 00 00 00 00 20 2f 00 00 00 00 00 00 	./000000 /000000
  0x2280	14 2f 00 00 00 00 00 00 08 2f 00 00 00 00 00 00 	0/0000000/000000
  0x2290	00 00 00 00 00 00 00 00 36 30 00 00 00 00 00 00 	0000000060000000
  0x22a0	46 30 00 00 00 00 00 00 00 00 00 00 00 00 00 00 	F000000000000000
  0x22b0	f0 1b 00 40 01 00 00 00 a0 1e 00 40 01 00 00 00 	000@0000000@0000
  0x22c0	00 00 00 00 00 00 00 00 f0 15 00 40 01 00 00 00 	00000000000@0000
  0x22d0	00 00 00 00 00 00 00 00 00 00 00 00 00 00 00 00 	0000000000000000
  0x22e0	10 15 00 40 01 00 00 00 20 19 00 40 01 00 00 00 	000@0000 00@0000
  0x22f0	00 00 00 00 00 00 00 00 57 18 00 00 92 19 00 00 	00000000W0000000
  0x2300	a0 1a 00 00 10 15 00 00 f0 15 00 00 40 16 00 00 	000000000000@000
  0x2310	e0 18 00 00 20 19 00 00 00 1a 00 00 f0 1b 00 00 	0000 00000000000
  0x2320	40 1c 00 00 00 00 00 00 00 00 00 00 00 00 00 00 	@000000000000000
  0x2330	42 00 69 00 74 00 6c 00 6f 00 63 00 6b 00 65 00 	B0i0t0l0o0c0k0e0
  0x2340	72 00 20 00 57 00 69 00 7a 00 61 00 72 00 64 00 	r0 0W0i0z0a0r0d0
  0x2350	20 00 4c 00 61 00 75 00 6e 00 63 00 68 00 65 00 	 0L0a0u0n0c0h0e0
  0x2360	72 00 0a 00 20 00 20 00 20 00 20 00 09 00 55 00 	r000 0 0 0 000U0
  0x2370	73 00 61 00 67 00 65 00 3a 00 20 00 42 00 69 00 	s0a0g0e0:0 0B0i0
  0x2380	74 00 6c 00 6f 00 63 00 6b 00 65 00 72 00 57 00 	t0l0o0c0k0e0r0W0
  0x2390	69 00 7a 00 61 00 72 00 64 00 20 00 58 00 3a 00 	i0z0a0r0d0 0X0:0
  0x23a0	20 00 3c 00 50 00 7c 00 52 00 7c 00 53 00 7c 00 	 0<0P0|0R0|0S0|0
  0x23b0	54 00 3e 00 0a 00 20 00 20 00 20 00 20 00 09 00 	T0>000 0 0 0 000
  0x23c0	20 00 20 00 20 00 20 00 50 00 20 00 69 00 73 00 	 0 0 0 0P0 0i0s0
  0x23d0	20 00 6d 00 61 00 70 00 70 00 65 00 64 00 20 00 	 0m0a0p0p0e0d0 0
  0x23e0	74 00 6f 00 20 00 20 00 46 00 56 00 45 00 55 00 	t0o0 0 0F0V0E0U0
  0x23f0	49 00 5f 00 41 00 46 00 54 00 45 00 52 00 5f 00 	I0_0A0F0T0E0R0_0
  0x2400	54 00 50 00 4d 00 5f 00 50 00 50 00 49 00 5f 00 	T0P0M0_0P0P0I0_0
  0x2410	4e 00 4f 00 5f 00 52 00 45 00 42 00 4f 00 4f 00 	N0O0_0R0E0B0O0O0
  0x2420	54 00 0a 00 20 00 20 00 20 00 20 00 09 00 20 00 	T000 0 0 0 000 0
  0x2430	20 00 20 00 20 00 52 00 20 00 69 00 73 00 20 00 	 0 0 0R0 0i0s0 0
  0x2440	6d 00 61 00 70 00 70 00 65 00 64 00 20 00 74 00 	m0a0p0p0e0d0 0t0
  0x2450	6f 00 20 00 20 00 46 00 56 00 45 00 55 00 49 00 	o0 0 0F0V0E0U0I0
  0x2460	5f 00 41 00 46 00 54 00 45 00 52 00 5f 00 54 00 	_0A0F0T0E0R0_0T0
  0x2470	50 00 4d 00 5f 00 50 00 50 00 49 00 5f 00 52 00 	P0M0_0P0P0I0_0R0
  0x2480	45 00 42 00 4f 00 4f 00 54 00 0a 00 20 00 20 00 	E0B0O0O0T000 0 0
  0x2490	20 00 20 00 09 00 20 00 20 00 20 00 20 00 53 00 	 0 000 0 0 0 0S0
  0x24a0	20 00 69 00 73 00 20 00 6d 00 61 00 70 00 70 00 	 0i0s0 0m0a0p0p0
  0x24b0	65 00 64 00 20 00 74 00 6f 00 20 00 20 00 46 00 	e0d0 0t0o0 0 0F0
  0x24c0	56 00 45 00 55 00 49 00 5f 00 4d 00 4f 00 44 00 	V0E0U0I0_0M0O0D0
  0x24d0	45 00 5f 00 43 00 52 00 45 00 41 00 54 00 45 00 	E0_0C0R0E0A0T0E0
  0x24e0	5f 00 4e 00 4f 00 5f 00 52 00 45 00 42 00 4f 00 	_0N0O0_0R0E0B0O0
  0x24f0	4f 00 54 00 0a 00 20 00 20 00 20 00 20 00 09 00 	O0T000 0 0 0 000
  0x2500	20 00 20 00 20 00 20 00 54 00 20 00 69 00 73 00 	 0 0 0 0T0 0i0s0
  0x2510	20 00 6d 00 61 00 70 00 70 00 65 00 64 00 20 00 	 0m0a0p0p0e0d0 0
  0x2520	74 00 6f 00 20 00 20 00 46 00 56 00 45 00 55 00 	t0o0 0 0F0V0E0U0
  0x2530	49 00 5f 00 4d 00 4f 00 44 00 45 00 5f 00 43 00 	I0_0M0O0D0E0_0C0
  0x2540	52 00 45 00 41 00 54 00 45 00 5f 00 41 00 46 00 	R0E0A0T0E0_0A0F0
  0x2550	54 00 45 00 52 00 5f 00 52 00 45 00 42 00 4f 00 	T0E0R0_0R0E0B0O0
  0x2560	4f 00 54 00 0a 00 20 00 20 00 20 00 20 00 09 00 	O0T000 0 0 0 000
  0x2570	20 00 20 00 20 00 20 00 55 00 20 00 69 00 73 00 	 0 0 0 0U0 0i0s0
  0x2580	20 00 6d 00 61 00 70 00 70 00 65 00 64 00 20 00 	 0m0a0p0p0e0d0 0
  0x2590	74 00 6f 00 20 00 20 00 46 00 56 00 45 00 55 00 	t0o0 0 0F0V0E0U0
  0x25a0	49 00 5f 00 4d 00 4f 00 44 00 45 00 5f 00 44 00 	I0_0M0O0D0E0_0D0
  0x25b0	55 00 50 00 4c 00 49 00 43 00 41 00 54 00 45 00 	U0P0L0I0C0A0T0E0
  0x25c0	4b 00 45 00 59 00 0a 00 20 00 20 00 20 00 20 00 	K0E0Y000 0 0 0 0
  0x25d0	09 00 20 00 20 00 20 00 20 00 56 00 20 00 69 00 	00 0 0 0 0V0 0i0
  0x25e0	73 00 20 00 6d 00 61 00 70 00 70 00 65 00 64 00 	s0 0m0a0p0p0e0d0
  0x25f0	20 00 74 00 6f 00 20 00 20 00 46 00 56 00 45 00 	 0t0o0 0 0F0V0E0
  0x2600	55 00 49 00 5f 00 4d 00 4f 00 44 00 45 00 5f 00 	U0I0_0M0O0D0E0_0
  0x2610	52 00 45 00 53 00 55 00 4d 00 45 00 0a 00 20 00 	R0E0S0U0M0E000 0
  0x2620	20 00 20 00 20 00 09 00 20 00 20 00 20 00 20 00 	 0 0 000 0 0 0 0
  0x2630	57 00 20 00 69 00 73 00 20 00 6d 00 61 00 70 00 	W0 0i0s0 0m0a0p0
  0x2640	70 00 65 00 64 00 20 00 74 00 6f 00 20 00 20 00 	p0e0d0 0t0o0 0 0
  0x2650	46 00 56 00 45 00 55 00 49 00 5f 00 41 00 46 00 	F0V0E0U0I0_0A0F0
  0x2660	54 00 45 00 52 00 5f 00 52 00 45 00 50 00 41 00 	T0E0R0_0R0E0P0A0
  0x2670	52 00 54 00 49 00 54 00 49 00 4f 00 4e 00 0a 00 	R0T0I0T0I0O0N000
  0x2680	20 00 20 00 20 00 20 00 09 00 20 00 20 00 20 00 	 0 0 0 000 0 0 0
  0x2690	20 00 58 00 20 00 69 00 73 00 20 00 6d 00 61 00 	 0X0 0i0s0 0m0a0
  0x26a0	70 00 70 00 65 00 64 00 20 00 74 00 6f 00 20 00 	p0p0e0d0 0t0o0 0
  0x26b0	20 00 46 00 56 00 45 00 55 00 49 00 5f 00 50 00 	 0F0V0E0U0I0_0P0
  0x26c0	41 00 52 00 41 00 4d 00 5f 00 41 00 46 00 54 00 	A0R0A0M0_0A0F0T0
  0x26d0	45 00 52 00 5f 00 52 00 45 00 50 00 41 00 52 00 	E0R0_0R0E0P0A0R0
  0x26e0	54 00 49 00 54 00 49 00 4f 00 4e 00 5f 00 54 00 	T0I0T0I0O0N0_0T0
  0x26f0	50 00 4d 00 5f 00 50 00 50 00 49 00 0a 00 20 00 	P0M0_0P0P0I000 0
  0x2700	20 00 20 00 20 00 09 00 20 00 20 00 20 00 20 00 	 0 0 000 0 0 0 0
  0x2710	59 00 20 00 69 00 73 00 20 00 6d 00 61 00 70 00 	Y0 0i0s0 0m0a0p0
  0x2720	70 00 65 00 64 00 20 00 74 00 6f 00 20 00 20 00 	p0e0d0 0t0o0 0 0
  0x2730	46 00 56 00 45 00 55 00 49 00 5f 00 50 00 41 00 	F0V0E0U0I0_0P0A0
  0x2740	52 00 41 00 4d 00 5f 00 53 00 41 00 56 00 45 00 	R0A0M0_0S0A0V0E0
  0x2750	5f 00 52 00 45 00 43 00 4f 00 56 00 45 00 52 00 	_0R0E0C0O0V0E0R0
  0x2760	59 00 0a 00 20 00 20 00 20 00 20 00 09 00 20 00 	Y000 0 0 0 000 0
  0x2770	20 00 20 00 20 00 5a 00 20 00 69 00 73 00 20 00 	 0 0 0Z0 0i0s0 0
  0x2780	6d 00 61 00 70 00 70 00 65 00 64 00 20 00 74 00 	m0a0p0p0e0d0 0t0
  0x2790	6f 00 20 00 20 00 46 00 56 00 45 00 55 00 49 00 	o0 0 0F0V0E0U0I0
  0x27a0	5f 00 50 00 41 00 52 00 41 00 4d 00 5f 00 50 00 	_0P0A0R0A0M0_0P0
  0x27b0	41 00 53 00 53 00 50 00 48 00 52 00 41 00 53 00 	A0S0S0P0H0R0A0S0
  0x27c0	45 00 0a 00 20 00 20 00 20 00 20 00 09 00 20 00 	E000 0 0 0 000 0
  0x27d0	20 00 20 00 20 00 4b 00 20 00 69 00 73 00 20 00 	 0 0 0K0 0i0s0 0
  0x27e0	6d 00 61 00 70 00 70 00 65 00 64 00 20 00 74 00 	m0a0p0p0e0d0 0t0
  0x27f0	6f 00 20 00 20 00 46 00 56 00 45 00 55 00 49 00 	o0 0 0F0V0E0U0I0
  0x2800	5f 00 50 00 41 00 52 00 41 00 4d 00 5f 00 53 00 	_0P0A0R0A0M0_0S0
  0x2810	54 00 41 00 52 00 54 00 55 00 50 00 4b 00 45 00 	T0A0R0T0U0P0K0E0
  0x2820	59 00 0a 00 20 00 20 00 20 00 20 00 09 00 20 00 	Y000 0 0 0 000 0
  0x2830	20 00 20 00 20 00 4a 00 20 00 69 00 73 00 20 00 	 0 0 0J0 0i0s0 0
  0x2840	6d 00 61 00 70 00 70 00 65 00 64 00 20 00 74 00 	m0a0p0p0e0d0 0t0
  0x2850	6f 00 20 00 20 00 46 00 56 00 45 00 55 00 49 00 	o0 0 0F0V0E0U0I0
  0x2860	5f 00 50 00 41 00 52 00 41 00 4d 00 5f 00 43 00 	_0P0A0R0A0M0_0C0
  0x2870	48 00 41 00 4e 00 47 00 45 00 5f 00 50 00 49 00 	H0A0N0G0E0_0P0I0
  0x2880	4e 00 0a 00 20 00 20 00 20 00 20 00 09 00 20 00 	N000 0 0 0 000 0
  0x2890	20 00 20 00 20 00 49 00 20 00 69 00 73 00 20 00 	 0 0 0I0 0i0s0 0
  0x28a0	6d 00 61 00 70 00 70 00 65 00 64 00 20 00 74 00 	m0a0p0p0e0d0 0t0
  0x28b0	6f 00 20 00 20 00 46 00 56 00 45 00 55 00 49 00 	o0 0 0F0V0E0U0I0
  0x28c0	5f 00 50 00 41 00 52 00 41 00 4d 00 5f 00 53 00 	_0P0A0R0A0M0_0S0
  0x28d0	54 00 41 00 52 00 54 00 55 00 50 00 5f 00 55 00 	T0A0R0T0U0P0_0U0
  0x28e0	4e 00 4c 00 4f 00 43 00 4b 00 0a 00 0a 00 00 00 	N0L0O0C0K0000000
  0x28f0	5c 00 5c 00 2e 00 5c 00 58 00 3a 00 5c 00 00 00 	0000.000X0:00000
  0x2900	20 00 00 00 00 00 00 00 6f 00 70 00 65 00 6e 00 	 0000000o0p0e0n0
  0x2910	00 00 00 00 00 00 00 00 00 00 00 00 00 00 00 00 	0000000000000000
  0x2920	00 00 00 00 39 e7 cd 07 00 00 00 00 02 00 00 00 	0000900000000000
  0x2930	30 00 00 00 74 29 00 00 74 1d 00 00 00 00 00 00 	0000t)00t0000000
  0x2940	39 e7 cd 07 00 00 00 00 0d 00 00 00 04 02 00 00 	9000000000000000
  0x2950	a4 29 00 00 a4 1d 00 00 00 00 00 00 39 e7 cd 07 	0)00000000009000
  0x2960	00 00 00 00 10 00 00 00 24 00 00 00 a8 2b 00 00 	00000000$0000+00
  0x2970	a8 1f 00 00 52 53 44 53 f2 ad 88 f4 b5 6b bc 47 	0000RSDS00000k0G
  0x2980	99 dc 9f 22 9f e0 a0 d9 01 00 00 00 42 69 74 4c 	000"00000000BitL
  0x2990	6f 63 6b 65 72 57 69 7a 61 72 64 45 6c 65 76 2e 	ockerWizardElev.
  0x29a0	70 64 62 00 47 43 54 4c 00 10 00 00 90 0e 00 00 	pdb0GCTL00000000
  0x29b0	2e 74 65 78 74 24 6d 6e 00 00 00 00 90 1e 00 00 	.text$mn00000000
  0x29c0	20 00 00 00 2e 74 65 78 74 24 6d 6e 24 30 30 00 	 000.text$mn$000
  0x29d0	b0 1e 00 00 50 00 00 00 2e 74 65 78 74 24 78 00 	0000P000.text$x0
  0x29e0	00 20 00 00 28 01 00 00 2e 72 64 61 74 61 24 62 	0 00(000.rdata$b
  0x29f0	72 63 00 00 28 21 00 00 88 01 00 00 2e 69 64 61 	rc00(!000000.ida
  0x2a00	74 61 24 35 00 00 00 00 b0 22 00 00 10 00 00 00 	ta$500000"000000
  0x2a10	2e 30 30 63 66 67 00 00 c0 22 00 00 08 00 00 00 	.00cfg000"000000
  0x2a20	2e 43 52 54 24 58 43 41 00 00 00 00 c8 22 00 00 	.CRT$XCA00000"00
  0x2a30	08 00 00 00 2e 43 52 54 24 58 43 41 41 00 00 00 	0000.CRT$XCAA000
  0x2a40	d0 22 00 00 08 00 00 00 2e 43 52 54 24 58 43 5a 	0"000000.CRT$XCZ
  0x2a50	00 00 00 00 d8 22 00 00 08 00 00 00 2e 43 52 54 	00000"000000.CRT
  0x2a60	24 58 49 41 00 00 00 00 e0 22 00 00 08 00 00 00 	$XIA00000"000000
  0x2a70	2e 43 52 54 24 58 49 41 41 00 00 00 e8 22 00 00 	.CRT$XIAA0000"00
  0x2a80	08 00 00 00 2e 43 52 54 24 58 49 59 00 00 00 00 	0000.CRT$XIY0000
  0x2a90	f0 22 00 00 08 00 00 00 2e 43 52 54 24 58 49 5a 	0"000000.CRT$XIZ
  0x2aa0	00 00 00 00 f8 22 00 00 0c 00 00 00 2e 67 65 68 	00000"000000.geh
  0x2ab0	63 6f 6e 74 00 00 00 00 04 23 00 00 2c 00 00 00 	cont00000#00,000
  0x2ac0	2e 67 66 69 64 73 00 00 30 23 00 00 44 06 00 00 	.gfids000#00D000
  0x2ad0	2e 72 64 61 74 61 00 00 74 29 00 00 5c 02 00 00 	.rdata00t)000000
  0x2ae0	2e 72 64 61 74 61 24 7a 7a 7a 64 62 67 00 00 00 	.rdata$zzzdbg000
  0x2af0	d0 2b 00 00 dc 00 00 00 2e 78 64 61 74 61 00 00 	0+000000.xdata00
  0x2b00	ac 2c 00 00 64 00 00 00 2e 69 64 61 74 61 24 32 	0,00d000.idata$2
  0x2b10	00 00 00 00 10 2d 00 00 18 00 00 00 2e 69 64 61 	00000-000000.ida
  0x2b20	74 61 24 33 00 00 00 00 28 2d 00 00 88 01 00 00 	ta$30000(-000000
  0x2b30	2e 69 64 61 74 61 24 34 00 00 00 00 b0 2e 00 00 	.idata$400000.00
  0x2b40	3e 03 00 00 2e 69 64 61 74 61 24 36 00 00 00 00 	>000.idata$60000
  0x2b50	00 40 00 00 20 00 00 00 2e 64 61 74 61 00 00 00 	0@00 000.data000
  0x2b60	20 40 00 00 58 06 00 00 2e 62 73 73 00 00 00 00 	 @00X000.bss0000
  0x2b70	00 50 00 00 f0 00 00 00 2e 70 64 61 74 61 00 00 	0P000000.pdata00
  0x2b80	00 60 00 00 c0 03 00 00 2e 72 73 72 63 24 30 31 	0`000000.rsrc$01
  0x2b90	00 00 00 00 c0 63 00 00 f8 5f 01 00 2e 72 73 72 	00000c000_00.rsr
  0x2ba0	63 24 30 32 00 00 00 00 20 00 00 00 f2 ad 88 f4 	c$020000 0000000
  0x2bb0	b5 6b bc 47 99 dc 9f 22 9f e0 a0 d9 82 84 27 83 	0k0G000"000000'0
  0x2bc0	f7 1d 51 3e 78 2c ee 57 39 e7 cd 07 00 00 00 00 	00Q>x,0W90000000
  0x2bd0	19 33 0b 00 22 74 96 00 22 64 95 00 22 34 94 00 	0300"t00"d00"400
  0x2be0	22 01 90 00 14 e0 12 c0 10 50 00 00 f8 1d 00 00 	"00000000P000000
  0x2bf0	70 04 00 00 01 04 01 00 04 42 00 00 01 04 01 00 	p00000000B000000
  0x2c00	04 62 00 00 09 13 07 00 13 74 19 00 13 34 18 00 	0b0000000t000400
  0x2c10	13 01 16 00 0c e0 00 00 da 1b 00 00 01 00 00 00 	0000000000000000
  0x2c20	7c 16 00 00 57 18 00 00 b0 1e 00 00 57 18 00 00 	|000W0000000W000
  0x2c30	01 06 02 00 06 32 02 50 01 00 00 00 09 04 01 00 	0000020P00000000
  0x2c40	04 22 00 00 da 1b 00 00 01 00 00 00 5c 19 00 00 	0"00000000000000
  0x2c50	92 19 00 00 01 00 00 00 92 19 00 00 01 06 02 00 	0000000000000000
  0x2c60	06 32 02 30 09 0a 04 00 0a 34 06 00 0a 32 06 70 	020000000400020p
  0x2c70	da 1b 00 00 01 00 00 00 6d 1a 00 00 a0 1a 00 00 	00000000m0000000
  0x2c80	e0 1e 00 00 a0 1a 00 00 01 0d 04 00 0d 34 09 00 	0000000000000400
  0x2c90	0d 32 06 50 01 0c 02 00 0c 01 11 00 00 00 00 00 	020P000000000000
  0x2ca0	01 00 00 00 01 02 01 00 02 30 00 00 40 2d 00 00 	000000000000@-00
  0x2cb0	00 00 00 00 00 00 00 00 fa 2e 00 00 40 21 00 00 	000000000.00@!00
  0x2cc0	f8 2d 00 00 00 00 00 00 00 00 00 00 de 2f 00 00 	0-00000000000/00
  0x2cd0	f8 21 00 00 28 2d 00 00 00 00 00 00 00 00 00 00 	0!00(-0000000000
  0x2ce0	2a 30 00 00 28 21 00 00 98 2e 00 00 00 00 00 00 	*000(!000.000000
  0x2cf0	00 00 00 00 58 30 00 00 98 22 00 00 e0 2d 00 00 	0000X0000"000-00
  0x2d00	00 00 00 00 00 00 00 00 88 30 00 00 e0 21 00 00 	0000000000000!00
  0x2d10	00 00 00 00 00 00 00 00 00 00 00 00 00 00 00 00 	0000000000000000
  0x2d20	00 00 00 00 00 00 00 00 fe 2f 00 00 00 00 00 00 	000000000/000000
  0x2d30	0c 30 00 00 00 00 00 00 00 00 00 00 00 00 00 00 	0000000000000000
  0x2d40	e8 2e 00 00 00 00 00 00 7e 31 00 00 00 00 00 00 	0.000000~1000000
  0x2d50	64 31 00 00 00 00 00 00 50 31 00 00 00 00 00 00 	d1000000P1000000
  0x2d60	40 31 00 00 00 00 00 00 26 31 00 00 00 00 00 00 	@1000000&1000000
  0x2d70	10 31 00 00 00 00 00 00 c2 2e 00 00 00 00 00 00 	010000000.000000
  0x2d80	e0 30 00 00 00 00 00 00 cc 30 00 00 00 00 00 00 	0000000000000000
  0x2d90	ae 30 00 00 00 00 00 00 9c 30 00 00 00 00 00 00 	0000000000000000
  0x2da0	94 30 00 00 00 00 00 00 ae 31 00 00 00 00 00 00 	0000000001000000
  0x2db0	c2 31 00 00 00 00 00 00 d2 2e 00 00 00 00 00 00 	010000000.000000
  0x2dc0	fa 30 00 00 00 00 00 00 b0 2e 00 00 00 00 00 00 	000000000.000000
  0x2dd0	92 31 00 00 00 00 00 00 00 00 00 00 00 00 00 00 	0100000000000000
  0x2de0	72 30 00 00 00 00 00 00 62 30 00 00 00 00 00 00 	r0000000b0000000
  0x2df0	00 00 00 00 00 00 00 00 e4 31 00 00 00 00 00 00 	0000000001000000
  0x2e00	d2 2f 00 00 00 00 00 00 c8 2f 00 00 00 00 00 00 	0/0000000/000000
  0x2e10	be 2f 00 00 00 00 00 00 d6 31 00 00 00 00 00 00 	0/00000001000000
  0x2e20	a6 2f 00 00 00 00 00 00 9a 2f 00 00 00 00 00 00 	0/0000000/000000
  0x2e30	ea 2f 00 00 00 00 00 00 86 2f 00 00 00 00 00 00 	0/0000000/000000
  0x2e40	78 2f 00 00 00 00 00 00 6e 2f 00 00 00 00 00 00 	x/000000n/000000
  0x2e50	66 2f 00 00 00 00 00 00 5e 2f 00 00 00 00 00 00 	f/000000^/000000
  0x2e60	4c 2f 00 00 00 00 00 00 3c 2f 00 00 00 00 00 00 	L/000000</000000
  0x2e70	2e 2f 00 00 00 00 00 00 20 2f 00 00 00 00 00 00 	./000000 /000000
  0x2e80	14 2f 00 00 00 00 00 00 08 2f 00 00 00 00 00 00 	0/0000000/000000
  0x2e90	00 00 00 00 00 00 00 00 36 30 00 00 00 00 00 00 	0000000060000000
  0x2ea0	46 30 00 00 00 00 00 00 00 00 00 00 00 00 00 00 	F000000000000000
  0x2eb0	e0 01 47 65 74 43 6f 6d 6d 61 6e 64 4c 69 6e 65 	00GetCommandLine
  0x2ec0	57 00 6a 02 47 65 74 4c 61 73 74 45 72 72 6f 72 	W0j0GetLastError
  0x2ed0	00 00 59 03 48 65 61 70 53 65 74 49 6e 66 6f 72 	00Y0HeapSetInfor
  0x2ee0	6d 61 74 69 6f 6e 00 00 be 02 47 65 74 50 72 6f 	mation0000GetPro
  0x2ef0	63 65 73 73 48 65 61 70 00 00 4b 45 52 4e 45 4c 	cessHeap00KERNEL
  0x2f00	33 32 2e 64 6c 6c 00 00 ec 04 74 6f 77 75 70 70 	32.dll0000towupp
  0x2f10	65 72 00 00 55 04 66 77 70 72 69 6e 74 66 00 00 	er00U0fwprintf00
  0x2f20	55 00 5f 58 63 70 74 46 69 6c 74 65 72 00 ae 00 	U0_XcptFilter000
  0x2f30	5f 61 6d 73 67 5f 65 78 69 74 00 00 7f 00 5f 5f 	_amsg_exit0000__
  0x2f40	67 65 74 6d 61 69 6e 61 72 67 73 00 8e 00 5f 5f 	getmainargs000__
  0x2f50	73 65 74 5f 61 70 70 5f 74 79 70 65 00 00 32 04 	set_app_type0020
  0x2f60	65 78 69 74 00 00 0e 01 5f 65 78 69 74 00 c1 00 	exit0000_exit000
  0x2f70	5f 63 65 78 69 74 00 00 99 01 5f 69 73 6d 62 62 	_cexit0000_ismbb
  0x2f80	6c 65 61 64 00 00 90 00 5f 5f 73 65 74 75 73 65 	lead0000__setuse
  0x2f90	72 6d 61 74 68 65 72 72 00 00 7d 01 5f 69 6e 69 	rmatherr00}0_ini
  0x2fa0	74 74 65 72 6d 00 57 00 5f 5f 43 5f 73 70 65 63 	tterm0W0__C_spec
  0x2fb0	69 66 69 63 5f 68 61 6e 64 6c 65 72 00 00 a2 00 	ific_handler0000
  0x2fc0	5f 61 63 6d 64 6c 6e 00 27 01 5f 66 6d 6f 64 65 	_acmdln0'0_fmode
  0x2fd0	00 00 d2 00 5f 63 6f 6d 6d 6f 64 65 00 00 6d 73 	0000_commode00ms
  0x2fe0	76 63 72 74 2e 64 6c 6c 00 00 2f 00 3f 74 65 72 	vcrt.dll00/0?ter
  0x2ff0	6d 69 6e 61 74 65 40 40 59 41 58 58 5a 00 28 00 	minate@@YAXXZ0(0
  0x3000	46 76 65 75 69 57 69 7a 61 72 64 00 29 00 46 76 	FveuiWizard0)0Fv
  0x3010	65 75 69 70 43 6c 65 61 72 46 76 65 57 69 7a 4f 	euipClearFveWizO
  0x3020	6e 53 74 61 72 74 75 70 00 00 46 56 45 57 49 5a 	nStartup00FVEWIZ
  0x3030	2e 64 6c 6c 00 00 60 00 43 6f 49 6e 69 74 69 61 	.dll00`0CoInitia
  0x3040	6c 69 7a 65 00 00 90 00 43 6f 55 6e 69 6e 69 74 	lize0000CoUninit
  0x3050	69 61 6c 69 7a 65 00 00 6f 6c 65 33 32 2e 64 6c 	ialize00ole32.dl
  0x3060	6c 00 af 01 53 68 65 6c 6c 45 78 65 63 75 74 65 	l000ShellExecute
  0x3070	57 00 09 00 43 6f 6d 6d 61 6e 64 4c 69 6e 65 54 	W000CommandLineT
  0x3080	6f 41 72 67 76 57 00 00 53 48 45 4c 4c 33 32 2e 	oArgvW00SHELL32.
  0x3090	64 6c 6c 00 8f 05 53 6c 65 65 70 00 da 02 47 65 	dll000Sleep000Ge
  0x30a0	74 53 74 61 72 74 75 70 49 6e 66 6f 57 00 7f 05 	tStartupInfoW000
  0x30b0	53 65 74 55 6e 68 61 6e 64 6c 65 64 45 78 63 65 	SetUnhandledExce
  0x30c0	70 74 69 6f 6e 46 69 6c 74 65 72 00 81 02 47 65 	ptionFilter000Ge
  0x30d0	74 4d 6f 64 75 6c 65 48 61 6e 64 6c 65 57 00 00 	tModuleHandleW00
  0x30e0	52 04 51 75 65 72 79 50 65 72 66 6f 72 6d 61 6e 	R0QueryPerforman
  0x30f0	63 65 43 6f 75 6e 74 65 72 00 21 02 47 65 74 43 	ceCounter0!0GetC
  0x3100	75 72 72 65 6e 74 50 72 6f 63 65 73 73 49 64 00 	urrentProcessId0
  0x3110	25 02 47 65 74 43 75 72 72 65 6e 74 54 68 72 65 	%0GetCurrentThre
  0x3120	61 64 49 64 00 00 f3 02 47 65 74 53 79 73 74 65 	adId0000GetSyste
  0x3130	6d 54 69 6d 65 41 73 46 69 6c 65 54 69 6d 65 00 	mTimeAsFileTime0
  0x3140	11 03 47 65 74 54 69 63 6b 43 6f 75 6e 74 00 00 	00GetTickCount00
  0x3150	d5 04 52 74 6c 43 61 70 74 75 72 65 43 6f 6e 74 	00RtlCaptureCont
  0x3160	65 78 74 00 dc 04 52 74 6c 4c 6f 6f 6b 75 70 46 	ext000RtlLookupF
  0x3170	75 6e 63 74 69 6f 6e 45 6e 74 72 79 00 00 e3 04 	unctionEntry0000
  0x3180	52 74 6c 56 69 72 74 75 61 6c 55 6e 77 69 6e 64 	RtlVirtualUnwind
  0x3190	00 00 c0 05 55 6e 68 61 6e 64 6c 65 64 45 78 63 	0000UnhandledExc
  0x31a0	65 70 74 69 6f 6e 46 69 6c 74 65 72 00 00 20 02 	eptionFilter00 0
  0x31b0	47 65 74 43 75 72 72 65 6e 74 50 72 6f 63 65 73 	GetCurrentProces
  0x31c0	73 00 9e 05 54 65 72 6d 69 6e 61 74 65 50 72 6f 	s000TerminatePro
  0x31d0	63 65 73 73 00 00 81 00 5f 5f 69 6f 62 5f 66 75 	cess0000__iob_fu
  0x31e0	6e 63 00 00 96 04 6d 65 6d 73 65 74 00 00 00 00 	nc0000memset0000
  0x31f0	00 00 00 00 00 00 00 00 00 00 00 00 00 00 00 00 	0000000000000000
=== DATA BLOCK END ===

=== DATA BLOCK ADDRESS 0x4000 ===
  0x4000	01 00 00 00 00 00 00 00 32 a2 df 2d 99 2b 00 00 	00000000200-0+00
  0x4010	cd 5d 20 d2 66 d4 ff ff 00 00 00 00 00 00 00 00 	0] 0f00000000000
  0x4020	00 00 00 00 00 00 00 00 00 00 00 00 00 00 00 00 	0000000000000000
  0x4030	00 00 00 00 00 00 00 00 00 00 00 00 00 00 00 00 	0000000000000000
  0x4040	00 00 00 00 00 00 00 00 00 00 00 00 00 00 00 00 	0000000000000000
  0x4050	00 00 00 00 00 00 00 00 00 00 00 00 00 00 00 00 	0000000000000000
  0x4060	00 00 00 00 00 00 00 00 00 00 00 00 00 00 00 00 	0000000000000000
  0x4070	00 00 00 00 00 00 00 00 00 00 00 00 00 00 00 00 	0000000000000000
  0x4080	00 00 00 00 00 00 00 00 00 00 00 00 00 00 00 00 	0000000000000000
  0x4090	00 00 00 00 00 00 00 00 00 00 00 00 00 00 00 00 	0000000000000000
  0x40a0	00 00 00 00 00 00 00 00 00 00 00 00 00 00 00 00 	0000000000000000
  0x40b0	00 00 00 00 00 00 00 00 00 00 00 00 00 00 00 00 	0000000000000000
  0x40c0	00 00 00 00 00 00 00 00 00 00 00 00 00 00 00 00 	0000000000000000
  0x40d0	00 00 00 00 00 00 00 00 00 00 00 00 00 00 00 00 	0000000000000000
  0x40e0	00 00 00 00 00 00 00 00 00 00 00 00 00 00 00 00 	0000000000000000
  0x40f0	00 00 00 00 00 00 00 00 00 00 00 00 00 00 00 00 	0000000000000000
  0x4100	00 00 00 00 00 00 00 00 00 00 00 00 00 00 00 00 	0000000000000000
  0x4110	00 00 00 00 00 00 00 00 00 00 00 00 00 00 00 00 	0000000000000000
  0x4120	00 00 00 00 00 00 00 00 00 00 00 00 00 00 00 00 	0000000000000000
  0x4130	00 00 00 00 00 00 00 00 00 00 00 00 00 00 00 00 	0000000000000000
  0x4140	00 00 00 00 00 00 00 00 00 00 00 00 00 00 00 00 	0000000000000000
  0x4150	00 00 00 00 00 00 00 00 00 00 00 00 00 00 00 00 	0000000000000000
  0x4160	00 00 00 00 00 00 00 00 00 00 00 00 00 00 00 00 	0000000000000000
  0x4170	00 00 00 00 00 00 00 00 00 00 00 00 00 00 00 00 	0000000000000000
  0x4180	00 00 00 00 00 00 00 00 00 00 00 00 00 00 00 00 	0000000000000000
  0x4190	00 00 00 00 00 00 00 00 00 00 00 00 00 00 00 00 	0000000000000000
  0x41a0	00 00 00 00 00 00 00 00 00 00 00 00 00 00 00 00 	0000000000000000
  0x41b0	00 00 00 00 00 00 00 00 00 00 00 00 00 00 00 00 	0000000000000000
  0x41c0	00 00 00 00 00 00 00 00 00 00 00 00 00 00 00 00 	0000000000000000
  0x41d0	00 00 00 00 00 00 00 00 00 00 00 00 00 00 00 00 	0000000000000000
  0x41e0	00 00 00 00 00 00 00 00 00 00 00 00 00 00 00 00 	0000000000000000
  0x41f0	00 00 00 00 00 00 00 00 00 00 00 00 00 00 00 00 	0000000000000000
=== DATA BLOCK END ===

=== DATA BLOCK ADDRESS 0x5000 ===
  0x5000	a8 10 00 00 fb 14 00 00 d0 2b 00 00 10 15 00 00 	000000000+000000
  0x5010	e3 15 00 00 f4 2b 00 00 f0 15 00 00 39 16 00 00 	00000+0000009000
  0x5020	fc 2b 00 00 40 16 00 00 52 16 00 00 f4 2b 00 00 	0+00@000R0000+00
  0x5030	58 16 00 00 9a 18 00 00 04 2c 00 00 b0 18 00 00 	X00000000,000000
  0x5040	ce 18 00 00 38 2c 00 00 e0 18 00 00 19 19 00 00 	00008,0000000000
  0x5050	f4 2b 00 00 20 19 00 00 38 19 00 00 f4 2b 00 00 	0+00 00080000+00
  0x5060	4c 19 00 00 a0 19 00 00 3c 2c 00 00 a8 19 00 00 	L0000000<,000000
  0x5070	ed 19 00 00 5c 2c 00 00 60 1a 00 00 ad 1a 00 00 	00000,00`0000000
  0x5080	64 2c 00 00 f4 1a 00 00 c8 1b 00 00 88 2c 00 00 	d,00000000000,00
  0x5090	fc 1b 00 00 30 1c 00 00 5c 2c 00 00 40 1c 00 00 	000000000,00@000
  0x50a0	b1 1d 00 00 94 2c 00 00 c8 1d 00 00 e6 1d 00 00 	00000,0000000000
  0x50b0	5c 2c 00 00 f8 1d 00 00 15 1e 00 00 f4 2b 00 00 	0,00000000000+00
  0x50c0	1c 1e 00 00 77 1e 00 00 a4 2c 00 00 a0 1e 00 00 	0000w0000,000000
  0x50d0	a2 1e 00 00 a0 2c 00 00 b0 1e 00 00 ce 1e 00 00 	00000,0000000000
  0x50e0	30 2c 00 00 e0 1e 00 00 00 1f 00 00 30 2c 00 00 	0,00000000000,00
  0x50f0	00 00 00 00 00 00 00 00 00 00 00 00 00 00 00 00 	0000000000000000
  0x5100	00 00 00 00 00 00 00 00 00 00 00 00 00 00 00 00 	0000000000000000
  0x5110	00 00 00 00 00 00 00 00 00 00 00 00 00 00 00 00 	0000000000000000
  0x5120	00 00 00 00 00 00 00 00 00 00 00 00 00 00 00 00 	0000000000000000
  0x5130	00 00 00 00 00 00 00 00 00 00 00 00 00 00 00 00 	0000000000000000
  0x5140	00 00 00 00 00 00 00 00 00 00 00 00 00 00 00 00 	0000000000000000
  0x5150	00 00 00 00 00 00 00 00 00 00 00 00 00 00 00 00 	0000000000000000
  0x5160	00 00 00 00 00 00 00 00 00 00 00 00 00 00 00 00 	0000000000000000
  0x5170	00 00 00 00 00 00 00 00 00 00 00 00 00 00 00 00 	0000000000000000
  0x5180	00 00 00 00 00 00 00 00 00 00 00 00 00 00 00 00 	0000000000000000
  0x5190	00 00 00 00 00 00 00 00 00 00 00 00 00 00 00 00 	0000000000000000
  0x51a0	00 00 00 00 00 00 00 00 00 00 00 00 00 00 00 00 	0000000000000000
  0x51b0	00 00 00 00 00 00 00 00 00 00 00 00 00 00 00 00 	0000000000000000
  0x51c0	00 00 00 00 00 00 00 00 00 00 00 00 00 00 00 00 	0000000000000000
  0x51d0	00 00 00 00 00 00 00 00 00 00 00 00 00 00 00 00 	0000000000000000
  0x51e0	00 00 00 00 00 00 00 00 00 00 00 00 00 00 00 00 	0000000000000000
  0x51f0	00 00 00 00 00 00 00 00 00 00 00 00 00 00 00 00 	0000000000000000
=== DATA BLOCK END ===
