===== Assembly blocks =====

=== CODE BLOCK ADDRESS 0x1000 ===
  0x1000	int3   	
  0x1001	int3   	
  0x1002	int3   	
  0x1003	int3   	
  0x1004	int3   	
  === BLOCK LINK ===
    0x1005
=== CODE BLOCK END ===

=== CODE BLOCK ADDRESS 0x1005 ===
  0x1005	int3   	
  0x1006	int3   	
  0x1007	int3   	
  0x1008	int3   	
  0x1009	int3   	
  === BLOCK LINK ===
    0x100a
=== CODE BLOCK END ===

=== CODE BLOCK ADDRESS 0x100a ===
  0x100a	int3   	
  0x100b	int3   	
  0x100c	int3   	
  0x100d	int3   	
  0x100e	int3   	
  === BLOCK LINK ===
    0x100f
=== CODE BLOCK END ===

=== CODE BLOCK ADDRESS 0x100f ===
  0x100f	int3   	
  0x1010	dec    	eax
  0x1011	lea    	ecx, [0x14a9]
  0x1017	jmp    	0x1e2c
  === BLOCK LINK ===
    0x101c
    0x1e2c
=== CODE BLOCK END ===

=== CODE BLOCK ADDRESS 0x101c ===
  0x101c	int3   	
  0x101d	int3   	
  0x101e	int3   	
  0x101f	int3   	
  0x1020	int3   	
  === BLOCK LINK ===
    0x1021
=== CODE BLOCK END ===

=== CODE BLOCK ADDRESS 0x1021 ===
  0x1021	int3   	
  0x1022	int3   	
  0x1023	int3   	
  0x1024	int3   	
  0x1025	int3   	
  === BLOCK LINK ===
    0x1026
=== CODE BLOCK END ===

=== CODE BLOCK ADDRESS 0x1026 ===
  0x1026	int3   	
  0x1027	int3   	
  0x1028	int3   	
  0x1029	int3   	
  0x102a	int3   	
  === BLOCK LINK ===
    0x102b
=== CODE BLOCK END ===

=== CODE BLOCK ADDRESS 0x102b ===
  0x102b	int3   	
  0x102c	int3   	
  0x102d	int3   	
  0x102e	int3   	
  0x102f	int3   	
  === BLOCK LINK ===
    0x1030
=== CODE BLOCK END ===

=== CODE BLOCK ADDRESS 0x1030 ===
  0x1030	dec    	eax
  0x1031	lea    	ecx, [0x1469]
  0x1037	jmp    	0x1e2c
  === BLOCK LINK ===
    0x103c
    0x1e2c
=== CODE BLOCK END ===

=== CODE BLOCK ADDRESS 0x103c ===
  0x103c	int3   	
  0x103d	int3   	
  0x103e	int3   	
  0x103f	int3   	
  0x1040	int3   	
  === BLOCK LINK ===
    0x1041
=== CODE BLOCK END ===

=== CODE BLOCK ADDRESS 0x1041 ===
  0x1041	int3   	
  0x1042	int3   	
  0x1043	int3   	
  0x1044	int3   	
  0x1045	int3   	
  === BLOCK LINK ===
    0x1046
=== CODE BLOCK END ===

=== CODE BLOCK ADDRESS 0x1046 ===
  0x1046	int3   	
  0x1047	int3   	
  0x1048	int3   	
  0x1049	int3   	
  0x104a	int3   	
  === BLOCK LINK ===
    0x104b
=== CODE BLOCK END ===

=== CODE BLOCK ADDRESS 0x104b ===
  0x104b	int3   	
  0x104c	int3   	
  0x104d	int3   	
  0x104e	int3   	
  0x104f	int3   	
  === BLOCK LINK ===
    0x1050
=== CODE BLOCK END ===

=== CODE BLOCK ADDRESS 0x1050 ===
  0x1050	dec    	eax
  0x1051	lea    	ecx, [0x1429]
  0x1057	jmp    	0x1e2c
  === BLOCK LINK ===
    0x105c
    0x1e2c
=== CODE BLOCK END ===

=== CODE BLOCK ADDRESS 0x105c ===
  0x105c	int3   	
  0x105d	int3   	
  0x105e	int3   	
  0x105f	int3   	
  0x1060	int3   	
  === BLOCK LINK ===
    0x1061
=== CODE BLOCK END ===

=== CODE BLOCK ADDRESS 0x1061 ===
  0x1061	int3   	
  0x1062	int3   	
  0x1063	int3   	
  0x1064	int3   	
  0x1065	int3   	
  === BLOCK LINK ===
    0x1066
=== CODE BLOCK END ===

=== CODE BLOCK ADDRESS 0x1066 ===
  0x1066	int3   	
  0x1067	int3   	
  0x1068	int3   	
  0x1069	int3   	
  0x106a	int3   	
  === BLOCK LINK ===
    0x106b
=== CODE BLOCK END ===

=== CODE BLOCK ADDRESS 0x106b ===
  0x106b	int3   	
  0x106c	int3   	
  0x106d	int3   	
  0x106e	int3   	
  0x106f	int3   	
  === BLOCK LINK ===
    0x1070
=== CODE BLOCK END ===

=== CODE BLOCK ADDRESS 0x1070 ===
  0x1070	inc    	eax
  0x1071	push   	ebx
  0x1072	dec    	eax
  0x1073	sub    	esp, 0x20
  0x1076	dec    	eax
  === BLOCK LINK ===
    0x1077
=== CODE BLOCK END ===

=== CODE BLOCK ADDRESS 0x1077 ===
  0x1077	lea    	eax, [0x1f93]
  0x107d	dec    	eax
  0x107e	mov    	ebx, ecx
  0x1080	dec    	eax
  0x1081	mov    	dword ptr [ecx], eax
  === BLOCK LINK ===
    0x1083
=== CODE BLOCK END ===

=== CODE BLOCK ADDRESS 0x1083 ===
  0x1083	test   	dl, 1
  0x1086	je     	0x1094
  === BLOCK LINK ===
    0x1088
    0x1094
=== CODE BLOCK END ===

=== CODE BLOCK ADDRESS 0x1088 ===
  0x1088	dec    	eax
  0x1089	call   	dword ptr [0x22f9]
  === BLOCK LINK ===
    0x108f
=== CODE BLOCK END ===

=== CODE BLOCK ADDRESS 0x108f ===
  0x108f	nop    	dword ptr [eax + eax]
  === BLOCK LINK ===
    0x1094
=== CODE BLOCK END ===

=== CODE BLOCK ADDRESS 0x109b ===
  0x109b	pop    	ebx
  0x109c	ret    	
  0x109d	int3   	
  0x109e	int3   	
  0x109f	int3   	
  === BLOCK LINK ===
    0x10a0
=== CODE BLOCK END ===

=== CODE BLOCK ADDRESS 0x1e2c ===
=== CODE BLOCK END ===

=== CODE BLOCK ADDRESS 0x10a0 ===
  0x10a0	int3   	
  0x10a1	int3   	
  0x10a2	int3   	
  0x10a3	int3   	
  0x10a4	int3   	
  === BLOCK LINK ===
    0x10a5
=== CODE BLOCK END ===

=== CODE BLOCK ADDRESS 0x10a5 ===
  0x10a5	int3   	
  0x10a6	int3   	
  0x10a7	int3   	
  0x10a8	int3   	
  0x10a9	int3   	
  === BLOCK LINK ===
    0x10aa
=== CODE BLOCK END ===

=== CODE BLOCK ADDRESS 0x10aa ===
  0x10aa	int3   	
  0x10ab	int3   	
  0x10ac	int3   	
  0x10ad	int3   	
  0x10ae	int3   	
  === BLOCK LINK ===
    0x10af
=== CODE BLOCK END ===

=== CODE BLOCK ADDRESS 0x10af ===
  0x10af	int3   	
  0x10b0	inc    	esp
  0x10b1	mov    	dword ptr [edx], eax
  0x10b3	dec    	eax
  0x10b4	mov    	eax, edx
  === BLOCK LINK ===
    0x10b6
=== CODE BLOCK END ===

=== CODE BLOCK ADDRESS 0x10b6 ===
  0x10b6	dec    	eax
  0x10b7	mov    	dword ptr [edx + 8], ecx
  0x10ba	ret    	
  0x10bb	int3   	
  0x10bc	int3   	
  === BLOCK LINK ===
    0x10bd
=== CODE BLOCK END ===

=== CODE BLOCK ADDRESS 0x10bd ===
  0x10bd	int3   	
  0x10be	int3   	
  0x10bf	int3   	
  0x10c0	int3   	
  0x10c1	int3   	
  === BLOCK LINK ===
    0x10c2
=== CODE BLOCK END ===

=== CODE BLOCK ADDRESS 0x10c2 ===
  0x10c2	int3   	
  0x10c3	int3   	
  0x10c4	int3   	
  0x10c5	int3   	
  0x10c6	int3   	
  === BLOCK LINK ===
    0x10c7
=== CODE BLOCK END ===

=== CODE BLOCK ADDRESS 0x10c7 ===
  0x10c7	int3   	
  0x10c8	int3   	
  0x10c9	int3   	
  0x10ca	int3   	
  0x10cb	int3   	
  === BLOCK LINK ===
    0x10cc
=== CODE BLOCK END ===

=== CODE BLOCK ADDRESS 0x10cc ===
  0x10cc	int3   	
  0x10cd	int3   	
  0x10ce	int3   	
  0x10cf	int3   	
  0x10d0	inc    	eax
  === BLOCK LINK ===
    0x10d1
=== CODE BLOCK END ===

=== CODE BLOCK ADDRESS 0x10d1 ===
  0x10d1	push   	ebx
  0x10d2	dec    	eax
  0x10d3	sub    	esp, 0x30
  0x10d6	dec    	eax
  0x10d7	mov    	eax, dword ptr [ecx]
  === BLOCK LINK ===
    0x10d9
=== CODE BLOCK END ===

=== CODE BLOCK ADDRESS 0x10d9 ===
  0x10d9	dec    	ecx
  0x10da	mov    	ebx, eax
  0x10dc	inc    	esp
  0x10dd	mov    	eax, edx
  0x10df	dec    	eax
  === BLOCK LINK ===
    0x10e0
=== CODE BLOCK END ===

=== CODE BLOCK ADDRESS 0x10e0 ===
  0x10e0	lea    	edx, [esp + 0x20]
  0x10e4	dec    	eax
  0x10e5	mov    	eax, dword ptr [eax + 0x18]
  0x10e8	call   	dword ptr [0x22e2]
  === BLOCK LINK ===
    0x10ee
=== CODE BLOCK END ===

=== CODE BLOCK ADDRESS 0x10ee ===
  0x10ee	dec    	eax
  0x10ef	mov    	ecx, dword ptr [ebx + 8]
  0x10f2	dec    	eax
  0x10f3	cmp    	dword ptr [eax + 8], ecx
  0x10f6	jne    	0x1102
  === BLOCK LINK ===
    0x10f8
    0x1102
=== CODE BLOCK END ===

=== CODE BLOCK ADDRESS 0x10f8 ===
  0x10f8	mov    	ecx, dword ptr [ebx]
  0x10fa	cmp    	dword ptr [eax], ecx
  0x10fc	jne    	0x1102
  === BLOCK LINK ===
    0x10fe
    0x1102
=== CODE BLOCK END ===

=== CODE BLOCK ADDRESS 0x10fe ===
  0x10fe	mov    	al, 1
  0x1100	jmp    	0x1104
  === BLOCK LINK ===
    0x1102
    0x1104
=== CODE BLOCK END ===

=== CODE BLOCK ADDRESS 0x1102 ===
  0x1102	xor    	al, al
  === BLOCK LINK ===
    0x1104
=== CODE BLOCK END ===

=== CODE BLOCK ADDRESS 0x110a ===
  0x110a	int3   	
  0x110b	int3   	
  0x110c	int3   	
  0x110d	int3   	
  0x110e	int3   	
  === BLOCK LINK ===
    0x110f
=== CODE BLOCK END ===

=== CODE BLOCK ADDRESS 0x110f ===
  0x110f	int3   	
  0x1110	int3   	
  0x1111	int3   	
  0x1112	int3   	
  0x1113	int3   	
  === BLOCK LINK ===
    0x1114
=== CODE BLOCK END ===

=== CODE BLOCK ADDRESS 0x1114 ===
  0x1114	int3   	
  0x1115	int3   	
  0x1116	int3   	
  0x1117	int3   	
  0x1118	int3   	
  === BLOCK LINK ===
    0x1119
=== CODE BLOCK END ===

=== CODE BLOCK ADDRESS 0x1119 ===
  0x1119	int3   	
  0x111a	int3   	
  0x111b	int3   	
  0x111c	int3   	
  0x111d	int3   	
  === BLOCK LINK ===
    0x111e
=== CODE BLOCK END ===

=== CODE BLOCK ADDRESS 0x111e ===
  0x111e	int3   	
  0x111f	int3   	
  0x1120	dec    	eax
  0x1121	cmp    	ecx, dword ptr [edx + 8]
  0x1124	jne    	0x112f
  === BLOCK LINK ===
    0x1126
    0x112f
=== CODE BLOCK END ===

=== CODE BLOCK ADDRESS 0x1126 ===
  0x1126	inc    	esp
  0x1127	cmp    	dword ptr [edx], eax
  0x1129	jne    	0x112f
  === BLOCK LINK ===
    0x112b
    0x112f
=== CODE BLOCK END ===

=== CODE BLOCK ADDRESS 0x112b ===
  0x112b	mov    	al, 1
  0x112d	ret    	
  0x112e	int3   	
  === BLOCK LINK ===
    0x112f
=== CODE BLOCK END ===

=== CODE BLOCK ADDRESS 0x1094 ===
  0x1094	dec    	eax
  0x1095	mov    	eax, ebx
  0x1097	dec    	eax
  0x1098	add    	esp, 0x20
  === BLOCK LINK ===
    0x109b
=== CODE BLOCK END ===

=== CODE BLOCK ADDRESS 0x1132 ===
  0x1132	int3   	
  0x1133	int3   	
  0x1134	int3   	
  0x1135	int3   	
  0x1136	int3   	
  === BLOCK LINK ===
    0x1137
=== CODE BLOCK END ===

=== CODE BLOCK ADDRESS 0x1137 ===
  0x1137	int3   	
  0x1138	int3   	
  0x1139	int3   	
  0x113a	int3   	
  0x113b	int3   	
  === BLOCK LINK ===
    0x113c
=== CODE BLOCK END ===

=== CODE BLOCK ADDRESS 0x113c ===
  0x113c	int3   	
  0x113d	int3   	
  0x113e	int3   	
  0x113f	int3   	
  0x1140	dec    	eax
  === BLOCK LINK ===
    0x1141
=== CODE BLOCK END ===

=== CODE BLOCK ADDRESS 0x1141 ===
  0x1141	lea    	eax, [0x2369]
  0x1147	ret    	
  0x1148	int3   	
  0x1149	int3   	
  0x114a	int3   	
  === BLOCK LINK ===
    0x114b
=== CODE BLOCK END ===

=== CODE BLOCK ADDRESS 0x114b ===
  0x114b	int3   	
  0x114c	int3   	
  0x114d	int3   	
  0x114e	int3   	
  0x114f	int3   	
  === BLOCK LINK ===
    0x1150
=== CODE BLOCK END ===

=== CODE BLOCK ADDRESS 0x1150 ===
  0x1150	inc    	eax
  0x1151	push   	ebx
  0x1152	dec    	eax
  0x1153	sub    	esp, 0x20
  0x1156	inc    	ecx
  === BLOCK LINK ===
    0x1157
=== CODE BLOCK END ===

=== CODE BLOCK ADDRESS 0x1157 ===
  0x1157	mov    	ecx, eax
  0x1159	dec    	eax
  0x115a	mov    	ebx, edx
  0x115c	dec    	eax
  0x115d	call   	dword ptr [0x2165]
  === BLOCK LINK ===
    0x1163
=== CODE BLOCK END ===

=== CODE BLOCK ADDRESS 0x1163 ===
  0x1163	nop    	dword ptr [eax + eax]
  0x1168	dec    	eax
  0x1169	lea    	edx, [0x2349]
  0x116f	dec    	eax
  0x1170	mov    	ecx, ebx
  === BLOCK LINK ===
    0x1172
=== CODE BLOCK END ===

=== CODE BLOCK ADDRESS 0x1172 ===
  0x1172	dec    	eax
  0x1173	test   	eax, eax
  0x1175	dec    	eax
  0x1176	cmovne  	edx, eax
  0x1179	call   	0x1290
  === BLOCK LINK ===
    0x117e
    0x1290
=== CODE BLOCK END ===

=== CODE BLOCK ADDRESS 0x117e ===
  0x117e	dec    	eax
  0x117f	mov    	eax, ebx
  0x1181	dec    	eax
  0x1182	add    	esp, 0x20
  0x1185	pop    	ebx
  === BLOCK LINK ===
    0x1186
=== CODE BLOCK END ===

=== CODE BLOCK ADDRESS 0x1186 ===
  0x1186	ret    	
  0x1187	int3   	
  0x1188	int3   	
  0x1189	int3   	
  0x118a	int3   	
  === BLOCK LINK ===
    0x118b
=== CODE BLOCK END ===

=== CODE BLOCK ADDRESS 0x1104 ===
  0x1104	dec    	eax
  0x1105	add    	esp, 0x30
  0x1108	pop    	ebx
  0x1109	ret    	
  === BLOCK LINK ===
    0x110a
=== CODE BLOCK END ===

=== CODE BLOCK ADDRESS 0x118b ===
  0x118b	int3   	
  0x118c	int3   	
  0x118d	int3   	
  0x118e	int3   	
  0x118f	int3   	
  === BLOCK LINK ===
    0x1190
=== CODE BLOCK END ===

=== CODE BLOCK ADDRESS 0x1190 ===
  0x1190	dec    	eax
  0x1191	lea    	eax, [0x2331]
  0x1197	ret    	
  0x1198	int3   	
  0x1199	int3   	
  === BLOCK LINK ===
    0x119a
=== CODE BLOCK END ===

=== CODE BLOCK ADDRESS 0x112f ===
  0x112f	xor    	al, al
  0x1131	ret    	
  === BLOCK LINK ===
    0x1132
=== CODE BLOCK END ===

=== CODE BLOCK ADDRESS 0x119a ===
  0x119a	int3   	
  0x119b	int3   	
  0x119c	int3   	
  0x119d	int3   	
  0x119e	int3   	
  === BLOCK LINK ===
    0x119f
=== CODE BLOCK END ===

=== CODE BLOCK ADDRESS 0x119f ===
  0x119f	int3   	
  0x11a0	inc    	eax
  0x11a1	push   	ebx
  0x11a2	dec    	eax
  0x11a3	sub    	esp, 0x20
  === BLOCK LINK ===
    0x11a6
=== CODE BLOCK END ===

=== CODE BLOCK ADDRESS 0x11a6 ===
  0x11a6	dec    	eax
  0x11a7	mov    	ebx, edx
  0x11a9	inc    	ecx
  0x11aa	cmp    	eax, 1
  0x11ad	jne    	0x11b8
  === BLOCK LINK ===
    0x11af
    0x11b8
=== CODE BLOCK END ===

=== CODE BLOCK ADDRESS 0x11af ===
  0x11af	dec    	eax
  0x11b0	lea    	edx, [0x2322]
  0x11b6	jmp    	0x11d5
  === BLOCK LINK ===
    0x11b8
    0x11d5
=== CODE BLOCK END ===

=== CODE BLOCK ADDRESS 0x11b8 ===
  0x11b8	inc    	ecx
  0x11b9	mov    	ecx, eax
  0x11bb	dec    	eax
  0x11bc	call   	dword ptr [0x2106]
  === BLOCK LINK ===
    0x11c2
=== CODE BLOCK END ===

=== CODE BLOCK ADDRESS 0x11c2 ===
  0x11c2	nop    	dword ptr [eax + eax]
  0x11c7	dec    	eax
  0x11c8	test   	eax, eax
  0x11ca	dec    	eax
  0x11cb	lea    	edx, [0x22e7]
  === BLOCK LINK ===
    0x11d1
=== CODE BLOCK END ===

=== CODE BLOCK ADDRESS 0x11d1 ===
  0x11d1	dec    	eax
  0x11d2	cmovne  	edx, eax
  === BLOCK LINK ===
    0x11d5
    0x1290
=== CODE BLOCK END ===

=== CODE BLOCK ADDRESS 0x11dd ===
  0x11dd	dec    	eax
  0x11de	mov    	eax, ebx
  0x11e0	dec    	eax
  0x11e1	add    	esp, 0x20
  0x11e4	pop    	ebx
  === BLOCK LINK ===
    0x11e5
=== CODE BLOCK END ===

=== CODE BLOCK ADDRESS 0x11e5 ===
  0x11e5	ret    	
  0x11e6	int3   	
  0x11e7	int3   	
  0x11e8	int3   	
  0x11e9	int3   	
  === BLOCK LINK ===
    0x11ea
=== CODE BLOCK END ===

=== CODE BLOCK ADDRESS 0x11ea ===
  0x11ea	int3   	
  0x11eb	int3   	
  0x11ec	int3   	
  0x11ed	int3   	
  0x11ee	int3   	
  === BLOCK LINK ===
    0x11ef
=== CODE BLOCK END ===

=== CODE BLOCK ADDRESS 0x11ef ===
  0x11ef	int3   	
  0x11f0	dec    	eax
  0x11f1	lea    	eax, [0x22f9]
  0x11f7	ret    	
  0x11f8	int3   	
  === BLOCK LINK ===
    0x11f9
=== CODE BLOCK END ===

=== CODE BLOCK ADDRESS 0x1290 ===
=== CODE BLOCK END ===

=== CODE BLOCK ADDRESS 0x11f9 ===
  0x11f9	int3   	
  0x11fa	int3   	
  0x11fb	int3   	
  0x11fc	int3   	
  0x11fd	int3   	
  === BLOCK LINK ===
    0x11fe
=== CODE BLOCK END ===

=== CODE BLOCK ADDRESS 0x11fe ===
  0x11fe	int3   	
  0x11ff	int3   	
  0x1200	inc    	eax
  0x1201	push   	ebx
  0x1202	dec    	eax
  === BLOCK LINK ===
    0x1203
=== CODE BLOCK END ===

=== CODE BLOCK ADDRESS 0x1203 ===
  0x1203	sub    	esp, 0x20
  0x1206	inc    	ecx
  0x1207	mov    	ecx, eax
  0x1209	dec    	eax
  0x120a	mov    	ebx, edx
  === BLOCK LINK ===
    0x120c
=== CODE BLOCK END ===

=== CODE BLOCK ADDRESS 0x120c ===
  0x120c	dec    	eax
  0x120d	call   	dword ptr [0x209d]
  === BLOCK LINK ===
    0x1213
=== CODE BLOCK END ===

=== CODE BLOCK ADDRESS 0x1213 ===
  0x1213	nop    	dword ptr [eax + eax]
  0x1218	dec    	eax
  0x1219	lea    	edx, [0x2299]
  0x121f	dec    	eax
  0x1220	mov    	ecx, ebx
  === BLOCK LINK ===
    0x1222
=== CODE BLOCK END ===

=== CODE BLOCK ADDRESS 0x1222 ===
  0x1222	dec    	eax
  0x1223	test   	eax, eax
  0x1225	dec    	eax
  0x1226	cmovne  	edx, eax
  0x1229	call   	0x1290
  === BLOCK LINK ===
    0x122e
    0x1290
=== CODE BLOCK END ===

=== CODE BLOCK ADDRESS 0x122e ===
  0x122e	dec    	eax
  0x122f	mov    	eax, ebx
  0x1231	dec    	eax
  0x1232	add    	esp, 0x20
  0x1235	pop    	ebx
  === BLOCK LINK ===
    0x1236
=== CODE BLOCK END ===

=== CODE BLOCK ADDRESS 0x1236 ===
  0x1236	ret    	
  0x1237	int3   	
  0x1238	int3   	
  0x1239	int3   	
  0x123a	int3   	
  === BLOCK LINK ===
    0x123b
=== CODE BLOCK END ===

=== CODE BLOCK ADDRESS 0x123b ===
  0x123b	int3   	
  0x123c	int3   	
  0x123d	int3   	
  0x123e	int3   	
  0x123f	int3   	
  === BLOCK LINK ===
    0x1240
=== CODE BLOCK END ===

=== CODE BLOCK ADDRESS 0x1240 ===
  0x1240	dec    	eax
  0x1241	mov    	dword ptr [esp + 8], ebx
  0x1245	push   	edi
  0x1246	dec    	eax
  0x1247	sub    	esp, 0x20
  === BLOCK LINK ===
    0x124a
=== CODE BLOCK END ===

=== CODE BLOCK ADDRESS 0x124a ===
  0x124a	inc    	ecx
  0x124b	mov    	ecx, eax
  0x124d	inc    	ecx
  0x124e	mov    	ebx, eax
  0x1250	dec    	eax
  === BLOCK LINK ===
    0x1251
=== CODE BLOCK END ===

=== CODE BLOCK ADDRESS 0x1251 ===
  0x1251	mov    	edi, edx
  0x1253	dec    	eax
  0x1254	call   	dword ptr [0x206e]
  === BLOCK LINK ===
    0x125a
=== CODE BLOCK END ===

=== CODE BLOCK ADDRESS 0x125a ===
  0x125a	nop    	dword ptr [eax + eax]
  0x125f	dec    	eax
  0x1260	test   	eax, eax
  0x1262	mov    	dword ptr [edi], ebx
  0x1264	dec    	eax
  === BLOCK LINK ===
    0x1265
=== CODE BLOCK END ===

=== CODE BLOCK ADDRESS 0x1265 ===
  0x1265	lea    	eax, [0x3da5]
  0x126b	jne    	0x1274
  === BLOCK LINK ===
    0x126d
    0x1274
=== CODE BLOCK END ===

=== CODE BLOCK ADDRESS 0x126d ===
  0x126d	dec    	eax
  0x126e	lea    	eax, [0x3d8c]
  === BLOCK LINK ===
    0x1274
=== CODE BLOCK END ===

=== CODE BLOCK ADDRESS 0x127a ===
  0x127a	mov    	dword ptr [edi + 8], eax
  0x127d	dec    	eax
  0x127e	mov    	eax, edi
  0x1280	dec    	eax
  0x1281	add    	esp, 0x20
  === BLOCK LINK ===
    0x1284
=== CODE BLOCK END ===

=== CODE BLOCK ADDRESS 0x1284 ===
  0x1284	pop    	edi
  0x1285	ret    	
  0x1286	int3   	
  0x1287	int3   	
  0x1288	int3   	
  === BLOCK LINK ===
    0x1289
=== CODE BLOCK END ===

=== CODE BLOCK ADDRESS 0x11d5 ===
  0x11d5	dec    	eax
  0x11d6	mov    	ecx, ebx
  0x11d8	call   	0x1290
  === BLOCK LINK ===
    0x11dd
=== CODE BLOCK END ===

=== CODE BLOCK ADDRESS 0x1289 ===
  0x1289	int3   	
  0x128a	int3   	
  0x128b	int3   	
  0x128c	int3   	
  0x128d	int3   	
  === BLOCK LINK ===
    0x128e
=== CODE BLOCK END ===

=== CODE BLOCK ADDRESS 0x128e ===
  0x128e	int3   	
  0x128f	int3   	
  0x1290	dec    	eax
  0x1291	mov    	dword ptr [esp + 8], ebx
  0x1295	dec    	eax
  === BLOCK LINK ===
    0x1296
=== CODE BLOCK END ===

=== CODE BLOCK ADDRESS 0x1296 ===
  0x1296	mov    	dword ptr [esp + 0x10], esi
  0x129a	push   	edi
  0x129b	dec    	eax
  0x129c	sub    	esp, 0x20
  0x129f	dec    	eax
  === BLOCK LINK ===
    0x12a0
=== CODE BLOCK END ===

=== CODE BLOCK ADDRESS 0x12a0 ===
  0x12a0	and    	dword ptr [ecx + 0x10], 0
  0x12a4	dec    	eax
  0x12a5	mov    	esi, edx
  0x12a7	dec    	eax
  0x12a8	mov    	dword ptr [ecx + 0x18], 0xf
  === BLOCK LINK ===
    0x12af
=== CODE BLOCK END ===

=== CODE BLOCK ADDRESS 0x12af ===
  0x12af	dec    	eax
  0x12b0	mov    	ebx, ecx
  0x12b2	mov    	byte ptr [ecx], 0
  0x12b5	cmp    	byte ptr [edx], 0
  0x12b8	jne    	0x12be
  === BLOCK LINK ===
    0x12ba
    0x12be
=== CODE BLOCK END ===

=== CODE BLOCK ADDRESS 0x12ba ===
  0x12ba	xor    	edi, edi
  0x12bc	jmp    	0x12cb
  === BLOCK LINK ===
    0x12be
    0x12cb
=== CODE BLOCK END ===

=== CODE BLOCK ADDRESS 0x12be ===
  0x12be	dec    	eax
  0x12bf	or     	edi, 0xffffffff
  === BLOCK LINK ===
    0x12c2
=== CODE BLOCK END ===

=== CODE BLOCK ADDRESS 0x12c9 ===
  0x12c9	jne    	0x12c2
  === BLOCK LINK ===
    0x12cb
    0x12c2
=== CODE BLOCK END ===

=== CODE BLOCK ADDRESS 0x12cb ===
  0x12cb	dec    	eax
  0x12cc	mov    	edx, dword ptr [ecx + 0x18]
  0x12cf	dec    	eax
  0x12d0	cmp    	edx, 0x10
  0x12d3	jb     	0x12da
  === BLOCK LINK ===
    0x12d5
    0x12da
=== CODE BLOCK END ===

=== CODE BLOCK ADDRESS 0x12d5 ===
  0x12d5	dec    	eax
  0x12d6	mov    	eax, dword ptr [ecx]
  0x12d8	jmp    	0x12dd
  === BLOCK LINK ===
    0x12da
    0x12dd
=== CODE BLOCK END ===

=== CODE BLOCK ADDRESS 0x12da ===
  0x12da	dec    	eax
  0x12db	mov    	eax, ebx
  === BLOCK LINK ===
    0x12dd
    0x1318
=== CODE BLOCK END ===

=== CODE BLOCK ADDRESS 0x12e2 ===
  0x12e2	dec    	eax
  0x12e3	cmp    	edx, 0x10
  0x12e6	jb     	0x12eb
  === BLOCK LINK ===
    0x12e8
    0x12eb
=== CODE BLOCK END ===

=== CODE BLOCK ADDRESS 0x12e8 ===
  0x12e8	dec    	eax
  0x12e9	mov    	ecx, dword ptr [ecx]
  === BLOCK LINK ===
    0x12eb
=== CODE BLOCK END ===

=== CODE BLOCK ADDRESS 0x12f0 ===
  0x12f0	cmp    	ecx, esi
  0x12f2	jbe    	0x1318
  === BLOCK LINK ===
    0x12f4
    0x1318
=== CODE BLOCK END ===

=== CODE BLOCK ADDRESS 0x12f4 ===
  0x12f4	dec    	eax
  0x12f5	cmp    	edx, 0x10
  0x12f8	jb     	0x12ff
  === BLOCK LINK ===
    0x12fa
    0x12ff
=== CODE BLOCK END ===

=== CODE BLOCK ADDRESS 0x12fa ===
  0x12fa	dec    	eax
  0x12fb	mov    	eax, dword ptr [ebx]
  0x12fd	jmp    	0x1302
  === BLOCK LINK ===
    0x12ff
    0x1302
=== CODE BLOCK END ===

=== CODE BLOCK ADDRESS 0x12ff ===
  0x12ff	dec    	eax
  0x1300	mov    	eax, ebx
  === BLOCK LINK ===
    0x1302
=== CODE BLOCK END ===

=== CODE BLOCK ADDRESS 0x1306 ===
  0x1306	mov    	ecx, edi
  0x1308	dec    	esp
  0x1309	mov    	eax, esi
  0x130b	dec    	eax
  0x130c	mov    	edx, ebx
  === BLOCK LINK ===
    0x130e
=== CODE BLOCK END ===

=== CODE BLOCK ADDRESS 0x130e ===
  0x130e	dec    	eax
  0x130f	mov    	ecx, ebx
  0x1311	call   	0x144c
  === BLOCK LINK ===
    0x1316
    0x144c
=== CODE BLOCK END ===

=== CODE BLOCK ADDRESS 0x1316 ===
  0x1316	jmp    	0x1384
  === BLOCK LINK ===
    0x1318
    0x1384
=== CODE BLOCK END ===

=== CODE BLOCK ADDRESS 0x1318 ===
  0x1318	dec    	eax
  0x1319	cmp    	edi, -2
  0x131c	ja     	0x1398
  === BLOCK LINK ===
    0x131e
    0x1398
=== CODE BLOCK END ===

=== CODE BLOCK ADDRESS 0x131e ===
  0x131e	dec    	eax
  0x131f	cmp    	edx, edi
  0x1321	jae    	0x1334
  === BLOCK LINK ===
    0x1323
    0x1334
=== CODE BLOCK END ===

=== CODE BLOCK ADDRESS 0x1323 ===
  0x1323	dec    	esp
  0x1324	mov    	eax, dword ptr [ebx + 0x10]
  0x1327	dec    	eax
  0x1328	mov    	edx, edi
  0x132a	dec    	eax
  === BLOCK LINK ===
    0x132b
=== CODE BLOCK END ===

=== CODE BLOCK ADDRESS 0x132b ===
  0x132b	mov    	ecx, ebx
  0x132d	call   	0x15b0
  === BLOCK LINK ===
    0x1332
    0x15b0
=== CODE BLOCK END ===

=== CODE BLOCK ADDRESS 0x1332 ===
  0x1332	jmp    	0x134e
  === BLOCK LINK ===
    0x1334
    0x134e
=== CODE BLOCK END ===

=== CODE BLOCK ADDRESS 0x1334 ===
  0x1334	dec    	eax
  0x1335	test   	edi, edi
  0x1337	jne    	0x1353
  === BLOCK LINK ===
    0x1339
    0x1353
=== CODE BLOCK END ===

=== CODE BLOCK ADDRESS 0x1339 ===
  0x1339	dec    	eax
  0x133a	and    	dword ptr [ebx + 0x10], edi
  0x133d	dec    	eax
  0x133e	cmp    	edx, 0x10
  0x1341	jb     	0x1348
  === BLOCK LINK ===
    0x1343
    0x1348
=== CODE BLOCK END ===

=== CODE BLOCK ADDRESS 0x1343 ===
  0x1343	dec    	eax
  0x1344	mov    	eax, dword ptr [ebx]
  0x1346	jmp    	0x134b
  === BLOCK LINK ===
    0x1348
    0x134b
=== CODE BLOCK END ===

=== CODE BLOCK ADDRESS 0x1348 ===
  0x1348	dec    	eax
  0x1349	mov    	eax, ebx
  === BLOCK LINK ===
    0x134b
=== CODE BLOCK END ===

=== CODE BLOCK ADDRESS 0x1351 ===
  0x1351	je     	0x1384
  === BLOCK LINK ===
    0x1353
    0x1384
=== CODE BLOCK END ===

=== CODE BLOCK ADDRESS 0x1353 ===
  0x1353	dec    	eax
  0x1354	cmp    	dword ptr [ebx + 0x18], 0x10
  0x1358	jb     	0x135f
  === BLOCK LINK ===
    0x135a
    0x135f
=== CODE BLOCK END ===

=== CODE BLOCK ADDRESS 0x135a ===
  0x135a	dec    	eax
  0x135b	mov    	ecx, dword ptr [ebx]
  0x135d	jmp    	0x1362
  === BLOCK LINK ===
    0x135f
    0x1362
=== CODE BLOCK END ===

=== CODE BLOCK ADDRESS 0x135f ===
  0x135f	dec    	eax
  0x1360	mov    	ecx, ebx
  === BLOCK LINK ===
    0x1362
=== CODE BLOCK END ===

=== CODE BLOCK ADDRESS 0x1366 ===
  0x1366	mov    	edx, esi
  0x1368	call   	0x22c6
  === BLOCK LINK ===
    0x136d
    0x22c6
=== CODE BLOCK END ===

=== CODE BLOCK ADDRESS 0x136d ===
  0x136d	dec    	eax
  0x136e	cmp    	dword ptr [ebx + 0x18], 0x10
  0x1372	dec    	eax
  0x1373	mov    	dword ptr [ebx + 0x10], edi
  0x1376	jb     	0x137d
  === BLOCK LINK ===
    0x1378
    0x137d
=== CODE BLOCK END ===

=== CODE BLOCK ADDRESS 0x1378 ===
  0x1378	dec    	eax
  0x1379	mov    	eax, dword ptr [ebx]
  0x137b	jmp    	0x1380
  === BLOCK LINK ===
    0x137d
    0x1380
=== CODE BLOCK END ===

=== CODE BLOCK ADDRESS 0x137d ===
  0x137d	dec    	eax
  0x137e	mov    	eax, ebx
  === BLOCK LINK ===
    0x1380
=== CODE BLOCK END ===

=== CODE BLOCK ADDRESS 0x1389 ===
  0x1389	dec    	eax
  0x138a	mov    	eax, ebx
  0x138c	dec    	eax
  0x138d	mov    	ebx, dword ptr [esp + 0x30]
  0x1391	dec    	eax
  === BLOCK LINK ===
    0x1392
=== CODE BLOCK END ===

=== CODE BLOCK ADDRESS 0x1392 ===
  0x1392	add    	esp, 0x20
  0x1395	pop    	edi
  0x1396	ret    	
  0x1397	int3   	
  0x1398	call   	0x142c
  === BLOCK LINK ===
    0x139d
    0x142c
=== CODE BLOCK END ===

=== CODE BLOCK ADDRESS 0x139d ===
  0x139d	int3   	
  0x139e	int3   	
  0x139f	int3   	
  0x13a0	int3   	
  0x13a1	int3   	
  === BLOCK LINK ===
    0x13a2
=== CODE BLOCK END ===

=== CODE BLOCK ADDRESS 0x13a2 ===
  0x13a2	int3   	
  0x13a3	int3   	
  0x13a4	dec    	eax
  0x13a5	mov    	dword ptr [esp + 8], ebx
  0x13a9	dec    	eax
  === BLOCK LINK ===
    0x13aa
=== CODE BLOCK END ===

=== CODE BLOCK ADDRESS 0x13aa ===
  0x13aa	mov    	dword ptr [esp + 0x10], esi
  0x13ae	push   	edi
  0x13af	dec    	eax
  0x13b0	sub    	esp, 0x20
  0x13b3	dec    	ecx
  === BLOCK LINK ===
    0x13b4
=== CODE BLOCK END ===

=== CODE BLOCK ADDRESS 0x13b4 ===
  0x13b4	mov    	edi, eax
  0x13b6	dec    	eax
  0x13b7	mov    	ebx, ecx
  0x13b9	test   	dl, dl
  0x13bb	je     	0x13e3
  === BLOCK LINK ===
    0x13bd
    0x13e3
=== CODE BLOCK END ===

=== CODE BLOCK ADDRESS 0x13bd ===
  0x13bd	dec    	eax
  0x13be	cmp    	dword ptr [ecx + 0x18], 0x10
  0x13c2	jb     	0x13e3
  === BLOCK LINK ===
    0x13c4
    0x13e3
=== CODE BLOCK END ===

=== CODE BLOCK ADDRESS 0x13c4 ===
  0x13c4	dec    	eax
  0x13c5	mov    	esi, dword ptr [ecx]
  0x13c7	dec    	ebp
  0x13c8	test   	eax, eax
  0x13ca	je     	0x13d4
  === BLOCK LINK ===
    0x13cc
    0x13d4
=== CODE BLOCK END ===

=== CODE BLOCK ADDRESS 0x13cc ===
  0x13cc	dec    	eax
  0x13cd	mov    	edx, esi
  0x13cf	call   	0x22c6
  === BLOCK LINK ===
    0x13d4
    0x22c6
=== CODE BLOCK END ===

=== CODE BLOCK ADDRESS 0x13d4 ===
  0x13d4	dec    	eax
  0x13d5	mov    	ecx, esi
  0x13d7	dec    	eax
  0x13d8	call   	dword ptr [0x1faa]
  === BLOCK LINK ===
    0x13de
=== CODE BLOCK END ===

=== CODE BLOCK ADDRESS 0x13de ===
  0x13de	nop    	dword ptr [eax + eax]
  === BLOCK LINK ===
    0x13e3
=== CODE BLOCK END ===

=== CODE BLOCK ADDRESS 0x13f0 ===
  0x13f0	dec    	eax
  0x13f1	mov    	dword ptr [ebx + 0x10], edi
  0x13f4	mov    	byte ptr [edi + ebx], 0
  0x13f8	dec    	eax
  0x13f9	mov    	ebx, dword ptr [esp + 0x30]
  === BLOCK LINK ===
    0x13fd
=== CODE BLOCK END ===

=== CODE BLOCK ADDRESS 0x13fd ===
  0x13fd	dec    	eax
  0x13fe	add    	esp, 0x20
  0x1401	pop    	edi
  0x1402	ret    	
  0x1403	int3   	
  === BLOCK LINK ===
    0x1404
=== CODE BLOCK END ===

=== CODE BLOCK ADDRESS 0x1404 ===
  0x1404	int3   	
  0x1405	int3   	
  0x1406	int3   	
  0x1407	int3   	
  0x1408	int3   	
  === BLOCK LINK ===
    0x1409
=== CODE BLOCK END ===

=== CODE BLOCK ADDRESS 0x1409 ===
  0x1409	int3   	
  0x140a	int3   	
  0x140b	int3   	
  0x140c	dec    	eax
  0x140d	sub    	esp, 0x28
  === BLOCK LINK ===
    0x1410
=== CODE BLOCK END ===

=== CODE BLOCK ADDRESS 0x1410 ===
  0x1410	dec    	eax
  0x1411	lea    	ecx, [0x20e1]
  0x1417	dec    	eax
  0x1418	call   	dword ptr [0x1ea2]
  === BLOCK LINK ===
    0x141e
=== CODE BLOCK END ===

=== CODE BLOCK ADDRESS 0x141e ===
  0x141e	nop    	dword ptr [eax + eax]
  0x1423	int3   	
  0x1424	int3   	
  0x1425	int3   	
  0x1426	int3   	
  === BLOCK LINK ===
    0x1427
=== CODE BLOCK END ===

=== CODE BLOCK ADDRESS 0x1427 ===
  0x1427	int3   	
  0x1428	int3   	
  0x1429	int3   	
  0x142a	int3   	
  0x142b	int3   	
  === BLOCK LINK ===
    0x142c
=== CODE BLOCK END ===

=== CODE BLOCK ADDRESS 0x142c ===
  0x142c	dec    	eax
  0x142d	sub    	esp, 0x28
  0x1430	dec    	eax
  0x1431	lea    	ecx, [0x20d9]
  0x1437	dec    	eax
  === BLOCK LINK ===
    0x1438
=== CODE BLOCK END ===

=== CODE BLOCK ADDRESS 0x1438 ===
  0x1438	call   	dword ptr [0x1e6a]
  === BLOCK LINK ===
    0x143e
=== CODE BLOCK END ===

=== CODE BLOCK ADDRESS 0x143e ===
  0x143e	nop    	dword ptr [eax + eax]
  0x1443	int3   	
  0x1444	int3   	
  0x1445	int3   	
  0x1446	int3   	
  === BLOCK LINK ===
    0x1447
=== CODE BLOCK END ===

=== CODE BLOCK ADDRESS 0x1447 ===
  0x1447	int3   	
  0x1448	int3   	
  0x1449	int3   	
  0x144a	int3   	
  0x144b	int3   	
  === BLOCK LINK ===
    0x144c
=== CODE BLOCK END ===

=== CODE BLOCK ADDRESS 0x144c ===
  0x144c	dec    	eax
  0x144d	mov    	dword ptr [esp + 8], ebx
  0x1451	dec    	eax
  0x1452	mov    	dword ptr [esp + 0x10], ebp
  0x1456	dec    	eax
  === BLOCK LINK ===
    0x1457
=== CODE BLOCK END ===

=== CODE BLOCK ADDRESS 0x1457 ===
  0x1457	mov    	dword ptr [esp + 0x18], edi
  0x145b	inc    	ecx
  0x145c	push   	esi
  0x145d	dec    	eax
  0x145e	sub    	esp, 0x20
  === BLOCK LINK ===
    0x1461
=== CODE BLOCK END ===

=== CODE BLOCK ADDRESS 0x1461 ===
  0x1461	dec    	eax
  0x1462	mov    	edi, dword ptr [edx + 0x10]
  0x1465	dec    	ecx
  0x1466	mov    	ebp, eax
  0x1468	dec    	esp
  === BLOCK LINK ===
    0x1469
=== CODE BLOCK END ===

=== CODE BLOCK ADDRESS 0x1469 ===
  0x1469	mov    	esi, edx
  0x146b	dec    	eax
  0x146c	mov    	ebx, ecx
  0x146e	dec    	ecx
  0x146f	cmp    	edi, eax
  === BLOCK LINK ===
    0x1471
=== CODE BLOCK END ===

=== CODE BLOCK ADDRESS 0x1471 ===
  0x1471	jb     	0x1595
  === BLOCK LINK ===
    0x1477
    0x1595
=== CODE BLOCK END ===

=== CODE BLOCK ADDRESS 0x1477 ===
  0x1477	dec    	ecx
  0x1478	sub    	edi, eax
  0x147a	dec    	esp
  0x147b	cmp    	ecx, edi
  0x147d	dec    	ecx
  === BLOCK LINK ===
    0x147e
=== CODE BLOCK END ===

=== CODE BLOCK ADDRESS 0x147e ===
  0x147e	cmovb  	edi, ecx
  0x1481	dec    	eax
  0x1482	cmp    	ecx, edx
  0x1484	jne    	0x1501
  === BLOCK LINK ===
    0x1486
=== CODE BLOCK END ===

=== CODE BLOCK ADDRESS 0x1486 ===
  0x1486	dec    	edx
  0x1487	lea    	eax, [edi + eax]
  0x148a	dec    	eax
  0x148b	cmp    	dword ptr [ecx + 0x10], eax
  0x148e	jb     	0x159b
  === BLOCK LINK ===
    0x1494
=== CODE BLOCK END ===

=== CODE BLOCK ADDRESS 0x1494 ===
  0x1494	dec    	eax
  0x1495	cmp    	dword ptr [ecx + 0x18], 0x10
  0x1499	dec    	eax
  0x149a	mov    	dword ptr [ecx + 0x10], eax
  0x149d	jb     	0x14a2
  === BLOCK LINK ===
    0x149f
=== CODE BLOCK END ===

=== CODE BLOCK ADDRESS 0x149f ===
  0x149f	dec    	eax
  0x14a0	mov    	ecx, dword ptr [ecx]
  0x14a2	mov    	byte ptr [ecx + eax], 0
  0x14a6	dec    	eax
  0x14a7	mov    	edi, dword ptr [ebx + 0x10]
  === BLOCK LINK ===
    0x14aa
=== CODE BLOCK END ===

=== CODE BLOCK ADDRESS 0x14aa ===
  0x14aa	dec    	eax
  0x14ab	cmp    	edi, ebp
  0x14ad	ja     	0x14cb
  === BLOCK LINK ===
    0x14af
=== CODE BLOCK END ===

=== CODE BLOCK ADDRESS 0x14af ===
  0x14af	dec    	eax
  0x14b0	and    	dword ptr [ebx + 0x10], 0
  0x14b4	dec    	eax
  0x14b5	cmp    	dword ptr [ebx + 0x18], 0x10
  0x14b9	jb     	0x14c0
  === BLOCK LINK ===
    0x14bb
=== CODE BLOCK END ===

=== CODE BLOCK ADDRESS 0x14bb ===
  0x14bb	dec    	eax
  0x14bc	mov    	eax, dword ptr [ebx]
  0x14be	jmp    	0x14c3
  === BLOCK LINK ===
    0x14c0
=== CODE BLOCK END ===

=== CODE BLOCK ADDRESS 0x14c0 ===
  0x14c0	dec    	eax
  0x14c1	mov    	eax, ebx
  0x14c3	mov    	byte ptr [eax], 0
  0x14c6	jmp    	0x157b
  === BLOCK LINK ===
    0x14cb
=== CODE BLOCK END ===

=== CODE BLOCK ADDRESS 0x14cb ===
  0x14cb	dec    	eax
  0x14cc	test   	ebp, ebp
  0x14ce	je     	0x157b
  === BLOCK LINK ===
    0x14d4
=== CODE BLOCK END ===

=== CODE BLOCK ADDRESS 0x14d4 ===
  0x14d4	dec    	eax
  0x14d5	mov    	eax, dword ptr [ebx + 0x18]
  0x14d8	dec    	eax
  0x14d9	cmp    	eax, 0x10
  0x14dc	jb     	0x14e3
  === BLOCK LINK ===
    0x14de
=== CODE BLOCK END ===

=== CODE BLOCK ADDRESS 0x14de ===
  0x14de	dec    	eax
  0x14df	mov    	ecx, dword ptr [ebx]
  0x14e1	jmp    	0x14e6
  === BLOCK LINK ===
    0x14e3
=== CODE BLOCK END ===

=== CODE BLOCK ADDRESS 0x14e3 ===
  0x14e3	dec    	eax
  0x14e4	mov    	ecx, ebx
  0x14e6	dec    	eax
  0x14e7	sub    	edi, ebp
  0x14e9	je     	0x14fb
  === BLOCK LINK ===
    0x14eb
=== CODE BLOCK END ===

=== CODE BLOCK ADDRESS 0x14eb ===
  0x14eb	dec    	edx
  0x14ec	lea    	edx, [ecx + eax]
  0x14ef	dec    	esp
  0x14f0	mov    	eax, edi
  0x14f2	call   	0x22d2
  === BLOCK LINK ===
    0x14f7
=== CODE BLOCK END ===

=== CODE BLOCK ADDRESS 0x14f7 ===
  0x14f7	dec    	eax
  0x14f8	mov    	eax, dword ptr [ebx + 0x18]
  0x14fb	dec    	eax
  0x14fc	cmp    	eax, 0x10
  0x14ff	jmp    	0x1569
  === BLOCK LINK ===
    0x1501
=== CODE BLOCK END ===

=== CODE BLOCK ADDRESS 0x1501 ===
  0x1501	dec    	eax
  0x1502	cmp    	edi, -2
  0x1505	ja     	0x15a1
  === BLOCK LINK ===
    0x150b
=== CODE BLOCK END ===

=== CODE BLOCK ADDRESS 0x150b ===
  0x150b	dec    	eax
  0x150c	cmp    	dword ptr [ecx + 0x18], edi
  0x150f	jae    	0x151f
  === BLOCK LINK ===
    0x1511
=== CODE BLOCK END ===

=== CODE BLOCK ADDRESS 0x1511 ===
  0x1511	dec    	esp
  0x1512	mov    	eax, dword ptr [ecx + 0x10]
  0x1515	dec    	eax
  0x1516	mov    	edx, edi
  0x1518	call   	0x15b0
  === BLOCK LINK ===
    0x151d
=== CODE BLOCK END ===

=== CODE BLOCK ADDRESS 0x151d ===
  0x151d	jmp    	0x153a
  === BLOCK LINK ===
    0x151f
=== CODE BLOCK END ===

=== CODE BLOCK ADDRESS 0x151f ===
  0x151f	dec    	eax
  0x1520	test   	edi, edi
  0x1522	jne    	0x153f
  === BLOCK LINK ===
    0x1524
=== CODE BLOCK END ===

=== CODE BLOCK ADDRESS 0x1524 ===
  0x1524	dec    	eax
  0x1525	and    	dword ptr [ecx + 0x10], edi
  0x1528	dec    	eax
  0x1529	cmp    	dword ptr [ecx + 0x18], 0x10
  0x152d	jb     	0x1534
  === BLOCK LINK ===
    0x152f
=== CODE BLOCK END ===

=== CODE BLOCK ADDRESS 0x152f ===
  0x152f	dec    	eax
  0x1530	mov    	eax, dword ptr [ecx]
  0x1532	jmp    	0x1537
  === BLOCK LINK ===
    0x1534
=== CODE BLOCK END ===

=== CODE BLOCK ADDRESS 0x1534 ===
  0x1534	dec    	eax
  0x1535	mov    	eax, ebx
  0x1537	mov    	byte ptr [eax], 0
  0x153a	dec    	eax
  0x153b	test   	edi, edi
  === BLOCK LINK ===
    0x153d
=== CODE BLOCK END ===

=== CODE BLOCK ADDRESS 0x153d ===
  0x153d	je     	0x157b
  === BLOCK LINK ===
    0x153f
=== CODE BLOCK END ===

=== CODE BLOCK ADDRESS 0x153f ===
  0x153f	dec    	ecx
  0x1540	cmp    	dword ptr [esi + 0x18], 0x10
  0x1544	jb     	0x1549
  === BLOCK LINK ===
    0x1546
=== CODE BLOCK END ===

=== CODE BLOCK ADDRESS 0x1546 ===
  0x1546	dec    	ebp
  0x1547	mov    	esi, dword ptr [esi]
  0x1549	dec    	eax
  0x154a	cmp    	dword ptr [ebx + 0x18], 0x10
  0x154e	jb     	0x1555
  === BLOCK LINK ===
    0x1550
=== CODE BLOCK END ===

=== CODE BLOCK ADDRESS 0x1550 ===
  0x1550	dec    	eax
  0x1551	mov    	ecx, dword ptr [ebx]
  0x1553	jmp    	0x1558
  === BLOCK LINK ===
    0x1555
=== CODE BLOCK END ===

=== CODE BLOCK ADDRESS 0x1555 ===
  0x1555	dec    	eax
  0x1556	mov    	ecx, ebx
  0x1558	dec    	ecx
  0x1559	lea    	edx, [esi + ebp]
  0x155c	dec    	esp
  === BLOCK LINK ===
    0x155d
=== CODE BLOCK END ===

=== CODE BLOCK ADDRESS 0x155d ===
  0x155d	mov    	eax, edi
  0x155f	call   	0x22c6
  === BLOCK LINK ===
    0x1564
=== CODE BLOCK END ===

=== CODE BLOCK ADDRESS 0x1564 ===
  0x1564	dec    	eax
  0x1565	cmp    	dword ptr [ebx + 0x18], 0x10
  0x1569	dec    	eax
  0x156a	mov    	dword ptr [ebx + 0x10], edi
  0x156d	jb     	0x1574
  === BLOCK LINK ===
    0x156f
=== CODE BLOCK END ===

=== CODE BLOCK ADDRESS 0x156f ===
  0x156f	dec    	eax
  0x1570	mov    	eax, dword ptr [ebx]
  0x1572	jmp    	0x1577
  === BLOCK LINK ===
    0x1574
=== CODE BLOCK END ===

=== CODE BLOCK ADDRESS 0x1574 ===
  0x1574	dec    	eax
  0x1575	mov    	eax, ebx
  0x1577	mov    	byte ptr [eax + edi], 0
  0x157b	dec    	eax
  0x157c	mov    	ebp, dword ptr [esp + 0x38]
  === BLOCK LINK ===
    0x1580
=== CODE BLOCK END ===

=== CODE BLOCK ADDRESS 0x1580 ===
  0x1580	dec    	eax
  0x1581	mov    	eax, ebx
  0x1583	dec    	eax
  0x1584	mov    	ebx, dword ptr [esp + 0x30]
  0x1588	dec    	eax
  === BLOCK LINK ===
    0x1589
=== CODE BLOCK END ===

=== CODE BLOCK ADDRESS 0x1589 ===
  0x1589	mov    	edi, dword ptr [esp + 0x40]
  0x158d	dec    	eax
  0x158e	add    	esp, 0x20
  0x1591	inc    	ecx
  0x1592	pop    	esi
  === BLOCK LINK ===
    0x1593
=== CODE BLOCK END ===

=== CODE BLOCK ADDRESS 0x1593 ===
  0x1593	ret    	
  0x1594	int3   	
  0x1595	call   	0x140c
  === BLOCK LINK ===
    0x159a
=== CODE BLOCK END ===

=== CODE BLOCK ADDRESS 0x1274 ===
  0x1274	dec    	eax
  0x1275	mov    	ebx, dword ptr [esp + 0x30]
  0x1279	dec    	eax
  === BLOCK LINK ===
    0x127a
=== CODE BLOCK END ===

=== CODE BLOCK ADDRESS 0x159a ===
  0x159a	int3   	
  0x159b	call   	0x140c
  === BLOCK LINK ===
    0x15a0
=== CODE BLOCK END ===

=== CODE BLOCK ADDRESS 0x15a0 ===
  0x15a0	int3   	
  0x15a1	call   	0x142c
  === BLOCK LINK ===
    0x15a6
=== CODE BLOCK END ===

=== CODE BLOCK ADDRESS 0x15a6 ===
  0x15a6	int3   	
  0x15a7	int3   	
  0x15a8	int3   	
  0x15a9	int3   	
  0x15aa	int3   	
  === BLOCK LINK ===
    0x15ab
=== CODE BLOCK END ===

=== CODE BLOCK ADDRESS 0x15ab ===
  0x15ab	int3   	
  0x15ac	int3   	
  0x15ad	int3   	
  0x15ae	int3   	
  0x15af	int3   	
  === BLOCK LINK ===
    0x15b0
=== CODE BLOCK END ===

=== CODE BLOCK ADDRESS 0x15b0 ===
  0x15b0	dec    	eax
  0x15b1	mov    	eax, esp
  0x15b3	dec    	esp
  0x15b4	mov    	dword ptr [eax + 0x18], eax
  0x15b7	dec    	eax
  === BLOCK LINK ===
    0x15b8
=== CODE BLOCK END ===

=== CODE BLOCK ADDRESS 0x15b8 ===
  0x15b8	mov    	dword ptr [eax + 0x10], edx
  0x15bb	dec    	eax
  0x15bc	mov    	dword ptr [eax + 8], ecx
  0x15bf	push   	ebx
  0x15c0	push   	esi
  === BLOCK LINK ===
    0x15c1
=== CODE BLOCK END ===

=== CODE BLOCK ADDRESS 0x15c1 ===
  0x15c1	push   	edi
  0x15c2	inc    	ecx
  0x15c3	push   	esi
  0x15c4	dec    	eax
  0x15c5	sub    	esp, 0x38
  === BLOCK LINK ===
    0x15c8
=== CODE BLOCK END ===

=== CODE BLOCK ADDRESS 0x15c8 ===
  0x15c8	dec    	eax
  0x15c9	mov    	dword ptr [eax - 0x38], 0xfffffffe
  0x15d0	dec    	ebp
  0x15d1	mov    	esi, eax
  0x15d3	dec    	eax
  === BLOCK LINK ===
    0x15d4
=== CODE BLOCK END ===

=== CODE BLOCK ADDRESS 0x15d4 ===
  0x15d4	mov    	ebx, ecx
  0x15d6	dec    	eax
  0x15d7	mov    	edi, edx
  0x15d9	dec    	eax
  0x15da	or     	edi, 0xf
  === BLOCK LINK ===
    0x15dd
=== CODE BLOCK END ===

=== CODE BLOCK ADDRESS 0x15dd ===
  0x15dd	dec    	ecx
  0x15de	mov    	ecx, 0xfffffffe
  0x15e4	dec    	ecx
  0x15e5	cmp    	edi, ecx
  0x15e7	jbe    	0x15ee
  === BLOCK LINK ===
    0x15e9
=== CODE BLOCK END ===

=== CODE BLOCK ADDRESS 0x15e9 ===
  0x15e9	dec    	eax
  0x15ea	mov    	edi, edx
  0x15ec	jmp    	0x161f
  === BLOCK LINK ===
    0x15ee
=== CODE BLOCK END ===

=== CODE BLOCK ADDRESS 0x15ee ===
  0x15ee	dec    	esp
  0x15ef	mov    	eax, dword ptr [ecx + 0x18]
  0x15f2	dec    	ecx
  0x15f3	mov    	ecx, eax
  0x15f5	dec    	eax
  === BLOCK LINK ===
    0x15f6
=== CODE BLOCK END ===

=== CODE BLOCK ADDRESS 0x15f6 ===
  0x15f6	shr    	ecx, 1
  0x15f8	dec    	eax
  0x15f9	mov    	eax, 0xaaaaaaab
  0x15fe	stosb  	byte ptr es:[edi], al
  0x15ff	stosb  	byte ptr es:[edi], al
  === BLOCK LINK ===
    0x1600
=== CODE BLOCK END ===

=== CODE BLOCK ADDRESS 0x1600 ===
  0x1600	stosb  	byte ptr es:[edi], al
  0x1601	stosb  	byte ptr es:[edi], al
  0x1602	dec    	eax
  0x1603	mul    	edi
  0x1605	dec    	eax
  === BLOCK LINK ===
    0x1606
=== CODE BLOCK END ===

=== CODE BLOCK ADDRESS 0x1606 ===
  0x1606	shr    	edx, 1
  0x1608	dec    	eax
  0x1609	cmp    	ecx, edx
  0x160b	jbe    	0x161f
  === BLOCK LINK ===
    0x160d
=== CODE BLOCK END ===

=== CODE BLOCK ADDRESS 0x160d ===
  0x160d	dec    	ecx
  0x160e	mov    	eax, ecx
  0x1610	dec    	eax
  0x1611	sub    	eax, ecx
  0x1613	dec    	esp
  === BLOCK LINK ===
    0x1614
=== CODE BLOCK END ===

=== CODE BLOCK ADDRESS 0x1614 ===
  0x1614	cmp    	eax, eax
  0x1616	dec    	edx
  0x1617	lea    	edi, [ecx + eax]
  0x161a	jbe    	0x161f
  === BLOCK LINK ===
    0x161c
=== CODE BLOCK END ===

=== CODE BLOCK ADDRESS 0x161c ===
  0x161c	dec    	ecx
  0x161d	mov    	edi, ecx
  0x161f	dec    	eax
  0x1620	lea    	ecx, [edi + 1]
  0x1623	xor    	esi, esi
  === BLOCK LINK ===
    0x1625
=== CODE BLOCK END ===

=== CODE BLOCK ADDRESS 0x1625 ===
  0x1625	dec    	eax
  0x1626	test   	ecx, ecx
  0x1628	je     	0x1644
  === BLOCK LINK ===
    0x162a
=== CODE BLOCK END ===

=== CODE BLOCK ADDRESS 0x162a ===
  0x162a	call   	0x1850
  === BLOCK LINK ===
    0x162f
=== CODE BLOCK END ===

=== CODE BLOCK ADDRESS 0x162f ===
  0x162f	dec    	eax
  0x1630	mov    	esi, eax
  0x1632	dec    	eax
  0x1633	test   	eax, eax
  0x1635	jne    	0x1644
  === BLOCK LINK ===
    0x1637
=== CODE BLOCK END ===

=== CODE BLOCK ADDRESS 0x1637 ===
  0x1637	dec    	eax
  0x1638	call   	dword ptr [0x1c7a]
  === BLOCK LINK ===
    0x163e
=== CODE BLOCK END ===

=== CODE BLOCK ADDRESS 0x163e ===
  0x163e	nop    	dword ptr [eax + eax]
  0x1643	nop    	
  0x1644	jmp    	0x165a
  === BLOCK LINK ===
    0x1646
=== CODE BLOCK END ===

=== CODE BLOCK ADDRESS 0x1646 ===
  0x1646	dec    	eax
  0x1647	mov    	ebx, dword ptr [esp + 0x60]
  0x164b	dec    	esp
  0x164c	mov    	esi, dword ptr [esp + 0x70]
  0x1650	dec    	eax
  === BLOCK LINK ===
    0x1651
=== CODE BLOCK END ===

=== CODE BLOCK ADDRESS 0x1651 ===
  0x1651	mov    	edi, dword ptr [esp + 0x68]
  0x1655	dec    	eax
  0x1656	mov    	esi, dword ptr [esp + 0x78]
  0x165a	dec    	ebp
  0x165b	test   	esi, esi
  === BLOCK LINK ===
    0x165d
=== CODE BLOCK END ===

=== CODE BLOCK ADDRESS 0x165d ===
  0x165d	je     	0x1679
  === BLOCK LINK ===
    0x165f
=== CODE BLOCK END ===

=== CODE BLOCK ADDRESS 0x165f ===
  0x165f	dec    	eax
  0x1660	cmp    	dword ptr [ebx + 0x18], 0x10
  0x1664	jb     	0x166b
  === BLOCK LINK ===
    0x1666
=== CODE BLOCK END ===

=== CODE BLOCK ADDRESS 0x1666 ===
  0x1666	dec    	eax
  0x1667	mov    	edx, dword ptr [ebx]
  0x1669	jmp    	0x166e
  === BLOCK LINK ===
    0x166b
=== CODE BLOCK END ===

=== CODE BLOCK ADDRESS 0x166b ===
  0x166b	dec    	eax
  0x166c	mov    	edx, ebx
  0x166e	dec    	ebp
  0x166f	mov    	eax, esi
  0x1671	dec    	eax
  === BLOCK LINK ===
    0x1672
=== CODE BLOCK END ===

=== CODE BLOCK ADDRESS 0x1672 ===
  0x1672	mov    	ecx, esi
  0x1674	call   	0x22c6
  === BLOCK LINK ===
    0x1679
=== CODE BLOCK END ===

=== CODE BLOCK ADDRESS 0x1679 ===
  0x1679	dec    	eax
  0x167a	cmp    	dword ptr [ebx + 0x18], 0x10
  0x167e	jb     	0x168f
  === BLOCK LINK ===
    0x1680
=== CODE BLOCK END ===

=== CODE BLOCK ADDRESS 0x1680 ===
  0x1680	dec    	eax
  0x1681	mov    	ecx, dword ptr [ebx]
  0x1683	dec    	eax
  0x1684	call   	dword ptr [0x1cfe]
  === BLOCK LINK ===
    0x168a
=== CODE BLOCK END ===

=== CODE BLOCK ADDRESS 0x168a ===
  0x168a	nop    	dword ptr [eax + eax]
  0x168f	dec    	eax
  0x1690	mov    	dword ptr [ebx], esi
  0x1692	dec    	eax
  0x1693	mov    	dword ptr [ebx + 0x18], edi
  === BLOCK LINK ===
    0x1696
=== CODE BLOCK END ===

=== CODE BLOCK ADDRESS 0x1696 ===
  0x1696	dec    	esp
  0x1697	mov    	dword ptr [ebx + 0x10], esi
  0x169a	dec    	eax
  0x169b	cmp    	edi, 0x10
  0x169e	dec    	eax
  === BLOCK LINK ===
    0x169f
=== CODE BLOCK END ===

=== CODE BLOCK ADDRESS 0x169f ===
  0x169f	cmovae  	ebx, esi
  0x16a2	inc    	edx
  0x16a3	mov    	byte ptr [ebx + esi], 0
  0x16a7	dec    	eax
  0x16a8	add    	esp, 0x38
  === BLOCK LINK ===
    0x16ab
=== CODE BLOCK END ===

=== CODE BLOCK ADDRESS 0x16ab ===
  0x16ab	inc    	ecx
  0x16ac	pop    	esi
  0x16ad	pop    	edi
  0x16ae	pop    	esi
  0x16af	pop    	ebx
  === BLOCK LINK ===
    0x16b0
=== CODE BLOCK END ===

=== CODE BLOCK ADDRESS 0x16b0 ===
  0x16b0	ret    	
  0x16b1	int3   	
  0x16b2	int3   	
  0x16b3	int3   	
  0x16b4	int3   	
  === BLOCK LINK ===
    0x16b5
=== CODE BLOCK END ===

=== CODE BLOCK ADDRESS 0x16b5 ===
  0x16b5	int3   	
  0x16b6	int3   	
  0x16b7	int3   	
  0x16b8	dec    	eax
  0x16b9	mov    	eax, esp
  === BLOCK LINK ===
    0x16bb
=== CODE BLOCK END ===

=== CODE BLOCK ADDRESS 0x16bb ===
  0x16bb	push   	ebp
  0x16bc	dec    	eax
  0x16bd	mov    	ebp, esp
  0x16bf	dec    	eax
  0x16c0	sub    	esp, 0x60
  === BLOCK LINK ===
    0x16c3
=== CODE BLOCK END ===

=== CODE BLOCK ADDRESS 0x16c3 ===
  0x16c3	dec    	eax
  0x16c4	mov    	dword ptr [ebp - 0x30], 0xfffffffe
  0x16cb	dec    	eax
  0x16cc	mov    	dword ptr [eax + 8], ebx
  0x16cf	dec    	eax
  === BLOCK LINK ===
    0x16d0
=== CODE BLOCK END ===

=== CODE BLOCK ADDRESS 0x16d0 ===
  0x16d0	mov    	dword ptr [eax + 0x10], esi
  0x16d3	dec    	eax
  0x16d4	mov    	dword ptr [eax + 0x18], edi
  0x16d7	dec    	eax
  0x16d8	mov    	eax, dword ptr [0x394a]
  === BLOCK LINK ===
    0x16de
=== CODE BLOCK END ===

=== CODE BLOCK ADDRESS 0x16de ===
  0x16de	dec    	eax
  0x16df	xor    	eax, esp
  0x16e1	dec    	eax
  0x16e2	mov    	dword ptr [ebp - 8], eax
  0x16e5	xor    	ebx, ebx
  === BLOCK LINK ===
    0x16e7
=== CODE BLOCK END ===

=== CODE BLOCK ADDRESS 0x16e7 ===
  0x16e7	lea    	edi, [ebx + 1]
  0x16ea	mov    	ecx, edi
  0x16ec	dec    	eax
  0x16ed	call   	dword ptr [0x1b8d]
  === BLOCK LINK ===
    0x16f3
=== CODE BLOCK END ===

=== CODE BLOCK ADDRESS 0x16f3 ===
  0x16f3	nop    	dword ptr [eax + eax]
  0x16f8	movzx  	esi, bl
  0x16fb	test   	eax, eax
  0x16fd	cmovns  	esi, edi
  0x1700	dec    	eax
  === BLOCK LINK ===
    0x1701
=== CODE BLOCK END ===

=== CODE BLOCK ADDRESS 0x1701 ===
  0x1701	mov    	dword ptr [ebp - 0x40], ebx
  0x1704	dec    	eax
  0x1705	mov    	dword ptr [ebp - 0x10], ebx
  0x1708	dec    	esp
  0x1709	lea    	ecx, [ebp - 0x10]
  === BLOCK LINK ===
    0x170c
=== CODE BLOCK END ===

=== CODE BLOCK ADDRESS 0x170c ===
  0x170c	dec    	esp
  0x170d	lea    	eax, [ebp - 0x28]
  0x1710	lea    	edx, [ebx + 0x58]
  0x1713	dec    	eax
  0x1714	lea    	ecx, [0x1e16]
  === BLOCK LINK ===
    0x171a
=== CODE BLOCK END ===

=== CODE BLOCK ADDRESS 0x171a ===
  0x171a	dec    	eax
  0x171b	call   	dword ptr [0x1b77]
  === BLOCK LINK ===
    0x1721
=== CODE BLOCK END ===

=== CODE BLOCK ADDRESS 0x1721 ===
  0x1721	nop    	dword ptr [eax + eax]
  0x1726	test   	eax, eax
  0x1728	js     	0x17f7
  === BLOCK LINK ===
    0x172e
=== CODE BLOCK END ===

=== CODE BLOCK ADDRESS 0x172e ===
  0x172e	dec    	eax
  0x172f	mov    	ecx, dword ptr [ebp - 0x40]
  0x1732	dec    	eax
  0x1733	test   	ecx, ecx
  0x1735	je     	0x1748
  === BLOCK LINK ===
    0x1737
=== CODE BLOCK END ===

=== CODE BLOCK ADDRESS 0x1737 ===
  0x1737	dec    	eax
  0x1738	mov    	dword ptr [ebp - 0x40], ebx
  0x173b	dec    	eax
  0x173c	mov    	eax, dword ptr [ecx]
  0x173e	dec    	eax
  === BLOCK LINK ===
    0x173f
=== CODE BLOCK END ===

=== CODE BLOCK ADDRESS 0x173f ===
  0x173f	mov    	eax, dword ptr [eax + 0x10]
  0x1742	call   	dword ptr [0x1c88]
  === BLOCK LINK ===
    0x1748
=== CODE BLOCK END ===

=== CODE BLOCK ADDRESS 0x1748 ===
  0x1748	dec    	esp
  0x1749	lea    	eax, [ebp - 0x40]
  0x174c	dec    	eax
  0x174d	lea    	edx, [0x1dcd]
  0x1753	dec    	eax
  === BLOCK LINK ===
    0x1754
=== CODE BLOCK END ===

=== CODE BLOCK ADDRESS 0x1754 ===
  0x1754	mov    	ecx, dword ptr [ebp - 0x10]
  0x1757	dec    	eax
  0x1758	call   	dword ptr [0x1b2a]
  === BLOCK LINK ===
    0x175e
=== CODE BLOCK END ===

=== CODE BLOCK ADDRESS 0x175e ===
  0x175e	nop    	dword ptr [eax + eax]
  0x1763	mov    	edi, eax
  0x1765	dec    	eax
  0x1766	mov    	ecx, ebx
  0x1768	dec    	eax
  === BLOCK LINK ===
    0x1769
=== CODE BLOCK END ===

=== CODE BLOCK ADDRESS 0x1769 ===
  0x1769	mov    	dword ptr [ebp - 0x38], ebx
  0x176c	test   	eax, eax
  0x176e	js     	0x178b
  === BLOCK LINK ===
    0x1770
=== CODE BLOCK END ===

=== CODE BLOCK ADDRESS 0x1770 ===
  0x1770	dec    	eax
  0x1771	mov    	ecx, dword ptr [ebp - 0x40]
  0x1774	dec    	eax
  0x1775	mov    	eax, dword ptr [ecx]
  0x1777	dec    	eax
  === BLOCK LINK ===
    0x1778
=== CODE BLOCK END ===

=== CODE BLOCK ADDRESS 0x1778 ===
  0x1778	lea    	edx, [ebp - 0x38]
  0x177b	dec    	eax
  0x177c	mov    	eax, dword ptr [eax + 0x30]
  0x177f	call   	dword ptr [0x1c4b]
  === BLOCK LINK ===
    0x1785
=== CODE BLOCK END ===

=== CODE BLOCK ADDRESS 0x1785 ===
  0x1785	mov    	edi, eax
  0x1787	dec    	eax
  0x1788	mov    	ecx, dword ptr [ebp - 0x38]
  0x178b	dec    	eax
  0x178c	test   	ecx, ecx
  === BLOCK LINK ===
    0x178e
=== CODE BLOCK END ===

=== CODE BLOCK ADDRESS 0x178e ===
  0x178e	je     	0x17a2
  === BLOCK LINK ===
    0x1790
=== CODE BLOCK END ===

=== CODE BLOCK ADDRESS 0x1790 ===
  0x1790	dec    	eax
  0x1791	mov    	dword ptr [ebp - 0x38], ebx
  0x1794	dec    	eax
  0x1795	mov    	eax, dword ptr [ecx]
  0x1797	dec    	eax
  === BLOCK LINK ===
    0x1798
=== CODE BLOCK END ===

=== CODE BLOCK ADDRESS 0x1798 ===
  0x1798	mov    	eax, dword ptr [eax + 0x10]
  0x179b	call   	dword ptr [0x1c2f]
  === BLOCK LINK ===
    0x17a1
=== CODE BLOCK END ===

=== CODE BLOCK ADDRESS 0x17a1 ===
  0x17a1	nop    	
  0x17a2	dec    	eax
  0x17a3	mov    	ecx, dword ptr [ebp - 0x40]
  0x17a6	dec    	eax
  0x17a7	test   	ecx, ecx
  === BLOCK LINK ===
    0x17a9
=== CODE BLOCK END ===

=== CODE BLOCK ADDRESS 0x17a9 ===
  0x17a9	je     	0x17bc
  === BLOCK LINK ===
    0x17ab
=== CODE BLOCK END ===

=== CODE BLOCK ADDRESS 0x17ab ===
  0x17ab	dec    	eax
  0x17ac	mov    	dword ptr [ebp - 0x40], ebx
  0x17af	dec    	eax
  0x17b0	mov    	eax, dword ptr [ecx]
  0x17b2	dec    	eax
  === BLOCK LINK ===
    0x17b3
=== CODE BLOCK END ===

=== CODE BLOCK ADDRESS 0x17b3 ===
  0x17b3	mov    	eax, dword ptr [eax + 0x10]
  0x17b6	call   	dword ptr [0x1c14]
  === BLOCK LINK ===
    0x17bc
=== CODE BLOCK END ===

=== CODE BLOCK ADDRESS 0x17bc ===
  0x17bc	inc    	eax
  0x17bd	test   	dh, dh
  0x17bf	je     	0x17cd
  === BLOCK LINK ===
    0x17c1
=== CODE BLOCK END ===

=== CODE BLOCK ADDRESS 0x17c1 ===
  0x17c1	dec    	eax
  0x17c2	call   	dword ptr [0x1ab0]
  === BLOCK LINK ===
    0x17c8
=== CODE BLOCK END ===

=== CODE BLOCK ADDRESS 0x17c8 ===
  0x17c8	nop    	dword ptr [eax + eax]
  0x17cd	test   	edi, edi
  0x17cf	sets   	bl
  0x17d2	mov    	eax, ebx
  0x17d4	dec    	eax
  === BLOCK LINK ===
    0x17d5
=== CODE BLOCK END ===

=== CODE BLOCK ADDRESS 0x17d5 ===
  0x17d5	mov    	ecx, dword ptr [ebp - 8]
  0x17d8	dec    	eax
  0x17d9	xor    	ecx, esp
  0x17db	call   	0x1bc0
  === BLOCK LINK ===
    0x17e0
=== CODE BLOCK END ===

=== CODE BLOCK ADDRESS 0x17e0 ===
  0x17e0	dec    	esp
  0x17e1	lea    	ebx, [esp + 0x60]
  0x17e5	dec    	ecx
  0x17e6	mov    	ebx, dword ptr [ebx + 0x10]
  0x17e9	dec    	ecx
  === BLOCK LINK ===
    0x17ea
=== CODE BLOCK END ===

=== CODE BLOCK ADDRESS 0x17ea ===
  0x17ea	mov    	esi, dword ptr [ebx + 0x18]
  0x17ed	dec    	ecx
  0x17ee	mov    	edi, dword ptr [ebx + 0x20]
  0x17f1	dec    	ecx
  0x17f2	mov    	esp, ebx
  === BLOCK LINK ===
    0x17f4
=== CODE BLOCK END ===

=== CODE BLOCK ADDRESS 0x17f4 ===
  0x17f4	pop    	ebp
  0x17f5	ret    	
  0x17f6	int3   	
  0x17f7	mov    	ecx, eax
  0x17f9	call   	0x1834
  === BLOCK LINK ===
    0x17fe
=== CODE BLOCK END ===

=== CODE BLOCK ADDRESS 0x17fe ===
  0x17fe	int3   	
  0x17ff	int3   	
  0x1800	int3   	
  0x1801	int3   	
  0x1802	int3   	
  === BLOCK LINK ===
    0x1803
=== CODE BLOCK END ===

=== CODE BLOCK ADDRESS 0x1803 ===
  0x1803	int3   	
  0x1804	int3   	
  0x1805	int3   	
  0x1806	int3   	
  0x1807	int3   	
  === BLOCK LINK ===
    0x1808
=== CODE BLOCK END ===

=== CODE BLOCK ADDRESS 0x1808 ===
  0x1808	dec    	eax
  0x1809	sub    	esp, 0x28
  0x180c	dec    	eax
  0x180d	mov    	eax, ecx
  0x180f	dec    	eax
  === BLOCK LINK ===
    0x1810
=== CODE BLOCK END ===

=== CODE BLOCK ADDRESS 0x1810 ===
  0x1810	mov    	ecx, dword ptr [ecx]
  0x1812	dec    	eax
  0x1813	test   	ecx, ecx
  0x1815	je     	0x1828
  === BLOCK LINK ===
    0x1817
=== CODE BLOCK END ===

=== CODE BLOCK ADDRESS 0x1817 ===
  0x1817	dec    	eax
  0x1818	and    	dword ptr [eax], 0
  0x181b	dec    	eax
  0x181c	mov    	eax, dword ptr [ecx]
  0x181e	dec    	eax
  === BLOCK LINK ===
    0x181f
=== CODE BLOCK END ===

=== CODE BLOCK ADDRESS 0x181f ===
  0x181f	mov    	eax, dword ptr [eax + 0x10]
  0x1822	call   	dword ptr [0x1ba8]
  === BLOCK LINK ===
    0x1828
=== CODE BLOCK END ===

=== CODE BLOCK ADDRESS 0x1828 ===
  0x1828	dec    	eax
  0x1829	add    	esp, 0x28
  0x182c	ret    	
  0x182d	int3   	
  0x182e	int3   	
  === BLOCK LINK ===
    0x182f
=== CODE BLOCK END ===

=== CODE BLOCK ADDRESS 0x12c2 ===
  0x12c2	dec    	eax
  0x12c3	inc    	edi
  0x12c5	cmp    	byte ptr [edx + edi], 0
  === BLOCK LINK ===
    0x12c9
=== CODE BLOCK END ===

=== CODE BLOCK ADDRESS 0x182f ===
  0x182f	int3   	
  0x1830	int3   	
  0x1831	int3   	
  0x1832	int3   	
  0x1833	int3   	
  === BLOCK LINK ===
    0x1834
=== CODE BLOCK END ===

=== CODE BLOCK ADDRESS 0x1834 ===
  0x1834	inc    	ebp
  0x1835	xor    	ecx, ecx
  0x1837	inc    	ebp
  0x1838	xor    	eax, eax
  0x183a	inc    	ecx
  === BLOCK LINK ===
    0x183b
=== CODE BLOCK END ===

=== CODE BLOCK ADDRESS 0x183b ===
  0x183b	lea    	edx, [ecx + 1]
  0x183e	dec    	eax
  0x183f	jmp    	dword ptr [0x19ab]
  === BLOCK LINK ===
    0x1845
=== CODE BLOCK END ===

=== CODE BLOCK ADDRESS 0x1845 ===
  0x1845	int3   	
  0x1846	int3   	
  0x1847	int3   	
  0x1848	int3   	
  0x1849	int3   	
  === BLOCK LINK ===
    0x184a
=== CODE BLOCK END ===

=== CODE BLOCK ADDRESS 0x184a ===
  0x184a	int3   	
  0x184b	int3   	
  0x184c	int3   	
  0x184d	int3   	
  0x184e	int3   	
  === BLOCK LINK ===
    0x184f
=== CODE BLOCK END ===

=== CODE BLOCK ADDRESS 0x184f ===
  0x184f	int3   	
  0x1850	inc    	eax
  0x1851	push   	ebx
  0x1852	dec    	eax
  0x1853	sub    	esp, 0x20
  === BLOCK LINK ===
    0x1856
=== CODE BLOCK END ===

=== CODE BLOCK ADDRESS 0x1856 ===
  0x1856	dec    	eax
  0x1857	mov    	ebx, ecx
  0x1859	jmp    	0x186a
  === BLOCK LINK ===
    0x185b
=== CODE BLOCK END ===

=== CODE BLOCK ADDRESS 0x185b ===
  0x185b	dec    	eax
  0x185c	mov    	ecx, ebx
  0x185e	call   	0x1e68
  === BLOCK LINK ===
    0x1863
=== CODE BLOCK END ===

=== CODE BLOCK ADDRESS 0x1863 ===
  0x1863	test   	eax, eax
  0x1865	je     	0x187a
  === BLOCK LINK ===
    0x1867
=== CODE BLOCK END ===

=== CODE BLOCK ADDRESS 0x1867 ===
  0x1867	dec    	eax
  0x1868	mov    	ecx, ebx
  0x186a	call   	0x1e5c
  === BLOCK LINK ===
    0x186f
=== CODE BLOCK END ===

=== CODE BLOCK ADDRESS 0x186f ===
  0x186f	dec    	eax
  0x1870	test   	eax, eax
  0x1872	je     	0x185b
  === BLOCK LINK ===
    0x1874
=== CODE BLOCK END ===

=== CODE BLOCK ADDRESS 0x1874 ===
  0x1874	dec    	eax
  0x1875	add    	esp, 0x20
  0x1878	pop    	ebx
  0x1879	ret    	
  0x187a	call   	dword ptr [0x1a38]
  === BLOCK LINK ===
    0x1880
=== CODE BLOCK END ===

=== CODE BLOCK ADDRESS 0x1880 ===
  0x1880	int3   	
  0x1881	int3   	
  0x1882	int3   	
  0x1883	int3   	
  0x1884	int3   	
  === BLOCK LINK ===
    0x1885
=== CODE BLOCK END ===

=== CODE BLOCK ADDRESS 0x1885 ===
  0x1885	int3   	
  0x1886	int3   	
  0x1887	int3   	
  0x1888	int3   	
  0x1889	int3   	
  === BLOCK LINK ===
    0x188a
=== CODE BLOCK END ===

=== CODE BLOCK ADDRESS 0x188a ===
  0x188a	int3   	
  0x188b	int3   	
  0x188c	int3   	
  0x188d	int3   	
  0x188e	int3   	
  === BLOCK LINK ===
    0x188f
=== CODE BLOCK END ===

=== CODE BLOCK ADDRESS 0x188f ===
  0x188f	int3   	
  0x1890	dec    	eax
  0x1891	sub    	esp, 0x28
  0x1894	mov    	eax, 0x5a4d
  0x1899	cmp    	word ptr [0xffffe760], ax
  === BLOCK LINK ===
    0x18a0
=== CODE BLOCK END ===

=== CODE BLOCK ADDRESS 0x18a0 ===
  0x18a0	je     	0x18a6
  === BLOCK LINK ===
    0x18a2
=== CODE BLOCK END ===

=== CODE BLOCK ADDRESS 0x18a2 ===
  0x18a2	xor    	eax, eax
  0x18a4	jmp    	0x18f9
  === BLOCK LINK ===
    0x18a6
=== CODE BLOCK END ===

=== CODE BLOCK ADDRESS 0x18a6 ===
  0x18a6	dec    	eax
  0x18a7	arpl   	word ptr [0xffffe78f], cx
  0x18ad	dec    	eax
  0x18ae	lea    	eax, [0xffffe74c]
  0x18b4	dec    	eax
  === BLOCK LINK ===
    0x18b5
=== CODE BLOCK END ===

=== CODE BLOCK ADDRESS 0x18b5 ===
  0x18b5	add    	ecx, eax
  0x18b7	cmp    	dword ptr [ecx], 0x4550
  0x18bd	jne    	0x18a2
  === BLOCK LINK ===
    0x18bf
=== CODE BLOCK END ===

=== CODE BLOCK ADDRESS 0x18bf ===
  0x18bf	mov    	eax, 0x10b
  0x18c4	cmp    	word ptr [ecx + 0x18], ax
  0x18c8	je     	0x18e8
  === BLOCK LINK ===
    0x18ca
=== CODE BLOCK END ===

=== CODE BLOCK ADDRESS 0x18ca ===
  0x18ca	mov    	eax, 0x20b
  0x18cf	cmp    	word ptr [ecx + 0x18], ax
  0x18d3	jne    	0x18a2
  === BLOCK LINK ===
    0x18d5
=== CODE BLOCK END ===

=== CODE BLOCK ADDRESS 0x18d5 ===
  0x18d5	xor    	eax, eax
  0x18d7	cmp    	dword ptr [ecx + 0x84], 0xe
  0x18de	jbe    	0x18f9
  === BLOCK LINK ===
    0x18e0
=== CODE BLOCK END ===

=== CODE BLOCK ADDRESS 0x18e0 ===
  0x18e0	cmp    	dword ptr [ecx + 0xf8], eax
  0x18e6	jmp    	0x18f6
  === BLOCK LINK ===
    0x18e8
=== CODE BLOCK END ===

=== CODE BLOCK ADDRESS 0x18e8 ===
  0x18e8	xor    	eax, eax
  0x18ea	cmp    	dword ptr [ecx + 0x74], 0xe
  0x18ee	jbe    	0x18f9
  === BLOCK LINK ===
    0x18f0
=== CODE BLOCK END ===

=== CODE BLOCK ADDRESS 0x18f0 ===
  0x18f0	cmp    	dword ptr [ecx + 0xe8], eax
  0x18f6	setne  	al
  0x18f9	mov    	ecx, 1
  0x18fe	mov    	dword ptr [0x3774], eax
  0x1904	call   	0x1f48
  === BLOCK LINK ===
    0x1909
=== CODE BLOCK END ===

=== CODE BLOCK ADDRESS 0x1909 ===
  0x1909	mov    	ecx, eax
  0x190b	call   	dword ptr [0x1a3f]
  === BLOCK LINK ===
    0x1911
=== CODE BLOCK END ===

=== CODE BLOCK ADDRESS 0x1911 ===
  0x1911	dec    	eax
  0x1912	mov    	ecx, dword ptr [0x1a00]
  0x1918	dec    	eax
  0x1919	or     	eax, 0xffffffff
  0x191c	dec    	eax
  === BLOCK LINK ===
    0x191d
=== CODE BLOCK END ===

=== CODE BLOCK ADDRESS 0x191d ===
  0x191d	mov    	dword ptr [0x3d0d], eax
  0x1923	dec    	eax
  0x1924	mov    	dword ptr [0x3d0e], eax
  0x192a	mov    	eax, dword ptr [0x3ccc]
  0x1930	mov    	dword ptr [ecx], eax
  === BLOCK LINK ===
    0x1932
=== CODE BLOCK END ===

=== CODE BLOCK ADDRESS 0x1932 ===
  0x1932	dec    	eax
  0x1933	mov    	ecx, dword ptr [0x19d7]
  0x1939	mov    	eax, dword ptr [0x3cb1]
  0x193f	mov    	dword ptr [ecx], eax
  0x1941	call   	0x1fa0
  === BLOCK LINK ===
    0x1946
=== CODE BLOCK END ===

=== CODE BLOCK ADDRESS 0x1946 ===
  0x1946	cmp    	dword ptr [0x36d3], 0
  0x194d	jne    	0x195c
  === BLOCK LINK ===
    0x194f
=== CODE BLOCK END ===

=== CODE BLOCK ADDRESS 0x194f ===
  0x194f	dec    	eax
  0x1950	lea    	ecx, [0x64a]
  0x1956	call   	dword ptr [0x19d4]
  === BLOCK LINK ===
    0x195c
=== CODE BLOCK END ===

=== CODE BLOCK ADDRESS 0x195c ===
  0x195c	xor    	eax, eax
  0x195e	dec    	eax
  0x195f	add    	esp, 0x28
  0x1962	ret    	
  0x1963	int3   	
  === BLOCK LINK ===
    0x1964
=== CODE BLOCK END ===

=== CODE BLOCK ADDRESS 0x12dd ===
  0x12dd	dec    	eax
  0x12de	cmp    	esi, eax
  0x12e0	jb     	0x1318
  === BLOCK LINK ===
    0x12e2
=== CODE BLOCK END ===

=== CODE BLOCK ADDRESS 0x1964 ===
  0x1964	int3   	
  0x1965	int3   	
  0x1966	int3   	
  0x1967	int3   	
  0x1968	int3   	
  === BLOCK LINK ===
    0x1969
=== CODE BLOCK END ===

=== CODE BLOCK ADDRESS 0x1969 ===
  0x1969	int3   	
  0x196a	int3   	
  0x196b	int3   	
  0x196c	int3   	
  0x196d	int3   	
  === BLOCK LINK ===
    0x196e
=== CODE BLOCK END ===

=== CODE BLOCK ADDRESS 0x196e ===
  0x196e	int3   	
  0x196f	int3   	
  0x1970	dec    	eax
  0x1971	sub    	esp, 0x38
  0x1974	mov    	eax, dword ptr [0x3c7e]
  === BLOCK LINK ===
    0x197a
=== CODE BLOCK END ===

=== CODE BLOCK ADDRESS 0x197a ===
  0x197a	dec    	esp
  0x197b	lea    	eax, [0x36ef]
  0x1981	inc    	esp
  0x1982	mov    	ecx, dword ptr [0x3c6c]
  0x1988	dec    	eax
  === BLOCK LINK ===
    0x1989
=== CODE BLOCK END ===

=== CODE BLOCK ADDRESS 0x1989 ===
  0x1989	lea    	edx, [0x36d9]
  0x198f	mov    	dword ptr [0x36e7], eax
  0x1995	dec    	eax
  0x1996	lea    	ecx, [0x36c4]
  0x199c	dec    	eax
  === BLOCK LINK ===
    0x199d
=== CODE BLOCK END ===

=== CODE BLOCK ADDRESS 0x199d ===
  0x199d	lea    	eax, [0x36d9]
  0x19a3	dec    	eax
  0x19a4	mov    	dword ptr [esp + 0x20], eax
  0x19a8	call   	dword ptr [0x19aa]
  === BLOCK LINK ===
    0x19ae
=== CODE BLOCK END ===

=== CODE BLOCK ADDRESS 0x19ae ===
  0x19ae	mov    	dword ptr [0x36b0], eax
  0x19b4	dec    	eax
  0x19b5	add    	esp, 0x38
  0x19b8	ret    	
  0x19b9	int3   	
  === BLOCK LINK ===
    0x19ba
=== CODE BLOCK END ===

=== CODE BLOCK ADDRESS 0x19ba ===
  0x19ba	int3   	
  0x19bb	int3   	
  0x19bc	int3   	
  0x19bd	int3   	
  0x19be	int3   	
  === BLOCK LINK ===
    0x19bf
=== CODE BLOCK END ===

=== CODE BLOCK ADDRESS 0x19bf ===
  0x19bf	int3   	
  0x19c0	dec    	eax
  0x19c1	mov    	dword ptr [esp + 8], ebx
  0x19c5	dec    	eax
  0x19c6	mov    	dword ptr [esp + 0x10], esi
  === BLOCK LINK ===
    0x19ca
=== CODE BLOCK END ===

=== CODE BLOCK ADDRESS 0x19ca ===
  0x19ca	dec    	eax
  0x19cb	mov    	dword ptr [esp + 0x18], edi
  0x19cf	inc    	ecx
  0x19d0	push   	edi
  0x19d1	dec    	eax
  === BLOCK LINK ===
    0x19d2
=== CODE BLOCK END ===

=== CODE BLOCK ADDRESS 0x19d2 ===
  0x19d2	sub    	esp, 0x30
  0x19d5	dec    	eax
  0x19d7	mov    	eax, dword ptr [0x30]
  0x19de	dec    	eax
  0x19df	mov    	ebx, dword ptr [eax + 8]
  === BLOCK LINK ===
    0x19e2
=== CODE BLOCK END ===

=== CODE BLOCK ADDRESS 0x19e2 ===
  0x19e2	xor    	esi, esi
  0x19e4	xor    	eax, eax
  0x19e6	.byte  	0xf0
  0x19e7	dec    	eax
  0x19e8	cmpxchg  	dword ptr [0x3c31], ebx
  === BLOCK LINK ===
    0x19ef
=== CODE BLOCK END ===

=== CODE BLOCK ADDRESS 0x19ef ===
  0x19ef	je     	0x1a0c
  === BLOCK LINK ===
    0x19f1
=== CODE BLOCK END ===

=== CODE BLOCK ADDRESS 0x19f1 ===
  0x19f1	dec    	eax
  0x19f2	cmp    	eax, ebx
  0x19f4	jne    	0x19ff
  === BLOCK LINK ===
    0x19f6
=== CODE BLOCK END ===

=== CODE BLOCK ADDRESS 0x19f6 ===
  0x19f6	mov    	ebx, 1
  0x19fb	mov    	esi, ebx
  0x19fd	jmp    	0x1a11
  === BLOCK LINK ===
    0x19ff
=== CODE BLOCK END ===

=== CODE BLOCK ADDRESS 0x19ff ===
  0x19ff	mov    	ecx, 0x3e8
  0x1a04	call   	dword ptr [0x1846]
  === BLOCK LINK ===
    0x1a0a
=== CODE BLOCK END ===

=== CODE BLOCK ADDRESS 0x1a0a ===
  0x1a0a	jmp    	0x19e4
  === BLOCK LINK ===
    0x1a0c
=== CODE BLOCK END ===

=== CODE BLOCK ADDRESS 0x1a0c ===
  0x1a0c	mov    	ebx, 1
  0x1a11	mov    	eax, dword ptr [0x3c11]
  0x1a17	cmp    	eax, ebx
  0x1a19	jne    	0x1a27
  === BLOCK LINK ===
    0x1a1b
=== CODE BLOCK END ===

=== CODE BLOCK ADDRESS 0x1a1b ===
  0x1a1b	mov    	ecx, 0x1f
  0x1a20	call   	0x1f93
  === BLOCK LINK ===
    0x1a25
=== CODE BLOCK END ===

=== CODE BLOCK ADDRESS 0x1a25 ===
  0x1a25	jmp    	0x1a8c
  === BLOCK LINK ===
    0x1a27
=== CODE BLOCK END ===

=== CODE BLOCK ADDRESS 0x1a27 ===
  0x1a27	mov    	eax, dword ptr [0x3bfb]
  0x1a2d	test   	eax, eax
  0x1a2f	jne    	0x1a86
  === BLOCK LINK ===
    0x1a31
=== CODE BLOCK END ===

=== CODE BLOCK ADDRESS 0x1a31 ===
  0x1a31	mov    	dword ptr [0x3bf1], ebx
  0x1a37	dec    	esp
  0x1a38	lea    	edi, [0x19e2]
  0x1a3e	dec    	eax
  0x1a3f	lea    	edi, [0x19c3]
  === BLOCK LINK ===
    0x1a45
=== CODE BLOCK END ===

=== CODE BLOCK ADDRESS 0x1a45 ===
  0x1a45	dec    	eax
  0x1a46	mov    	dword ptr [esp + 0x28], edi
  0x1a4a	mov    	dword ptr [esp + 0x20], eax
  0x1a4e	dec    	ecx
  0x1a4f	cmp    	edi, edi
  === BLOCK LINK ===
    0x1a51
=== CODE BLOCK END ===

=== CODE BLOCK ADDRESS 0x1a51 ===
  0x1a51	jae    	0x1a78
  === BLOCK LINK ===
    0x1a53
=== CODE BLOCK END ===

=== CODE BLOCK ADDRESS 0x1a53 ===
  0x1a53	test   	eax, eax
  0x1a55	jne    	0x1a7c
  === BLOCK LINK ===
    0x1a57
=== CODE BLOCK END ===

=== CODE BLOCK ADDRESS 0x1a57 ===
  0x1a57	dec    	eax
  0x1a58	cmp    	dword ptr [edi], 0
  0x1a5b	je     	0x1a6d
  === BLOCK LINK ===
    0x1a5d
=== CODE BLOCK END ===

=== CODE BLOCK ADDRESS 0x1a5d ===
  0x1a5d	dec    	eax
  0x1a5e	mov    	eax, dword ptr [edi]
  0x1a60	dec    	eax
  0x1a61	mov    	ecx, dword ptr [0x1969]
  0x1a67	call   	ecx
  === BLOCK LINK ===
    0x1a69
=== CODE BLOCK END ===

=== CODE BLOCK ADDRESS 0x1a69 ===
  0x1a69	mov    	dword ptr [esp + 0x20], eax
  0x1a6d	dec    	eax
  0x1a6e	add    	edi, 8
  0x1a71	dec    	eax
  0x1a72	mov    	dword ptr [esp + 0x28], edi
  === BLOCK LINK ===
    0x1a76
=== CODE BLOCK END ===

=== CODE BLOCK ADDRESS 0x1a76 ===
  0x1a76	jmp    	0x1a4e
  === BLOCK LINK ===
    0x1a78
=== CODE BLOCK END ===

=== CODE BLOCK ADDRESS 0x1a78 ===
  0x1a78	test   	eax, eax
  0x1a7a	je     	0x1a8c
  === BLOCK LINK ===
    0x1a7c
=== CODE BLOCK END ===

=== CODE BLOCK ADDRESS 0x1a7c ===
  0x1a7c	mov    	eax, 0xff
  0x1a81	jmp    	0x1b68
  === BLOCK LINK ===
    0x1a86
=== CODE BLOCK END ===

=== CODE BLOCK ADDRESS 0x1a86 ===
  0x1a86	mov    	dword ptr [0x35cc], ebx
  0x1a8c	mov    	eax, dword ptr [0x3b96]
  0x1a92	cmp    	eax, ebx
  0x1a94	jne    	0x1ab3
  === BLOCK LINK ===
    0x1a96
=== CODE BLOCK END ===

=== CODE BLOCK ADDRESS 0x1a96 ===
  0x1a96	dec    	eax
  0x1a97	lea    	edx, [0x1963]
  0x1a9d	dec    	eax
  0x1a9e	lea    	ecx, [0x1934]
  0x1aa4	call   	0x216e
  === BLOCK LINK ===
    0x1aa9
=== CODE BLOCK END ===

=== CODE BLOCK ADDRESS 0x1aa9 ===
  0x1aa9	mov    	dword ptr [0x3b75], 2
  0x1ab3	test   	esi, esi
  0x1ab5	jne    	0x1ac0
  === BLOCK LINK ===
    0x1ab7
=== CODE BLOCK END ===

=== CODE BLOCK ADDRESS 0x1ab7 ===
  0x1ab7	xor    	eax, eax
  0x1ab9	dec    	eax
  0x1aba	xchg   	dword ptr [0x3b60], eax
  0x1ac0	dec    	eax
  0x1ac1	cmp    	dword ptr [0x3b78], 0
  === BLOCK LINK ===
    0x1ac8
=== CODE BLOCK END ===

=== CODE BLOCK ADDRESS 0x1ac8 ===
  0x1ac8	je     	0x1af4
  === BLOCK LINK ===
    0x1aca
=== CODE BLOCK END ===

=== CODE BLOCK ADDRESS 0x1aca ===
  0x1aca	dec    	eax
  0x1acb	lea    	ecx, [0x3b6f]
  0x1ad1	call   	0x2000
  === BLOCK LINK ===
    0x1ad6
=== CODE BLOCK END ===

=== CODE BLOCK ADDRESS 0x1ad6 ===
  0x1ad6	test   	eax, eax
  0x1ad8	je     	0x1af4
  === BLOCK LINK ===
    0x1ada
=== CODE BLOCK END ===

=== CODE BLOCK ADDRESS 0x1ada ===
  0x1ada	inc    	ebp
  0x1adb	xor    	eax, eax
  0x1add	inc    	ecx
  0x1ade	lea    	edx, [eax + 2]
  0x1ae1	xor    	ecx, ecx
  === BLOCK LINK ===
    0x1ae3
=== CODE BLOCK END ===

=== CODE BLOCK ADDRESS 0x1ae3 ===
  0x1ae3	dec    	eax
  0x1ae4	mov    	eax, dword ptr [0x3b56]
  0x1aea	dec    	esp
  0x1aeb	mov    	ecx, dword ptr [0x18df]
  0x1af1	inc    	ecx
  === BLOCK LINK ===
    0x1af2
=== CODE BLOCK END ===

=== CODE BLOCK ADDRESS 0x1af2 ===
  0x1af2	call   	ecx
  === BLOCK LINK ===
    0x1af4
=== CODE BLOCK END ===

=== CODE BLOCK ADDRESS 0x1af4 ===
  0x1af4	dec    	esp
  0x1af5	mov    	eax, dword ptr [0x3575]
  0x1afb	dec    	eax
  0x1afc	mov    	edx, dword ptr [0x3566]
  0x1b02	mov    	ecx, dword ptr [0x3558]
  === BLOCK LINK ===
    0x1b08
=== CODE BLOCK END ===

=== CODE BLOCK ADDRESS 0x1b08 ===
  0x1b08	call   	0x16b8
  === BLOCK LINK ===
    0x1b0d
=== CODE BLOCK END ===

=== CODE BLOCK ADDRESS 0x1b0d ===
  0x1b0d	mov    	dword ptr [0x3541], eax
  0x1b13	cmp    	dword ptr [0x355e], 0
  0x1b1a	jne    	0x1b24
  === BLOCK LINK ===
    0x1b1c
=== CODE BLOCK END ===

=== CODE BLOCK ADDRESS 0x1b1c ===
  0x1b1c	mov    	ecx, eax
  0x1b1e	call   	dword ptr [0x1824]
  === BLOCK LINK ===
    0x1b24
=== CODE BLOCK END ===

=== CODE BLOCK ADDRESS 0x1b24 ===
  0x1b24	cmp    	dword ptr [0x352d], 0
  0x1b2b	jne    	0x1b39
  === BLOCK LINK ===
    0x1b2d
=== CODE BLOCK END ===

=== CODE BLOCK ADDRESS 0x1b2d ===
  0x1b2d	call   	dword ptr [0x1805]
  === BLOCK LINK ===
    0x1b33
=== CODE BLOCK END ===

=== CODE BLOCK ADDRESS 0x1b33 ===
  0x1b33	mov    	eax, dword ptr [0x351b]
  0x1b39	jmp    	0x1b68
  === BLOCK LINK ===
    0x1b3b
=== CODE BLOCK END ===

=== CODE BLOCK ADDRESS 0x1b3b ===
  0x1b3b	mov    	dword ptr [0x3513], eax
  0x1b41	cmp    	dword ptr [0x3530], 0
  0x1b48	jne    	0x1b53
  === BLOCK LINK ===
    0x1b4a
=== CODE BLOCK END ===

=== CODE BLOCK ADDRESS 0x1b4a ===
  0x1b4a	mov    	ecx, eax
  0x1b4c	call   	dword ptr [0x17ee]
  === BLOCK LINK ===
    0x1b52
=== CODE BLOCK END ===

=== CODE BLOCK ADDRESS 0x1b52 ===
  0x1b52	int3   	
  0x1b53	cmp    	dword ptr [0x34fe], 0
  0x1b5a	jne    	0x1b68
  === BLOCK LINK ===
    0x1b5c
=== CODE BLOCK END ===

=== CODE BLOCK ADDRESS 0x1b5c ===
  0x1b5c	call   	dword ptr [0x17d6]
  === BLOCK LINK ===
    0x1b62
=== CODE BLOCK END ===

=== CODE BLOCK ADDRESS 0x1b62 ===
  0x1b62	mov    	eax, dword ptr [0x34ec]
  0x1b68	dec    	eax
  0x1b69	mov    	ebx, dword ptr [esp + 0x40]
  0x1b6d	dec    	eax
  0x1b6e	mov    	esi, dword ptr [esp + 0x48]
  === BLOCK LINK ===
    0x1b72
=== CODE BLOCK END ===

=== CODE BLOCK ADDRESS 0x1b72 ===
  0x1b72	dec    	eax
  0x1b73	mov    	edi, dword ptr [esp + 0x50]
  0x1b77	dec    	eax
  0x1b78	add    	esp, 0x30
  0x1b7b	inc    	ecx
  === BLOCK LINK ===
    0x1b7c
=== CODE BLOCK END ===

=== CODE BLOCK ADDRESS 0x1b7c ===
  0x1b7c	pop    	edi
  0x1b7d	ret    	
  0x1b7e	int3   	
  0x1b7f	int3   	
  0x1b80	int3   	
  === BLOCK LINK ===
    0x1b81
=== CODE BLOCK END ===

=== CODE BLOCK ADDRESS 0x12eb ===
  0x12eb	dec    	eax
  0x12ec	add    	ecx, dword ptr [ebx + 0x10]
  0x12ef	dec    	eax
  === BLOCK LINK ===
    0x12f0
=== CODE BLOCK END ===

=== CODE BLOCK ADDRESS 0x1b81 ===
  0x1b81	int3   	
  0x1b82	int3   	
  0x1b83	int3   	
  0x1b84	int3   	
  0x1b85	int3   	
  === BLOCK LINK ===
    0x1b86
=== CODE BLOCK END ===

=== CODE BLOCK ADDRESS 0x1b86 ===
  0x1b86	int3   	
  0x1b87	int3   	
  0x1b88	int3   	
  0x1b89	int3   	
  0x1b8a	int3   	
  === BLOCK LINK ===
    0x1b8b
=== CODE BLOCK END ===

=== CODE BLOCK ADDRESS 0x1b8b ===
  0x1b8b	int3   	
  0x1b8c	int3   	
  0x1b8d	int3   	
  0x1b8e	int3   	
  0x1b8f	int3   	
  === BLOCK LINK ===
    0x1b90
=== CODE BLOCK END ===

=== CODE BLOCK ADDRESS 0x1b90 ===
  0x1b90	dec    	eax
  0x1b91	sub    	esp, 0x28
  0x1b94	call   	0x2094
  === BLOCK LINK ===
    0x1b99
=== CODE BLOCK END ===

=== CODE BLOCK ADDRESS 0x1b99 ===
  0x1b99	dec    	eax
  0x1b9a	add    	esp, 0x28
  0x1b9d	jmp    	0x19c0
  === BLOCK LINK ===
    0x1ba2
=== CODE BLOCK END ===

=== CODE BLOCK ADDRESS 0x1ba2 ===
  0x1ba2	int3   	
  0x1ba3	int3   	
  0x1ba4	int3   	
  0x1ba5	int3   	
  0x1ba6	int3   	
  === BLOCK LINK ===
    0x1ba7
=== CODE BLOCK END ===

=== CODE BLOCK ADDRESS 0x1ba7 ===
  0x1ba7	int3   	
  0x1ba8	jmp    	dword ptr [0x17e2]
  === BLOCK LINK ===
    0x1bae
=== CODE BLOCK END ===

=== CODE BLOCK ADDRESS 0x1bae ===
  0x1bae	int3   	
  0x1baf	int3   	
  0x1bb0	int3   	
  0x1bb1	int3   	
  0x1bb2	int3   	
  === BLOCK LINK ===
    0x1bb3
=== CODE BLOCK END ===

=== CODE BLOCK ADDRESS 0x1bb3 ===
  0x1bb3	int3   	
  0x1bb4	int3   	
  0x1bb5	int3   	
  0x1bb6	nop    	word ptr [eax + eax]
  0x1bc0	dec    	eax
  === BLOCK LINK ===
    0x1bc1
=== CODE BLOCK END ===

=== CODE BLOCK ADDRESS 0x1bc1 ===
  0x1bc1	cmp    	ecx, dword ptr [0x3461]
  0x1bc7	jne    	0x1bd9
  === BLOCK LINK ===
    0x1bc9
=== CODE BLOCK END ===

=== CODE BLOCK ADDRESS 0x1bc9 ===
  0x1bc9	dec    	eax
  0x1bca	rol    	ecx, 0x10
  0x1bcd	test   	cx, 0xffff
  0x1bd2	jne    	0x1bd5
  === BLOCK LINK ===
    0x1bd4
=== CODE BLOCK END ===

=== CODE BLOCK ADDRESS 0x1bd4 ===
  0x1bd4	ret    	
  0x1bd5	dec    	eax
  0x1bd6	ror    	ecx, 0x10
  0x1bd9	jmp    	0x1c20
  === BLOCK LINK ===
    0x1bde
=== CODE BLOCK END ===

=== CODE BLOCK ADDRESS 0x1bde ===
  0x1bde	int3   	
  0x1bdf	int3   	
  0x1be0	int3   	
  0x1be1	int3   	
  0x1be2	int3   	
  === BLOCK LINK ===
    0x1be3
=== CODE BLOCK END ===

=== CODE BLOCK ADDRESS 0x1be3 ===
  0x1be3	int3   	
  0x1be4	inc    	eax
  0x1be5	push   	ebx
  0x1be6	dec    	eax
  0x1be7	sub    	esp, 0x20
  === BLOCK LINK ===
    0x1bea
=== CODE BLOCK END ===

=== CODE BLOCK ADDRESS 0x1bea ===
  0x1bea	dec    	eax
  0x1beb	mov    	ebx, ecx
  0x1bed	xor    	ecx, ecx
  0x1bef	call   	dword ptr [0x1603]
  === BLOCK LINK ===
    0x1bf5
=== CODE BLOCK END ===

=== CODE BLOCK ADDRESS 0x1bf5 ===
  0x1bf5	dec    	eax
  0x1bf6	mov    	ecx, ebx
  0x1bf8	call   	dword ptr [0x15ea]
  === BLOCK LINK ===
    0x1bfe
=== CODE BLOCK END ===

=== CODE BLOCK ADDRESS 0x1bfe ===
  0x1bfe	call   	dword ptr [0x161c]
  === BLOCK LINK ===
    0x1c04
=== CODE BLOCK END ===

=== CODE BLOCK ADDRESS 0x1c04 ===
  0x1c04	dec    	eax
  0x1c05	mov    	ecx, eax
  0x1c07	mov    	edx, 0xc0000409
  0x1c0c	dec    	eax
  0x1c0d	add    	esp, 0x20
  === BLOCK LINK ===
    0x1c10
=== CODE BLOCK END ===

=== CODE BLOCK ADDRESS 0x1c10 ===
  0x1c10	pop    	ebx
  0x1c11	dec    	eax
  0x1c12	jmp    	dword ptr [0x1610]
  === BLOCK LINK ===
    0x1c18
=== CODE BLOCK END ===

=== CODE BLOCK ADDRESS 0x1c18 ===
  0x1c18	int3   	
  0x1c19	int3   	
  0x1c1a	int3   	
  0x1c1b	int3   	
  0x1c1c	int3   	
  === BLOCK LINK ===
    0x1c1d
=== CODE BLOCK END ===

=== CODE BLOCK ADDRESS 0x1c1d ===
  0x1c1d	int3   	
  0x1c1e	int3   	
  0x1c1f	int3   	
  0x1c20	dec    	eax
  0x1c21	mov    	dword ptr [esp + 8], ecx
  === BLOCK LINK ===
    0x1c25
=== CODE BLOCK END ===

=== CODE BLOCK ADDRESS 0x1c25 ===
  0x1c25	dec    	eax
  0x1c26	sub    	esp, 0x88
  0x1c2c	dec    	eax
  0x1c2d	lea    	ecx, [0x34ed]
  0x1c33	call   	dword ptr [0x176f]
  === BLOCK LINK ===
    0x1c39
=== CODE BLOCK END ===

=== CODE BLOCK ADDRESS 0x1c39 ===
  0x1c39	dec    	eax
  0x1c3a	mov    	eax, dword ptr [0x35d8]
  0x1c40	dec    	eax
  0x1c41	mov    	dword ptr [esp + 0x48], eax
  0x1c45	inc    	ebp
  === BLOCK LINK ===
    0x1c46
=== CODE BLOCK END ===

=== CODE BLOCK ADDRESS 0x1c46 ===
  0x1c46	xor    	eax, eax
  0x1c48	dec    	eax
  0x1c49	lea    	edx, [esp + 0x50]
  0x1c4d	dec    	eax
  0x1c4e	mov    	ecx, dword ptr [esp + 0x48]
  === BLOCK LINK ===
    0x1c52
=== CODE BLOCK END ===

=== CODE BLOCK ADDRESS 0x1c52 ===
  0x1c52	call   	dword ptr [0x1758]
  === BLOCK LINK ===
    0x1c58
=== CODE BLOCK END ===

=== CODE BLOCK ADDRESS 0x1c58 ===
  0x1c58	dec    	eax
  0x1c59	mov    	dword ptr [esp + 0x40], eax
  0x1c5d	dec    	eax
  0x1c5e	cmp    	dword ptr [esp + 0x40], 0
  0x1c63	je     	0x1ca7
  === BLOCK LINK ===
    0x1c65
=== CODE BLOCK END ===

=== CODE BLOCK ADDRESS 0x1c65 ===
  0x1c65	dec    	eax
  0x1c66	mov    	dword ptr [esp + 0x38], 0
  0x1c6e	dec    	eax
  0x1c6f	lea    	eax, [esp + 0x58]
  0x1c73	dec    	eax
  === BLOCK LINK ===
    0x1c74
=== CODE BLOCK END ===

=== CODE BLOCK ADDRESS 0x1c74 ===
  0x1c74	mov    	dword ptr [esp + 0x30], eax
  0x1c78	dec    	eax
  0x1c79	lea    	eax, [esp + 0x60]
  0x1c7d	dec    	eax
  0x1c7e	mov    	dword ptr [esp + 0x28], eax
  === BLOCK LINK ===
    0x1c82
=== CODE BLOCK END ===

=== CODE BLOCK ADDRESS 0x1c82 ===
  0x1c82	dec    	eax
  0x1c83	lea    	eax, [0x3497]
  0x1c89	dec    	eax
  0x1c8a	mov    	dword ptr [esp + 0x20], eax
  0x1c8e	dec    	esp
  === BLOCK LINK ===
    0x1c8f
=== CODE BLOCK END ===

=== CODE BLOCK ADDRESS 0x1c8f ===
  0x1c8f	mov    	ecx, dword ptr [esp + 0x40]
  0x1c93	dec    	esp
  0x1c94	mov    	eax, dword ptr [esp + 0x48]
  0x1c98	dec    	eax
  0x1c99	mov    	edx, dword ptr [esp + 0x50]
  === BLOCK LINK ===
    0x1c9d
=== CODE BLOCK END ===

=== CODE BLOCK ADDRESS 0x1c9d ===
  0x1c9d	xor    	ecx, ecx
  0x1c9f	call   	dword ptr [0x1713]
  === BLOCK LINK ===
    0x1ca5
=== CODE BLOCK END ===

=== CODE BLOCK ADDRESS 0x1ca5 ===
  0x1ca5	jmp    	0x1cca
  === BLOCK LINK ===
    0x1ca7
=== CODE BLOCK END ===

=== CODE BLOCK ADDRESS 0x1ca7 ===
  0x1ca7	dec    	eax
  0x1ca8	mov    	eax, dword ptr [0x350a]
  0x1cae	dec    	eax
  0x1caf	mov    	eax, dword ptr [eax]
  0x1cb1	dec    	eax
  === BLOCK LINK ===
    0x1cb2
=== CODE BLOCK END ===

=== CODE BLOCK ADDRESS 0x1cb2 ===
  0x1cb2	mov    	dword ptr [0x3560], eax
  0x1cb8	dec    	eax
  0x1cb9	mov    	eax, dword ptr [0x34f9]
  0x1cbf	dec    	eax
  0x1cc0	add    	eax, 8
  === BLOCK LINK ===
    0x1cc3
=== CODE BLOCK END ===

=== CODE BLOCK ADDRESS 0x1cc3 ===
  0x1cc3	dec    	eax
  0x1cc4	mov    	dword ptr [0x34ee], eax
  0x1cca	dec    	eax
  0x1ccb	mov    	eax, dword ptr [0x3547]
  0x1cd1	dec    	eax
  === BLOCK LINK ===
    0x1cd2
=== CODE BLOCK END ===

=== CODE BLOCK ADDRESS 0x1cd2 ===
  0x1cd2	mov    	dword ptr [0x33b8], eax
  0x1cd8	dec    	eax
  0x1cd9	mov    	eax, dword ptr [esp + 0x90]
  0x1ce0	dec    	eax
  0x1ce1	mov    	dword ptr [0x34b9], eax
  === BLOCK LINK ===
    0x1ce7
=== CODE BLOCK END ===

=== CODE BLOCK ADDRESS 0x1ce7 ===
  0x1ce7	mov    	dword ptr [0x338f], 0xc0000409
  0x1cf1	mov    	dword ptr [0x3389], 1
  0x1cfb	mov    	dword ptr [0x3393], 3
  0x1d05	mov    	eax, 8
  0x1d0a	dec    	eax
  === BLOCK LINK ===
    0x1d0b
=== CODE BLOCK END ===

=== CODE BLOCK ADDRESS 0x1d0b ===
  0x1d0b	imul   	eax, eax, 0
  0x1d0e	dec    	eax
  0x1d0f	lea    	ecx, [0x338b]
  0x1d15	dec    	eax
  0x1d16	mov    	dword ptr [ecx + eax], 2
  === BLOCK LINK ===
    0x1d1d
=== CODE BLOCK END ===

=== CODE BLOCK ADDRESS 0x1d1d ===
  0x1d1d	mov    	eax, 8
  0x1d22	dec    	eax
  0x1d23	imul   	eax, eax, 1
  0x1d26	dec    	eax
  0x1d27	lea    	ecx, [0x3373]
  === BLOCK LINK ===
    0x1d2d
=== CODE BLOCK END ===

=== CODE BLOCK ADDRESS 0x1d2d ===
  0x1d2d	dec    	eax
  0x1d2e	mov    	edx, dword ptr [0x32f4]
  0x1d34	dec    	eax
  0x1d35	mov    	dword ptr [ecx + eax], edx
  0x1d38	mov    	eax, 8
  === BLOCK LINK ===
    0x1d3d
=== CODE BLOCK END ===

=== CODE BLOCK ADDRESS 0x1d3d ===
  0x1d3d	dec    	eax
  0x1d3e	imul   	eax, eax, 2
  0x1d41	dec    	eax
  0x1d42	lea    	ecx, [0x3358]
  0x1d48	dec    	eax
  === BLOCK LINK ===
    0x1d49
=== CODE BLOCK END ===

=== CODE BLOCK ADDRESS 0x1d49 ===
  0x1d49	mov    	edx, dword ptr [0x32e1]
  0x1d4f	dec    	eax
  0x1d50	mov    	dword ptr [ecx + eax], edx
  0x1d53	mov    	eax, 8
  0x1d58	dec    	eax
  === BLOCK LINK ===
    0x1d59
=== CODE BLOCK END ===

=== CODE BLOCK ADDRESS 0x1d59 ===
  0x1d59	imul   	eax, eax, 0
  0x1d5c	dec    	eax
  0x1d5d	mov    	ecx, dword ptr [0x32c5]
  0x1d63	dec    	eax
  0x1d64	mov    	dword ptr [esp + eax + 0x68], ecx
  === BLOCK LINK ===
    0x1d68
=== CODE BLOCK END ===

=== CODE BLOCK ADDRESS 0x1d68 ===
  0x1d68	mov    	eax, 8
  0x1d6d	dec    	eax
  0x1d6e	imul   	eax, eax, 1
  0x1d71	dec    	eax
  0x1d72	mov    	ecx, dword ptr [0x32b8]
  === BLOCK LINK ===
    0x1d78
=== CODE BLOCK END ===

=== CODE BLOCK ADDRESS 0x1d78 ===
  0x1d78	dec    	eax
  0x1d79	mov    	dword ptr [esp + eax + 0x68], ecx
  0x1d7d	dec    	eax
  0x1d7e	lea    	ecx, [0x127c]
  0x1d84	call   	0x1be4
  === BLOCK LINK ===
    0x1d89
=== CODE BLOCK END ===

=== CODE BLOCK ADDRESS 0x1d89 ===
  0x1d89	dec    	eax
  0x1d8a	add    	esp, 0x88
  0x1d90	ret    	
  0x1d91	int3   	
  0x1d92	int3   	
  === BLOCK LINK ===
    0x1d93
=== CODE BLOCK END ===

=== CODE BLOCK ADDRESS 0x1d93 ===
  0x1d93	int3   	
  0x1d94	int3   	
  0x1d95	int3   	
  0x1d96	int3   	
  0x1d97	int3   	
  === BLOCK LINK ===
    0x1d98
=== CODE BLOCK END ===

=== CODE BLOCK ADDRESS 0x1d98 ===
  0x1d98	inc    	eax
  0x1d99	push   	ebx
  0x1d9a	dec    	eax
  0x1d9b	sub    	esp, 0x20
  0x1d9e	dec    	eax
  === BLOCK LINK ===
    0x1d9f
=== CODE BLOCK END ===

=== CODE BLOCK ADDRESS 0x1d9f ===
  0x1d9f	mov    	ebx, ecx
  0x1da1	dec    	eax
  0x1da2	mov    	eax, dword ptr [0x3890]
  0x1da8	dec    	eax
  0x1da9	mov    	dword ptr [esp + 0x38], eax
  === BLOCK LINK ===
    0x1dad
=== CODE BLOCK END ===

=== CODE BLOCK ADDRESS 0x1dad ===
  0x1dad	dec    	eax
  0x1dae	cmp    	eax, -1
  0x1db1	jne    	0x1dc6
  === BLOCK LINK ===
    0x1db3
=== CODE BLOCK END ===

=== CODE BLOCK ADDRESS 0x1db3 ===
  0x1db3	dec    	eax
  0x1db4	mov    	eax, dword ptr [0x152e]
  0x1dba	call   	dword ptr [0x1610]
  === BLOCK LINK ===
    0x1dc0
=== CODE BLOCK END ===

=== CODE BLOCK ADDRESS 0x1dc0 ===
  0x1dc0	dec    	eax
  0x1dc1	add    	esp, 0x20
  0x1dc4	pop    	ebx
  0x1dc5	ret    	
  0x1dc6	mov    	ecx, 8
  === BLOCK LINK ===
    0x1dcb
=== CODE BLOCK END ===

=== CODE BLOCK ADDRESS 0x1302 ===
  0x1302	dec    	eax
  0x1303	sub    	esi, eax
  0x1305	dec    	esp
  === BLOCK LINK ===
    0x1306
=== CODE BLOCK END ===

=== CODE BLOCK ADDRESS 0x1dcb ===
  0x1dcb	call   	0x2199
  === BLOCK LINK ===
    0x1dd0
=== CODE BLOCK END ===

=== CODE BLOCK ADDRESS 0x1dd0 ===
  0x1dd0	nop    	
  0x1dd1	dec    	eax
  0x1dd2	mov    	eax, dword ptr [0x3860]
  0x1dd8	dec    	eax
  0x1dd9	mov    	dword ptr [esp + 0x38], eax
  === BLOCK LINK ===
    0x1ddd
=== CODE BLOCK END ===

=== CODE BLOCK ADDRESS 0x1ddd ===
  0x1ddd	dec    	eax
  0x1dde	mov    	eax, dword ptr [0x384c]
  0x1de4	dec    	eax
  0x1de5	mov    	dword ptr [esp + 0x40], eax
  0x1de9	dec    	esp
  === BLOCK LINK ===
    0x1dea
=== CODE BLOCK END ===

=== CODE BLOCK ADDRESS 0x1dea ===
  0x1dea	lea    	eax, [esp + 0x40]
  0x1dee	dec    	eax
  0x1def	lea    	edx, [esp + 0x38]
  0x1df3	dec    	eax
  0x1df4	mov    	ecx, ebx
  === BLOCK LINK ===
    0x1df6
=== CODE BLOCK END ===

=== CODE BLOCK ADDRESS 0x1df6 ===
  0x1df6	call   	0x21b1
  === BLOCK LINK ===
    0x1dfb
=== CODE BLOCK END ===

=== CODE BLOCK ADDRESS 0x1dfb ===
  0x1dfb	dec    	eax
  0x1dfc	mov    	ebx, eax
  0x1dfe	dec    	eax
  0x1dff	mov    	edx, dword ptr [esp + 0x38]
  0x1e03	dec    	eax
  === BLOCK LINK ===
    0x1e04
=== CODE BLOCK END ===

=== CODE BLOCK ADDRESS 0x1e04 ===
  0x1e04	mov    	dword ptr [0x382e], edx
  0x1e0a	dec    	eax
  0x1e0b	mov    	edx, dword ptr [esp + 0x40]
  0x1e0f	dec    	eax
  0x1e10	mov    	dword ptr [0x381a], edx
  === BLOCK LINK ===
    0x1e16
=== CODE BLOCK END ===

=== CODE BLOCK ADDRESS 0x1e16 ===
  0x1e16	mov    	ecx, 8
  0x1e1b	call   	0x21a5
  === BLOCK LINK ===
    0x1e20
=== CODE BLOCK END ===

=== CODE BLOCK ADDRESS 0x1e20 ===
  0x1e20	dec    	eax
  0x1e21	mov    	eax, ebx
  0x1e23	jmp    	0x1dc0
  === BLOCK LINK ===
    0x1e25
=== CODE BLOCK END ===

=== CODE BLOCK ADDRESS 0x1e25 ===
  0x1e25	int3   	
  0x1e26	int3   	
  0x1e27	int3   	
  0x1e28	int3   	
  0x1e29	int3   	
  === BLOCK LINK ===
    0x1e2a
=== CODE BLOCK END ===

=== CODE BLOCK ADDRESS 0x1e2a ===
  0x1e2a	int3   	
  0x1e2b	int3   	
  0x1e2c	dec    	eax
  0x1e2d	sub    	esp, 0x28
  0x1e30	call   	0x1d98
  === BLOCK LINK ===
    0x1e35
=== CODE BLOCK END ===

=== CODE BLOCK ADDRESS 0x1e35 ===
  0x1e35	dec    	eax
  0x1e36	neg    	eax
  0x1e38	sbb    	eax, eax
  0x1e3a	neg    	eax
  0x1e3c	dec    	eax
  === BLOCK LINK ===
    0x1e3e
=== CODE BLOCK END ===

=== CODE BLOCK ADDRESS 0x1e3e ===
  0x1e3e	dec    	eax
  0x1e3f	add    	esp, 0x28
  0x1e42	ret    	
  0x1e43	int3   	
  0x1e44	int3   	
  === BLOCK LINK ===
    0x1e45
=== CODE BLOCK END ===

=== CODE BLOCK ADDRESS 0x1e45 ===
  0x1e45	int3   	
  0x1e46	int3   	
  0x1e47	int3   	
  0x1e48	int3   	
  0x1e49	int3   	
  === BLOCK LINK ===
    0x1e4a
=== CODE BLOCK END ===

=== CODE BLOCK ADDRESS 0x1e4a ===
  0x1e4a	int3   	
  0x1e4b	int3   	
  0x1e4c	int3   	
  0x1e4d	int3   	
  0x1e4e	int3   	
  === BLOCK LINK ===
    0x1e4f
=== CODE BLOCK END ===

=== CODE BLOCK ADDRESS 0x1e4f ===
  0x1e4f	int3   	
  0x1e50	jmp    	dword ptr [0x152a]
  === BLOCK LINK ===
    0x1e56
=== CODE BLOCK END ===

=== CODE BLOCK ADDRESS 0x1e56 ===
  0x1e56	int3   	
  0x1e57	int3   	
  0x1e58	int3   	
  0x1e59	int3   	
  0x1e5a	int3   	
  === BLOCK LINK ===
    0x1e5b
=== CODE BLOCK END ===

=== CODE BLOCK ADDRESS 0x1e5b ===
  0x1e5b	int3   	
  0x1e5c	jmp    	dword ptr [0x1516]
  === BLOCK LINK ===
    0x1e62
=== CODE BLOCK END ===

=== CODE BLOCK ADDRESS 0x1e62 ===
  0x1e62	int3   	
  0x1e63	int3   	
  0x1e64	int3   	
  0x1e65	int3   	
  0x1e66	int3   	
  === BLOCK LINK ===
    0x1e67
=== CODE BLOCK END ===

=== CODE BLOCK ADDRESS 0x1e67 ===
  0x1e67	int3   	
  0x1e68	jmp    	dword ptr [0x1502]
  === BLOCK LINK ===
    0x1e6e
=== CODE BLOCK END ===

=== CODE BLOCK ADDRESS 0x1e6e ===
  0x1e6e	int3   	
  0x1e6f	int3   	
  0x1e70	int3   	
  0x1e71	int3   	
  0x1e72	int3   	
  === BLOCK LINK ===
    0x1e73
=== CODE BLOCK END ===

=== CODE BLOCK ADDRESS 0x1e73 ===
  0x1e73	int3   	
  0x1e74	int3   	
  0x1e75	int3   	
  0x1e76	int3   	
  0x1e77	int3   	
  === BLOCK LINK ===
    0x1e78
=== CODE BLOCK END ===

=== CODE BLOCK ADDRESS 0x1e78 ===
  0x1e78	int3   	
  0x1e79	int3   	
  0x1e7a	int3   	
  0x1e7b	int3   	
  0x1e7c	int3   	
  === BLOCK LINK ===
    0x1e7d
=== CODE BLOCK END ===

=== CODE BLOCK ADDRESS 0x1e7d ===
  0x1e7d	int3   	
  0x1e7e	int3   	
  0x1e7f	int3   	
  0x1e80	dec    	eax
  0x1e81	sub    	esp, 0x28
  === BLOCK LINK ===
    0x1e84
=== CODE BLOCK END ===

=== CODE BLOCK ADDRESS 0x1e84 ===
  0x1e84	dec    	eax
  0x1e85	mov    	eax, dword ptr [ecx]
  0x1e87	cmp    	dword ptr [eax], 0xe06d7363
  0x1e8d	jne    	0x1eb2
  === BLOCK LINK ===
    0x1e8f
=== CODE BLOCK END ===

=== CODE BLOCK ADDRESS 0x1e8f ===
  0x1e8f	cmp    	dword ptr [eax + 0x18], 4
  0x1e93	jne    	0x1eb2
  === BLOCK LINK ===
    0x1e95
=== CODE BLOCK END ===

=== CODE BLOCK ADDRESS 0x1e95 ===
  0x1e95	mov    	ecx, dword ptr [eax + 0x20]
  0x1e98	lea    	eax, [ecx - 0x19930520]
  0x1e9e	cmp    	eax, 2
  0x1ea1	jbe    	0x1eab
  === BLOCK LINK ===
    0x1ea3
=== CODE BLOCK END ===

=== CODE BLOCK ADDRESS 0x1ea3 ===
  0x1ea3	cmp    	ecx, 0x1994000
  0x1ea9	jne    	0x1eb2
  === BLOCK LINK ===
    0x1eab
=== CODE BLOCK END ===

=== CODE BLOCK ADDRESS 0x1eab ===
  0x1eab	call   	dword ptr [0x1457]
  === BLOCK LINK ===
    0x1eb1
=== CODE BLOCK END ===

=== CODE BLOCK ADDRESS 0x1eb1 ===
  0x1eb1	int3   	
  0x1eb2	xor    	eax, eax
  0x1eb4	dec    	eax
  0x1eb5	add    	esp, 0x28
  0x1eb8	ret    	
  === BLOCK LINK ===
    0x1eb9
=== CODE BLOCK END ===

=== CODE BLOCK ADDRESS 0x1384 ===
  0x1384	dec    	eax
  0x1385	mov    	esi, dword ptr [esp + 0x38]
  === BLOCK LINK ===
    0x1389
=== CODE BLOCK END ===

=== CODE BLOCK ADDRESS 0x1eb9 ===
  0x1eb9	int3   	
  0x1eba	int3   	
  0x1ebb	int3   	
  0x1ebc	int3   	
  0x1ebd	int3   	
  === BLOCK LINK ===
    0x1ebe
=== CODE BLOCK END ===

=== CODE BLOCK ADDRESS 0x1ebe ===
  0x1ebe	int3   	
  0x1ebf	int3   	
  0x1ec0	dec    	eax
  0x1ec1	sub    	esp, 0x28
  0x1ec4	dec    	eax
  === BLOCK LINK ===
    0x1ec5
=== CODE BLOCK END ===

=== CODE BLOCK ADDRESS 0x1ec5 ===
  0x1ec5	lea    	ecx, [0xffffffb5]
  0x1ecb	call   	dword ptr [0x1327]
  === BLOCK LINK ===
    0x1ed1
=== CODE BLOCK END ===

=== CODE BLOCK ADDRESS 0x1ed1 ===
  0x1ed1	xor    	eax, eax
  0x1ed3	dec    	eax
  0x1ed4	add    	esp, 0x28
  0x1ed7	ret    	
  0x1ed8	int3   	
  === BLOCK LINK ===
    0x1ed9
=== CODE BLOCK END ===

=== CODE BLOCK ADDRESS 0x1398 ===
=== CODE BLOCK END ===

=== CODE BLOCK ADDRESS 0x1ed9 ===
  0x1ed9	int3   	
  0x1eda	int3   	
  0x1edb	int3   	
  0x1edc	int3   	
  0x1edd	int3   	
  === BLOCK LINK ===
    0x1ede
=== CODE BLOCK END ===

=== CODE BLOCK ADDRESS 0x1ede ===
  0x1ede	jmp    	dword ptr [0x1484]
  === BLOCK LINK ===
    0x1ee4
=== CODE BLOCK END ===

=== CODE BLOCK ADDRESS 0x1ee4 ===
  0x1ee4	int3   	
  0x1ee5	int3   	
  0x1ee6	int3   	
  0x1ee7	int3   	
  0x1ee8	int3   	
  === BLOCK LINK ===
    0x1ee9
=== CODE BLOCK END ===

=== CODE BLOCK ADDRESS 0x1ee9 ===
  0x1ee9	int3   	
  0x1eea	int3   	
  0x1eeb	int3   	
  0x1eec	dec    	eax
  0x1eed	sub    	esp, 0x18
  === BLOCK LINK ===
    0x1ef0
=== CODE BLOCK END ===

=== CODE BLOCK ADDRESS 0x1ef0 ===
  0x1ef0	xor    	edx, edx
  0x1ef2	dec    	eax
  0x1ef3	lea    	eax, [ecx - 1]
  0x1ef6	dec    	eax
  0x1ef7	cmp    	eax, -3
  === BLOCK LINK ===
    0x1efa
=== CODE BLOCK END ===

=== CODE BLOCK ADDRESS 0x1efa ===
  0x1efa	ja     	0x1f38
  === BLOCK LINK ===
    0x1efc
=== CODE BLOCK END ===

=== CODE BLOCK ADDRESS 0x1efc ===
  0x1efc	mov    	eax, 0x5a4d
  0x1f01	cmp    	word ptr [ecx], ax
  0x1f04	jne    	0x1f30
  === BLOCK LINK ===
    0x1f06
=== CODE BLOCK END ===

=== CODE BLOCK ADDRESS 0x1f06 ===
  0x1f06	cmp    	dword ptr [ecx + 0x3c], edx
  0x1f09	jl     	0x1f30
  === BLOCK LINK ===
    0x1f0b
=== CODE BLOCK END ===

=== CODE BLOCK ADDRESS 0x1f0b ===
  0x1f0b	cmp    	dword ptr [ecx + 0x3c], 0x10000000
  0x1f12	jae    	0x1f30
  === BLOCK LINK ===
    0x1f14
=== CODE BLOCK END ===

=== CODE BLOCK ADDRESS 0x1f14 ===
  0x1f14	dec    	eax
  0x1f15	arpl   	word ptr [ecx + 0x3c], ax
  0x1f18	dec    	eax
  0x1f19	add    	eax, ecx
  0x1f1b	dec    	eax
  === BLOCK LINK ===
    0x1f1c
=== CODE BLOCK END ===

=== CODE BLOCK ADDRESS 0x1f1c ===
  0x1f1c	mov    	dword ptr [esp], eax
  0x1f1f	cmp    	dword ptr [eax], 0x4550
  0x1f25	dec    	eax
  0x1f26	cmovne  	eax, edx
  0x1f29	dec    	eax
  === BLOCK LINK ===
    0x1f2a
=== CODE BLOCK END ===

=== CODE BLOCK ADDRESS 0x1f2a ===
  0x1f2a	mov    	edx, eax
  0x1f2c	dec    	eax
  0x1f2d	mov    	dword ptr [esp], eax
  0x1f30	jmp    	0x1f38
  === BLOCK LINK ===
    0x1f32
=== CODE BLOCK END ===

=== CODE BLOCK ADDRESS 0x1f32 ===
  0x1f32	xor    	edx, edx
  0x1f34	dec    	eax
  0x1f35	mov    	dword ptr [esp], edx
  0x1f38	dec    	eax
  0x1f39	mov    	eax, edx
  === BLOCK LINK ===
    0x1f3b
=== CODE BLOCK END ===

=== CODE BLOCK ADDRESS 0x1f3b ===
  0x1f3b	dec    	eax
  0x1f3c	add    	esp, 0x18
  0x1f3f	ret    	
  0x1f40	int3   	
  0x1f41	int3   	
  === BLOCK LINK ===
    0x1f42
=== CODE BLOCK END ===

=== CODE BLOCK ADDRESS 0x1f42 ===
  0x1f42	int3   	
  0x1f43	int3   	
  0x1f44	int3   	
  0x1f45	int3   	
  0x1f46	int3   	
  === BLOCK LINK ===
    0x1f47
=== CODE BLOCK END ===

=== CODE BLOCK ADDRESS 0x1f47 ===
  0x1f47	int3   	
  0x1f48	inc    	eax
  0x1f49	push   	ebx
  0x1f4a	dec    	eax
  0x1f4b	sub    	esp, 0x20
  === BLOCK LINK ===
    0x1f4e
=== CODE BLOCK END ===

=== CODE BLOCK ADDRESS 0x1f4e ===
  0x1f4e	mov    	ebx, ecx
  0x1f50	xor    	ecx, ecx
  0x1f52	call   	dword ptr [0x12b0]
  === BLOCK LINK ===
    0x1f58
=== CODE BLOCK END ===

=== CODE BLOCK ADDRESS 0x1f58 ===
  0x1f58	dec    	eax
  0x1f59	test   	eax, eax
  0x1f5b	je     	0x1f85
  === BLOCK LINK ===
    0x1f5d
=== CODE BLOCK END ===

=== CODE BLOCK ADDRESS 0x1f5d ===
  0x1f5d	dec    	eax
  0x1f5e	mov    	ecx, eax
  0x1f60	call   	0x1eec
  === BLOCK LINK ===
    0x1f65
=== CODE BLOCK END ===

=== CODE BLOCK ADDRESS 0x1f65 ===
  0x1f65	dec    	eax
  0x1f66	test   	eax, eax
  0x1f68	je     	0x1f85
  === BLOCK LINK ===
    0x1f6a
=== CODE BLOCK END ===

=== CODE BLOCK ADDRESS 0x1f6a ===
  0x1f6a	mov    	ecx, 2
  0x1f6f	cmp    	word ptr [eax + 0x5c], cx
  0x1f73	jne    	0x1f79
  === BLOCK LINK ===
    0x1f75
=== CODE BLOCK END ===

=== CODE BLOCK ADDRESS 0x1f75 ===
  0x1f75	mov    	eax, ecx
  0x1f77	jmp    	0x1f87
  === BLOCK LINK ===
    0x1f79
=== CODE BLOCK END ===

=== CODE BLOCK ADDRESS 0x1f79 ===
  0x1f79	cmp    	word ptr [eax + 0x5c], 3
  0x1f7e	mov    	eax, 1
  0x1f83	je     	0x1f87
  === BLOCK LINK ===
    0x1f85
=== CODE BLOCK END ===

=== CODE BLOCK ADDRESS 0x1f85 ===
  0x1f85	mov    	eax, ebx
  0x1f87	dec    	eax
  0x1f88	add    	esp, 0x20
  0x1f8b	pop    	ebx
  0x1f8c	ret    	
  === BLOCK LINK ===
    0x1f8d
=== CODE BLOCK END ===

=== CODE BLOCK ADDRESS 0x1f8d ===
  0x1f8d	int3   	
  0x1f8e	int3   	
  0x1f8f	int3   	
  0x1f90	int3   	
  0x1f91	int3   	
  === BLOCK LINK ===
    0x1f92
=== CODE BLOCK END ===

=== CODE BLOCK ADDRESS 0x1f92 ===
  0x1f92	int3   	
  0x1f93	jmp    	dword ptr [0x13c7]
  === BLOCK LINK ===
    0x1f99
=== CODE BLOCK END ===

=== CODE BLOCK ADDRESS 0x1f99 ===
  0x1f99	int3   	
  0x1f9a	int3   	
  0x1f9b	int3   	
  0x1f9c	int3   	
  0x1f9d	int3   	
  === BLOCK LINK ===
    0x1f9e
=== CODE BLOCK END ===

=== CODE BLOCK ADDRESS 0x1f9e ===
  0x1f9e	int3   	
  0x1f9f	int3   	
  0x1fa0	xor    	eax, eax
  0x1fa2	ret    	
  0x1fa3	int3   	
  === BLOCK LINK ===
    0x1fa4
=== CODE BLOCK END ===

=== CODE BLOCK ADDRESS 0x134e ===
  0x134e	dec    	eax
  0x134f	test   	edi, edi
  === BLOCK LINK ===
    0x1351
=== CODE BLOCK END ===

=== CODE BLOCK ADDRESS 0x1fa4 ===
  0x1fa4	int3   	
  0x1fa5	int3   	
  0x1fa6	int3   	
  0x1fa7	int3   	
  0x1fa8	int3   	
  === BLOCK LINK ===
    0x1fa9
=== CODE BLOCK END ===

=== CODE BLOCK ADDRESS 0x1fa9 ===
  0x1fa9	int3   	
  0x1faa	int3   	
  0x1fab	int3   	
  0x1fac	int3   	
  0x1fad	int3   	
  === BLOCK LINK ===
    0x1fae
=== CODE BLOCK END ===

=== CODE BLOCK ADDRESS 0x1fae ===
  0x1fae	int3   	
  0x1faf	int3   	
  0x1fb0	dec    	esp
  0x1fb1	arpl   	word ptr [ecx + 0x3c], ax
  0x1fb4	inc    	ebp
  === BLOCK LINK ===
    0x1fb5
=== CODE BLOCK END ===

=== CODE BLOCK ADDRESS 0x1fb5 ===
  0x1fb5	xor    	ecx, ecx
  0x1fb7	dec    	esp
  0x1fb8	add    	eax, ecx
  0x1fba	dec    	esp
  0x1fbb	mov    	edx, edx
  === BLOCK LINK ===
    0x1fbd
=== CODE BLOCK END ===

=== CODE BLOCK ADDRESS 0x1fbd ===
  0x1fbd	inc    	ecx
  0x1fbe	movzx  	eax, word ptr [eax + 0x14]
  0x1fc2	inc    	ebp
  0x1fc3	movzx  	ebx, word ptr [eax + 6]
  0x1fc7	dec    	eax
  === BLOCK LINK ===
    0x1fc8
=== CODE BLOCK END ===

=== CODE BLOCK ADDRESS 0x1fc8 ===
  0x1fc8	add    	eax, 0x18
  0x1fcb	dec    	ecx
  0x1fcc	add    	eax, eax
  0x1fce	inc    	ebp
  0x1fcf	test   	ebx, ebx
  === BLOCK LINK ===
    0x1fd1
=== CODE BLOCK END ===

=== CODE BLOCK ADDRESS 0x1fd1 ===
  0x1fd1	je     	0x1ff1
  === BLOCK LINK ===
    0x1fd3
=== CODE BLOCK END ===

=== CODE BLOCK ADDRESS 0x1fd3 ===
  0x1fd3	mov    	edx, dword ptr [eax + 0xc]
  0x1fd6	dec    	esp
  0x1fd7	cmp    	edx, edx
  0x1fd9	jb     	0x1fe5
  === BLOCK LINK ===
    0x1fdb
=== CODE BLOCK END ===

=== CODE BLOCK ADDRESS 0x1fdb ===
  0x1fdb	mov    	ecx, dword ptr [eax + 8]
  0x1fde	add    	ecx, edx
  0x1fe0	dec    	esp
  0x1fe1	cmp    	edx, ecx
  0x1fe3	jb     	0x1ff3
  === BLOCK LINK ===
    0x1fe5
=== CODE BLOCK END ===

=== CODE BLOCK ADDRESS 0x1fe5 ===
  0x1fe5	inc    	ecx
  0x1fe6	inc    	ecx
  0x1fe8	dec    	eax
  0x1fe9	add    	eax, 0x28
  0x1fec	inc    	ebp
  === BLOCK LINK ===
    0x1fed
=== CODE BLOCK END ===

=== CODE BLOCK ADDRESS 0x1fed ===
  0x1fed	cmp    	ecx, ebx
  0x1fef	jb     	0x1fd3
  === BLOCK LINK ===
    0x1ff1
=== CODE BLOCK END ===

=== CODE BLOCK ADDRESS 0x1ff1 ===
  0x1ff1	xor    	eax, eax
  0x1ff3	ret    	
  0x1ff4	int3   	
  0x1ff5	int3   	
  0x1ff6	int3   	
  === BLOCK LINK ===
    0x1ff7
=== CODE BLOCK END ===

=== CODE BLOCK ADDRESS 0x1ff7 ===
  0x1ff7	int3   	
  0x1ff8	int3   	
  0x1ff9	int3   	
  0x1ffa	int3   	
  0x1ffb	int3   	
  === BLOCK LINK ===
    0x1ffc
=== CODE BLOCK END ===

=== CODE BLOCK ADDRESS 0x1ffc ===
  0x1ffc	int3   	
  0x1ffd	int3   	
  0x1ffe	int3   	
  0x1fff	int3   	
  0x2000	dec    	eax
  === BLOCK LINK ===
    0x2001
=== CODE BLOCK END ===

=== CODE BLOCK ADDRESS 0x2001 ===
  0x2001	mov    	dword ptr [esp + 8], ebx
  0x2005	push   	edi
  0x2006	dec    	eax
  0x2007	sub    	esp, 0x20
  0x200a	dec    	eax
  === BLOCK LINK ===
    0x200b
=== CODE BLOCK END ===

=== CODE BLOCK ADDRESS 0x200b ===
  0x200b	mov    	ebx, ecx
  0x200d	dec    	eax
  0x200e	lea    	edi, [0xffffdfec]
  0x2014	dec    	eax
  0x2015	mov    	ecx, edi
  === BLOCK LINK ===
    0x2017
=== CODE BLOCK END ===

=== CODE BLOCK ADDRESS 0x2017 ===
  0x2017	call   	0x2060
  === BLOCK LINK ===
    0x201c
=== CODE BLOCK END ===

=== CODE BLOCK ADDRESS 0x201c ===
  0x201c	test   	eax, eax
  0x201e	je     	0x2042
  === BLOCK LINK ===
    0x2020
=== CODE BLOCK END ===

=== CODE BLOCK ADDRESS 0x2020 ===
  0x2020	dec    	eax
  0x2021	sub    	ebx, edi
  0x2023	dec    	eax
  0x2024	mov    	edx, ebx
  0x2026	dec    	eax
  === BLOCK LINK ===
    0x2027
=== CODE BLOCK END ===

=== CODE BLOCK ADDRESS 0x2027 ===
  0x2027	mov    	ecx, edi
  0x2029	call   	0x1fb0
  === BLOCK LINK ===
    0x202e
=== CODE BLOCK END ===

=== CODE BLOCK ADDRESS 0x202e ===
  0x202e	dec    	eax
  0x202f	test   	eax, eax
  0x2031	je     	0x2042
  === BLOCK LINK ===
    0x2033
=== CODE BLOCK END ===

=== CODE BLOCK ADDRESS 0x2033 ===
  0x2033	mov    	eax, dword ptr [eax + 0x24]
  0x2036	shr    	eax, 0x1f
  0x2039	not    	eax
  0x203b	and    	eax, 1
  0x203e	jmp    	0x2042
  === BLOCK LINK ===
    0x2040
=== CODE BLOCK END ===

=== CODE BLOCK ADDRESS 0x2040 ===
  0x2040	xor    	eax, eax
  0x2042	dec    	eax
  0x2043	mov    	ebx, dword ptr [esp + 0x30]
  0x2047	dec    	eax
  0x2048	add    	esp, 0x20
  === BLOCK LINK ===
    0x204b
=== CODE BLOCK END ===

=== CODE BLOCK ADDRESS 0x204b ===
  0x204b	pop    	edi
  0x204c	ret    	
  0x204d	int3   	
  0x204e	int3   	
  0x204f	int3   	
  === BLOCK LINK ===
    0x2050
=== CODE BLOCK END ===

=== CODE BLOCK ADDRESS 0x2050 ===
  0x2050	int3   	
  0x2051	int3   	
  0x2052	int3   	
  0x2053	int3   	
  0x2054	int3   	
  === BLOCK LINK ===
    0x2055
=== CODE BLOCK END ===

=== CODE BLOCK ADDRESS 0x2055 ===
  0x2055	int3   	
  0x2056	int3   	
  0x2057	int3   	
  0x2058	int3   	
  0x2059	int3   	
  === BLOCK LINK ===
    0x205a
=== CODE BLOCK END ===

=== CODE BLOCK ADDRESS 0x205a ===
  0x205a	int3   	
  0x205b	int3   	
  0x205c	int3   	
  0x205d	int3   	
  0x205e	int3   	
  === BLOCK LINK ===
    0x205f
=== CODE BLOCK END ===

=== CODE BLOCK ADDRESS 0x205f ===
  0x205f	int3   	
  0x2060	mov    	eax, 0x5a4d
  0x2065	cmp    	word ptr [ecx], ax
  0x2068	jne    	0x208a
  === BLOCK LINK ===
    0x206a
=== CODE BLOCK END ===

=== CODE BLOCK ADDRESS 0x206a ===
  0x206a	dec    	eax
  0x206b	arpl   	word ptr [ecx + 0x3c], ax
  0x206e	dec    	eax
  0x206f	add    	eax, ecx
  0x2071	cmp    	dword ptr [eax], 0x4550
  === BLOCK LINK ===
    0x2077
=== CODE BLOCK END ===

=== CODE BLOCK ADDRESS 0x2077 ===
  0x2077	jne    	0x208a
  === BLOCK LINK ===
    0x2079
=== CODE BLOCK END ===

=== CODE BLOCK ADDRESS 0x2079 ===
  0x2079	mov    	ecx, 0x20b
  0x207e	cmp    	word ptr [eax + 0x18], cx
  0x2082	jne    	0x208a
  === BLOCK LINK ===
    0x2084
=== CODE BLOCK END ===

=== CODE BLOCK ADDRESS 0x2084 ===
  0x2084	mov    	eax, 1
  0x2089	ret    	
  0x208a	xor    	eax, eax
  0x208c	ret    	
  0x208d	int3   	
  === BLOCK LINK ===
    0x208e
=== CODE BLOCK END ===

=== CODE BLOCK ADDRESS 0x134b ===
  0x134b	mov    	byte ptr [eax], 0
  === BLOCK LINK ===
    0x134e
=== CODE BLOCK END ===

=== CODE BLOCK ADDRESS 0x208e ===
  0x208e	int3   	
  0x208f	int3   	
  0x2090	int3   	
  0x2091	int3   	
  0x2092	int3   	
  === BLOCK LINK ===
    0x2093
=== CODE BLOCK END ===

=== CODE BLOCK ADDRESS 0x2093 ===
  0x2093	int3   	
  0x2094	dec    	eax
  0x2095	mov    	dword ptr [esp + 0x20], ebx
  0x2099	push   	ebp
  0x209a	dec    	eax
  === BLOCK LINK ===
    0x209b
=== CODE BLOCK END ===

=== CODE BLOCK ADDRESS 0x209b ===
  0x209b	mov    	ebp, esp
  0x209d	dec    	eax
  0x209e	sub    	esp, 0x20
  0x20a1	dec    	eax
  0x20a2	and    	dword ptr [ebp + 0x18], 0
  === BLOCK LINK ===
    0x20a6
=== CODE BLOCK END ===

=== CODE BLOCK ADDRESS 0x20a6 ===
  0x20a6	dec    	eax
  0x20a7	mov    	ebx, 0x2ddfa232
  0x20ac	cdq    	
  0x20ad	sub    	eax, dword ptr [eax]
  0x20af	add    	byte ptr [eax - 0x75], cl
  === BLOCK LINK ===
    0x20b2
=== CODE BLOCK END ===

=== CODE BLOCK ADDRESS 0x20b2 ===
  0x20b2	add    	eax, 0x2f71
  0x20b7	dec    	eax
  0x20b8	cmp    	eax, ebx
  0x20ba	jne    	0x2153
  === BLOCK LINK ===
    0x20c0
=== CODE BLOCK END ===

=== CODE BLOCK ADDRESS 0x20c0 ===
  0x20c0	dec    	eax
  0x20c1	lea    	ecx, [ebp + 0x18]
  0x20c4	call   	dword ptr [0x119e]
  === BLOCK LINK ===
    0x20ca
=== CODE BLOCK END ===

=== CODE BLOCK ADDRESS 0x20ca ===
  0x20ca	dec    	eax
  0x20cb	mov    	eax, dword ptr [ebp + 0x18]
  0x20ce	dec    	eax
  0x20cf	mov    	dword ptr [ebp + 0x10], eax
  0x20d2	call   	dword ptr [0x1140]
  === BLOCK LINK ===
    0x20d8
=== CODE BLOCK END ===

=== CODE BLOCK ADDRESS 0x20d8 ===
  0x20d8	mov    	eax, eax
  0x20da	dec    	eax
  0x20db	xor    	dword ptr [ebp + 0x10], eax
  0x20de	call   	dword ptr [0x114c]
  === BLOCK LINK ===
    0x20e4
=== CODE BLOCK END ===

=== CODE BLOCK ADDRESS 0x20e4 ===
  0x20e4	mov    	eax, eax
  0x20e6	dec    	eax
  0x20e7	xor    	dword ptr [ebp + 0x10], eax
  0x20ea	call   	dword ptr [0x1170]
  === BLOCK LINK ===
    0x20f0
=== CODE BLOCK END ===

=== CODE BLOCK ADDRESS 0x20f0 ===
  0x20f0	mov    	eax, eax
  0x20f2	dec    	eax
  0x20f3	shl    	eax, 0x18
  0x20f6	dec    	eax
  0x20f7	xor    	dword ptr [ebp + 0x10], eax
  === BLOCK LINK ===
    0x20fa
=== CODE BLOCK END ===

=== CODE BLOCK ADDRESS 0x20fa ===
  0x20fa	call   	dword ptr [0x1160]
  === BLOCK LINK ===
    0x2100
=== CODE BLOCK END ===

=== CODE BLOCK ADDRESS 0x2100 ===
  0x2100	mov    	eax, eax
  0x2102	dec    	eax
  0x2103	lea    	ecx, [ebp + 0x10]
  0x2106	dec    	eax
  0x2107	xor    	eax, dword ptr [ebp + 0x10]
  === BLOCK LINK ===
    0x210a
=== CODE BLOCK END ===

=== CODE BLOCK ADDRESS 0x210a ===
  0x210a	dec    	eax
  0x210b	xor    	eax, ecx
  0x210d	dec    	eax
  0x210e	lea    	ecx, [ebp + 0x20]
  0x2111	dec    	eax
  === BLOCK LINK ===
    0x2112
=== CODE BLOCK END ===

=== CODE BLOCK ADDRESS 0x2112 ===
  0x2112	mov    	dword ptr [ebp + 0x10], eax
  0x2115	call   	dword ptr [0x1125]
  === BLOCK LINK ===
    0x211b
=== CODE BLOCK END ===

=== CODE BLOCK ADDRESS 0x211b ===
  0x211b	mov    	eax, dword ptr [ebp + 0x20]
  0x211e	dec    	eax
  0x211f	mov    	ecx, 0xffffffff
  0x2124	.byte  	0xff
  0x2125	inc    	dword ptr [eax]
  === BLOCK LINK ===
    0x2127
=== CODE BLOCK END ===

=== CODE BLOCK ADDRESS 0x2127 ===
  0x2127	add    	byte ptr [eax - 0x3f], cl
  0x212a	loopne  	0x214c
  === BLOCK LINK ===
    0x212c
=== CODE BLOCK END ===

=== CODE BLOCK ADDRESS 0x212c ===
  0x212c	dec    	eax
  0x212d	xor    	eax, dword ptr [ebp + 0x20]
  0x2130	dec    	eax
  0x2131	xor    	eax, dword ptr [ebp + 0x10]
  0x2134	dec    	eax
  === BLOCK LINK ===
    0x2135
=== CODE BLOCK END ===

=== CODE BLOCK ADDRESS 0x2135 ===
  0x2135	and    	eax, ecx
  0x2137	dec    	eax
  0x2138	mov    	ecx, eax
  0x213a	dec    	eax
  0x213b	cmp    	eax, ebx
  === BLOCK LINK ===
    0x213d
=== CODE BLOCK END ===

=== CODE BLOCK ADDRESS 0x213d ===
  0x213d	jne    	0x214c
  === BLOCK LINK ===
    0x213f
=== CODE BLOCK END ===

=== CODE BLOCK ADDRESS 0x213f ===
  0x213f	dec    	eax
  0x2140	mov    	eax, 0x2ddfa233
  0x2145	cdq    	
  0x2146	sub    	eax, dword ptr [eax]
  0x2148	add    	byte ptr [eax - 0x75], cl
  === BLOCK LINK ===
    0x214b
=== CODE BLOCK END ===

=== CODE BLOCK ADDRESS 0x214b ===
  0x214b	enter  	-0x76b8, 0xd
  0x214f	aad    	0x2e
  0x2151	add    	byte ptr [eax], al
  0x2153	dec    	eax
  0x2154	mov    	ebx, dword ptr [esp + 0x48]
  === BLOCK LINK ===
    0x2158
=== CODE BLOCK END ===

=== CODE BLOCK ADDRESS 0x2158 ===
  0x2158	dec    	eax
  0x2159	not    	eax
  0x215b	dec    	eax
  0x215c	mov    	dword ptr [0x2ece], eax
  0x2162	dec    	eax
  === BLOCK LINK ===
    0x2163
=== CODE BLOCK END ===

=== CODE BLOCK ADDRESS 0x2163 ===
  0x2163	add    	esp, 0x20
  0x2166	pop    	ebp
  0x2167	ret    	
  0x2168	int3   	
  0x2169	int3   	
  === BLOCK LINK ===
    0x216a
=== CODE BLOCK END ===

=== CODE BLOCK ADDRESS 0x216a ===
  0x216a	int3   	
  0x216b	int3   	
  0x216c	int3   	
  0x216d	int3   	
  0x216e	jmp    	dword ptr [0x11b4]
  === BLOCK LINK ===
    0x2174
=== CODE BLOCK END ===

=== CODE BLOCK ADDRESS 0x2174 ===
  0x2174	int3   	
  0x2175	int3   	
  0x2176	int3   	
  0x2177	int3   	
  0x2178	int3   	
  === BLOCK LINK ===
    0x2179
=== CODE BLOCK END ===

=== CODE BLOCK ADDRESS 0x2179 ===
  0x2179	int3   	
  0x217a	jmp    	dword ptr [0x11a0]
  === BLOCK LINK ===
    0x2180
=== CODE BLOCK END ===

=== CODE BLOCK ADDRESS 0x2180 ===
  0x2180	int3   	
  0x2181	int3   	
  0x2182	int3   	
  0x2183	int3   	
  0x2184	int3   	
  === BLOCK LINK ===
    0x2185
=== CODE BLOCK END ===

=== CODE BLOCK ADDRESS 0x2185 ===
  0x2185	int3   	
  0x2186	int3   	
  0x2187	int3   	
  0x2188	int3   	
  0x2189	int3   	
  === BLOCK LINK ===
    0x218a
=== CODE BLOCK END ===

=== CODE BLOCK ADDRESS 0x218a ===
  0x218a	int3   	
  0x218b	int3   	
  0x218c	int3   	
  0x218d	int3   	
  0x218e	int3   	
  === BLOCK LINK ===
    0x218f
=== CODE BLOCK END ===

=== CODE BLOCK ADDRESS 0x218f ===
  0x218f	int3   	
  0x2190	ret    	0
  0x2193	int3   	
  0x2194	int3   	
  0x2195	int3   	
  === BLOCK LINK ===
    0x2196
=== CODE BLOCK END ===

=== CODE BLOCK ADDRESS 0x1362 ===
  0x1362	dec    	esp
  0x1363	mov    	eax, edi
  0x1365	dec    	eax
  === BLOCK LINK ===
    0x1366
=== CODE BLOCK END ===

=== CODE BLOCK ADDRESS 0x2196 ===
  0x2196	int3   	
  0x2197	int3   	
  0x2198	int3   	
  0x2199	jmp    	dword ptr [0x1161]
  === BLOCK LINK ===
    0x219f
=== CODE BLOCK END ===

=== CODE BLOCK ADDRESS 0x219f ===
  0x219f	int3   	
  0x21a0	int3   	
  0x21a1	int3   	
  0x21a2	int3   	
  0x21a3	int3   	
  === BLOCK LINK ===
    0x21a4
=== CODE BLOCK END ===

=== CODE BLOCK ADDRESS 0x21a4 ===
  0x21a4	int3   	
  0x21a5	jmp    	dword ptr [0x114d]
  === BLOCK LINK ===
    0x21ab
=== CODE BLOCK END ===

=== CODE BLOCK ADDRESS 0x21ab ===
  0x21ab	int3   	
  0x21ac	int3   	
  0x21ad	int3   	
  0x21ae	int3   	
  0x21af	int3   	
  === BLOCK LINK ===
    0x21b0
=== CODE BLOCK END ===

=== CODE BLOCK ADDRESS 0x21b0 ===
  0x21b0	int3   	
  0x21b1	jmp    	dword ptr [0x1139]
  === BLOCK LINK ===
    0x21b7
=== CODE BLOCK END ===

=== CODE BLOCK ADDRESS 0x21b7 ===
  0x21b7	int3   	
  0x21b8	int3   	
  0x21b9	int3   	
  0x21ba	int3   	
  0x21bb	int3   	
  === BLOCK LINK ===
    0x21bc
=== CODE BLOCK END ===

=== CODE BLOCK ADDRESS 0x21bc ===
  0x21bc	int3   	
  0x21bd	int3   	
  0x21be	int3   	
  0x21bf	int3   	
  0x21c0	int3   	
  === BLOCK LINK ===
    0x21c1
=== CODE BLOCK END ===

=== CODE BLOCK ADDRESS 0x21c1 ===
  0x21c1	int3   	
  0x21c2	int3   	
  0x21c3	int3   	
  0x21c4	int3   	
  0x21c5	int3   	
  === BLOCK LINK ===
    0x21c6
=== CODE BLOCK END ===

=== CODE BLOCK ADDRESS 0x21c6 ===
  0x21c6	jmp    	dword ptr [0x110c]
  === BLOCK LINK ===
    0x21cc
=== CODE BLOCK END ===

=== CODE BLOCK ADDRESS 0x21cc ===
  0x21cc	int3   	
  0x21cd	int3   	
  0x21ce	int3   	
  0x21cf	int3   	
  0x21d0	int3   	
  === BLOCK LINK ===
    0x21d1
=== CODE BLOCK END ===

=== CODE BLOCK ADDRESS 0x21d1 ===
  0x21d1	int3   	
  0x21d2	int3   	
  0x21d3	int3   	
  0x21d4	inc    	eax
  0x21d5	push   	ebx
  === BLOCK LINK ===
    0x21d6
=== CODE BLOCK END ===

=== CODE BLOCK ADDRESS 0x21d6 ===
  0x21d6	inc    	ebp
  0x21d7	mov    	ebx, dword ptr [eax]
  0x21d9	dec    	eax
  0x21da	mov    	ebx, edx
  0x21dc	inc    	ecx
  === BLOCK LINK ===
    0x21dd
=== CODE BLOCK END ===

=== CODE BLOCK ADDRESS 0x21dd ===
  0x21dd	and    	ebx, 0xfffffff8
  0x21e0	dec    	esp
  0x21e1	mov    	ecx, ecx
  0x21e3	inc    	ecx
  0x21e4	test   	byte ptr [eax], 4
  === BLOCK LINK ===
    0x21e7
=== CODE BLOCK END ===

=== CODE BLOCK ADDRESS 0x21e7 ===
  0x21e7	dec    	esp
  0x21e8	mov    	edx, ecx
  0x21ea	je     	0x21ff
  === BLOCK LINK ===
    0x21ec
=== CODE BLOCK END ===

=== CODE BLOCK ADDRESS 0x21ec ===
  0x21ec	inc    	ecx
  0x21ed	mov    	eax, dword ptr [eax + 8]
  0x21f0	dec    	ebp
  0x21f1	arpl   	word ptr [eax + 4], dx
  0x21f4	neg    	eax
  === BLOCK LINK ===
    0x21f6
=== CODE BLOCK END ===

=== CODE BLOCK ADDRESS 0x21f6 ===
  0x21f6	dec    	esp
  0x21f7	add    	edx, ecx
  0x21f9	dec    	eax
  0x21fa	arpl   	ax, cx
  0x21fc	dec    	esp
  === BLOCK LINK ===
    0x21fd
=== CODE BLOCK END ===

=== CODE BLOCK ADDRESS 0x21fd ===
  0x21fd	and    	edx, ecx
  0x21ff	dec    	ecx
  0x2200	arpl   	bx, ax
  0x2202	dec    	edx
  0x2203	mov    	edx, dword ptr [eax + edx]
  === BLOCK LINK ===
    0x2206
=== CODE BLOCK END ===

=== CODE BLOCK ADDRESS 0x2206 ===
  0x2206	dec    	eax
  0x2207	mov    	eax, dword ptr [ebx + 0x10]
  0x220a	mov    	ecx, dword ptr [eax + 8]
  0x220d	dec    	eax
  0x220e	mov    	eax, dword ptr [ebx + 8]
  === BLOCK LINK ===
    0x2211
=== CODE BLOCK END ===

=== CODE BLOCK ADDRESS 0x2211 ===
  0x2211	test   	byte ptr [ecx + eax + 3], 0xf
  0x2216	je     	0x2223
  === BLOCK LINK ===
    0x2218
=== CODE BLOCK END ===

=== CODE BLOCK ADDRESS 0x2218 ===
  0x2218	movzx  	eax, byte ptr [ecx + eax + 3]
  0x221d	and    	eax, 0xfffffff0
  0x2220	dec    	esp
  0x2221	add    	ecx, eax
  0x2223	dec    	esp
  === BLOCK LINK ===
    0x2224
=== CODE BLOCK END ===

=== CODE BLOCK ADDRESS 0x2224 ===
  0x2224	xor    	ecx, edx
  0x2226	dec    	ecx
  0x2227	mov    	ecx, ecx
  0x2229	pop    	ebx
  0x222a	jmp    	0x1bc0
  === BLOCK LINK ===
    0x222f
=== CODE BLOCK END ===

=== CODE BLOCK ADDRESS 0x222f ===
  0x222f	int3   	
  0x2230	int3   	
  0x2231	int3   	
  0x2232	int3   	
  0x2233	int3   	
  === BLOCK LINK ===
    0x2234
=== CODE BLOCK END ===

=== CODE BLOCK ADDRESS 0x2234 ===
  0x2234	int3   	
  0x2235	int3   	
  0x2236	int3   	
  0x2237	int3   	
  0x2238	dec    	eax
  === BLOCK LINK ===
    0x2239
=== CODE BLOCK END ===

=== CODE BLOCK ADDRESS 0x2239 ===
  0x2239	mov    	eax, esp
  0x223b	dec    	eax
  0x223c	mov    	dword ptr [eax + 8], ebx
  0x223f	dec    	eax
  0x2240	mov    	dword ptr [eax + 0x10], ebp
  === BLOCK LINK ===
    0x2243
=== CODE BLOCK END ===

=== CODE BLOCK ADDRESS 0x2243 ===
  0x2243	dec    	eax
  0x2244	mov    	dword ptr [eax + 0x18], esi
  0x2247	dec    	eax
  0x2248	mov    	dword ptr [eax + 0x20], edi
  0x224b	inc    	ecx
  === BLOCK LINK ===
    0x224c
=== CODE BLOCK END ===

=== CODE BLOCK ADDRESS 0x224c ===
  0x224c	push   	esi
  0x224d	dec    	eax
  0x224e	sub    	esp, 0x20
  0x2251	dec    	ecx
  0x2252	mov    	ebx, dword ptr [ecx + 0x38]
  === BLOCK LINK ===
    0x2255
=== CODE BLOCK END ===

=== CODE BLOCK ADDRESS 0x2255 ===
  0x2255	dec    	eax
  0x2256	mov    	esi, edx
  0x2258	dec    	ebp
  0x2259	mov    	esi, eax
  0x225b	dec    	eax
  === BLOCK LINK ===
    0x225c
=== CODE BLOCK END ===

=== CODE BLOCK ADDRESS 0x225c ===
  0x225c	mov    	ebp, ecx
  0x225e	dec    	ecx
  0x225f	mov    	edx, ecx
  0x2261	dec    	eax
  0x2262	mov    	ecx, esi
  === BLOCK LINK ===
    0x2264
=== CODE BLOCK END ===

=== CODE BLOCK ADDRESS 0x2264 ===
  0x2264	dec    	ecx
  0x2265	mov    	edi, ecx
  0x2267	dec    	esp
  0x2268	lea    	eax, [ebx + 4]
  0x226b	call   	0x21d4
  === BLOCK LINK ===
    0x2270
=== CODE BLOCK END ===

=== CODE BLOCK ADDRESS 0x2270 ===
  0x2270	mov    	eax, dword ptr [ebp + 4]
  0x2273	and    	al, 0x66
  0x2275	neg    	al
  0x2277	mov    	eax, 1
  0x227c	inc    	ebp
  === BLOCK LINK ===
    0x227d
=== CODE BLOCK END ===

=== CODE BLOCK ADDRESS 0x227d ===
  0x227d	sbb    	eax, eax
  0x227f	inc    	ecx
  0x2280	neg    	eax
  0x2282	inc    	esp
  0x2283	add    	eax, eax
  === BLOCK LINK ===
    0x2285
=== CODE BLOCK END ===

=== CODE BLOCK ADDRESS 0x2285 ===
  0x2285	inc    	esp
  0x2286	test   	dword ptr [ebx + 4], eax
  0x2289	je     	0x229c
  === BLOCK LINK ===
    0x228b
=== CODE BLOCK END ===

=== CODE BLOCK ADDRESS 0x228b ===
  0x228b	dec    	esp
  0x228c	mov    	ecx, edi
  0x228e	dec    	ebp
  0x228f	mov    	eax, esi
  0x2291	dec    	eax
  === BLOCK LINK ===
    0x2292
=== CODE BLOCK END ===

=== CODE BLOCK ADDRESS 0x2292 ===
  0x2292	mov    	edx, esi
  0x2294	dec    	eax
  0x2295	mov    	ecx, ebp
  0x2297	call   	0x1ba8
  === BLOCK LINK ===
    0x229c
=== CODE BLOCK END ===

=== CODE BLOCK ADDRESS 0x229c ===
  0x229c	dec    	eax
  0x229d	mov    	ebx, dword ptr [esp + 0x30]
  0x22a1	dec    	eax
  0x22a2	mov    	ebp, dword ptr [esp + 0x38]
  0x22a6	dec    	eax
  === BLOCK LINK ===
    0x22a7
=== CODE BLOCK END ===

=== CODE BLOCK ADDRESS 0x22a7 ===
  0x22a7	mov    	esi, dword ptr [esp + 0x40]
  0x22ab	dec    	eax
  0x22ac	mov    	edi, dword ptr [esp + 0x48]
  0x22b0	dec    	eax
  0x22b1	add    	esp, 0x20
  === BLOCK LINK ===
    0x22b4
=== CODE BLOCK END ===

=== CODE BLOCK ADDRESS 0x22b4 ===
  0x22b4	inc    	ecx
  0x22b5	pop    	esi
  0x22b6	ret    	
  0x22b7	int3   	
  0x22b8	int3   	
  === BLOCK LINK ===
    0x22b9
=== CODE BLOCK END ===

=== CODE BLOCK ADDRESS 0x22c6 ===
=== CODE BLOCK END ===

=== CODE BLOCK ADDRESS 0x22b9 ===
  0x22b9	int3   	
  0x22ba	int3   	
  0x22bb	int3   	
  0x22bc	int3   	
  0x22bd	int3   	
  === BLOCK LINK ===
    0x22be
=== CODE BLOCK END ===

=== CODE BLOCK ADDRESS 0x22be ===
  0x22be	int3   	
  0x22bf	int3   	
  0x22c0	int3   	
  0x22c1	int3   	
  0x22c2	int3   	
  === BLOCK LINK ===
    0x22c3
=== CODE BLOCK END ===

=== CODE BLOCK ADDRESS 0x22c3 ===
  0x22c3	int3   	
  0x22c4	int3   	
  0x22c5	int3   	
  0x22c6	jmp    	dword ptr [0x10cc]
  === BLOCK LINK ===
    0x22cc
=== CODE BLOCK END ===

=== CODE BLOCK ADDRESS 0x22cc ===
  0x22cc	int3   	
  0x22cd	int3   	
  0x22ce	int3   	
  0x22cf	int3   	
  0x22d0	int3   	
  === BLOCK LINK ===
    0x22d1
=== CODE BLOCK END ===

=== CODE BLOCK ADDRESS 0x22d1 ===
  0x22d1	int3   	
  0x22d2	jmp    	dword ptr [0x1008]
  === BLOCK LINK ===
    0x22d8
=== CODE BLOCK END ===

=== CODE BLOCK ADDRESS 0x22d8 ===
  0x22d8	int3   	
  0x22d9	int3   	
  0x22da	int3   	
  0x22db	int3   	
  0x22dc	int3   	
  === BLOCK LINK ===
    0x22dd
=== CODE BLOCK END ===

=== CODE BLOCK ADDRESS 0x22dd ===
  0x22dd	int3   	
  0x22de	int3   	
  0x22df	int3   	
  0x22e0	int3   	
  0x22e1	int3   	
  === BLOCK LINK ===
    0x22e2
=== CODE BLOCK END ===

=== CODE BLOCK ADDRESS 0x22e2 ===
  0x22e2	int3   	
  0x22e3	int3   	
  0x22e4	int3   	
  0x22e5	int3   	
  0x22e6	nop    	word ptr [eax + eax]
  === BLOCK LINK ===
    0x22f0
=== CODE BLOCK END ===

=== CODE BLOCK ADDRESS 0x22f0 ===
  0x22f0	jmp    	eax
  === BLOCK LINK ===
    0x22f2
=== CODE BLOCK END ===

=== CODE BLOCK ADDRESS 0x22f2 ===
  0x22f2	int3   	
  0x22f3	int3   	
  0x22f4	int3   	
  0x22f5	int3   	
  0x22f6	int3   	
  === BLOCK LINK ===
    0x22f7
=== CODE BLOCK END ===

=== CODE BLOCK ADDRESS 0x22f7 ===
  0x22f7	int3   	
  0x22f8	int3   	
  0x22f9	int3   	
  0x22fa	int3   	
  0x22fb	int3   	
  === BLOCK LINK ===
    0x22fc
=== CODE BLOCK END ===

=== CODE BLOCK ADDRESS 0x22fc ===
  0x22fc	int3   	
  0x22fd	int3   	
  0x22fe	int3   	
  0x22ff	int3   	
  0x2300	int3   	
  === BLOCK LINK ===
    0x2301
=== CODE BLOCK END ===

=== CODE BLOCK ADDRESS 0x2301 ===
  0x2301	int3   	
  0x2302	int3   	
  0x2303	int3   	
  0x2304	int3   	
  0x2305	int3   	
  === BLOCK LINK ===
    0x2306
=== CODE BLOCK END ===

=== CODE BLOCK ADDRESS 0x2306 ===
  0x2306	nop    	word ptr [eax + eax]
  0x2310	dec    	eax
  0x2311	sub    	esp, 0x10
  0x2314	dec    	esp
  0x2315	mov    	dword ptr [esp], edx
  === BLOCK LINK ===
    0x2318
=== CODE BLOCK END ===

=== CODE BLOCK ADDRESS 0x2318 ===
  0x2318	dec    	esp
  0x2319	mov    	dword ptr [esp + 8], ebx
  0x231d	dec    	ebp
  0x231e	xor    	ebx, ebx
  0x2320	dec    	esp
  === BLOCK LINK ===
    0x2321
=== CODE BLOCK END ===

=== CODE BLOCK ADDRESS 0x2321 ===
  0x2321	lea    	edx, [esp + 0x18]
  0x2325	dec    	esp
  0x2326	sub    	edx, eax
  0x2328	dec    	ebp
  0x2329	cmovb  	edx, ebx
  === BLOCK LINK ===
    0x232c
=== CODE BLOCK END ===

=== CODE BLOCK ADDRESS 0x232c ===
  0x232c	dec    	esp
  0x232e	mov    	ebx, dword ptr [0x10]
  0x2335	dec    	ebp
  0x2336	cmp    	edx, ebx
  0x2338	jae    	0x234f
  === BLOCK LINK ===
    0x233a
=== CODE BLOCK END ===

=== CODE BLOCK ADDRESS 0x233a ===
  0x233a	inc    	cx
  0x233c	and    	edx, 0x8d4df000
  0x2342	wait   	
  0x2343	add    	al, dh
  0x2345	.byte  	0xff
  === BLOCK LINK ===
    0x2346
=== CODE BLOCK END ===

=== CODE BLOCK ADDRESS 0x2346 ===
  0x2346	inc    	dword ptr [ebp - 0x7c]
  0x2349	sbb    	ecx, dword ptr [ebp + 0x3b]
  0x234c	sal    	dword ptr [edx - 0xf], cl
  0x234f	dec    	esp
  0x2350	mov    	edx, dword ptr [esp]
  === BLOCK LINK ===
    0x2353
=== CODE BLOCK END ===

=== CODE BLOCK ADDRESS 0x2353 ===
  0x2353	dec    	esp
  0x2354	mov    	ebx, dword ptr [esp + 8]
  0x2358	dec    	eax
  0x2359	add    	esp, 0x10
  0x235c	ret    	
  === BLOCK LINK ===
    0x235d
=== CODE BLOCK END ===

=== CODE BLOCK ADDRESS 0x235d ===
  0x235d	int3   	
  0x235e	int3   	
  0x235f	int3   	
  0x2360	int3   	
  0x2361	int3   	
  === BLOCK LINK ===
    0x2362
=== CODE BLOCK END ===

=== CODE BLOCK ADDRESS 0x2362 ===
  0x2362	int3   	
  0x2363	dec    	eax
  0x2364	mov    	dword ptr [esp + 0x10], edx
  0x2368	push   	ebp
  0x2369	dec    	eax
  === BLOCK LINK ===
    0x236a
=== CODE BLOCK END ===

=== CODE BLOCK ADDRESS 0x236a ===
  0x236a	sub    	esp, 0x20
  0x236d	dec    	eax
  0x236e	mov    	ebp, edx
  0x2370	dec    	eax
  0x2371	mov    	ecx, dword ptr [ebp + 0x68]
  === BLOCK LINK ===
    0x2374
=== CODE BLOCK END ===

=== CODE BLOCK ADDRESS 0x2374 ===
  0x2374	dec    	eax
  0x2375	mov    	dword ptr [ebp + 0x68], ecx
  0x2378	xor    	eax, eax
  0x237a	dec    	eax
  0x237b	add    	ecx, 1
  === BLOCK LINK ===
    0x237e
=== CODE BLOCK END ===

=== CODE BLOCK ADDRESS 0x237e ===
  0x237e	je     	0x239c
  === BLOCK LINK ===
    0x2380
=== CODE BLOCK END ===

=== CODE BLOCK ADDRESS 0x2380 ===
  0x2380	dec    	eax
  0x2381	cmp    	ecx, -1
  0x2384	ja     	0x2390
  === BLOCK LINK ===
    0x2386
=== CODE BLOCK END ===

=== CODE BLOCK ADDRESS 0x2386 ===
  0x2386	call   	0x1850
  === BLOCK LINK ===
    0x238b
=== CODE BLOCK END ===

=== CODE BLOCK ADDRESS 0x238b ===
  0x238b	dec    	eax
  0x238c	test   	eax, eax
  0x238e	jne    	0x239c
  === BLOCK LINK ===
    0x2390
=== CODE BLOCK END ===

=== CODE BLOCK ADDRESS 0x2390 ===
  0x2390	dec    	eax
  0x2391	call   	dword ptr [0xf21]
  === BLOCK LINK ===
    0x2397
=== CODE BLOCK END ===

=== CODE BLOCK ADDRESS 0x2397 ===
  0x2397	nop    	dword ptr [eax + eax]
  0x239c	dec    	eax
  0x239d	mov    	dword ptr [ebp + 0x78], eax
  0x23a0	dec    	eax
  0x23a1	lea    	eax, [0xfffff29f]
  === BLOCK LINK ===
    0x23a7
=== CODE BLOCK END ===

=== CODE BLOCK ADDRESS 0x23a7 ===
  0x23a7	dec    	eax
  0x23a8	add    	esp, 0x20
  0x23ab	pop    	ebp
  0x23ac	ret    	
  0x23ad	int3   	
  === BLOCK LINK ===
    0x23ae
=== CODE BLOCK END ===

=== CODE BLOCK ADDRESS 0x1380 ===
  0x1380	mov    	byte ptr [eax + edi], 0
  === BLOCK LINK ===
    0x1384
=== CODE BLOCK END ===

=== CODE BLOCK ADDRESS 0x23ae ===
  0x23ae	dec    	eax
  0x23af	mov    	dword ptr [esp + 0x10], edx
  0x23b3	push   	ebp
  0x23b4	dec    	eax
  0x23b5	sub    	esp, 0x20
  === BLOCK LINK ===
    0x23b8
=== CODE BLOCK END ===

=== CODE BLOCK ADDRESS 0x23b8 ===
  0x23b8	dec    	eax
  0x23b9	mov    	ebp, edx
  0x23bb	inc    	ebp
  0x23bc	xor    	eax, eax
  0x23be	mov    	dl, 1
  === BLOCK LINK ===
    0x23c0
=== CODE BLOCK END ===

=== CODE BLOCK ADDRESS 0x23c0 ===
  0x23c0	dec    	eax
  0x23c1	mov    	ecx, dword ptr [ebp + 0x60]
  0x23c4	call   	0x13a4
  === BLOCK LINK ===
    0x23c9
=== CODE BLOCK END ===

=== CODE BLOCK ADDRESS 0x23c9 ===
  0x23c9	xor    	edx, edx
  0x23cb	xor    	ecx, ecx
  0x23cd	call   	0x21c6
  === BLOCK LINK ===
    0x23d2
=== CODE BLOCK END ===

=== CODE BLOCK ADDRESS 0x23d2 ===
  0x23d2	nop    	
  0x23d3	int3   	
  0x23d4	int3   	
  0x23d5	int3   	
  0x23d6	int3   	
  === BLOCK LINK ===
    0x23d7
=== CODE BLOCK END ===

=== CODE BLOCK ADDRESS 0x23d7 ===
  0x23d7	int3   	
  0x23d8	int3   	
  0x23d9	dec    	eax
  0x23da	lea    	ecx, [edx + 0x20]
  0x23e0	jmp    	0x1808
  === BLOCK LINK ===
    0x23e5
=== CODE BLOCK END ===

=== CODE BLOCK ADDRESS 0x23e5 ===
  0x23e5	int3   	
  0x23e6	int3   	
  0x23e7	int3   	
  0x23e8	int3   	
  0x23e9	int3   	
  === BLOCK LINK ===
    0x23ea
=== CODE BLOCK END ===

=== CODE BLOCK ADDRESS 0x23ea ===
  0x23ea	int3   	
  0x23eb	dec    	eax
  0x23ec	lea    	ecx, [edx + 0x28]
  0x23f2	jmp    	0x1808
  === BLOCK LINK ===
    0x23f7
=== CODE BLOCK END ===

=== CODE BLOCK ADDRESS 0x23f7 ===
  0x23f7	int3   	
  0x23f8	int3   	
  0x23f9	int3   	
  0x23fa	int3   	
  0x23fb	int3   	
  === BLOCK LINK ===
    0x23fc
=== CODE BLOCK END ===

=== CODE BLOCK ADDRESS 0x23fc ===
  0x23fc	int3   	
  0x23fd	inc    	eax
  0x23fe	push   	ebp
  0x23ff	dec    	eax
  0x2400	sub    	esp, 0x20
  === BLOCK LINK ===
    0x2403
=== CODE BLOCK END ===

=== CODE BLOCK ADDRESS 0x2403 ===
  0x2403	dec    	eax
  0x2404	mov    	ebp, edx
  0x2406	dec    	eax
  0x2407	mov    	eax, dword ptr [ecx]
  0x2409	dec    	eax
  === BLOCK LINK ===
    0x240a
=== CODE BLOCK END ===

=== CODE BLOCK ADDRESS 0x240a ===
  0x240a	mov    	edx, ecx
  0x240c	mov    	ecx, dword ptr [eax]
  0x240e	call   	0x1ede
  === BLOCK LINK ===
    0x2413
=== CODE BLOCK END ===

=== CODE BLOCK ADDRESS 0x2413 ===
  0x2413	nop    	
  0x2414	dec    	eax
  0x2415	add    	esp, 0x20
  0x2418	pop    	ebp
  0x2419	ret    	
  === BLOCK LINK ===
    0x241a
=== CODE BLOCK END ===

=== CODE BLOCK ADDRESS 0x241a ===
  0x241a	int3   	
  0x241b	int3   	
  0x241c	int3   	
  0x241d	int3   	
  0x241e	int3   	
  === BLOCK LINK ===
    0x241f
=== CODE BLOCK END ===

=== CODE BLOCK ADDRESS 0x241f ===
  0x241f	int3   	
  0x2420	int3   	
  0x2421	inc    	eax
  0x2422	push   	ebp
  0x2423	dec    	eax
  === BLOCK LINK ===
    0x2424
=== CODE BLOCK END ===

=== CODE BLOCK ADDRESS 0x2424 ===
  0x2424	sub    	esp, 0x20
  0x2427	dec    	eax
  0x2428	mov    	ebp, edx
  0x242a	mov    	ecx, 8
  0x242f	call   	0x21a5
  === BLOCK LINK ===
    0x2434
=== CODE BLOCK END ===

=== CODE BLOCK ADDRESS 0x2434 ===
  0x2434	nop    	
  0x2435	dec    	eax
  0x2436	add    	esp, 0x20
  0x2439	pop    	ebp
  0x243a	ret    	
  === BLOCK LINK ===
    0x243b
=== CODE BLOCK END ===

=== CODE BLOCK ADDRESS 0x13e3 ===
  0x13e3	dec    	eax
  0x13e4	mov    	esi, dword ptr [esp + 0x38]
  0x13e8	dec    	eax
  0x13e9	mov    	dword ptr [ebx + 0x18], 0xf
  === BLOCK LINK ===
    0x13f0
=== CODE BLOCK END ===

=== CODE BLOCK ADDRESS 0x243b ===
  0x243b	int3   	
  0x243c	int3   	
  0x243d	int3   	
  0x243e	int3   	
  0x243f	int3   	
  === BLOCK LINK ===
    0x2440
=== CODE BLOCK END ===

=== CODE BLOCK ADDRESS 0x2440 ===
  0x2440	int3   	
  0x2441	int3   	
  0x2442	int3   	
  0x2443	int3   	
  0x2444	int3   	
  === BLOCK LINK ===
    0x2445
=== CODE BLOCK END ===

=== CODE BLOCK ADDRESS 0x2445 ===
  0x2445	int3   	
  0x2446	int3   	
  0x2447	int3   	
  0x2448	int3   	
  0x2449	int3   	
  === BLOCK LINK ===
    0x244a
=== CODE BLOCK END ===

=== CODE BLOCK ADDRESS 0x244a ===
  0x244a	int3   	
  0x244b	int3   	
  0x244c	int3   	
  0x244d	int3   	
  0x244e	int3   	
  === BLOCK LINK ===
    0x244f
=== CODE BLOCK END ===

=== CODE BLOCK ADDRESS 0x244f ===
  0x244f	int3   	
  0x2450	inc    	eax
  0x2451	push   	ebp
  0x2452	dec    	eax
  0x2453	sub    	esp, 0x20
  === BLOCK LINK ===
    0x2456
=== CODE BLOCK END ===

=== CODE BLOCK ADDRESS 0x2456 ===
  0x2456	dec    	eax
  0x2457	mov    	ebp, edx
  0x2459	dec    	eax
  0x245a	mov    	eax, dword ptr [ecx]
  0x245c	xor    	ecx, ecx
  === BLOCK LINK ===
    0x245e
=== CODE BLOCK END ===

=== CODE BLOCK ADDRESS 0x245e ===
  0x245e	cmp    	dword ptr [eax], 0xc0000005
  0x2464	sete   	cl
  0x2467	mov    	eax, ecx
  0x2469	dec    	eax
  0x246a	add    	esp, 0x20
  === BLOCK LINK ===
    0x246d
=== CODE BLOCK END ===

=== CODE BLOCK ADDRESS 0x246d ===
  0x246d	pop    	ebp
  0x246e	ret    	
  0x246f	int3   	
  0x2470	int3   	
  0x2471	int3   	
  === BLOCK LINK ===
    0x2472
=== CODE BLOCK END ===

=== CODE BLOCK ADDRESS 0x2472 ===
  0x2472	int3   	
  0x2473	int3   	
  0x2474	int3   	
  0x2475	int3   	
  0x2476	int3   	
  === BLOCK LINK ===
    0x2477
=== CODE BLOCK END ===

=== CODE BLOCK ADDRESS 0x2477 ===
  0x2477	int3   	
  0x2478	int3   	
  0x2479	int3   	
  0x247a	int3   	
  0x247b	int3   	
  === BLOCK LINK ===
    0x247c
=== CODE BLOCK END ===

=== CODE BLOCK ADDRESS 0x247c ===
  0x247c	int3   	
  0x247d	int3   	
  0x247e	int3   	
  0x247f	int3   	
  0x2480	dec    	eax
  === BLOCK LINK ===
    0x2481
=== CODE BLOCK END ===

=== CODE BLOCK ADDRESS 0x2481 ===
  0x2481	lea    	eax, [0xb89]
  0x2487	dec    	eax
  0x2488	mov    	dword ptr [0x2b72], eax
  0x248e	ret    	
  0x248f	int3   	
  === BLOCK LINK ===
    0x2490
=== CODE BLOCK END ===

=== CODE BLOCK ADDRESS 0x2490 ===
  0x2490	int3   	
  0x2491	int3   	
  0x2492	int3   	
  0x2493	int3   	
  0x2494	int3   	
  === BLOCK LINK ===
    0x2495
=== CODE BLOCK END ===

=== CODE BLOCK ADDRESS 0x2495 ===
  0x2495	int3   	
  0x2496	int3   	
  0x2497	int3   	
  0x2498	int3   	
  0x2499	int3   	
  === BLOCK LINK ===
    0x249a
=== CODE BLOCK END ===

=== CODE BLOCK ADDRESS 0x249a ===
  0x249a	int3   	
  0x249b	int3   	
  0x249c	int3   	
  0x249d	int3   	
  0x249e	int3   	
  === BLOCK LINK ===
    0x249f
=== CODE BLOCK END ===

=== CODE BLOCK ADDRESS 0x249f ===
  0x249f	int3   	
  0x24a0	dec    	eax
  0x24a1	lea    	eax, [0xb69]
  0x24a7	dec    	eax
  0x24a8	mov    	dword ptr [0x2b5a], eax
  === BLOCK LINK ===
    0x24ae
=== CODE BLOCK END ===

=== CODE BLOCK ADDRESS 0x24ae ===
  0x24ae	ret    	
  0x24af	int3   	
  0x24b0	int3   	
  0x24b1	int3   	
  0x24b2	int3   	
  === BLOCK LINK ===
    0x24b3
=== CODE BLOCK END ===

=== CODE BLOCK ADDRESS 0x24b3 ===
  0x24b3	int3   	
  0x24b4	int3   	
  0x24b5	int3   	
  0x24b6	int3   	
  0x24b7	int3   	
  === BLOCK LINK ===
    0x24b8
=== CODE BLOCK END ===

=== CODE BLOCK ADDRESS 0x24b8 ===
  0x24b8	int3   	
  0x24b9	int3   	
  0x24ba	int3   	
  0x24bb	int3   	
  0x24bc	int3   	
  === BLOCK LINK ===
    0x24bd
=== CODE BLOCK END ===

=== CODE BLOCK ADDRESS 0x24bd ===
  0x24bd	int3   	
  0x24be	int3   	
  0x24bf	int3   	
  0x24c0	dec    	eax
  0x24c1	lea    	eax, [0xb49]
  === BLOCK LINK ===
    0x24c7
=== CODE BLOCK END ===

=== CODE BLOCK ADDRESS 0x24c7 ===
  0x24c7	dec    	eax
  0x24c8	mov    	dword ptr [0x2b42], eax
  0x24ce	ret    	
  0x24cf	int3   	
  0x24d0	add    	byte ptr [eax], al
  === BLOCK LINK ===
    0x24d2
=== CODE BLOCK END ===

=== CODE BLOCK ADDRESS 0x1595 ===
=== CODE BLOCK END ===

=== CODE BLOCK ADDRESS 0x24d2 ===
  0x24d2	add    	byte ptr [eax], al
  0x24d4	add    	byte ptr [eax], al
  0x24d6	add    	byte ptr [eax], al
  0x24d8	add    	byte ptr [eax], al
  0x24da	add    	byte ptr [eax], al
  === BLOCK LINK ===
    0x24dc
=== CODE BLOCK END ===

=== CODE BLOCK ADDRESS 0x24dc ===
  0x24dc	add    	byte ptr [eax], al
  0x24de	add    	byte ptr [eax], al
  0x24e0	add    	byte ptr [eax], al
  0x24e2	add    	byte ptr [eax], al
  0x24e4	add    	byte ptr [eax], al
  === BLOCK LINK ===
    0x24e6
=== CODE BLOCK END ===

=== CODE BLOCK ADDRESS 0x24e6 ===
  0x24e6	add    	byte ptr [eax], al
  0x24e8	add    	byte ptr [eax], al
  0x24ea	add    	byte ptr [eax], al
  0x24ec	add    	byte ptr [eax], al
  0x24ee	add    	byte ptr [eax], al
  === BLOCK LINK ===
    0x24f0
=== CODE BLOCK END ===

=== CODE BLOCK ADDRESS 0x24f0 ===
  0x24f0	add    	byte ptr [eax], al
  0x24f2	add    	byte ptr [eax], al
  0x24f4	add    	byte ptr [eax], al
  0x24f6	add    	byte ptr [eax], al
  0x24f8	add    	byte ptr [eax], al
  === BLOCK LINK ===
    0x24fa
=== CODE BLOCK END ===

=== CODE BLOCK ADDRESS 0x24fa ===
  0x24fa	add    	byte ptr [eax], al
  0x24fc	add    	byte ptr [eax], al
  0x24fe	add    	byte ptr [eax], al
  0x2500	add    	byte ptr [eax], al
  0x2502	add    	byte ptr [eax], al
  === BLOCK LINK ===
    0x2504
=== CODE BLOCK END ===

=== CODE BLOCK ADDRESS 0x2504 ===
  0x2504	add    	byte ptr [eax], al
  0x2506	add    	byte ptr [eax], al
  0x2508	add    	byte ptr [eax], al
  0x250a	add    	byte ptr [eax], al
  0x250c	add    	byte ptr [eax], al
  === BLOCK LINK ===
    0x250e
=== CODE BLOCK END ===

=== CODE BLOCK ADDRESS 0x250e ===
  0x250e	add    	byte ptr [eax], al
  0x2510	add    	byte ptr [eax], al
  0x2512	add    	byte ptr [eax], al
  0x2514	add    	byte ptr [eax], al
  0x2516	add    	byte ptr [eax], al
  === BLOCK LINK ===
    0x2518
=== CODE BLOCK END ===

=== CODE BLOCK ADDRESS 0x2518 ===
  0x2518	add    	byte ptr [eax], al
  0x251a	add    	byte ptr [eax], al
  0x251c	add    	byte ptr [eax], al
  0x251e	add    	byte ptr [eax], al
  0x2520	add    	byte ptr [eax], al
  === BLOCK LINK ===
    0x2522
=== CODE BLOCK END ===

=== CODE BLOCK ADDRESS 0x2522 ===
  0x2522	add    	byte ptr [eax], al
  0x2524	add    	byte ptr [eax], al
  0x2526	add    	byte ptr [eax], al
  0x2528	add    	byte ptr [eax], al
  0x252a	add    	byte ptr [eax], al
  === BLOCK LINK ===
    0x252c
=== CODE BLOCK END ===

=== CODE BLOCK ADDRESS 0x252c ===
  0x252c	add    	byte ptr [eax], al
  0x252e	add    	byte ptr [eax], al
  0x2530	add    	byte ptr [eax], al
  0x2532	add    	byte ptr [eax], al
  0x2534	add    	byte ptr [eax], al
  === BLOCK LINK ===
    0x2536
=== CODE BLOCK END ===

=== CODE BLOCK ADDRESS 0x2536 ===
  0x2536	add    	byte ptr [eax], al
  0x2538	add    	byte ptr [eax], al
  0x253a	add    	byte ptr [eax], al
  0x253c	add    	byte ptr [eax], al
  0x253e	add    	byte ptr [eax], al
  === BLOCK LINK ===
    0x2540
=== CODE BLOCK END ===

=== CODE BLOCK ADDRESS 0x2540 ===
  0x2540	add    	byte ptr [eax], al
  0x2542	add    	byte ptr [eax], al
  0x2544	add    	byte ptr [eax], al
  0x2546	add    	byte ptr [eax], al
  0x2548	add    	byte ptr [eax], al
  === BLOCK LINK ===
    0x254a
=== CODE BLOCK END ===

=== CODE BLOCK ADDRESS 0x254a ===
  0x254a	add    	byte ptr [eax], al
  0x254c	add    	byte ptr [eax], al
  0x254e	add    	byte ptr [eax], al
  0x2550	add    	byte ptr [eax], al
  0x2552	add    	byte ptr [eax], al
  === BLOCK LINK ===
    0x2554
=== CODE BLOCK END ===

=== CODE BLOCK ADDRESS 0x2554 ===
  0x2554	add    	byte ptr [eax], al
  0x2556	add    	byte ptr [eax], al
  0x2558	add    	byte ptr [eax], al
  0x255a	add    	byte ptr [eax], al
  0x255c	add    	byte ptr [eax], al
  === BLOCK LINK ===
    0x255e
=== CODE BLOCK END ===

=== CODE BLOCK ADDRESS 0x255e ===
  0x255e	add    	byte ptr [eax], al
  0x2560	add    	byte ptr [eax], al
  0x2562	add    	byte ptr [eax], al
  0x2564	add    	byte ptr [eax], al
  0x2566	add    	byte ptr [eax], al
  === BLOCK LINK ===
    0x2568
=== CODE BLOCK END ===

=== CODE BLOCK ADDRESS 0x2568 ===
  0x2568	add    	byte ptr [eax], al
  0x256a	add    	byte ptr [eax], al
  0x256c	add    	byte ptr [eax], al
  0x256e	add    	byte ptr [eax], al
  0x2570	add    	byte ptr [eax], al
  === BLOCK LINK ===
    0x2572
=== CODE BLOCK END ===

=== CODE BLOCK ADDRESS 0x2572 ===
  0x2572	add    	byte ptr [eax], al
  0x2574	add    	byte ptr [eax], al
  0x2576	add    	byte ptr [eax], al
  0x2578	add    	byte ptr [eax], al
  0x257a	add    	byte ptr [eax], al
  === BLOCK LINK ===
    0x257c
=== CODE BLOCK END ===

=== CODE BLOCK ADDRESS 0x257c ===
  0x257c	add    	byte ptr [eax], al
  0x257e	add    	byte ptr [eax], al
  0x2580	add    	byte ptr [eax], al
  0x2582	add    	byte ptr [eax], al
  0x2584	add    	byte ptr [eax], al
  === BLOCK LINK ===
    0x2586
=== CODE BLOCK END ===

=== CODE BLOCK ADDRESS 0x2586 ===
  0x2586	add    	byte ptr [eax], al
  0x2588	add    	byte ptr [eax], al
  0x258a	add    	byte ptr [eax], al
  0x258c	add    	byte ptr [eax], al
  0x258e	add    	byte ptr [eax], al
  === BLOCK LINK ===
    0x2590
=== CODE BLOCK END ===

=== CODE BLOCK ADDRESS 0x2590 ===
  0x2590	add    	byte ptr [eax], al
  0x2592	add    	byte ptr [eax], al
  0x2594	add    	byte ptr [eax], al
  0x2596	add    	byte ptr [eax], al
  0x2598	add    	byte ptr [eax], al
  === BLOCK LINK ===
    0x259a
=== CODE BLOCK END ===

=== CODE BLOCK ADDRESS 0x259a ===
  0x259a	add    	byte ptr [eax], al
  0x259c	add    	byte ptr [eax], al
  0x259e	add    	byte ptr [eax], al
  0x25a0	add    	byte ptr [eax], al
  0x25a2	add    	byte ptr [eax], al
  === BLOCK LINK ===
    0x25a4
=== CODE BLOCK END ===

=== CODE BLOCK ADDRESS 0x25a4 ===
  0x25a4	add    	byte ptr [eax], al
  0x25a6	add    	byte ptr [eax], al
  0x25a8	add    	byte ptr [eax], al
  0x25aa	add    	byte ptr [eax], al
  0x25ac	add    	byte ptr [eax], al
  === BLOCK LINK ===
    0x25ae
=== CODE BLOCK END ===

=== CODE BLOCK ADDRESS 0x25ae ===
  0x25ae	add    	byte ptr [eax], al
  0x25b0	add    	byte ptr [eax], al
  0x25b2	add    	byte ptr [eax], al
  0x25b4	add    	byte ptr [eax], al
  0x25b6	add    	byte ptr [eax], al
  === BLOCK LINK ===
    0x25b8
=== CODE BLOCK END ===

=== CODE BLOCK ADDRESS 0x25b8 ===
  0x25b8	add    	byte ptr [eax], al
  0x25ba	add    	byte ptr [eax], al
  0x25bc	add    	byte ptr [eax], al
  0x25be	add    	byte ptr [eax], al
  0x25c0	add    	byte ptr [eax], al
  === BLOCK LINK ===
    0x25c2
=== CODE BLOCK END ===

=== CODE BLOCK ADDRESS 0x25c2 ===
  0x25c2	add    	byte ptr [eax], al
  0x25c4	add    	byte ptr [eax], al
  0x25c6	add    	byte ptr [eax], al
  0x25c8	add    	byte ptr [eax], al
  0x25ca	add    	byte ptr [eax], al
  === BLOCK LINK ===
    0x25cc
=== CODE BLOCK END ===

=== CODE BLOCK ADDRESS 0x25cc ===
  0x25cc	add    	byte ptr [eax], al
  0x25ce	add    	byte ptr [eax], al
  0x25d0	add    	byte ptr [eax], al
  0x25d2	add    	byte ptr [eax], al
  0x25d4	add    	byte ptr [eax], al
  === BLOCK LINK ===
    0x25d6
=== CODE BLOCK END ===

=== CODE BLOCK ADDRESS 0x25d6 ===
  0x25d6	add    	byte ptr [eax], al
  0x25d8	add    	byte ptr [eax], al
  0x25da	add    	byte ptr [eax], al
  0x25dc	add    	byte ptr [eax], al
  0x25de	add    	byte ptr [eax], al
  === BLOCK LINK ===
    0x25e0
=== CODE BLOCK END ===

=== CODE BLOCK ADDRESS 0x25e0 ===
  0x25e0	add    	byte ptr [eax], al
  0x25e2	add    	byte ptr [eax], al
  0x25e4	add    	byte ptr [eax], al
  0x25e6	add    	byte ptr [eax], al
  0x25e8	add    	byte ptr [eax], al
  === BLOCK LINK ===
    0x25ea
=== CODE BLOCK END ===

=== CODE BLOCK ADDRESS 0x25ea ===
  0x25ea	add    	byte ptr [eax], al
  0x25ec	add    	byte ptr [eax], al
  0x25ee	add    	byte ptr [eax], al
  0x25f0	add    	byte ptr [eax], al
  0x25f2	add    	byte ptr [eax], al
  === BLOCK LINK ===
    0x25f4
=== CODE BLOCK END ===

=== CODE BLOCK ADDRESS 0x25f4 ===
  0x25f4	add    	byte ptr [eax], al
  0x25f6	add    	byte ptr [eax], al
  0x25f8	add    	byte ptr [eax], al
  0x25fa	add    	byte ptr [eax], al
  0x25fc	add    	byte ptr [eax], al
  === BLOCK LINK ===
    0x25fe
=== CODE BLOCK END ===

=== CODE BLOCK ADDRESS 0x25fe ===
=== CODE BLOCK END ===

=== DATA BLOCK ADDRESS 0x3000 ===
  0x3000	80 50 00 40 01 00 00 00 20 51 00 40 01 00 00 00 	0P0@0000 Q0@0000
  0x3010	70 10 00 40 01 00 00 00 50 1e 00 40 01 00 00 00 	p00@0000P00@0000
  0x3020	50 1e 00 40 01 00 00 00 b0 10 00 40 01 00 00 00 	P00@0000000@0000
  0x3030	20 11 00 40 01 00 00 00 d0 10 00 40 01 00 00 00 	 00@0000000@0000
  0x3040	70 10 00 40 01 00 00 00 40 11 00 40 01 00 00 00 	p00@0000@00@0000
  0x3050	50 11 00 40 01 00 00 00 b0 10 00 40 01 00 00 00 	P00@0000000@0000
  0x3060	20 11 00 40 01 00 00 00 d0 10 00 40 01 00 00 00 	 00@0000000@0000
  0x3070	70 10 00 40 01 00 00 00 90 11 00 40 01 00 00 00 	p00@0000000@0000
  0x3080	a0 11 00 40 01 00 00 00 b0 10 00 40 01 00 00 00 	000@0000000@0000
  0x3090	20 11 00 40 01 00 00 00 d0 10 00 40 01 00 00 00 	 00@0000000@0000
  0x30a0	70 10 00 40 01 00 00 00 f0 11 00 40 01 00 00 00 	p00@0000000@0000
  0x30b0	00 12 00 40 01 00 00 00 40 12 00 40 01 00 00 00 	000@0000@00@0000
  0x30c0	20 11 00 40 01 00 00 00 d0 10 00 40 01 00 00 00 	 00@0000000@0000
  0x30d0	18 01 00 00 00 00 00 00 00 00 00 00 00 00 00 00 	0000000000000000
  0x30e0	00 00 00 00 00 00 00 00 00 00 00 00 00 00 00 00 	0000000000000000
  0x30f0	00 00 00 00 00 00 00 00 00 00 00 00 00 00 00 00 	0000000000000000
  0x3100	00 00 00 00 00 00 00 00 00 00 00 00 00 00 00 00 	0000000000000000
  0x3110	00 00 00 00 00 00 00 00 00 00 00 00 00 00 00 00 	0000000000000000
  0x3120	00 00 00 00 00 00 00 00 28 50 00 40 01 00 00 00 	00000000(P0@0000
  0x3130	00 00 00 00 00 00 00 00 00 00 00 00 00 00 00 00 	0000000000000000
  0x3140	c8 33 00 40 01 00 00 00 d0 33 00 40 01 00 00 00 	030@0000030@0000
  0x3150	38 34 00 40 01 00 00 00 1a 00 00 00 00 00 00 00 	840@000000000000
  0x3160	00 75 41 00 00 00 00 00 00 00 00 00 00 00 00 00 	0uA0000000000000
  0x3170	a0 34 00 40 01 00 00 00 01 00 00 00 00 00 00 00 	040@000000000000
  0x3180	00 00 00 00 00 00 00 00 00 00 00 00 00 00 00 00 	0000000000000000
  0x3190	00 00 00 00 00 00 00 00 00 00 00 00 00 00 00 00 	0000000000000000
  0x31a0	00 00 00 00 00 00 00 00 00 00 00 00 00 00 00 00 	0000000000000000
  0x31b0	00 00 00 00 00 00 00 00 00 00 00 00 00 00 00 00 	0000000000000000
  0x31c0	00 00 00 00 00 00 00 00 00 00 00 00 00 00 00 00 	0000000000000000
  0x31d0	00 00 00 00 00 00 00 00 28 34 00 40 01 00 00 00 	00000000(40@0000
  0x31e0	04 00 00 00 00 00 00 00 2e 41 00 00 00 00 00 00 	00000000.A000000
  0x31f0	f4 40 00 00 00 00 00 00 4a 41 00 00 00 00 00 00 	0@000000JA000000
  0x3200	00 00 00 00 00 00 00 00 a4 40 00 00 00 00 00 00 	000000000@000000
  0x3210	00 00 00 00 00 00 00 00 aa 41 00 00 00 00 00 00 	000000000A000000
  0x3220	68 41 00 00 00 00 00 00 7c 41 00 00 00 00 00 00 	hA000000|A000000
  0x3230	8e 40 00 00 00 00 00 00 00 00 00 00 00 00 00 00 	0@00000000000000
  0x3240	90 41 00 00 00 00 00 00 00 00 00 00 00 00 00 00 	0A00000000000000
  0x3250	26 41 00 00 00 00 00 00 00 00 00 00 00 00 00 00 	&A00000000000000
  0x3260	da 41 00 00 00 00 00 00 c0 41 00 00 00 00 00 00 	0A0000000A000000
  0x3270	00 00 00 00 00 00 00 00 e2 40 00 00 00 00 00 00 	000000000@000000
  0x3280	d2 40 00 00 00 00 00 00 b8 40 00 00 00 00 00 00 	0@0000000@000000
  0x3290	00 00 00 00 00 00 00 00 06 41 00 00 00 00 00 00 	000000000A000000
  0x32a0	00 00 00 00 00 00 00 00 b4 3e 00 00 00 00 00 00 	000000000>000000
  0x32b0	94 3e 00 00 00 00 00 00 58 3e 00 00 00 00 00 00 	0>000000X>000000
  0x32c0	72 3e 00 00 00 00 00 00 d6 3e 00 00 00 00 00 00 	r>0000000>000000
  0x32d0	00 00 00 00 00 00 00 00 1c 43 00 00 00 00 00 00 	000000000C000000
  0x32e0	3c 43 00 00 00 00 00 00 38 40 00 00 00 00 00 00 	<C0000008@000000
  0x32f0	2a 40 00 00 00 00 00 00 20 40 00 00 00 00 00 00 	*@000000 @000000
  0x3300	18 40 00 00 00 00 00 00 04 40 00 00 00 00 00 00 	0@0000000@000000
  0x3310	ec 3f 00 00 00 00 00 00 e2 3f 00 00 00 00 00 00 	0?0000000?000000
  0x3320	ca 3f 00 00 00 00 00 00 be 3f 00 00 00 00 00 00 	0?0000000?000000
  0x3330	aa 3f 00 00 00 00 00 00 a0 3f 00 00 00 00 00 00 	0?0000000?000000
  0x3340	98 3f 00 00 00 00 00 00 90 3f 00 00 00 00 00 00 	0?0000000?000000
  0x3350	7e 3f 00 00 00 00 00 00 6c 3f 00 00 00 00 00 00 	~?000000l?000000
  0x3360	5e 3f 00 00 00 00 00 00 50 3f 00 00 00 00 00 00 	^?000000P?000000
  0x3370	44 3f 00 00 00 00 00 00 3a 3f 00 00 00 00 00 00 	D?000000:?000000
  0x3380	2e 3f 00 00 00 00 00 00 1e 3f 00 00 00 00 00 00 	.?0000000?000000
  0x3390	08 3f 00 00 00 00 00 00 32 43 00 00 00 00 00 00 	0?0000002C000000
  0x33a0	00 00 00 00 00 00 00 00 42 40 00 00 00 00 00 00 	00000000B@000000
  0x33b0	56 40 00 00 00 00 00 00 70 40 00 00 00 00 00 00 	V@000000p@000000
  0x33c0	00 00 00 00 00 00 00 00 90 21 00 40 01 00 00 00 	000000000!0@0000
  0x33d0	f0 22 00 40 01 00 00 00 00 00 00 00 00 00 00 00 	0"0@000000000000
  0x33e0	70 19 00 40 01 00 00 00 10 10 00 40 01 00 00 00 	p00@0000000@0000
  0x33f0	30 10 00 40 01 00 00 00 50 10 00 40 01 00 00 00 	000@0000P00@0000
  0x3400	00 00 00 00 00 00 00 00 00 00 00 00 00 00 00 00 	0000000000000000
  0x3410	90 18 00 40 01 00 00 00 c0 1e 00 40 01 00 00 00 	000@0000000@0000
  0x3420	00 00 00 00 00 00 00 00 46 16 00 00 3b 1b 00 00 	00000000F000;000
  0x3430	32 1f 00 00 40 20 00 00 10 10 00 00 30 10 00 00 	2000@ 0000000000
  0x3440	50 10 00 00 70 10 00 00 b0 10 00 00 d0 10 00 00 	P000p00000000000
  0x3450	20 11 00 00 40 11 00 00 50 11 00 00 90 11 00 00 	 000@000P0000000
  0x3460	a0 11 00 00 f0 11 00 00 00 12 00 00 40 12 00 00 	000000000000@000
  0x3470	90 18 00 00 70 19 00 00 90 1b 00 00 20 1c 00 00 	0000p0000000 000
  0x3480	50 1e 00 00 80 1e 00 00 c0 1e 00 00 a0 1f 00 00 	P000000000000000
  0x3490	90 21 00 00 80 24 00 00 a0 24 00 00 c0 24 00 00 	0!000$000$000$00
  0x34a0	e8 32 00 00 00 00 00 00 00 00 00 00 00 00 00 00 	0200000000000000
  0x34b0	67 65 6e 65 72 69 63 00 75 6e 6b 6e 6f 77 6e 20 	generic0unknown 
  0x34c0	65 72 72 6f 72 00 00 00 69 6f 73 74 72 65 61 6d 	error000iostream
  0x34d0	00 00 00 00 00 00 00 00 69 6f 73 74 72 65 61 6d 	00000000iostream
  0x34e0	20 73 74 72 65 61 6d 20 65 72 72 6f 72 00 00 00 	 stream error000
  0x34f0	73 79 73 74 65 6d 00 00 69 6e 76 61 6c 69 64 20 	system00invalid 
  0x3500	73 74 72 69 6e 67 20 70 6f 73 69 74 69 6f 6e 00 	string position0
  0x3510	73 74 72 69 6e 67 20 74 6f 6f 20 6c 6f 6e 67 00 	string too long0
  0x3520	35 00 00 00 00 00 00 00 c0 00 00 00 00 00 00 46 	500000000000000F
  0x3530	57 00 69 00 6e 00 64 00 6f 00 77 00 73 00 2e 00 	W0i0n0d0o0w0s0.0
  0x3540	41 00 70 00 70 00 6c 00 69 00 63 00 61 00 74 00 	A0p0p0l0i0c0a0t0
  0x3550	69 00 6f 00 6e 00 4d 00 6f 00 64 00 65 00 6c 00 	i0o0n0M0o0d0e0l0
  0x3560	2e 00 43 00 6f 00 6e 00 76 00 65 00 72 00 73 00 	.0C0o0n0v0e0r0s0
  0x3570	61 00 74 00 69 00 6f 00 6e 00 61 00 6c 00 41 00 	a0t0i0o0n0a0l0A0
  0x3580	67 00 65 00 6e 00 74 00 2e 00 49 00 6e 00 74 00 	g0e0n0t0.0I0n0t0
  0x3590	65 00 72 00 6e 00 61 00 6c 00 2e 00 43 00 6f 00 	e0r0n0a0l0.0C0o0
  0x35a0	6e 00 76 00 65 00 72 00 73 00 61 00 74 00 69 00 	n0v0e0r0s0a0t0i0
  0x35b0	6f 00 6e 00 61 00 6c 00 41 00 67 00 65 00 6e 00 	o0n0a0l0A0g0e0n0
  0x35c0	74 00 53 00 65 00 73 00 73 00 69 00 6f 00 6e 00 	t0S0e0s0s0i0o0n0
  0x35d0	49 00 6e 00 74 00 65 00 72 00 6e 00 61 00 6c 00 	I0n0t0e0r0n0a0l0
  0x35e0	00 00 00 00 00 00 00 00 22 05 93 19 04 00 00 00 	00000000"0000000
  0x35f0	90 39 00 00 02 00 00 00 b0 39 00 00 05 00 00 00 	0900000009000000
  0x3600	00 3a 00 00 20 00 00 00 00 00 00 00 01 00 00 00 	0:00 00000000000
  0x3610	22 05 93 19 02 00 00 00 58 3a 00 00 00 00 00 00 	"0000000X:000000
  0x3620	00 00 00 00 05 00 00 00 68 3a 00 00 30 00 00 00 	00000000h:000000
  0x3630	00 00 00 00 01 00 00 00 00 00 00 00 00 00 00 00 	0000000000000000
  0x3640	00 00 00 00 a6 2e a5 d6 00 00 00 00 02 00 00 00 	00000.0000000000
  0x3650	3a 00 00 00 94 36 00 00 94 20 00 00 00 00 00 00 	:00006000 000000
  0x3660	a6 2e a5 d6 00 00 00 00 0d 00 00 00 3c 02 00 00 	0.0000000000<000
  0x3670	d0 36 00 00 d0 20 00 00 00 00 00 00 a6 2e a5 d6 	06000 0000000.00
  0x3680	00 00 00 00 10 00 00 00 24 00 00 00 0c 39 00 00 	00000000$0000900
  0x3690	0c 23 00 00 52 53 44 53 92 43 a2 aa 0f a0 2d 96 	0#00RSDS0C0000-0
  0x36a0	ed 7c d9 ae 2b b3 f1 eb 01 00 00 00 41 67 65 6e 	0|00+0000000Agen
  0x36b0	74 41 63 74 69 76 61 74 69 6f 6e 52 75 6e 74 69 	tActivationRunti
  0x36c0	6d 65 53 74 61 72 74 65 72 2e 70 64 62 00 00 00 	meStarter.pdb000
  0x36d0	47 43 54 4c 00 10 00 00 60 00 00 00 2e 74 65 78 	GCTL0000`000.tex
  0x36e0	74 24 64 69 00 00 00 00 60 10 00 00 80 12 00 00 	t$di0000`0000000
  0x36f0	2e 74 65 78 74 24 6d 6e 00 00 00 00 e0 22 00 00 	.text$mn00000"00
  0x3700	80 00 00 00 2e 74 65 78 74 24 6d 6e 24 30 30 00 	0000.text$mn$000
  0x3710	60 23 00 00 10 01 00 00 2e 74 65 78 74 24 78 00 	`#000000.text$x0
  0x3720	70 24 00 00 60 00 00 00 2e 74 65 78 74 24 79 64 	p$00`000.text$yd
  0x3730	00 00 00 00 00 30 00 00 e8 01 00 00 2e 72 64 61 	000000000000.rda
  0x3740	74 61 24 62 72 63 00 00 e8 31 00 00 e0 01 00 00 	ta$brc0001000000
  0x3750	2e 69 64 61 74 61 24 35 00 00 00 00 c8 33 00 00 	.idata$500000300
  0x3760	10 00 00 00 2e 30 30 63 66 67 00 00 d8 33 00 00 	0000.00cfg000300
  0x3770	08 00 00 00 2e 43 52 54 24 58 43 41 00 00 00 00 	0000.CRT$XCA0000
  0x3780	e0 33 00 00 08 00 00 00 2e 43 52 54 24 58 43 41 	03000000.CRT$XCA
  0x3790	41 00 00 00 e8 33 00 00 18 00 00 00 2e 43 52 54 	A00003000000.CRT
  0x37a0	24 58 43 55 00 00 00 00 00 34 00 00 08 00 00 00 	$XCU000004000000
  0x37b0	2e 43 52 54 24 58 43 5a 00 00 00 00 08 34 00 00 	.CRT$XCZ00000400
  0x37c0	08 00 00 00 2e 43 52 54 24 58 49 41 00 00 00 00 	0000.CRT$XIA0000
  0x37d0	10 34 00 00 08 00 00 00 2e 43 52 54 24 58 49 41 	04000000.CRT$XIA
  0x37e0	41 00 00 00 18 34 00 00 08 00 00 00 2e 43 52 54 	A00004000000.CRT
  0x37f0	24 58 49 59 00 00 00 00 20 34 00 00 08 00 00 00 	$XIY0000 4000000
  0x3800	2e 43 52 54 24 58 49 5a 00 00 00 00 28 34 00 00 	.CRT$XIZ0000(400
  0x3810	10 00 00 00 2e 67 65 68 63 6f 6e 74 00 00 00 00 	0000.gehcont0000
  0x3820	38 34 00 00 68 00 00 00 2e 67 66 69 64 73 00 00 	8400h000.gfids00
  0x3830	a0 34 00 00 10 00 00 00 2e 67 69 61 74 73 00 00 	04000000.giats00
  0x3840	b0 34 00 00 e4 01 00 00 2e 72 64 61 74 61 00 00 	04000000.rdata00
  0x3850	94 36 00 00 9c 02 00 00 2e 72 64 61 74 61 24 7a 	06000000.rdata$z
  0x3860	7a 7a 64 62 67 00 00 00 30 39 00 00 58 02 00 00 	zzdbg0000900X000
  0x3870	2e 78 64 61 74 61 00 00 88 3b 00 00 dc 00 00 00 	.xdata000;000000
  0x3880	2e 69 64 61 74 61 24 32 00 00 00 00 64 3c 00 00 	.idata$20000d<00
  0x3890	14 00 00 00 2e 69 64 61 74 61 24 33 00 00 00 00 	0000.idata$30000
  0x38a0	78 3c 00 00 e0 01 00 00 2e 69 64 61 74 61 24 34 	x<000000.idata$4
  0x38b0	00 00 00 00 58 3e 00 00 ee 04 00 00 2e 69 64 61 	0000X>000000.ida
  0x38c0	74 61 24 36 00 00 00 00 00 50 00 00 20 00 00 00 	ta$600000P00 000
  0x38d0	2e 64 61 74 61 24 62 72 63 00 00 00 20 50 00 00 	.data$brc000 P00
  0x38e0	30 00 00 00 2e 64 61 74 61 00 00 00 50 50 00 00 	0000.data000PP00
  0x38f0	78 06 00 00 2e 62 73 73 00 00 00 00 00 60 00 00 	x000.bss00000`00
  0x3900	d4 01 00 00 2e 70 64 61 74 61 00 00 20 00 00 00 	0000.pdata00 000
  0x3910	92 43 a2 aa 0f a0 2d 96 ed 7c d9 ae 2b b3 f1 eb 	0C0000-00|00+000
  0x3920	23 84 e8 43 11 5a 32 d0 0f ff e2 eb a6 2e a5 d6 	#00C0Z2000000.00
  0x3930	01 06 02 00 06 32 02 30 01 06 02 00 06 52 02 30 	0000020000000R00
  0x3940	01 0a 04 00 0a 34 06 00 0a 32 06 70 01 0f 06 00 	00000400020p0000
  0x3950	0f 64 07 00 0f 34 06 00 0f 32 0b 70 01 04 01 00 	0d000400020p0000
  0x3960	04 42 00 00 01 15 08 00 15 74 08 00 15 54 07 00 	0B0000000t000T00
  0x3970	15 34 06 00 15 32 11 e0 19 20 05 00 18 62 14 e0 	040002000 000b00
  0x3980	12 70 11 60 10 30 00 00 a8 1b 00 00 e8 35 00 00 	0p0`000000000500
  0x3990	ff ff ff ff 00 00 00 00 ff ff ff ff 00 00 00 00 	0000000000000000
  0x39a0	01 00 00 00 00 00 00 00 01 00 00 00 00 00 00 00 	0000000000000000
  0x39b0	00 00 00 00 00 00 00 00 03 00 00 00 01 00 00 00 	0000000000000000
  0x39c0	d8 39 00 00 02 00 00 00 02 00 00 00 03 00 00 00 	0900000000000000
  0x39d0	01 00 00 00 ec 39 00 00 40 00 00 00 00 00 00 00 	00000900@0000000
  0x39e0	00 00 00 00 63 23 00 00 38 00 00 00 40 00 00 00 	0000c#008000@000
  0x39f0	00 00 00 00 00 00 00 00 ae 23 00 00 38 00 00 00 	000000000#008000
  0x3a00	2a 16 00 00 00 00 00 00 44 16 00 00 ff ff ff ff 	*0000000D0000000
  0x3a10	86 23 00 00 02 00 00 00 a0 23 00 00 00 00 00 00 	0#0000000#000000
  0x3a20	cd 23 00 00 03 00 00 00 19 0a 02 00 0a 32 06 50 	0#0000000000020P
  0x3a30	a8 1b 00 00 e8 35 00 00 19 2d 08 00 1f 74 10 00 	000005000-000t00
  0x3a40	1b 64 0f 00 17 34 0e 00 0b b2 04 50 38 22 00 00 	0d000400000P8"00
  0x3a50	10 36 00 00 5a 00 00 00 ff ff ff ff d9 23 00 00 	0600Z00000000#00
  0x3a60	00 00 00 00 eb 23 00 00 42 17 00 00 00 00 00 00 	00000#00B0000000
  0x3a70	7f 17 00 00 01 00 00 00 9b 17 00 00 00 00 00 00 	0000000000000000
  0x3a80	b6 17 00 00 ff ff ff ff f7 17 00 00 00 00 00 00 	0000000000000000
  0x3a90	01 04 01 00 04 62 00 00 09 15 08 00 15 74 0a 00 	00000b0000000t00
  0x3aa0	15 64 09 00 15 34 08 00 15 52 11 f0 7a 21 00 00 	0d0004000R00z!00
  0x3ab0	01 00 00 00 d5 19 00 00 3b 1b 00 00 fd 23 00 00 	00000000;0000#00
  0x3ac0	3b 1b 00 00 01 06 02 00 06 32 02 50 00 00 00 00 	;0000000020P0000
  0x3ad0	01 00 00 00 01 0c 02 00 0c 01 11 00 11 06 02 00 	0000000000000000
  0x3ae0	06 32 02 30 7a 21 00 00 01 00 00 00 d1 1d 00 00 	0200z!0000000000
  0x3af0	16 1e 00 00 21 24 00 00 00 00 00 00 09 04 01 00 	0000!$0000000000
  0x3b00	04 22 00 00 7a 21 00 00 01 00 00 00 fc 1e 00 00 	0"00z!0000000000
  0x3b10	32 1f 00 00 01 00 00 00 32 1f 00 00 09 0a 04 00 	2000000020000000
  0x3b20	0a 34 06 00 0a 32 06 70 7a 21 00 00 01 00 00 00 	0400020pz!000000
  0x3b30	0d 20 00 00 40 20 00 00 50 24 00 00 40 20 00 00 	0 00@ 00P$00@ 00
  0x3b40	01 0d 04 00 0d 34 09 00 0d 32 06 50 00 00 00 00 	00000400020P0000
  0x3b50	01 00 00 00 01 02 01 00 02 30 00 00 01 19 0a 00 	0000000000000000
  0x3b60	19 74 09 00 19 64 08 00 19 54 07 00 19 34 06 00 	0t000d000T000400
  0x3b70	19 32 15 e0 00 00 00 00 02 04 03 00 01 16 00 06 	0200000000000000
  0x3b80	04 12 00 00 00 00 00 00 38 3d 00 00 00 00 00 00 	000000008=000000
  0x3b90	00 00 00 00 f6 3e 00 00 a8 32 00 00 68 3d 00 00 	00000>000200h=00
  0x3ba0	00 00 00 00 00 00 00 00 f8 3f 00 00 d8 32 00 00 	000000000?000200
  0x3bb0	38 3e 00 00 00 00 00 00 00 00 00 00 84 40 00 00 	8>00000000000@00
  0x3bc0	a8 33 00 00 98 3c 00 00 00 00 00 00 00 00 00 00 	03000<0000000000
  0x3bd0	ea 41 00 00 08 32 00 00 a8 3c 00 00 00 00 00 00 	0A0002000<000000
  0x3be0	00 00 00 00 14 42 00 00 18 32 00 00 08 3d 00 00 	00000B0002000=00
  0x3bf0	00 00 00 00 00 00 00 00 3e 42 00 00 78 32 00 00 	00000000>B00x200
  0x3c00	78 3c 00 00 00 00 00 00 00 00 00 00 60 42 00 00 	x<0000000000`B00
  0x3c10	e8 31 00 00 28 3d 00 00 00 00 00 00 00 00 00 00 	0100(=0000000000
  0x3c20	8a 42 00 00 98 32 00 00 e0 3c 00 00 00 00 00 00 	0B0002000<000000
  0x3c30	00 00 00 00 b2 42 00 00 50 32 00 00 d0 3c 00 00 	00000B00P2000<00
  0x3c40	00 00 00 00 00 00 00 00 d4 42 00 00 40 32 00 00 	000000000B00@200
  0x3c50	f0 3c 00 00 00 00 00 00 00 00 00 00 f8 42 00 00 	0<00000000000B00
  0x3c60	60 32 00 00 00 00 00 00 00 00 00 00 00 00 00 00 	`200000000000000
  0x3c70	00 00 00 00 00 00 00 00 2e 41 00 00 00 00 00 00 	00000000.A000000
  0x3c80	f4 40 00 00 00 00 00 00 4a 41 00 00 00 00 00 00 	0@000000JA000000
  0x3c90	00 00 00 00 00 00 00 00 a4 40 00 00 00 00 00 00 	000000000@000000
  0x3ca0	00 00 00 00 00 00 00 00 aa 41 00 00 00 00 00 00 	000000000A000000
  0x3cb0	68 41 00 00 00 00 00 00 7c 41 00 00 00 00 00 00 	hA000000|A000000
  0x3cc0	8e 40 00 00 00 00 00 00 00 00 00 00 00 00 00 00 	0@00000000000000
  0x3cd0	90 41 00 00 00 00 00 00 00 00 00 00 00 00 00 00 	0A00000000000000
  0x3ce0	26 41 00 00 00 00 00 00 00 00 00 00 00 00 00 00 	&A00000000000000
  0x3cf0	da 41 00 00 00 00 00 00 c0 41 00 00 00 00 00 00 	0A0000000A000000
  0x3d00	00 00 00 00 00 00 00 00 e2 40 00 00 00 00 00 00 	000000000@000000
  0x3d10	d2 40 00 00 00 00 00 00 b8 40 00 00 00 00 00 00 	0@0000000@000000
  0x3d20	00 00 00 00 00 00 00 00 06 41 00 00 00 00 00 00 	000000000A000000
  0x3d30	00 00 00 00 00 00 00 00 b4 3e 00 00 00 00 00 00 	000000000>000000
  0x3d40	94 3e 00 00 00 00 00 00 58 3e 00 00 00 00 00 00 	0>000000X>000000
  0x3d50	72 3e 00 00 00 00 00 00 d6 3e 00 00 00 00 00 00 	r>0000000>000000
  0x3d60	00 00 00 00 00 00 00 00 1c 43 00 00 00 00 00 00 	000000000C000000
  0x3d70	3c 43 00 00 00 00 00 00 38 40 00 00 00 00 00 00 	<C0000008@000000
  0x3d80	2a 40 00 00 00 00 00 00 20 40 00 00 00 00 00 00 	*@000000 @000000
  0x3d90	18 40 00 00 00 00 00 00 04 40 00 00 00 00 00 00 	0@0000000@000000
  0x3da0	ec 3f 00 00 00 00 00 00 e2 3f 00 00 00 00 00 00 	0?0000000?000000
  0x3db0	ca 3f 00 00 00 00 00 00 be 3f 00 00 00 00 00 00 	0?0000000?000000
  0x3dc0	aa 3f 00 00 00 00 00 00 a0 3f 00 00 00 00 00 00 	0?0000000?000000
  0x3dd0	98 3f 00 00 00 00 00 00 90 3f 00 00 00 00 00 00 	0?0000000?000000
  0x3de0	7e 3f 00 00 00 00 00 00 6c 3f 00 00 00 00 00 00 	~?000000l?000000
  0x3df0	5e 3f 00 00 00 00 00 00 50 3f 00 00 00 00 00 00 	^?000000P?000000
  0x3e00	44 3f 00 00 00 00 00 00 3a 3f 00 00 00 00 00 00 	D?000000:?000000
  0x3e10	2e 3f 00 00 00 00 00 00 1e 3f 00 00 00 00 00 00 	.?0000000?000000
  0x3e20	08 3f 00 00 00 00 00 00 32 43 00 00 00 00 00 00 	0?0000002C000000
  0x3e30	00 00 00 00 00 00 00 00 42 40 00 00 00 00 00 00 	00000000B@000000
  0x3e40	56 40 00 00 00 00 00 00 70 40 00 00 00 00 00 00 	V@000000p@000000
  0x3e50	00 00 00 00 00 00 00 00 8d 02 3f 5f 58 62 61 64 	0000000000?_Xbad
  0x3e60	5f 61 6c 6c 6f 63 40 73 74 64 40 40 59 41 58 58 	_alloc@std@@YAXX
  0x3e70	5a 00 91 02 3f 5f 58 6f 75 74 5f 6f 66 5f 72 61 	Z000?_Xout_of_ra
  0x3e80	6e 67 65 40 73 74 64 40 40 59 41 58 50 45 42 44 	nge@std@@YAXPEBD
  0x3e90	40 5a 00 00 89 02 3f 5f 57 69 6e 65 72 72 6f 72 	@Z0000?_Winerror
  0x3ea0	5f 6d 61 70 40 73 74 64 40 40 59 41 50 45 42 44 	_map@std@@YAPEBD
  0x3eb0	48 40 5a 00 90 02 3f 5f 58 6c 65 6e 67 74 68 5f 	H@Z000?_Xlength_
  0x3ec0	65 72 72 6f 72 40 73 74 64 40 40 59 41 58 50 45 	error@std@@YAXPE
  0x3ed0	42 44 40 5a 00 00 79 02 3f 5f 53 79 73 65 72 72 	BD@Z00y0?_Syserr
  0x3ee0	6f 72 5f 6d 61 70 40 73 74 64 40 40 59 41 50 45 	or_map@std@@YAPE
  0x3ef0	42 44 48 40 5a 00 6d 73 76 63 70 31 31 30 5f 77 	BDH@Z0msvcp110_w
  0x3f00	69 6e 2e 64 6c 6c 00 00 5b 00 5f 5f 43 78 78 46 	in.dll00[0__CxxF
  0x3f10	72 61 6d 65 48 61 6e 64 6c 65 72 33 00 00 14 00 	rameHandler30000
  0x3f20	3f 3f 33 40 59 41 58 50 45 41 58 40 5a 00 9e 02 	??3@YAXPEAX@Z000
  0x3f30	5f 70 75 72 65 63 61 6c 6c 00 86 04 6d 61 6c 6c 	_purecall000mall
  0x3f40	6f 63 00 00 bf 00 5f 63 61 6c 6c 6e 65 77 68 00 	oc0000_callnewh0
  0x3f50	55 00 5f 58 63 70 74 46 69 6c 74 65 72 00 ae 00 	U0_XcptFilter000
  0x3f60	5f 61 6d 73 67 5f 65 78 69 74 00 00 9d 00 5f 5f 	_amsg_exit0000__
  0x3f70	77 67 65 74 6d 61 69 6e 61 72 67 73 00 00 8e 00 	wgetmainargs0000
  0x3f80	5f 5f 73 65 74 5f 61 70 70 5f 74 79 70 65 00 00 	__set_app_type00
  0x3f90	32 04 65 78 69 74 00 00 0e 01 5f 65 78 69 74 00 	20exit0000_exit0
  0x3fa0	c1 00 5f 63 65 78 69 74 00 00 90 00 5f 5f 73 65 	00_cexit0000__se
  0x3fb0	74 75 73 65 72 6d 61 74 68 65 72 72 00 00 7d 01 	tusermatherr00}0
  0x3fc0	5f 69 6e 69 74 74 65 72 6d 00 57 00 5f 5f 43 5f 	_initterm0W0__C_
  0x3fd0	73 70 65 63 69 66 69 63 5f 68 61 6e 64 6c 65 72 	specific_handler
  0x3fe0	00 00 27 01 5f 66 6d 6f 64 65 00 00 d2 00 5f 63 	00'0_fmode0000_c
  0x3ff0	6f 6d 6d 6f 64 65 00 00 6d 73 76 63 72 74 2e 64 	ommode00msvcrt.d
  0x4000	6c 6c 00 00 2f 00 3f 74 65 72 6d 69 6e 61 74 65 	ll00/0?terminate
  0x4010	40 40 59 41 58 58 5a 00 e6 01 5f 6c 6f 63 6b 00 	@@YAXXZ000_lock0
  0x4020	41 03 5f 75 6e 6c 6f 63 6b 00 7b 00 5f 5f 64 6c 	A0_unlock0{0__dl
  0x4030	6c 6f 6e 65 78 69 74 00 90 02 5f 6f 6e 65 78 69 	lonexit000_onexi
  0x4040	74 00 f3 02 52 74 6c 43 61 70 74 75 72 65 43 6f 	t000RtlCaptureCo
  0x4050	6e 74 65 78 74 00 ea 04 52 74 6c 4c 6f 6f 6b 75 	ntext000RtlLooku
  0x4060	70 46 75 6e 63 74 69 6f 6e 45 6e 74 72 79 00 00 	pFunctionEntry00
  0x4070	29 06 52 74 6c 56 69 72 74 75 61 6c 55 6e 77 69 	)0RtlVirtualUnwi
  0x4080	6e 64 00 00 6e 74 64 6c 6c 2e 64 6c 6c 00 11 00 	nd00ntdll.dll000
  0x4090	47 65 74 43 75 72 72 65 6e 74 54 68 72 65 61 64 	GetCurrentThread
  0x40a0	49 64 00 00 14 00 47 65 74 4d 6f 64 75 6c 65 48 	Id0000GetModuleH
  0x40b0	61 6e 64 6c 65 57 00 00 01 00 52 6f 47 65 74 41 	andleW0000RoGetA
  0x40c0	63 74 69 76 61 74 69 6f 6e 46 61 63 74 6f 72 79 	ctivationFactory
  0x40d0	00 00 03 00 52 6f 49 6e 69 74 69 61 6c 69 7a 65 	0000RoInitialize
  0x40e0	00 00 07 00 52 6f 55 6e 69 6e 69 74 69 61 6c 69 	0000RoUninitiali
  0x40f0	7a 65 00 00 07 00 52 61 69 73 65 45 78 63 65 70 	ze0000RaiseExcep
  0x4100	74 69 6f 6e 00 00 0b 00 57 69 6e 64 6f 77 73 43 	tion0000WindowsC
  0x4110	72 65 61 74 65 53 74 72 69 6e 67 52 65 66 65 72 	reateStringRefer
  0x4120	65 6e 63 65 00 00 2d 00 53 6c 65 65 70 00 11 00 	ence00-0Sleep000
  0x4130	55 6e 68 61 6e 64 6c 65 64 45 78 63 65 70 74 69 	UnhandledExcepti
  0x4140	6f 6e 46 69 6c 74 65 72 00 00 0f 00 53 65 74 55 	onFilter0000SetU
  0x4150	6e 68 61 6e 64 6c 65 64 45 78 63 65 70 74 69 6f 	nhandledExceptio
  0x4160	6e 46 69 6c 74 65 72 00 0c 00 47 65 74 43 75 72 	nFilter000GetCur
  0x4170	72 65 6e 74 50 72 6f 63 65 73 73 00 4f 00 54 65 	rentProcess0O0Te
  0x4180	72 6d 69 6e 61 74 65 50 72 6f 63 65 73 73 00 00 	rminateProcess00
  0x4190	00 00 51 75 65 72 79 50 65 72 66 6f 72 6d 61 6e 	00QueryPerforman
  0x41a0	63 65 43 6f 75 6e 74 65 72 00 0d 00 47 65 74 43 	ceCounter000GetC
  0x41b0	75 72 72 65 6e 74 50 72 6f 63 65 73 73 49 64 00 	urrentProcessId0
  0x41c0	16 00 47 65 74 53 79 73 74 65 6d 54 69 6d 65 41 	00GetSystemTimeA
  0x41d0	73 46 69 6c 65 54 69 6d 65 00 1a 00 47 65 74 54 	sFileTime000GetT
  0x41e0	69 63 6b 43 6f 75 6e 74 00 00 61 70 69 2d 6d 73 	ickCount00api-ms
  0x41f0	2d 77 69 6e 2d 63 6f 72 65 2d 6c 69 62 72 61 72 	-win-core-librar
  0x4200	79 6c 6f 61 64 65 72 2d 6c 31 2d 32 2d 30 2e 64 	yloader-l1-2-0.d
  0x4210	6c 6c 00 00 61 70 69 2d 6d 73 2d 77 69 6e 2d 63 	ll00api-ms-win-c
  0x4220	6f 72 65 2d 70 72 6f 63 65 73 73 74 68 72 65 61 	ore-processthrea
  0x4230	64 73 2d 6c 31 2d 31 2d 30 2e 64 6c 6c 00 61 70 	ds-l1-1-0.dll0ap
  0x4240	69 2d 6d 73 2d 77 69 6e 2d 63 6f 72 65 2d 77 69 	i-ms-win-core-wi
  0x4250	6e 72 74 2d 6c 31 2d 31 2d 30 2e 64 6c 6c 00 00 	nrt-l1-1-0.dll00
  0x4260	61 70 69 2d 6d 73 2d 77 69 6e 2d 63 6f 72 65 2d 	api-ms-win-core-
  0x4270	65 72 72 6f 72 68 61 6e 64 6c 69 6e 67 2d 6c 31 	errorhandling-l1
  0x4280	2d 31 2d 30 2e 64 6c 6c 00 00 61 70 69 2d 6d 73 	-1-0.dll00api-ms
  0x4290	2d 77 69 6e 2d 63 6f 72 65 2d 77 69 6e 72 74 2d 	-win-core-winrt-
  0x42a0	73 74 72 69 6e 67 2d 6c 31 2d 31 2d 30 2e 64 6c 	string-l1-1-0.dl
  0x42b0	6c 00 61 70 69 2d 6d 73 2d 77 69 6e 2d 63 6f 72 	l0api-ms-win-cor
  0x42c0	65 2d 73 79 6e 63 68 2d 6c 31 2d 32 2d 30 2e 64 	e-synch-l1-2-0.d
  0x42d0	6c 6c 00 00 61 70 69 2d 6d 73 2d 77 69 6e 2d 63 	ll00api-ms-win-c
  0x42e0	6f 72 65 2d 70 72 6f 66 69 6c 65 2d 6c 31 2d 31 	ore-profile-l1-1
  0x42f0	2d 30 2e 64 6c 6c 00 00 61 70 69 2d 6d 73 2d 77 	-0.dll00api-ms-w
  0x4300	69 6e 2d 63 6f 72 65 2d 73 79 73 69 6e 66 6f 2d 	in-core-sysinfo-
  0x4310	6c 31 2d 31 2d 30 2e 64 6c 6c 00 00 4b 00 5f 43 	l1-1-0.dll00K0_C
  0x4320	78 78 54 68 72 6f 77 45 78 63 65 70 74 69 6f 6e 	xxThrowException
  0x4330	00 00 92 04 6d 65 6d 63 70 79 00 00 94 04 6d 65 	0000memcpy0000me
  0x4340	6d 6d 6f 76 65 00 00 00 00 00 00 00 00 00 00 00 	mmove00000000000
  0x4350	00 00 00 00 00 00 00 00 00 00 00 00 00 00 00 00 	0000000000000000
  0x4360	00 00 00 00 00 00 00 00 00 00 00 00 00 00 00 00 	0000000000000000
  0x4370	00 00 00 00 00 00 00 00 00 00 00 00 00 00 00 00 	0000000000000000
  0x4380	00 00 00 00 00 00 00 00 00 00 00 00 00 00 00 00 	0000000000000000
  0x4390	00 00 00 00 00 00 00 00 00 00 00 00 00 00 00 00 	0000000000000000
  0x43a0	00 00 00 00 00 00 00 00 00 00 00 00 00 00 00 00 	0000000000000000
  0x43b0	00 00 00 00 00 00 00 00 00 00 00 00 00 00 00 00 	0000000000000000
  0x43c0	00 00 00 00 00 00 00 00 00 00 00 00 00 00 00 00 	0000000000000000
  0x43d0	00 00 00 00 00 00 00 00 00 00 00 00 00 00 00 00 	0000000000000000
  0x43e0	00 00 00 00 00 00 00 00 00 00 00 00 00 00 00 00 	0000000000000000
  0x43f0	00 00 00 00 00 00 00 00 00 00 00 00 00 00 00 00 	0000000000000000
=== DATA BLOCK END ===

=== DATA BLOCK ADDRESS 0x5000 ===
  0x5000	a0 30 00 40 01 00 00 00 70 30 00 40 01 00 00 00 	000@0000p00@0000
  0x5010	40 30 00 40 01 00 00 00 00 00 00 00 00 00 00 00 	@00@000000000000
  0x5020	01 00 00 00 00 00 00 00 32 a2 df 2d 99 2b 00 00 	00000000200-0+00
  0x5030	cd 5d 20 d2 66 d4 ff ff 00 00 00 00 00 00 00 00 	0] 0f00000000000
  0x5040	01 01 00 00 00 00 00 00 00 00 00 00 00 00 00 00 	0000000000000000
  0x5050	00 00 00 00 00 00 00 00 00 00 00 00 00 00 00 00 	0000000000000000
  0x5060	00 00 00 00 00 00 00 00 00 00 00 00 00 00 00 00 	0000000000000000
  0x5070	00 00 00 00 00 00 00 00 00 00 00 00 00 00 00 00 	0000000000000000
  0x5080	00 00 00 00 00 00 00 00 00 00 00 00 00 00 00 00 	0000000000000000
  0x5090	00 00 00 00 00 00 00 00 00 00 00 00 00 00 00 00 	0000000000000000
  0x50a0	00 00 00 00 00 00 00 00 00 00 00 00 00 00 00 00 	0000000000000000
  0x50b0	00 00 00 00 00 00 00 00 00 00 00 00 00 00 00 00 	0000000000000000
  0x50c0	00 00 00 00 00 00 00 00 00 00 00 00 00 00 00 00 	0000000000000000
  0x50d0	00 00 00 00 00 00 00 00 00 00 00 00 00 00 00 00 	0000000000000000
  0x50e0	00 00 00 00 00 00 00 00 00 00 00 00 00 00 00 00 	0000000000000000
  0x50f0	00 00 00 00 00 00 00 00 00 00 00 00 00 00 00 00 	0000000000000000
  0x5100	00 00 00 00 00 00 00 00 00 00 00 00 00 00 00 00 	0000000000000000
  0x5110	00 00 00 00 00 00 00 00 00 00 00 00 00 00 00 00 	0000000000000000
  0x5120	00 00 00 00 00 00 00 00 00 00 00 00 00 00 00 00 	0000000000000000
  0x5130	00 00 00 00 00 00 00 00 00 00 00 00 00 00 00 00 	0000000000000000
  0x5140	00 00 00 00 00 00 00 00 00 00 00 00 00 00 00 00 	0000000000000000
  0x5150	00 00 00 00 00 00 00 00 00 00 00 00 00 00 00 00 	0000000000000000
  0x5160	00 00 00 00 00 00 00 00 00 00 00 00 00 00 00 00 	0000000000000000
  0x5170	00 00 00 00 00 00 00 00 00 00 00 00 00 00 00 00 	0000000000000000
  0x5180	00 00 00 00 00 00 00 00 00 00 00 00 00 00 00 00 	0000000000000000
  0x5190	00 00 00 00 00 00 00 00 00 00 00 00 00 00 00 00 	0000000000000000
  0x51a0	00 00 00 00 00 00 00 00 00 00 00 00 00 00 00 00 	0000000000000000
  0x51b0	00 00 00 00 00 00 00 00 00 00 00 00 00 00 00 00 	0000000000000000
  0x51c0	00 00 00 00 00 00 00 00 00 00 00 00 00 00 00 00 	0000000000000000
  0x51d0	00 00 00 00 00 00 00 00 00 00 00 00 00 00 00 00 	0000000000000000
  0x51e0	00 00 00 00 00 00 00 00 00 00 00 00 00 00 00 00 	0000000000000000
  0x51f0	00 00 00 00 00 00 00 00 00 00 00 00 00 00 00 00 	0000000000000000
=== DATA BLOCK END ===

=== DATA BLOCK ADDRESS 0x6000 ===
  0x6000	70 10 00 00 9e 10 00 00 30 39 00 00 d0 10 00 00 	p000000009000000
  0x6010	0b 11 00 00 38 39 00 00 50 11 00 00 88 11 00 00 	00008900P0000000
  0x6020	30 39 00 00 a0 11 00 00 e7 11 00 00 30 39 00 00 	0900000000000900
  0x6030	00 12 00 00 38 12 00 00 30 39 00 00 40 12 00 00 	000080000900@000
  0x6040	87 12 00 00 40 39 00 00 90 12 00 00 9e 13 00 00 	0000@90000000000
  0x6050	4c 39 00 00 a4 13 00 00 04 14 00 00 4c 39 00 00 	L90000000000L900
  0x6060	0c 14 00 00 24 14 00 00 5c 39 00 00 2c 14 00 00 	0000$0000900,000
  0x6070	44 14 00 00 5c 39 00 00 4c 14 00 00 a7 15 00 00 	D0000900L0000000
  0x6080	64 39 00 00 b0 15 00 00 b2 16 00 00 78 39 00 00 	d90000000000x900
  0x6090	b8 16 00 00 ff 17 00 00 38 3a 00 00 08 18 00 00 	000000008:000000
  0x60a0	2e 18 00 00 5c 39 00 00 50 18 00 00 81 18 00 00 	.0000900P0000000
  0x60b0	30 39 00 00 90 18 00 00 63 19 00 00 5c 39 00 00 	09000000c0000900
  0x60c0	70 19 00 00 b9 19 00 00 90 3a 00 00 c0 19 00 00 	p00000000:000000
  0x60d0	7e 1b 00 00 98 3a 00 00 90 1b 00 00 a2 1b 00 00 	~0000:0000000000
  0x60e0	5c 39 00 00 c0 1b 00 00 de 1b 00 00 d0 3a 00 00 	0900000000000:00
  0x60f0	e4 1b 00 00 18 1c 00 00 30 39 00 00 20 1c 00 00 	000000000900 000
  0x6100	91 1d 00 00 d4 3a 00 00 98 1d 00 00 25 1e 00 00 	00000:000000%000
  0x6110	dc 3a 00 00 2c 1e 00 00 43 1e 00 00 5c 39 00 00 	0:00,000C0000900
  0x6120	80 1e 00 00 b9 1e 00 00 5c 39 00 00 c0 1e 00 00 	0000000009000000
  0x6130	d8 1e 00 00 5c 39 00 00 ec 1e 00 00 40 1f 00 00 	000009000000@000
  0x6140	fc 3a 00 00 48 1f 00 00 8d 1f 00 00 30 39 00 00 	0:00H00000000900
  0x6150	00 20 00 00 4d 20 00 00 1c 3b 00 00 94 20 00 00 	0 00M 000;000 00
  0x6160	68 21 00 00 40 3b 00 00 d4 21 00 00 2f 22 00 00 	h!00@;000!00/"00
  0x6170	54 3b 00 00 38 22 00 00 b7 22 00 00 5c 3b 00 00 	T;008"000"000;00
  0x6180	f0 22 00 00 f2 22 00 00 50 3b 00 00 10 23 00 00 	0"000"00P;000#00
  0x6190	5d 23 00 00 78 3b 00 00 63 23 00 00 ae 23 00 00 	]#00x;00c#000#00
  0x61a0	28 3a 00 00 ae 23 00 00 d3 23 00 00 28 3a 00 00 	(:000#000#00(:00
  0x61b0	fd 23 00 00 1b 24 00 00 c4 3a 00 00 21 24 00 00 	0#000$000:00!$00
  0x61c0	3c 24 00 00 c4 3a 00 00 50 24 00 00 70 24 00 00 	<$000:00P$00p$00
  0x61d0	c4 3a 00 00 00 00 00 00 00 00 00 00 00 00 00 00 	0:00000000000000
  0x61e0	00 00 00 00 00 00 00 00 00 00 00 00 00 00 00 00 	0000000000000000
  0x61f0	00 00 00 00 00 00 00 00 00 00 00 00 00 00 00 00 	0000000000000000
=== DATA BLOCK END ===
