===== Assembly blocks =====

=== CODE BLOCK ADDRESS 0x1000 ===
  0x1000	int3   	
  0x1001	int3   	
  0x1002	int3   	
  0x1003	int3   	
  0x1004	int3   	
  === BLOCK LINK ===
    0x1005
=== CODE BLOCK END ===

=== CODE BLOCK ADDRESS 0x1005 ===
  0x1005	int3   	
  0x1006	int3   	
  0x1007	int3   	
  0x1008	inc    	eax
  0x1009	push   	ebp
  === BLOCK LINK ===
    0x100a
=== CODE BLOCK END ===

=== CODE BLOCK ADDRESS 0x100a ===
  0x100a	dec    	eax
  0x100b	lea    	ebp, [esp - 0x57]
  0x100f	dec    	eax
  0x1010	sub    	esp, 0xd0
  0x1016	dec    	eax
  === BLOCK LINK ===
    0x1017
=== CODE BLOCK END ===

=== CODE BLOCK ADDRESS 0x1017 ===
  0x1017	mov    	eax, dword ptr [0x3feb]
  0x101d	dec    	eax
  0x101e	xor    	eax, esp
  0x1020	dec    	eax
  0x1021	mov    	dword ptr [ebp + 0x47], eax
  === BLOCK LINK ===
    0x1024
=== CODE BLOCK END ===

=== CODE BLOCK ADDRESS 0x1024 ===
  0x1024	dec    	eax
  0x1025	lea    	ecx, [0x2335]
  0x102b	call   	0x1338
  === BLOCK LINK ===
    0x1030
    0x1338
=== CODE BLOCK END ===

=== CODE BLOCK ADDRESS 0x1030 ===
  0x1030	xor    	edx, edx
  0x1032	dec    	eax
  0x1033	lea    	ecx, [ebp - 0x59]
  0x1036	inc    	ecx
  0x1037	mov    	eax, 0xa0
  === BLOCK LINK ===
    0x103c
=== CODE BLOCK END ===

=== CODE BLOCK ADDRESS 0x103c ===
  0x103c	call   	0x21b6
  === BLOCK LINK ===
    0x1041
    0x21b6
=== CODE BLOCK END ===

=== CODE BLOCK ADDRESS 0x1041 ===
  0x1041	mov    	ecx, 1
  0x1046	mov    	dword ptr [ebp - 0x59], ecx
  0x1049	mov    	dword ptr [ebp - 0x31], ecx
  0x104c	mov    	dword ptr [ebp - 9], ecx
  0x104f	lea    	eax, [ecx + 0x43]
  === BLOCK LINK ===
    0x1052
=== CODE BLOCK END ===

=== CODE BLOCK ADDRESS 0x1052 ===
  0x1052	mov    	dword ptr [ebp + 0x1f], ecx
  0x1055	lea    	edx, [ecx + 0x5a]
  0x1058	mov    	word ptr [ebp - 0x29], ax
  0x105c	mov    	word ptr [ebp - 1], ax
  0x1060	inc    	esp
  === BLOCK LINK ===
    0x1061
=== CODE BLOCK END ===

=== CODE BLOCK ADDRESS 0x1061 ===
  0x1061	lea    	eax, [ecx + 0x27]
  0x1064	lea    	eax, [ecx + 1]
  0x1067	mov    	word ptr [ebp - 0x51], dx
  0x106b	mov    	word ptr [ebp + 0x27], dx
  0x106f	lea    	ecx, [eax + 2]
  === BLOCK LINK ===
    0x1072
=== CODE BLOCK END ===

=== CODE BLOCK ADDRESS 0x1072 ===
  0x1072	dec    	eax
  0x1073	lea    	edx, [ebp - 0x59]
  0x1076	mov    	dword ptr [ebp + 3], eax
  0x1079	mov    	dword ptr [ebp + 0x2b], eax
  0x107c	dec    	eax
  === BLOCK LINK ===
    0x107d
=== CODE BLOCK END ===

=== CODE BLOCK ADDRESS 0x107d ===
  0x107d	call   	dword ptr [0x2185]
  === BLOCK LINK ===
    0x1083
=== CODE BLOCK END ===

=== CODE BLOCK ADDRESS 0x1083 ===
  0x1083	nop    	dword ptr [eax + eax]
  0x1088	cmp    	eax, 4
  0x108b	je     	0x10b3
  === BLOCK LINK ===
    0x108d
    0x10b3
=== CODE BLOCK END ===

=== CODE BLOCK ADDRESS 0x108d ===
  0x108d	dec    	eax
  0x108e	call   	dword ptr [0x20dc]
  === BLOCK LINK ===
    0x1094
=== CODE BLOCK END ===

=== CODE BLOCK ADDRESS 0x1094 ===
  0x1094	nop    	dword ptr [eax + eax]
  0x1099	movzx  	edx, ax
  0x109c	dec    	eax
  0x109d	lea    	ecx, [0x22e5]
  0x10a3	or     	edx, 0x80070000
  === BLOCK LINK ===
    0x10a9
=== CODE BLOCK END ===

=== CODE BLOCK ADDRESS 0x10a9 ===
  0x10a9	test   	eax, eax
  0x10ab	cmovle  	edx, eax
  0x10ae	call   	0x1338
  === BLOCK LINK ===
    0x10b3
    0x1338
=== CODE BLOCK END ===

=== CODE BLOCK ADDRESS 0x10b3 ===
  0x10b3	dec    	eax
  0x10b4	mov    	ecx, dword ptr [ebp + 0x47]
  0x10b7	dec    	eax
  0x10b8	xor    	ecx, esp
  0x10ba	call   	0x1c10
  === BLOCK LINK ===
    0x10bf
    0x1c10
=== CODE BLOCK END ===

=== CODE BLOCK ADDRESS 0x10bf ===
  0x10bf	dec    	eax
  0x10c0	add    	esp, 0xd0
  0x10c6	pop    	ebp
  0x10c7	ret    	
  0x10c8	int3   	
  === BLOCK LINK ===
    0x10c9
=== CODE BLOCK END ===

=== CODE BLOCK ADDRESS 0x1338 ===
=== CODE BLOCK END ===

=== CODE BLOCK ADDRESS 0x10c9 ===
  0x10c9	int3   	
  0x10ca	int3   	
  0x10cb	int3   	
  0x10cc	int3   	
  0x10cd	int3   	
  === BLOCK LINK ===
    0x10ce
=== CODE BLOCK END ===

=== CODE BLOCK ADDRESS 0x10ce ===
  0x10ce	int3   	
  0x10cf	int3   	
  0x10d0	inc    	eax
  0x10d1	push   	ebx
  0x10d2	dec    	eax
  === BLOCK LINK ===
    0x10d3
=== CODE BLOCK END ===

=== CODE BLOCK ADDRESS 0x10d3 ===
  0x10d3	sub    	esp, 0x20
  0x10d6	and    	dword ptr [esp + 0x48], 0
  0x10db	dec    	esp
  0x10dc	lea    	eax, [esp + 0x48]
  0x10e0	dec    	eax
  === BLOCK LINK ===
    0x10e1
=== CODE BLOCK END ===

=== CODE BLOCK ADDRESS 0x10e1 ===
  0x10e1	mov    	edx, ecx
  0x10e3	dec    	ecx
  0x10e4	mov    	ebx, ecx
  0x10e6	dec    	ecx
  0x10e7	mov    	ecx, dword ptr [ecx + 8]
  === BLOCK LINK ===
    0x10ea
=== CODE BLOCK END ===

=== CODE BLOCK ADDRESS 0x10ea ===
  0x10ea	dec    	eax
  0x10eb	mov    	eax, dword ptr [ecx]
  0x10ed	dec    	eax
  0x10ee	mov    	eax, dword ptr [eax + 0x18]
  0x10f1	call   	dword ptr [0x21e1]
  === BLOCK LINK ===
    0x10f7
=== CODE BLOCK END ===

=== CODE BLOCK ADDRESS 0x10f7 ===
  0x10f7	test   	eax, eax
  0x10f9	js     	0x114b
  === BLOCK LINK ===
    0x10fb
    0x114b
=== CODE BLOCK END ===

=== CODE BLOCK ADDRESS 0x10fb ===
  0x10fb	dec    	eax
  0x10fc	lea    	ecx, [0x22b6]
  0x1102	call   	0x1338
  === BLOCK LINK ===
    0x1107
    0x1338
=== CODE BLOCK END ===

=== CODE BLOCK ADDRESS 0x1107 ===
  0x1107	mov    	ecx, dword ptr [esp + 0x48]
  0x110b	test   	ecx, ecx
  0x110d	je     	0x113f
  === BLOCK LINK ===
    0x110f
    0x113f
=== CODE BLOCK END ===

=== CODE BLOCK ADDRESS 0x110f ===
  0x110f	sub    	ecx, 1
  0x1112	je     	0x1136
  === BLOCK LINK ===
    0x1114
    0x1136
=== CODE BLOCK END ===

=== CODE BLOCK ADDRESS 0x1114 ===
  0x1114	cmp    	ecx, 1
  0x1117	je     	0x1122
  === BLOCK LINK ===
    0x1119
    0x1122
=== CODE BLOCK END ===

=== CODE BLOCK ADDRESS 0x1119 ===
  0x1119	dec    	eax
  0x111a	lea    	ecx, [0x2310]
  0x1120	jmp    	0x1146
  === BLOCK LINK ===
    0x1122
    0x1146
=== CODE BLOCK END ===

=== CODE BLOCK ADDRESS 0x1122 ===
  0x1122	dec    	eax
  0x1123	lea    	ecx, [0x22e7]
  0x1129	call   	0x1338
  === BLOCK LINK ===
    0x112e
    0x1338
=== CODE BLOCK END ===

=== CODE BLOCK ADDRESS 0x112e ===
  0x112e	mov    	dword ptr [ebx], 1
  0x1134	jmp    	0x114b
  === BLOCK LINK ===
    0x1136
    0x114b
=== CODE BLOCK END ===

=== CODE BLOCK ADDRESS 0x1136 ===
  0x1136	dec    	eax
  0x1137	lea    	ecx, [0x22bb]
  0x113d	jmp    	0x1146
  === BLOCK LINK ===
    0x113f
    0x1146
=== CODE BLOCK END ===

=== CODE BLOCK ADDRESS 0x113f ===
  0x113f	dec    	eax
  0x1140	lea    	ecx, [0x229a]
  0x1146	call   	0x1338
  === BLOCK LINK ===
    0x114b
    0x1338
=== CODE BLOCK END ===

=== CODE BLOCK ADDRESS 0x114b ===
  0x114b	mov    	eax, 1
  0x1150	dec    	eax
  0x1151	add    	esp, 0x20
  0x1154	pop    	ebx
  0x1155	ret    	
  === BLOCK LINK ===
    0x1156
=== CODE BLOCK END ===

=== CODE BLOCK ADDRESS 0x21b6 ===
  0x21b6	jmp    	dword ptr [0x10e4]
  === BLOCK LINK ===
    0x21bc
=== CODE BLOCK END ===

=== CODE BLOCK ADDRESS 0x1156 ===
  0x1156	int3   	
  0x1157	int3   	
  0x1158	int3   	
  0x1159	int3   	
  0x115a	int3   	
  === BLOCK LINK ===
    0x115b
=== CODE BLOCK END ===

=== CODE BLOCK ADDRESS 0x115b ===
  0x115b	int3   	
  0x115c	int3   	
  0x115d	int3   	
  0x115e	int3   	
  0x115f	int3   	
  === BLOCK LINK ===
    0x1160
=== CODE BLOCK END ===

=== CODE BLOCK ADDRESS 0x1160 ===
  0x1160	dec    	eax
  0x1161	mov    	dword ptr [esp + 0x10], ebx
  0x1165	push   	ebp
  0x1166	dec    	eax
  0x1167	mov    	ebp, esp
  === BLOCK LINK ===
    0x1169
=== CODE BLOCK END ===

=== CODE BLOCK ADDRESS 0x1169 ===
  0x1169	dec    	eax
  0x116a	sub    	esp, 0x40
  0x116d	dec    	eax
  0x116e	lea    	ecx, [0x22dc]
  0x1174	call   	0x1338
  === BLOCK LINK ===
    0x1179
    0x1338
=== CODE BLOCK END ===

=== CODE BLOCK ADDRESS 0x1179 ===
  0x1179	and    	dword ptr [ebp + 0x10], 0
  0x117d	dec    	eax
  0x117e	lea    	eax, [ebp - 8]
  0x1181	xor    	edx, edx
  0x1183	dec    	eax
  === BLOCK LINK ===
    0x1184
=== CODE BLOCK END ===

=== CODE BLOCK ADDRESS 0x1184 ===
  0x1184	mov    	dword ptr [esp + 0x20], eax
  0x1188	xorps  	xmm0, xmm0
  0x118b	dec    	esp
  0x118c	lea    	ecx, [0x28ee]
  0x1192	dec    	eax
  === BLOCK LINK ===
    0x1193
=== CODE BLOCK END ===

=== CODE BLOCK ADDRESS 0x1193 ===
  0x1193	lea    	ecx, [0x21b7]
  0x1199	movups  	xmmword ptr [ebp - 0x10], xmm0
  0x119d	inc    	esp
  0x119e	lea    	eax, [edx + 1]
  0x11a1	dec    	eax
  === BLOCK LINK ===
    0x11a2
=== CODE BLOCK END ===

=== CODE BLOCK ADDRESS 0x11a2 ===
  0x11a2	call   	dword ptr [0x2110]
  === BLOCK LINK ===
    0x11a8
=== CODE BLOCK END ===

=== CODE BLOCK ADDRESS 0x11a8 ===
  0x11a8	nop    	dword ptr [eax + eax]
  0x11ad	mov    	ebx, eax
  0x11af	test   	eax, eax
  0x11b1	js     	0x1242
  === BLOCK LINK ===
    0x11b7
    0x1242
=== CODE BLOCK END ===

=== CODE BLOCK ADDRESS 0x11b7 ===
  0x11b7	dec    	eax
  0x11b8	mov    	ecx, dword ptr [ebp - 8]
  0x11bb	dec    	eax
  0x11bc	lea    	edx, [ebp + 0x10]
  0x11bf	dec    	eax
  === BLOCK LINK ===
    0x11c0
=== CODE BLOCK END ===

=== CODE BLOCK ADDRESS 0x11c0 ===
  0x11c0	mov    	eax, dword ptr [ecx]
  0x11c2	dec    	eax
  0x11c3	mov    	eax, dword ptr [eax + 0x20]
  0x11c6	call   	dword ptr [0x210c]
  === BLOCK LINK ===
    0x11cc
=== CODE BLOCK END ===

=== CODE BLOCK ADDRESS 0x11cc ===
  0x11cc	mov    	ebx, eax
  0x11ce	test   	eax, eax
  0x11d0	js     	0x122d
  === BLOCK LINK ===
    0x11d2
    0x122d
=== CODE BLOCK END ===

=== CODE BLOCK ADDRESS 0x11d2 ===
  0x11d2	cmp    	dword ptr [ebp + 0x10], 0
  0x11d6	dec    	eax
  0x11d7	lea    	eax, [0x22bb]
  0x11dd	dec    	eax
  0x11de	lea    	edx, [0x22c4]
  === BLOCK LINK ===
    0x11e4
=== CODE BLOCK END ===

=== CODE BLOCK ADDRESS 0x11e4 ===
  0x11e4	dec    	eax
  0x11e5	cmovne  	edx, eax
  0x11e8	dec    	eax
  0x11e9	lea    	ecx, [0x22c9]
  0x11ef	call   	0x1338
  === BLOCK LINK ===
    0x11f4
    0x1338
=== CODE BLOCK END ===

=== CODE BLOCK ADDRESS 0x11f4 ===
  0x11f4	cmp    	dword ptr [ebp + 0x10], 0
  0x11f8	jne    	0x122d
  === BLOCK LINK ===
    0x11fa
    0x122d
=== CODE BLOCK END ===

=== CODE BLOCK ADDRESS 0x11fa ===
  0x11fa	dec    	esp
  0x11fb	lea    	ecx, [ebp - 0x10]
  0x11fe	xor    	edx, edx
  0x1200	dec    	esp
  0x1201	lea    	eax, [0xfffffec9]
  === BLOCK LINK ===
    0x1207
=== CODE BLOCK END ===

=== CODE BLOCK ADDRESS 0x1207 ===
  0x1207	xor    	ecx, ecx
  0x1209	dec    	eax
  0x120a	call   	dword ptr [0x2000]
  === BLOCK LINK ===
    0x1210
=== CODE BLOCK END ===

=== CODE BLOCK ADDRESS 0x1210 ===
  0x1210	nop    	dword ptr [eax + eax]
  0x1215	test   	eax, eax
  0x1217	jne    	0x1227
  === BLOCK LINK ===
    0x1219
    0x1227
=== CODE BLOCK END ===

=== CODE BLOCK ADDRESS 0x1219 ===
  0x1219	dec    	eax
  0x121a	lea    	ecx, [0x22d0]
  0x1220	call   	0x1338
  === BLOCK LINK ===
    0x1225
    0x1338
=== CODE BLOCK END ===

=== CODE BLOCK ADDRESS 0x1225 ===
  0x1225	jmp    	0x122d
  === BLOCK LINK ===
    0x1227
    0x122d
=== CODE BLOCK END ===

=== CODE BLOCK ADDRESS 0x1227 ===
  0x1227	mov    	eax, dword ptr [ebp - 0x10]
  0x122a	mov    	dword ptr [ebp + 0x10], eax
  === BLOCK LINK ===
    0x122d
=== CODE BLOCK END ===

=== CODE BLOCK ADDRESS 0x1232 ===
  0x1232	mov    	eax, dword ptr [ecx]
  0x1234	dec    	eax
  0x1235	mov    	eax, dword ptr [eax + 0x10]
  0x1238	call   	dword ptr [0x209a]
  === BLOCK LINK ===
    0x123e
=== CODE BLOCK END ===

=== CODE BLOCK ADDRESS 0x123e ===
  0x123e	test   	ebx, ebx
  0x1240	jns    	0x1250
  === BLOCK LINK ===
    0x1242
    0x1250
=== CODE BLOCK END ===

=== CODE BLOCK ADDRESS 0x1242 ===
  0x1242	mov    	edx, ebx
  0x1244	dec    	eax
  0x1245	lea    	ecx, [0x22e5]
  0x124b	call   	0x1338
  === BLOCK LINK ===
    0x1250
    0x1338
=== CODE BLOCK END ===

=== CODE BLOCK ADDRESS 0x1250 ===
  0x1250	cmp    	dword ptr [ebp + 0x10], 0
  0x1254	dec    	eax
  0x1255	lea    	eax, [0x2325]
  0x125b	dec    	eax
  0x125c	lea    	edx, [0x232e]
  === BLOCK LINK ===
    0x1262
=== CODE BLOCK END ===

=== CODE BLOCK ADDRESS 0x1262 ===
  0x1262	dec    	eax
  0x1263	cmovne  	edx, eax
  0x1266	dec    	eax
  0x1267	lea    	ecx, [0x233b]
  0x126d	call   	0x1338
  === BLOCK LINK ===
    0x1272
    0x1338
=== CODE BLOCK END ===

=== CODE BLOCK ADDRESS 0x1272 ===
  0x1272	mov    	eax, dword ptr [ebp + 0x10]
  0x1275	dec    	eax
  0x1276	mov    	ebx, dword ptr [esp + 0x58]
  0x127a	dec    	eax
  0x127b	add    	esp, 0x40
  === BLOCK LINK ===
    0x127e
=== CODE BLOCK END ===

=== CODE BLOCK ADDRESS 0x127e ===
  0x127e	pop    	ebp
  0x127f	ret    	
  0x1280	int3   	
  0x1281	int3   	
  0x1282	int3   	
  === BLOCK LINK ===
    0x1283
=== CODE BLOCK END ===

=== CODE BLOCK ADDRESS 0x1283 ===
  0x1283	int3   	
  0x1284	int3   	
  0x1285	int3   	
  0x1286	int3   	
  0x1287	int3   	
  === BLOCK LINK ===
    0x1288
=== CODE BLOCK END ===

=== CODE BLOCK ADDRESS 0x1288 ===
  0x1288	inc    	eax
  0x1289	push   	ebx
  0x128a	dec    	eax
  0x128b	sub    	esp, 0x30
  0x128e	xor    	ebx, ebx
  === BLOCK LINK ===
    0x1290
=== CODE BLOCK END ===

=== CODE BLOCK ADDRESS 0x1290 ===
  0x1290	dec    	eax
  0x1291	mov    	dword ptr [esp + 0x50], ebx
  0x1295	dec    	eax
  0x1296	call   	dword ptr [0x1ea4]
  === BLOCK LINK ===
    0x129c
=== CODE BLOCK END ===

=== CODE BLOCK ADDRESS 0x129c ===
  0x129c	nop    	dword ptr [eax + eax]
  0x12a1	dec    	eax
  0x12a2	mov    	ecx, eax
  0x12a4	dec    	esp
  0x12a5	lea    	eax, [esp + 0x50]
  === BLOCK LINK ===
    0x12a9
=== CODE BLOCK END ===

=== CODE BLOCK ADDRESS 0x12a9 ===
  0x12a9	lea    	edx, [ebx + 8]
  0x12ac	dec    	eax
  0x12ad	call   	dword ptr [0x1e75]
  === BLOCK LINK ===
    0x12b3
=== CODE BLOCK END ===

=== CODE BLOCK ADDRESS 0x12b3 ===
  0x12b3	nop    	dword ptr [eax + eax]
  0x12b8	test   	eax, eax
  0x12ba	je     	0x131d
  === BLOCK LINK ===
    0x12bc
    0x131d
=== CODE BLOCK END ===

=== CODE BLOCK ADDRESS 0x12bc ===
  0x12bc	dec    	eax
  0x12bd	mov    	ecx, dword ptr [esp + 0x50]
  0x12c1	dec    	eax
  0x12c2	lea    	eax, [esp + 0x48]
  0x12c6	inc    	esp
  === BLOCK LINK ===
    0x12c7
=== CODE BLOCK END ===

=== CODE BLOCK ADDRESS 0x12c7 ===
  0x12c7	lea    	ecx, [ebx + 4]
  0x12ca	dec    	eax
  0x12cb	mov    	dword ptr [esp + 0x20], eax
  0x12cf	dec    	esp
  0x12d0	lea    	eax, [esp + 0x40]
  === BLOCK LINK ===
    0x12d4
=== CODE BLOCK END ===

=== CODE BLOCK ADDRESS 0x12d4 ===
  0x12d4	lea    	edx, [ebx + 0x1a]
  0x12d7	dec    	eax
  0x12d8	call   	dword ptr [0x1e52]
  === BLOCK LINK ===
    0x12de
=== CODE BLOCK END ===

=== CODE BLOCK ADDRESS 0x12de ===
  0x12de	nop    	dword ptr [eax + eax]
  0x12e3	test   	eax, eax
  0x12e5	je     	0x12f0
  === BLOCK LINK ===
    0x12e7
=== CODE BLOCK END ===

=== CODE BLOCK ADDRESS 0x12e7 ===
  0x12e7	cmp    	dword ptr [esp + 0x40], ebx
  0x12eb	seta   	bl
  0x12ee	jmp    	0x130a
  === BLOCK LINK ===
    0x12f0
=== CODE BLOCK END ===

=== CODE BLOCK ADDRESS 0x12f0 ===
  0x12f0	dec    	eax
  0x12f1	call   	dword ptr [0x1e79]
  === BLOCK LINK ===
    0x12f7
=== CODE BLOCK END ===

=== CODE BLOCK ADDRESS 0x12f7 ===
  0x12f7	nop    	dword ptr [eax + eax]
  0x12fc	mov    	edx, eax
  0x12fe	dec    	eax
  0x12ff	lea    	ecx, [0x22e3]
  0x1305	call   	0x1338
  === BLOCK LINK ===
    0x130a
=== CODE BLOCK END ===

=== CODE BLOCK ADDRESS 0x130a ===
  0x130a	dec    	eax
  0x130b	mov    	ecx, dword ptr [esp + 0x50]
  0x130f	dec    	eax
  0x1310	call   	dword ptr [0x1e62]
  === BLOCK LINK ===
    0x1316
=== CODE BLOCK END ===

=== CODE BLOCK ADDRESS 0x1316 ===
  0x1316	nop    	dword ptr [eax + eax]
  0x131b	jmp    	0x1329
  === BLOCK LINK ===
    0x131d
=== CODE BLOCK END ===

=== CODE BLOCK ADDRESS 0x131d ===
  0x131d	dec    	eax
  0x131e	lea    	ecx, [0x2304]
  0x1324	call   	0x1338
  === BLOCK LINK ===
    0x1329
=== CODE BLOCK END ===

=== CODE BLOCK ADDRESS 0x1329 ===
  0x1329	mov    	eax, ebx
  0x132b	dec    	eax
  0x132c	add    	esp, 0x30
  0x132f	pop    	ebx
  0x1330	ret    	
  === BLOCK LINK ===
    0x1331
=== CODE BLOCK END ===

=== CODE BLOCK ADDRESS 0x1331 ===
  0x1331	int3   	
  0x1332	int3   	
  0x1333	int3   	
  0x1334	int3   	
  0x1335	int3   	
  === BLOCK LINK ===
    0x1336
=== CODE BLOCK END ===

=== CODE BLOCK ADDRESS 0x1336 ===
  0x1336	int3   	
  0x1337	int3   	
  0x1338	dec    	esp
  0x1339	mov    	ebx, esp
  0x133b	dec    	ecx
  === BLOCK LINK ===
    0x133c
=== CODE BLOCK END ===

=== CODE BLOCK ADDRESS 0x133c ===
  0x133c	mov    	dword ptr [ebx + 8], ecx
  0x133f	dec    	ecx
  0x1340	mov    	dword ptr [ebx + 0x10], edx
  0x1343	dec    	ebp
  0x1344	mov    	dword ptr [ebx + 0x18], eax
  === BLOCK LINK ===
    0x1347
=== CODE BLOCK END ===

=== CODE BLOCK ADDRESS 0x1347 ===
  0x1347	dec    	ebp
  0x1348	mov    	dword ptr [ebx + 0x20], ecx
  0x134b	push   	ebx
  0x134c	dec    	eax
  0x134d	sub    	esp, 0x370
  === BLOCK LINK ===
    0x1353
=== CODE BLOCK END ===

=== CODE BLOCK ADDRESS 0x1353 ===
  0x1353	dec    	eax
  0x1354	mov    	eax, dword ptr [0x3cae]
  0x135a	dec    	eax
  0x135b	xor    	eax, esp
  0x135d	dec    	eax
  === BLOCK LINK ===
    0x135e
=== CODE BLOCK END ===

=== CODE BLOCK ADDRESS 0x135e ===
  0x135e	mov    	dword ptr [esp + 0x360], eax
  0x1365	mov    	edx, 0x104
  0x136a	dec    	ecx
  0x136b	lea    	eax, [ebx + 0x10]
  0x136e	dec    	esp
  === BLOCK LINK ===
    0x136f
=== CODE BLOCK END ===

=== CODE BLOCK ADDRESS 0x136f ===
  0x136f	mov    	ecx, ecx
  0x1371	dec    	eax
  0x1372	mov    	dword ptr [esp + 0x20], eax
  0x1376	inc    	esp
  0x1377	mov    	eax, edx
  === BLOCK LINK ===
    0x1379
=== CODE BLOCK END ===

=== CODE BLOCK ADDRESS 0x1379 ===
  0x1379	dec    	ecx
  0x137a	lea    	ecx, [ebx - 0x228]
  0x1380	mov    	ebx, 1
  0x1385	dec    	eax
  0x1386	call   	dword ptr [0x1eec]
  === BLOCK LINK ===
    0x138c
=== CODE BLOCK END ===

=== CODE BLOCK ADDRESS 0x138c ===
  0x138c	nop    	dword ptr [eax + eax]
  0x1391	cmp    	dword ptr [0x4240], 0
  0x1398	je     	0x1406
  === BLOCK LINK ===
    0x139a
=== CODE BLOCK END ===

=== CODE BLOCK ADDRESS 0x139a ===
  0x139a	dec    	eax
  0x139b	and    	dword ptr [esp + 0x38], 0
  0x13a0	dec    	eax
  0x13a1	lea    	ecx, [esp + 0x40]
  0x13a5	dec    	eax
  === BLOCK LINK ===
    0x13a6
=== CODE BLOCK END ===

=== CODE BLOCK ADDRESS 0x13a6 ===
  0x13a6	and    	dword ptr [esp + 0x30], 0
  0x13ab	dec    	esp
  0x13ac	lea    	eax, [esp + 0x150]
  0x13b3	mov    	dword ptr [esp + 0x28], 0x104
  0x13bb	inc    	esp
  === BLOCK LINK ===
    0x13bc
=== CODE BLOCK END ===

=== CODE BLOCK ADDRESS 0x13bc ===
  0x13bc	mov    	ecx, eax
  0x13be	dec    	eax
  0x13bf	mov    	dword ptr [esp + 0x20], ecx
  0x13c3	xor    	edx, edx
  0x13c5	mov    	ecx, 0xfde9
  === BLOCK LINK ===
    0x13ca
=== CODE BLOCK END ===

=== CODE BLOCK ADDRESS 0x13ca ===
  0x13ca	dec    	eax
  0x13cb	call   	dword ptr [0x1db7]
  === BLOCK LINK ===
    0x13d1
=== CODE BLOCK END ===

=== CODE BLOCK ADDRESS 0x13d1 ===
  0x13d1	nop    	dword ptr [eax + eax]
  0x13d6	test   	eax, eax
  0x13d8	jne    	0x13de
  === BLOCK LINK ===
    0x13da
=== CODE BLOCK END ===

=== CODE BLOCK ADDRESS 0x13da ===
  0x13da	xor    	ebx, ebx
  0x13dc	jmp    	0x141a
  === BLOCK LINK ===
    0x13de
=== CODE BLOCK END ===

=== CODE BLOCK ADDRESS 0x13de ===
  0x13de	dec    	eax
  0x13df	and    	dword ptr [esp + 0x20], 0
  0x13e4	dec    	eax
  0x13e5	lea    	edx, [esp + 0x40]
  0x13e9	dec    	eax
  === BLOCK LINK ===
    0x13ea
=== CODE BLOCK END ===

=== CODE BLOCK ADDRESS 0x13ea ===
  0x13ea	mov    	ecx, dword ptr [0x41e0]
  0x13f0	inc    	ebp
  0x13f1	xor    	ecx, ecx
  0x13f3	inc    	esp
  0x13f4	mov    	eax, eax
  === BLOCK LINK ===
    0x13f6
=== CODE BLOCK END ===

=== CODE BLOCK ADDRESS 0x13f6 ===
  0x13f6	dec    	eax
  0x13f7	call   	dword ptr [0x1d4b]
  === BLOCK LINK ===
    0x13fd
=== CODE BLOCK END ===

=== CODE BLOCK ADDRESS 0x13fd ===
  0x13fd	nop    	dword ptr [eax + eax]
  0x1402	mov    	ebx, eax
  0x1404	jmp    	0x141a
  === BLOCK LINK ===
    0x1406
=== CODE BLOCK END ===

=== CODE BLOCK ADDRESS 0x1406 ===
  0x1406	dec    	eax
  0x1407	lea    	ecx, [esp + 0x150]
  0x140e	dec    	eax
  0x140f	call   	dword ptr [0x1e73]
  === BLOCK LINK ===
    0x1415
=== CODE BLOCK END ===

=== CODE BLOCK ADDRESS 0x1415 ===
  0x1415	nop    	dword ptr [eax + eax]
  0x141a	mov    	eax, ebx
  0x141c	dec    	eax
  0x141d	mov    	ecx, dword ptr [esp + 0x360]
  0x1424	dec    	eax
  === BLOCK LINK ===
    0x1425
=== CODE BLOCK END ===

=== CODE BLOCK ADDRESS 0x1425 ===
  0x1425	xor    	ecx, esp
  0x1427	call   	0x1c10
  === BLOCK LINK ===
    0x142c
=== CODE BLOCK END ===

=== CODE BLOCK ADDRESS 0x142c ===
  0x142c	dec    	eax
  0x142d	add    	esp, 0x370
  0x1433	pop    	ebx
  0x1434	ret    	
  0x1435	int3   	
  === BLOCK LINK ===
    0x1436
=== CODE BLOCK END ===

=== CODE BLOCK ADDRESS 0x1c10 ===
=== CODE BLOCK END ===

=== CODE BLOCK ADDRESS 0x1436 ===
  0x1436	int3   	
  0x1437	int3   	
  0x1438	int3   	
  0x1439	int3   	
  0x143a	int3   	
  === BLOCK LINK ===
    0x143b
=== CODE BLOCK END ===

=== CODE BLOCK ADDRESS 0x143b ===
  0x143b	int3   	
  0x143c	dec    	eax
  0x143d	mov    	eax, esp
  0x143f	dec    	eax
  0x1440	mov    	dword ptr [eax + 8], ebx
  === BLOCK LINK ===
    0x1443
=== CODE BLOCK END ===

=== CODE BLOCK ADDRESS 0x1443 ===
  0x1443	dec    	eax
  0x1444	mov    	dword ptr [eax + 0x10], esi
  0x1447	dec    	eax
  0x1448	mov    	dword ptr [eax + 0x18], edi
  0x144b	push   	ebp
  === BLOCK LINK ===
    0x144c
=== CODE BLOCK END ===

=== CODE BLOCK ADDRESS 0x144c ===
  0x144c	inc    	ecx
  0x144d	push   	esp
  0x144e	inc    	ecx
  0x144f	push   	ebp
  0x1450	inc    	ecx
  === BLOCK LINK ===
    0x1451
=== CODE BLOCK END ===

=== CODE BLOCK ADDRESS 0x1451 ===
  0x1451	push   	esi
  0x1452	inc    	ecx
  0x1453	push   	edi
  0x1454	dec    	eax
  0x1455	lea    	ebp, [eax - 0x1178]
  === BLOCK LINK ===
    0x145b
=== CODE BLOCK END ===

=== CODE BLOCK ADDRESS 0x145b ===
  0x145b	mov    	eax, 0x1250
  0x1460	call   	0x21f0
  === BLOCK LINK ===
    0x1465
=== CODE BLOCK END ===

=== CODE BLOCK ADDRESS 0x1465 ===
  0x1465	dec    	eax
  0x1466	sub    	esp, eax
  0x1468	dec    	eax
  0x1469	mov    	eax, dword ptr [0x3b99]
  0x146f	dec    	eax
  === BLOCK LINK ===
    0x1470
=== CODE BLOCK END ===

=== CODE BLOCK ADDRESS 0x1470 ===
  0x1470	xor    	eax, esp
  0x1472	dec    	eax
  0x1473	mov    	dword ptr [ebp + 0x1140], eax
  0x1479	mov    	edi, 0x1000
  0x147e	dec    	eax
  === BLOCK LINK ===
    0x147f
=== CODE BLOCK END ===

=== CODE BLOCK ADDRESS 0x147f ===
  0x147f	lea    	ecx, [esp + 0x30]
  0x1483	inc    	esp
  0x1484	mov    	eax, edi
  0x1486	xor    	edx, edx
  0x1488	call   	0x21b6
  === BLOCK LINK ===
    0x148d
=== CODE BLOCK END ===

=== CODE BLOCK ADDRESS 0x148d ===
  0x148d	and    	dword ptr [esp + 0x20], 0
  0x1492	dec    	eax
  0x1493	lea    	ecx, [ebp + 0xf30]
  0x1499	xor    	edx, edx
  0x149b	inc    	ecx
  === BLOCK LINK ===
    0x149c
=== CODE BLOCK END ===

=== CODE BLOCK ADDRESS 0x149c ===
  0x149c	mov    	eax, 0x208
  0x14a1	call   	0x21b6
  === BLOCK LINK ===
    0x14a6
=== CODE BLOCK END ===

=== CODE BLOCK ADDRESS 0x14a6 ===
  0x14a6	dec    	esp
  0x14a7	lea    	eax, [esp + 0x20]
  0x14ab	mov    	edx, edi
  0x14ad	dec    	eax
  0x14ae	lea    	ecx, [esp + 0x30]
  === BLOCK LINK ===
    0x14b2
=== CODE BLOCK END ===

=== CODE BLOCK ADDRESS 0x14b2 ===
  0x14b2	inc    	ebp
  0x14b3	xor    	ch, ch
  0x14b5	inc    	ebp
  0x14b6	xor    	ah, ah
  0x14b8	xor    	bl, bl
  === BLOCK LINK ===
    0x14ba
=== CODE BLOCK END ===

=== CODE BLOCK ADDRESS 0x14ba ===
  0x14ba	dec    	eax
  0x14bb	call   	dword ptr [0x1cbf]
  === BLOCK LINK ===
    0x14c1
=== CODE BLOCK END ===

=== CODE BLOCK ADDRESS 0x14c1 ===
  0x14c1	nop    	dword ptr [eax + eax]
  0x14c6	test   	eax, eax
  0x14c8	jne    	0x1523
  === BLOCK LINK ===
    0x14ca
=== CODE BLOCK END ===

=== CODE BLOCK ADDRESS 0x14ca ===
  0x14ca	dec    	eax
  0x14cb	call   	dword ptr [0x1c9f]
  === BLOCK LINK ===
    0x14d1
=== CODE BLOCK END ===

=== CODE BLOCK ADDRESS 0x14d1 ===
  0x14d1	nop    	dword ptr [eax + eax]
  0x14d6	movzx  	edx, ax
  0x14d9	dec    	eax
  0x14da	lea    	ecx, [0x2180]
  0x14e0	or     	edx, 0x80070000
  === BLOCK LINK ===
    0x14e6
=== CODE BLOCK END ===

=== CODE BLOCK ADDRESS 0x14e6 ===
  0x14e6	test   	eax, eax
  0x14e8	cmovle  	edx, eax
  0x14eb	call   	0x1338
  === BLOCK LINK ===
    0x14f0
=== CODE BLOCK END ===

=== CODE BLOCK ADDRESS 0x14f0 ===
  0x14f0	xor    	al, al
  0x14f2	dec    	eax
  0x14f3	mov    	ecx, dword ptr [ebp + 0x1140]
  0x14f9	dec    	eax
  0x14fa	xor    	ecx, esp
  === BLOCK LINK ===
    0x14fc
=== CODE BLOCK END ===

=== CODE BLOCK ADDRESS 0x14fc ===
  0x14fc	call   	0x1c10
  === BLOCK LINK ===
    0x1501
=== CODE BLOCK END ===

=== CODE BLOCK ADDRESS 0x1501 ===
  0x1501	dec    	esp
  0x1502	lea    	ebx, [esp + 0x1250]
  0x1509	dec    	ecx
  0x150a	mov    	ebx, dword ptr [ebx + 0x30]
  0x150d	dec    	ecx
  === BLOCK LINK ===
    0x150e
=== CODE BLOCK END ===

=== CODE BLOCK ADDRESS 0x150e ===
  0x150e	mov    	esi, dword ptr [ebx + 0x38]
  0x1511	dec    	ecx
  0x1512	mov    	edi, dword ptr [ebx + 0x40]
  0x1515	dec    	ecx
  0x1516	mov    	esp, ebx
  === BLOCK LINK ===
    0x1518
=== CODE BLOCK END ===

=== CODE BLOCK ADDRESS 0x1518 ===
  0x1518	inc    	ecx
  0x1519	pop    	edi
  0x151a	inc    	ecx
  0x151b	pop    	esi
  0x151c	inc    	ecx
  === BLOCK LINK ===
    0x151d
=== CODE BLOCK END ===

=== CODE BLOCK ADDRESS 0x151d ===
  0x151d	pop    	ebp
  0x151e	inc    	ecx
  0x151f	pop    	esp
  0x1520	pop    	ebp
  0x1521	ret    	
  === BLOCK LINK ===
    0x1522
=== CODE BLOCK END ===

=== CODE BLOCK ADDRESS 0x1522 ===
  0x1522	int3   	
  0x1523	mov    	edi, dword ptr [esp + 0x20]
  0x1527	inc    	ebp
  0x1528	xor    	esi, esi
  0x152a	shr    	edi, 2
  === BLOCK LINK ===
    0x152d
=== CODE BLOCK END ===

=== CODE BLOCK ADDRESS 0x152d ===
  0x152d	test   	edi, edi
  0x152f	je     	0x14f0
  === BLOCK LINK ===
    0x1531
=== CODE BLOCK END ===

=== CODE BLOCK ADDRESS 0x1531 ===
  0x1531	dec    	eax
  0x1532	lea    	esi, [esp + 0x30]
  0x1536	inc    	ecx
  0x1537	lea    	eax, [esi + 1]
  0x153a	inc    	esp
  === BLOCK LINK ===
    0x153b
=== CODE BLOCK END ===

=== CODE BLOCK ADDRESS 0x153b ===
  0x153b	mov    	eax, dword ptr [esi]
  0x153d	inc    	ebp
  0x153e	test   	eax, eax
  0x1540	je     	0x165b
  === BLOCK LINK ===
    0x1546
=== CODE BLOCK END ===

=== CODE BLOCK ADDRESS 0x1546 ===
  0x1546	xor    	edx, edx
  0x1548	mov    	ecx, 0x410
  0x154d	dec    	eax
  0x154e	call   	dword ptr [0x1c0c]
  === BLOCK LINK ===
    0x1554
=== CODE BLOCK END ===

=== CODE BLOCK ADDRESS 0x1554 ===
  0x1554	nop    	dword ptr [eax + eax]
  0x1559	dec    	esp
  0x155a	mov    	edi, eax
  0x155c	dec    	eax
  0x155d	test   	eax, eax
  === BLOCK LINK ===
    0x155f
=== CODE BLOCK END ===

=== CODE BLOCK ADDRESS 0x155f ===
  0x155f	je     	0x1656
  === BLOCK LINK ===
    0x1565
=== CODE BLOCK END ===

=== CODE BLOCK ADDRESS 0x1565 ===
  0x1565	inc    	ecx
  0x1566	mov    	eax, 0x104
  0x156b	dec    	eax
  0x156c	lea    	edx, [ebp + 0xf30]
  0x1572	dec    	eax
  === BLOCK LINK ===
    0x1573
=== CODE BLOCK END ===

=== CODE BLOCK ADDRESS 0x1573 ===
  0x1573	mov    	ecx, eax
  0x1575	dec    	eax
  0x1576	call   	dword ptr [0x1bdc]
  === BLOCK LINK ===
    0x157c
=== CODE BLOCK END ===

=== CODE BLOCK ADDRESS 0x157c ===
  0x157c	nop    	dword ptr [eax + eax]
  0x1581	test   	eax, eax
  0x1583	je     	0x1656
  === BLOCK LINK ===
    0x1589
=== CODE BLOCK END ===

=== CODE BLOCK ADDRESS 0x1589 ===
  0x1589	dec    	eax
  0x158a	lea    	ecx, [ebp + 0xf30]
  0x1590	dec    	eax
  0x1591	call   	dword ptr [0x1c61]
  === BLOCK LINK ===
    0x1597
=== CODE BLOCK END ===

=== CODE BLOCK ADDRESS 0x1597 ===
  0x1597	nop    	dword ptr [eax + eax]
  0x159c	dec    	eax
  0x159d	lea    	edx, [0x20fd]
  0x15a3	dec    	eax
  0x15a4	lea    	ecx, [ebp + 0xf30]
  === BLOCK LINK ===
    0x15aa
=== CODE BLOCK END ===

=== CODE BLOCK ADDRESS 0x15aa ===
  0x15aa	dec    	eax
  0x15ab	call   	dword ptr [0x1ccf]
  === BLOCK LINK ===
    0x15b1
=== CODE BLOCK END ===

=== CODE BLOCK ADDRESS 0x15b1 ===
  0x15b1	nop    	dword ptr [eax + eax]
  0x15b6	inc    	ebp
  0x15b7	movzx  	ebp, ch
  0x15ba	dec    	eax
  0x15bb	lea    	edx, [0x20ef]
  === BLOCK LINK ===
    0x15c1
=== CODE BLOCK END ===

=== CODE BLOCK ADDRESS 0x15c1 ===
  0x15c1	test   	eax, eax
  0x15c3	dec    	eax
  0x15c4	lea    	ecx, [ebp + 0xf30]
  0x15ca	mov    	eax, 1
  0x15cf	inc    	esp
  === BLOCK LINK ===
    0x15d0
=== CODE BLOCK END ===

=== CODE BLOCK ADDRESS 0x15d0 ===
  0x15d0	cmove  	ebp, eax
  0x15d3	dec    	eax
  0x15d4	call   	dword ptr [0x1ca6]
  === BLOCK LINK ===
    0x15da
=== CODE BLOCK END ===

=== CODE BLOCK ADDRESS 0x15da ===
  0x15da	nop    	dword ptr [eax + eax]
  0x15df	inc    	ebp
  0x15e0	movzx  	esp, ah
  0x15e3	dec    	eax
  0x15e4	lea    	edx, [0x20ee]
  === BLOCK LINK ===
    0x15ea
=== CODE BLOCK END ===

=== CODE BLOCK ADDRESS 0x15ea ===
  0x15ea	test   	eax, eax
  0x15ec	dec    	eax
  0x15ed	lea    	ecx, [ebp + 0xf30]
  0x15f3	mov    	eax, 1
  0x15f8	inc    	esp
  === BLOCK LINK ===
    0x15f9
=== CODE BLOCK END ===

=== CODE BLOCK ADDRESS 0x15f9 ===
  0x15f9	cmove  	esp, eax
  0x15fc	dec    	eax
  0x15fd	call   	dword ptr [0x1c7d]
  === BLOCK LINK ===
    0x1603
=== CODE BLOCK END ===

=== CODE BLOCK ADDRESS 0x1603 ===
  0x1603	nop    	dword ptr [eax + eax]
  0x1608	test   	eax, eax
  0x160a	dec    	eax
  0x160b	lea    	edx, [0x20df]
  0x1611	mov    	eax, 1
  === BLOCK LINK ===
    0x1616
=== CODE BLOCK END ===

=== CODE BLOCK ADDRESS 0x1616 ===
  0x1616	dec    	eax
  0x1617	lea    	ecx, [ebp + 0xf30]
  0x161d	cmove  	ebx, eax
  0x1620	dec    	eax
  0x1621	call   	dword ptr [0x1c59]
  === BLOCK LINK ===
    0x1627
=== CODE BLOCK END ===

=== CODE BLOCK ADDRESS 0x1627 ===
  0x1627	nop    	dword ptr [eax + eax]
  0x162c	movzx  	ebx, bl
  0x162f	dec    	ecx
  0x1630	mov    	ecx, edi
  0x1632	test   	eax, eax
  === BLOCK LINK ===
    0x1634
=== CODE BLOCK END ===

=== CODE BLOCK ADDRESS 0x1634 ===
  0x1634	mov    	eax, 1
  0x1639	cmove  	ebx, eax
  0x163c	dec    	eax
  0x163d	call   	dword ptr [0x1b35]
  === BLOCK LINK ===
    0x1643
=== CODE BLOCK END ===

=== CODE BLOCK ADDRESS 0x1643 ===
  0x1643	nop    	dword ptr [eax + eax]
  0x1648	inc    	ebp
  0x1649	test   	ch, ch
  0x164b	je     	0x1656
  === BLOCK LINK ===
    0x164d
=== CODE BLOCK END ===

=== CODE BLOCK ADDRESS 0x164d ===
  0x164d	inc    	ebp
  0x164e	test   	ah, ah
  0x1650	je     	0x1656
  === BLOCK LINK ===
    0x1652
=== CODE BLOCK END ===

=== CODE BLOCK ADDRESS 0x1652 ===
  0x1652	test   	bl, bl
  0x1654	jne    	0x1670
  === BLOCK LINK ===
    0x1656
=== CODE BLOCK END ===

=== CODE BLOCK ADDRESS 0x1656 ===
  0x1656	mov    	eax, 1
  0x165b	inc    	esp
  0x165c	add    	esi, eax
  0x165e	dec    	eax
  0x165f	add    	esi, 4
  === BLOCK LINK ===
    0x1662
=== CODE BLOCK END ===

=== CODE BLOCK ADDRESS 0x1662 ===
  0x1662	inc    	esp
  0x1663	cmp    	esi, edi
  0x1665	jae    	0x14f0
  === BLOCK LINK ===
    0x166b
=== CODE BLOCK END ===

=== CODE BLOCK ADDRESS 0x166b ===
  0x166b	jmp    	0x153a
  === BLOCK LINK ===
    0x1670
=== CODE BLOCK END ===

=== CODE BLOCK ADDRESS 0x1670 ===
  0x1670	mov    	eax, 1
  0x1675	jmp    	0x14f2
  === BLOCK LINK ===
    0x167a
=== CODE BLOCK END ===

=== CODE BLOCK ADDRESS 0x167a ===
  0x167a	int3   	
  0x167b	int3   	
  0x167c	int3   	
  0x167d	int3   	
  0x167e	int3   	
  === BLOCK LINK ===
    0x167f
=== CODE BLOCK END ===

=== CODE BLOCK ADDRESS 0x167f ===
  0x167f	int3   	
  0x1680	dec    	eax
  0x1681	mov    	dword ptr [esp + 8], ebx
  0x1685	dec    	eax
  0x1686	mov    	dword ptr [esp + 0x10], ebp
  === BLOCK LINK ===
    0x168a
=== CODE BLOCK END ===

=== CODE BLOCK ADDRESS 0x168a ===
  0x168a	dec    	eax
  0x168b	mov    	dword ptr [esp + 0x18], esi
  0x168f	push   	edi
  0x1690	inc    	ecx
  0x1691	push   	esp
  === BLOCK LINK ===
    0x1692
=== CODE BLOCK END ===

=== CODE BLOCK ADDRESS 0x1692 ===
  0x1692	inc    	ecx
  0x1693	push   	ebp
  0x1694	inc    	ecx
  0x1695	push   	esi
  0x1696	inc    	ecx
  === BLOCK LINK ===
    0x1697
=== CODE BLOCK END ===

=== CODE BLOCK ADDRESS 0x1697 ===
  0x1697	push   	edi
  0x1698	dec    	eax
  0x1699	sub    	esp, 0x40
  0x169c	xor    	ebx, ebx
  0x169e	dec    	esp
  === BLOCK LINK ===
    0x169f
=== CODE BLOCK END ===

=== CODE BLOCK ADDRESS 0x169f ===
  0x169f	arpl   	cx, bp
  0x16a1	xor    	ebp, ebp
  0x16a3	inc    	ebp
  0x16a4	xor    	esp, esp
  0x16a6	dec    	esp
  === BLOCK LINK ===
    0x16a7
=== CODE BLOCK END ===

=== CODE BLOCK ADDRESS 0x16a7 ===
  0x16a7	mov    	esi, edx
  0x16a9	lea    	ecx, [ebx + 1]
  0x16ac	mov    	esi, ecx
  0x16ae	dec    	esp
  0x16af	cmp    	ebp, ecx
  === BLOCK LINK ===
    0x16b1
=== CODE BLOCK END ===

=== CODE BLOCK ADDRESS 0x16b1 ===
  0x16b1	jle    	0x174a
  === BLOCK LINK ===
    0x16b7
=== CODE BLOCK END ===

=== CODE BLOCK ADDRESS 0x16b7 ===
  0x16b7	mov    	ebx, ecx
  0x16b9	mov    	edi, ecx
  0x16bb	dec    	ecx
  0x16bc	mov    	ecx, dword ptr [esi + edi*8]
  0x16bf	dec    	eax
  === BLOCK LINK ===
    0x16c0
=== CODE BLOCK END ===

=== CODE BLOCK ADDRESS 0x16c0 ===
  0x16c0	lea    	edx, [0x2046]
  0x16c6	dec    	eax
  0x16c7	call   	dword ptr [0x1bb3]
  === BLOCK LINK ===
    0x16cd
=== CODE BLOCK END ===

=== CODE BLOCK ADDRESS 0x16cd ===
  0x16cd	nop    	dword ptr [eax + eax]
  0x16d2	test   	eax, eax
  0x16d4	jne    	0x16e9
  === BLOCK LINK ===
    0x16d6
=== CODE BLOCK END ===

=== CODE BLOCK ADDRESS 0x16d6 ===
  0x16d6	dec    	eax
  0x16d7	lea    	ecx, [0x2043]
  0x16dd	dec    	eax
  0x16de	call   	dword ptr [0x1ba4]
  === BLOCK LINK ===
    0x16e4
=== CODE BLOCK END ===

=== CODE BLOCK ADDRESS 0x16e4 ===
  0x16e4	nop    	dword ptr [eax + eax]
  0x16e9	dec    	ecx
  0x16ea	mov    	ecx, dword ptr [esi + edi*8]
  0x16ed	dec    	eax
  0x16ee	lea    	edx, [0x2198]
  === BLOCK LINK ===
    0x16f4
=== CODE BLOCK END ===

=== CODE BLOCK ADDRESS 0x16f4 ===
  0x16f4	dec    	eax
  0x16f5	call   	dword ptr [0x1b85]
  === BLOCK LINK ===
    0x16fb
=== CODE BLOCK END ===

=== CODE BLOCK ADDRESS 0x16fb ===
  0x16fb	nop    	dword ptr [eax + eax]
  0x1700	dec    	ecx
  0x1701	mov    	ecx, dword ptr [esi + edi*8]
  0x1704	dec    	eax
  0x1705	lea    	edx, [0x2189]
  === BLOCK LINK ===
    0x170b
=== CODE BLOCK END ===

=== CODE BLOCK ADDRESS 0x170b ===
  0x170b	test   	eax, eax
  0x170d	cmove  	ebp, ebx
  0x1710	dec    	eax
  0x1711	call   	dword ptr [0x1b69]
  === BLOCK LINK ===
    0x1717
=== CODE BLOCK END ===

=== CODE BLOCK ADDRESS 0x1717 ===
  0x1717	nop    	dword ptr [eax + eax]
  0x171c	test   	eax, eax
  0x171e	jne    	0x1737
  === BLOCK LINK ===
    0x1720
=== CODE BLOCK END ===

=== CODE BLOCK ADDRESS 0x1720 ===
  0x1720	inc    	ecx
  0x1721	lea    	eax, [ebp - 1]
  0x1724	cmp    	esi, eax
  0x1726	jge    	0x1737
  === BLOCK LINK ===
    0x1728
=== CODE BLOCK END ===

=== CODE BLOCK ADDRESS 0x1728 ===
  0x1728	add    	esi, ebx
  0x172a	mov    	dword ptr [0x3ea8], ebx
  0x1730	dec    	eax
  0x1731	add    	edi, ebx
  0x1733	dec    	ebp
  === BLOCK LINK ===
    0x1734
=== CODE BLOCK END ===

=== CODE BLOCK ADDRESS 0x1734 ===
  0x1734	mov    	esp, dword ptr [esi + edi*8]
  0x1737	add    	esi, ebx
  0x1739	dec    	eax
  0x173a	add    	edi, ebx
  0x173c	dec    	ecx
  === BLOCK LINK ===
    0x173d
=== CODE BLOCK END ===

=== CODE BLOCK ADDRESS 0x173d ===
  0x173d	cmp    	edi, ebp
  0x173f	jl     	0x16bb
  === BLOCK LINK ===
    0x1745
=== CODE BLOCK END ===

=== CODE BLOCK ADDRESS 0x1745 ===
  0x1745	xor    	ebx, ebx
  0x1747	lea    	ecx, [ebx + 1]
  0x174a	cmp    	dword ptr [0x3e87], 0
  0x1751	je     	0x17bf
  === BLOCK LINK ===
    0x1753
=== CODE BLOCK END ===

=== CODE BLOCK ADDRESS 0x1753 ===
  0x1753	inc    	esp
  0x1754	mov    	eax, ecx
  0x1756	neg    	ebp
  0x1758	mov    	edx, 0x40000000
  0x175d	sbb    	eax, eax
  === BLOCK LINK ===
    0x175f
=== CODE BLOCK END ===

=== CODE BLOCK ADDRESS 0x175f ===
  0x175f	dec    	eax
  0x1760	and    	dword ptr [esp + 0x30], 0
  0x1765	neg    	eax
  0x1767	mov    	dword ptr [esp + 0x28], 0x80
  0x176f	add    	eax, ecx
  === BLOCK LINK ===
    0x1771
=== CODE BLOCK END ===

=== CODE BLOCK ADDRESS 0x1771 ===
  0x1771	inc    	ebp
  0x1772	xor    	ecx, ecx
  0x1774	dec    	ecx
  0x1775	mov    	ecx, esp
  0x1777	mov    	dword ptr [esp + 0x20], eax
  === BLOCK LINK ===
    0x177b
=== CODE BLOCK END ===

=== CODE BLOCK ADDRESS 0x177b ===
  0x177b	dec    	eax
  0x177c	call   	dword ptr [0x19ce]
  === BLOCK LINK ===
    0x1782
=== CODE BLOCK END ===

=== CODE BLOCK ADDRESS 0x1782 ===
  0x1782	nop    	dword ptr [eax + eax]
  0x1787	dec    	eax
  0x1788	mov    	dword ptr [0x3e42], eax
  0x178e	dec    	eax
  0x178f	cmp    	eax, -1
  === BLOCK LINK ===
    0x1792
=== CODE BLOCK END ===

=== CODE BLOCK ADDRESS 0x1792 ===
  0x1792	jne    	0x17bf
  === BLOCK LINK ===
    0x1794
=== CODE BLOCK END ===

=== CODE BLOCK ADDRESS 0x1794 ===
  0x1794	dec    	eax
  0x1795	call   	dword ptr [0x19d5]
  === BLOCK LINK ===
    0x179b
=== CODE BLOCK END ===

=== CODE BLOCK ADDRESS 0x179b ===
  0x179b	nop    	dword ptr [eax + eax]
  0x17a0	mov    	edx, eax
  0x17a2	dec    	eax
  0x17a3	lea    	ecx, [0x20f7]
  0x17a9	mov    	ebx, eax
  === BLOCK LINK ===
    0x17ab
=== CODE BLOCK END ===

=== CODE BLOCK ADDRESS 0x17ab ===
  0x17ab	dec    	eax
  0x17ac	call   	dword ptr [0x1ad6]
  === BLOCK LINK ===
    0x17b2
=== CODE BLOCK END ===

=== CODE BLOCK ADDRESS 0x17b2 ===
  0x17b2	nop    	dword ptr [eax + eax]
  0x17b7	test   	ebx, ebx
  0x17b9	jne    	0x1893
  === BLOCK LINK ===
    0x17bf
=== CODE BLOCK END ===

=== CODE BLOCK ADDRESS 0x17bf ===
  0x17bf	call   	0x143c
  === BLOCK LINK ===
    0x17c4
=== CODE BLOCK END ===

=== CODE BLOCK ADDRESS 0x17c4 ===
  0x17c4	test   	al, al
  0x17c6	jne    	0x17de
  === BLOCK LINK ===
    0x17c8
=== CODE BLOCK END ===

=== CODE BLOCK ADDRESS 0x17c8 ===
  0x17c8	dec    	eax
  0x17c9	lea    	ecx, [0x2141]
  0x17cf	call   	0x1338
  === BLOCK LINK ===
    0x17d4
=== CODE BLOCK END ===

=== CODE BLOCK ADDRESS 0x17d4 ===
  0x17d4	mov    	ebx, 0x490
  0x17d9	jmp    	0x1893
  === BLOCK LINK ===
    0x17de
=== CODE BLOCK END ===

=== CODE BLOCK ADDRESS 0x17de ===
  0x17de	mov    	edx, 2
  0x17e3	xor    	ecx, ecx
  0x17e5	dec    	eax
  0x17e6	call   	dword ptr [0x1ad4]
  === BLOCK LINK ===
    0x17ec
=== CODE BLOCK END ===

=== CODE BLOCK ADDRESS 0x17ec ===
  0x17ec	nop    	dword ptr [eax + eax]
  0x17f1	test   	eax, eax
  0x17f3	js     	0x1885
  === BLOCK LINK ===
    0x17f9
=== CODE BLOCK END ===

=== CODE BLOCK ADDRESS 0x17f9 ===
  0x17f9	call   	0x1288
  === BLOCK LINK ===
    0x17fe
=== CODE BLOCK END ===

=== CODE BLOCK ADDRESS 0x17fe ===
  0x17fe	test   	eax, eax
  0x1800	je     	0x1866
  === BLOCK LINK ===
    0x1802
=== CODE BLOCK END ===

=== CODE BLOCK ADDRESS 0x1802 ===
  0x1802	dec    	eax
  0x1803	lea    	ecx, [0x2197]
  0x1809	call   	0x1338
  === BLOCK LINK ===
    0x180e
=== CODE BLOCK END ===

=== CODE BLOCK ADDRESS 0x180e ===
  0x180e	call   	0x1160
  === BLOCK LINK ===
    0x1813
=== CODE BLOCK END ===

=== CODE BLOCK ADDRESS 0x1813 ===
  0x1813	test   	eax, eax
  0x1815	je     	0x1862
  === BLOCK LINK ===
    0x1817
=== CODE BLOCK END ===

=== CODE BLOCK ADDRESS 0x1817 ===
  0x1817	call   	0x1008
  === BLOCK LINK ===
    0x181c
=== CODE BLOCK END ===

=== CODE BLOCK ADDRESS 0x181c ===
  0x181c	mov    	esi, 0x3e8
  0x1821	mov    	ecx, esi
  0x1823	dec    	eax
  0x1824	call   	dword ptr [0x193e]
  === BLOCK LINK ===
    0x182a
=== CODE BLOCK END ===

=== CODE BLOCK ADDRESS 0x182a ===
  0x182a	nop    	dword ptr [eax + eax]
  0x182f	call   	0x1160
  === BLOCK LINK ===
    0x1834
=== CODE BLOCK END ===

=== CODE BLOCK ADDRESS 0x1834 ===
  0x1834	xor    	edi, edi
  0x1836	lea    	ebx, [edi + 5]
  0x1839	test   	eax, eax
  0x183b	je     	0x1856
  === BLOCK LINK ===
    0x183d
=== CODE BLOCK END ===

=== CODE BLOCK ADDRESS 0x183d ===
  0x183d	mov    	ecx, esi
  0x183f	dec    	eax
  0x1840	call   	dword ptr [0x1922]
  === BLOCK LINK ===
    0x1846
=== CODE BLOCK END ===

=== CODE BLOCK ADDRESS 0x1846 ===
  0x1846	nop    	dword ptr [eax + eax]
  0x184b	call   	0x1160
  === BLOCK LINK ===
    0x1850
=== CODE BLOCK END ===

=== CODE BLOCK ADDRESS 0x1850 ===
  0x1850	inc    	edi
  0x1852	cmp    	edi, ebx
  0x1854	jl     	0x1839
  === BLOCK LINK ===
    0x1856
=== CODE BLOCK END ===

=== CODE BLOCK ADDRESS 0x1856 ===
  0x1856	neg    	eax
  0x1858	sbb    	ebx, ebx
  0x185a	and    	ebx, 0x3eb
  0x1860	jmp    	0x1877
  === BLOCK LINK ===
    0x1862
=== CODE BLOCK END ===

=== CODE BLOCK ADDRESS 0x1862 ===
  0x1862	xor    	ebx, ebx
  0x1864	jmp    	0x1877
  === BLOCK LINK ===
    0x1866
=== CODE BLOCK END ===

=== CODE BLOCK ADDRESS 0x1866 ===
  0x1866	dec    	eax
  0x1867	lea    	ecx, [0x2183]
  0x186d	call   	0x1338
  === BLOCK LINK ===
    0x1872
=== CODE BLOCK END ===

=== CODE BLOCK ADDRESS 0x1872 ===
  0x1872	mov    	ebx, 5
  0x1877	dec    	eax
  0x1878	call   	dword ptr [0x1a32]
  === BLOCK LINK ===
    0x187e
=== CODE BLOCK END ===

=== CODE BLOCK ADDRESS 0x187e ===
  0x187e	nop    	dword ptr [eax + eax]
  0x1883	jmp    	0x1893
  === BLOCK LINK ===
    0x1885
=== CODE BLOCK END ===

=== CODE BLOCK ADDRESS 0x1885 ===
  0x1885	mov    	edx, eax
  0x1887	dec    	eax
  0x1888	lea    	ecx, [0x21b2]
  0x188e	call   	0x1338
  === BLOCK LINK ===
    0x1893
=== CODE BLOCK END ===

=== CODE BLOCK ADDRESS 0x1893 ===
  0x1893	dec    	eax
  0x1894	mov    	ecx, dword ptr [0x3d36]
  0x189a	dec    	eax
  0x189b	test   	ecx, ecx
  0x189d	je     	0x18ab
  === BLOCK LINK ===
    0x189f
=== CODE BLOCK END ===

=== CODE BLOCK ADDRESS 0x189f ===
  0x189f	dec    	eax
  0x18a0	call   	dword ptr [0x18d2]
  === BLOCK LINK ===
    0x18a6
=== CODE BLOCK END ===

=== CODE BLOCK ADDRESS 0x18a6 ===
  0x18a6	nop    	dword ptr [eax + eax]
  0x18ab	dec    	esp
  0x18ac	lea    	ebx, [esp + 0x40]
  0x18b0	mov    	eax, ebx
  0x18b2	dec    	ecx
  === BLOCK LINK ===
    0x18b3
=== CODE BLOCK END ===

=== CODE BLOCK ADDRESS 0x18b3 ===
  0x18b3	mov    	ebx, dword ptr [ebx + 0x30]
  0x18b6	dec    	ecx
  0x18b7	mov    	ebp, dword ptr [ebx + 0x38]
  0x18ba	dec    	ecx
  0x18bb	mov    	esi, dword ptr [ebx + 0x40]
  === BLOCK LINK ===
    0x18be
=== CODE BLOCK END ===

=== CODE BLOCK ADDRESS 0x18be ===
  0x18be	dec    	ecx
  0x18bf	mov    	esp, ebx
  0x18c1	inc    	ecx
  0x18c2	pop    	edi
  0x18c3	inc    	ecx
  === BLOCK LINK ===
    0x18c4
=== CODE BLOCK END ===

=== CODE BLOCK ADDRESS 0x18c4 ===
  0x18c4	pop    	esi
  0x18c5	inc    	ecx
  0x18c6	pop    	ebp
  0x18c7	inc    	ecx
  0x18c8	pop    	esp
  === BLOCK LINK ===
    0x18c9
=== CODE BLOCK END ===

=== CODE BLOCK ADDRESS 0x18c9 ===
  0x18c9	pop    	edi
  0x18ca	ret    	
  0x18cb	int3   	
  0x18cc	int3   	
  0x18cd	int3   	
  === BLOCK LINK ===
    0x18ce
=== CODE BLOCK END ===

=== CODE BLOCK ADDRESS 0x18ce ===
  0x18ce	int3   	
  0x18cf	int3   	
  0x18d0	int3   	
  0x18d1	int3   	
  0x18d2	int3   	
  === BLOCK LINK ===
    0x18d3
=== CODE BLOCK END ===

=== CODE BLOCK ADDRESS 0x18d3 ===
  0x18d3	int3   	
  0x18d4	int3   	
  0x18d5	int3   	
  0x18d6	int3   	
  0x18d7	int3   	
  === BLOCK LINK ===
    0x18d8
=== CODE BLOCK END ===

=== CODE BLOCK ADDRESS 0x18d8 ===
  0x18d8	int3   	
  0x18d9	int3   	
  0x18da	int3   	
  0x18db	int3   	
  0x18dc	int3   	
  === BLOCK LINK ===
    0x18dd
=== CODE BLOCK END ===

=== CODE BLOCK ADDRESS 0x18dd ===
  0x18dd	int3   	
  0x18de	int3   	
  0x18df	int3   	
  0x18e0	dec    	eax
  0x18e1	sub    	esp, 0x28
  === BLOCK LINK ===
    0x18e4
=== CODE BLOCK END ===

=== CODE BLOCK ADDRESS 0x18e4 ===
  0x18e4	mov    	eax, 0x5a4d
  0x18e9	cmp    	word ptr [0xffffe710], ax
  0x18f0	je     	0x18f6
  === BLOCK LINK ===
    0x18f2
=== CODE BLOCK END ===

=== CODE BLOCK ADDRESS 0x18f2 ===
  0x18f2	xor    	eax, eax
  0x18f4	jmp    	0x1949
  === BLOCK LINK ===
    0x18f6
=== CODE BLOCK END ===

=== CODE BLOCK ADDRESS 0x18f6 ===
  0x18f6	dec    	eax
  0x18f7	arpl   	word ptr [0xffffe73f], cx
  0x18fd	dec    	eax
  0x18fe	lea    	eax, [0xffffe6fc]
  0x1904	dec    	eax
  === BLOCK LINK ===
    0x1905
=== CODE BLOCK END ===

=== CODE BLOCK ADDRESS 0x1905 ===
  0x1905	add    	ecx, eax
  0x1907	cmp    	dword ptr [ecx], 0x4550
  0x190d	jne    	0x18f2
  === BLOCK LINK ===
    0x190f
=== CODE BLOCK END ===

=== CODE BLOCK ADDRESS 0x190f ===
  0x190f	mov    	eax, 0x10b
  0x1914	cmp    	word ptr [ecx + 0x18], ax
  0x1918	je     	0x1938
  === BLOCK LINK ===
    0x191a
=== CODE BLOCK END ===

=== CODE BLOCK ADDRESS 0x191a ===
  0x191a	mov    	eax, 0x20b
  0x191f	cmp    	word ptr [ecx + 0x18], ax
  0x1923	jne    	0x18f2
  === BLOCK LINK ===
    0x1925
=== CODE BLOCK END ===

=== CODE BLOCK ADDRESS 0x1925 ===
  0x1925	xor    	eax, eax
  0x1927	cmp    	dword ptr [ecx + 0x84], 0xe
  0x192e	jbe    	0x1949
  === BLOCK LINK ===
    0x1930
=== CODE BLOCK END ===

=== CODE BLOCK ADDRESS 0x1930 ===
  0x1930	cmp    	dword ptr [ecx + 0xf8], eax
  0x1936	jmp    	0x1946
  === BLOCK LINK ===
    0x1938
=== CODE BLOCK END ===

=== CODE BLOCK ADDRESS 0x1938 ===
  0x1938	xor    	eax, eax
  0x193a	cmp    	dword ptr [ecx + 0x74], 0xe
  0x193e	jbe    	0x1949
  === BLOCK LINK ===
    0x1940
=== CODE BLOCK END ===

=== CODE BLOCK ADDRESS 0x1940 ===
  0x1940	cmp    	dword ptr [ecx + 0xe8], eax
  0x1946	setne  	al
  0x1949	mov    	ecx, 1
  0x194e	mov    	dword ptr [0x36ec], eax
  0x1954	call   	0x1d08
  === BLOCK LINK ===
    0x1959
=== CODE BLOCK END ===

=== CODE BLOCK ADDRESS 0x1959 ===
  0x1959	mov    	ecx, eax
  0x195b	call   	dword ptr [0x18cf]
  === BLOCK LINK ===
    0x1961
=== CODE BLOCK END ===

=== CODE BLOCK ADDRESS 0x1961 ===
  0x1961	dec    	eax
  0x1962	mov    	ecx, dword ptr [0x18e8]
  0x1968	dec    	eax
  0x1969	or     	eax, 0xffffffff
  0x196c	dec    	eax
  === BLOCK LINK ===
    0x196d
=== CODE BLOCK END ===

=== CODE BLOCK ADDRESS 0x196d ===
  0x196d	mov    	dword ptr [0x3c6d], eax
  0x1973	dec    	eax
  0x1974	mov    	dword ptr [0x3c6e], eax
  0x197a	mov    	eax, dword ptr [0x36d4]
  0x1980	mov    	dword ptr [ecx], eax
  === BLOCK LINK ===
    0x1982
=== CODE BLOCK END ===

=== CODE BLOCK ADDRESS 0x1982 ===
  0x1982	dec    	eax
  0x1983	mov    	ecx, dword ptr [0x18bf]
  0x1989	mov    	eax, dword ptr [0x36b9]
  0x198f	mov    	dword ptr [ecx], eax
  0x1991	call   	0x1d60
  === BLOCK LINK ===
    0x1996
=== CODE BLOCK END ===

=== CODE BLOCK ADDRESS 0x1996 ===
  0x1996	cmp    	dword ptr [0x3663], 0
  0x199d	jne    	0x19ac
  === BLOCK LINK ===
    0x199f
=== CODE BLOCK END ===

=== CODE BLOCK ADDRESS 0x199f ===
  0x199f	dec    	eax
  0x19a0	lea    	ecx, [0x3ba]
  0x19a6	call   	dword ptr [0x18e4]
  === BLOCK LINK ===
    0x19ac
=== CODE BLOCK END ===

=== CODE BLOCK ADDRESS 0x19ac ===
  0x19ac	xor    	eax, eax
  0x19ae	dec    	eax
  0x19af	add    	esp, 0x28
  0x19b2	ret    	
  0x19b3	int3   	
  === BLOCK LINK ===
    0x19b4
=== CODE BLOCK END ===

=== CODE BLOCK ADDRESS 0x19b4 ===
  0x19b4	int3   	
  0x19b5	int3   	
  0x19b6	int3   	
  0x19b7	int3   	
  0x19b8	int3   	
  === BLOCK LINK ===
    0x19b9
=== CODE BLOCK END ===

=== CODE BLOCK ADDRESS 0x19b9 ===
  0x19b9	int3   	
  0x19ba	int3   	
  0x19bb	int3   	
  0x19bc	int3   	
  0x19bd	int3   	
  === BLOCK LINK ===
    0x19be
=== CODE BLOCK END ===

=== CODE BLOCK ADDRESS 0x19be ===
  0x19be	int3   	
  0x19bf	int3   	
  0x19c0	dec    	eax
  0x19c1	sub    	esp, 0x38
  0x19c4	mov    	eax, dword ptr [0x3686]
  === BLOCK LINK ===
    0x19ca
=== CODE BLOCK END ===

=== CODE BLOCK ADDRESS 0x19ca ===
  0x19ca	dec    	esp
  0x19cb	lea    	eax, [0x3667]
  0x19d1	inc    	esp
  0x19d2	mov    	ecx, dword ptr [0x3674]
  0x19d8	dec    	eax
  === BLOCK LINK ===
    0x19d9
=== CODE BLOCK END ===

=== CODE BLOCK ADDRESS 0x19d9 ===
  0x19d9	lea    	edx, [0x3651]
  0x19df	mov    	dword ptr [0x365f], eax
  0x19e5	dec    	eax
  0x19e6	lea    	ecx, [0x363c]
  0x19ec	dec    	eax
  === BLOCK LINK ===
    0x19ed
=== CODE BLOCK END ===

=== CODE BLOCK ADDRESS 0x19ed ===
  0x19ed	lea    	eax, [0x3651]
  0x19f3	dec    	eax
  0x19f4	mov    	dword ptr [esp + 0x20], eax
  0x19f8	call   	dword ptr [0x183a]
  === BLOCK LINK ===
    0x19fe
=== CODE BLOCK END ===

=== CODE BLOCK ADDRESS 0x19fe ===
  0x19fe	mov    	dword ptr [0x3628], eax
  0x1a04	dec    	eax
  0x1a05	add    	esp, 0x38
  0x1a08	ret    	
  0x1a09	int3   	
  === BLOCK LINK ===
    0x1a0a
=== CODE BLOCK END ===

=== CODE BLOCK ADDRESS 0x1a0a ===
  0x1a0a	int3   	
  0x1a0b	int3   	
  0x1a0c	int3   	
  0x1a0d	int3   	
  0x1a0e	int3   	
  === BLOCK LINK ===
    0x1a0f
=== CODE BLOCK END ===

=== CODE BLOCK ADDRESS 0x1a0f ===
  0x1a0f	int3   	
  0x1a10	dec    	eax
  0x1a11	mov    	dword ptr [esp + 8], ebx
  0x1a15	dec    	eax
  0x1a16	mov    	dword ptr [esp + 0x10], esi
  === BLOCK LINK ===
    0x1a1a
=== CODE BLOCK END ===

=== CODE BLOCK ADDRESS 0x1a1a ===
  0x1a1a	dec    	eax
  0x1a1b	mov    	dword ptr [esp + 0x18], edi
  0x1a1f	inc    	ecx
  0x1a20	push   	edi
  0x1a21	dec    	eax
  === BLOCK LINK ===
    0x1a22
=== CODE BLOCK END ===

=== CODE BLOCK ADDRESS 0x1a22 ===
  0x1a22	sub    	esp, 0x30
  0x1a25	dec    	eax
  0x1a27	mov    	eax, dword ptr [0x30]
  0x1a2e	dec    	eax
  0x1a2f	mov    	ebx, dword ptr [eax + 8]
  === BLOCK LINK ===
    0x1a32
=== CODE BLOCK END ===

=== CODE BLOCK ADDRESS 0x1a32 ===
  0x1a32	xor    	esi, esi
  0x1a34	xor    	eax, eax
  0x1a36	.byte  	0xf0
  0x1a37	dec    	eax
  0x1a38	cmpxchg  	dword ptr [0x3bb1], ebx
  === BLOCK LINK ===
    0x1a3f
=== CODE BLOCK END ===

=== CODE BLOCK ADDRESS 0x1a3f ===
  0x1a3f	je     	0x1a5c
  === BLOCK LINK ===
    0x1a41
=== CODE BLOCK END ===

=== CODE BLOCK ADDRESS 0x1a41 ===
  0x1a41	dec    	eax
  0x1a42	cmp    	eax, ebx
  0x1a44	jne    	0x1a4f
  === BLOCK LINK ===
    0x1a46
=== CODE BLOCK END ===

=== CODE BLOCK ADDRESS 0x1a46 ===
  0x1a46	mov    	ebx, 1
  0x1a4b	mov    	esi, ebx
  0x1a4d	jmp    	0x1a61
  === BLOCK LINK ===
    0x1a4f
=== CODE BLOCK END ===

=== CODE BLOCK ADDRESS 0x1a4f ===
  0x1a4f	mov    	ecx, 0x3e8
  0x1a54	call   	dword ptr [0x170e]
  === BLOCK LINK ===
    0x1a5a
=== CODE BLOCK END ===

=== CODE BLOCK ADDRESS 0x1a5a ===
  0x1a5a	jmp    	0x1a34
  === BLOCK LINK ===
    0x1a5c
=== CODE BLOCK END ===

=== CODE BLOCK ADDRESS 0x1a5c ===
  0x1a5c	mov    	ebx, 1
  0x1a61	mov    	eax, dword ptr [0x3b91]
  0x1a67	cmp    	eax, ebx
  0x1a69	jne    	0x1a77
  === BLOCK LINK ===
    0x1a6b
=== CODE BLOCK END ===

=== CODE BLOCK ADDRESS 0x1a6b ===
  0x1a6b	mov    	ecx, 0x1f
  0x1a70	call   	0x1d53
  === BLOCK LINK ===
    0x1a75
=== CODE BLOCK END ===

=== CODE BLOCK ADDRESS 0x1a75 ===
  0x1a75	jmp    	0x1adc
  === BLOCK LINK ===
    0x1a77
=== CODE BLOCK END ===

=== CODE BLOCK ADDRESS 0x1a77 ===
  0x1a77	mov    	eax, dword ptr [0x3b7b]
  0x1a7d	test   	eax, eax
  0x1a7f	jne    	0x1ad6
  === BLOCK LINK ===
    0x1a81
=== CODE BLOCK END ===

=== CODE BLOCK ADDRESS 0x1a81 ===
  0x1a81	mov    	dword ptr [0x3b71], ebx
  0x1a87	dec    	esp
  0x1a88	lea    	edi, [0x1882]
  0x1a8e	dec    	eax
  0x1a8f	lea    	edi, [0x1863]
  === BLOCK LINK ===
    0x1a95
=== CODE BLOCK END ===

=== CODE BLOCK ADDRESS 0x1a95 ===
  0x1a95	dec    	eax
  0x1a96	mov    	dword ptr [esp + 0x28], edi
  0x1a9a	mov    	dword ptr [esp + 0x20], eax
  0x1a9e	dec    	ecx
  0x1a9f	cmp    	edi, edi
  === BLOCK LINK ===
    0x1aa1
=== CODE BLOCK END ===

=== CODE BLOCK ADDRESS 0x1aa1 ===
  0x1aa1	jae    	0x1ac8
  === BLOCK LINK ===
    0x1aa3
=== CODE BLOCK END ===

=== CODE BLOCK ADDRESS 0x1aa3 ===
  0x1aa3	test   	eax, eax
  0x1aa5	jne    	0x1acc
  === BLOCK LINK ===
    0x1aa7
=== CODE BLOCK END ===

=== CODE BLOCK ADDRESS 0x1aa7 ===
  0x1aa7	dec    	eax
  0x1aa8	cmp    	dword ptr [edi], 0
  0x1aab	je     	0x1abd
  === BLOCK LINK ===
    0x1aad
=== CODE BLOCK END ===

=== CODE BLOCK ADDRESS 0x1aad ===
  0x1aad	dec    	eax
  0x1aae	mov    	eax, dword ptr [edi]
  0x1ab0	dec    	eax
  0x1ab1	mov    	ecx, dword ptr [0x1821]
  0x1ab7	call   	ecx
  === BLOCK LINK ===
    0x1ab9
=== CODE BLOCK END ===

=== CODE BLOCK ADDRESS 0x1ab9 ===
  0x1ab9	mov    	dword ptr [esp + 0x20], eax
  0x1abd	dec    	eax
  0x1abe	add    	edi, 8
  0x1ac1	dec    	eax
  0x1ac2	mov    	dword ptr [esp + 0x28], edi
  === BLOCK LINK ===
    0x1ac6
=== CODE BLOCK END ===

=== CODE BLOCK ADDRESS 0x1ac6 ===
  0x1ac6	jmp    	0x1a9e
  === BLOCK LINK ===
    0x1ac8
=== CODE BLOCK END ===

=== CODE BLOCK ADDRESS 0x1ac8 ===
  0x1ac8	test   	eax, eax
  0x1aca	je     	0x1adc
  === BLOCK LINK ===
    0x1acc
=== CODE BLOCK END ===

=== CODE BLOCK ADDRESS 0x1acc ===
  0x1acc	mov    	eax, 0xff
  0x1ad1	jmp    	0x1bb8
  === BLOCK LINK ===
    0x1ad6
=== CODE BLOCK END ===

=== CODE BLOCK ADDRESS 0x1ad6 ===
  0x1ad6	mov    	dword ptr [0x3548], ebx
  0x1adc	mov    	eax, dword ptr [0x3b16]
  0x1ae2	cmp    	eax, ebx
  0x1ae4	jne    	0x1b03
  === BLOCK LINK ===
    0x1ae6
=== CODE BLOCK END ===

=== CODE BLOCK ADDRESS 0x1ae6 ===
  0x1ae6	dec    	eax
  0x1ae7	lea    	edx, [0x1803]
  0x1aed	dec    	eax
  0x1aee	lea    	ecx, [0x17ec]
  0x1af4	call   	0x1f2e
  === BLOCK LINK ===
    0x1af9
=== CODE BLOCK END ===

=== CODE BLOCK ADDRESS 0x1af9 ===
  0x1af9	mov    	dword ptr [0x3af5], 2
  0x1b03	test   	esi, esi
  0x1b05	jne    	0x1b10
  === BLOCK LINK ===
    0x1b07
=== CODE BLOCK END ===

=== CODE BLOCK ADDRESS 0x1b07 ===
  0x1b07	xor    	eax, eax
  0x1b09	dec    	eax
  0x1b0a	xchg   	dword ptr [0x3ae0], eax
  0x1b10	dec    	eax
  0x1b11	cmp    	dword ptr [0x3ae8], 0
  === BLOCK LINK ===
    0x1b18
=== CODE BLOCK END ===

=== CODE BLOCK ADDRESS 0x1b18 ===
  0x1b18	je     	0x1b44
  === BLOCK LINK ===
    0x1b1a
=== CODE BLOCK END ===

=== CODE BLOCK ADDRESS 0x1b1a ===
  0x1b1a	dec    	eax
  0x1b1b	lea    	ecx, [0x3adf]
  0x1b21	call   	0x1dc0
  === BLOCK LINK ===
    0x1b26
=== CODE BLOCK END ===

=== CODE BLOCK ADDRESS 0x1b26 ===
  0x1b26	test   	eax, eax
  0x1b28	je     	0x1b44
  === BLOCK LINK ===
    0x1b2a
=== CODE BLOCK END ===

=== CODE BLOCK ADDRESS 0x1b2a ===
  0x1b2a	inc    	ebp
  0x1b2b	xor    	eax, eax
  0x1b2d	inc    	ecx
  0x1b2e	lea    	edx, [eax + 2]
  0x1b31	xor    	ecx, ecx
  === BLOCK LINK ===
    0x1b33
=== CODE BLOCK END ===

=== CODE BLOCK ADDRESS 0x1b33 ===
  0x1b33	dec    	eax
  0x1b34	mov    	eax, dword ptr [0x3ac6]
  0x1b3a	dec    	esp
  0x1b3b	mov    	ecx, dword ptr [0x1797]
  0x1b41	inc    	ecx
  === BLOCK LINK ===
    0x1b42
=== CODE BLOCK END ===

=== CODE BLOCK ADDRESS 0x1b42 ===
  0x1b42	call   	ecx
  === BLOCK LINK ===
    0x1b44
=== CODE BLOCK END ===

=== CODE BLOCK ADDRESS 0x1b44 ===
  0x1b44	dec    	esp
  0x1b45	mov    	eax, dword ptr [0x34ed]
  0x1b4b	dec    	eax
  0x1b4c	mov    	edx, dword ptr [0x34de]
  0x1b52	mov    	ecx, dword ptr [0x34d0]
  === BLOCK LINK ===
    0x1b58
=== CODE BLOCK END ===

=== CODE BLOCK ADDRESS 0x1b58 ===
  0x1b58	call   	0x1680
  === BLOCK LINK ===
    0x1b5d
=== CODE BLOCK END ===

=== CODE BLOCK ADDRESS 0x1b5d ===
  0x1b5d	mov    	dword ptr [0x34bd], eax
  0x1b63	cmp    	dword ptr [0x34d6], 0
  0x1b6a	jne    	0x1b74
  === BLOCK LINK ===
    0x1b6c
=== CODE BLOCK END ===

=== CODE BLOCK ADDRESS 0x1b6c ===
  0x1b6c	mov    	ecx, eax
  0x1b6e	call   	dword ptr [0x16b4]
  === BLOCK LINK ===
    0x1b74
=== CODE BLOCK END ===

=== CODE BLOCK ADDRESS 0x1b74 ===
  0x1b74	cmp    	dword ptr [0x34a9], 0
  0x1b7b	jne    	0x1b89
  === BLOCK LINK ===
    0x1b7d
=== CODE BLOCK END ===

=== CODE BLOCK ADDRESS 0x1b7d ===
  0x1b7d	call   	dword ptr [0x16dd]
  === BLOCK LINK ===
    0x1b83
=== CODE BLOCK END ===

=== CODE BLOCK ADDRESS 0x1b83 ===
  0x1b83	mov    	eax, dword ptr [0x3497]
  0x1b89	jmp    	0x1bb8
  === BLOCK LINK ===
    0x1b8b
=== CODE BLOCK END ===

=== CODE BLOCK ADDRESS 0x1b8b ===
  0x1b8b	mov    	dword ptr [0x348f], eax
  0x1b91	cmp    	dword ptr [0x34a8], 0
  0x1b98	jne    	0x1ba3
  === BLOCK LINK ===
    0x1b9a
=== CODE BLOCK END ===

=== CODE BLOCK ADDRESS 0x1b9a ===
  0x1b9a	mov    	ecx, eax
  0x1b9c	call   	dword ptr [0x167e]
  === BLOCK LINK ===
    0x1ba2
=== CODE BLOCK END ===

=== CODE BLOCK ADDRESS 0x1ba2 ===
  0x1ba2	int3   	
  0x1ba3	cmp    	dword ptr [0x347a], 0
  0x1baa	jne    	0x1bb8
  === BLOCK LINK ===
    0x1bac
=== CODE BLOCK END ===

=== CODE BLOCK ADDRESS 0x1bac ===
  0x1bac	call   	dword ptr [0x16ae]
  === BLOCK LINK ===
    0x1bb2
=== CODE BLOCK END ===

=== CODE BLOCK ADDRESS 0x1bb2 ===
  0x1bb2	mov    	eax, dword ptr [0x3468]
  0x1bb8	dec    	eax
  0x1bb9	mov    	ebx, dword ptr [esp + 0x40]
  0x1bbd	dec    	eax
  0x1bbe	mov    	esi, dword ptr [esp + 0x48]
  === BLOCK LINK ===
    0x1bc2
=== CODE BLOCK END ===

=== CODE BLOCK ADDRESS 0x1bc2 ===
  0x1bc2	dec    	eax
  0x1bc3	mov    	edi, dword ptr [esp + 0x50]
  0x1bc7	dec    	eax
  0x1bc8	add    	esp, 0x30
  0x1bcb	inc    	ecx
  === BLOCK LINK ===
    0x1bcc
=== CODE BLOCK END ===

=== CODE BLOCK ADDRESS 0x1bcc ===
  0x1bcc	pop    	edi
  0x1bcd	ret    	
  0x1bce	int3   	
  0x1bcf	int3   	
  0x1bd0	int3   	
  === BLOCK LINK ===
    0x1bd1
=== CODE BLOCK END ===

=== CODE BLOCK ADDRESS 0x1bd1 ===
  0x1bd1	int3   	
  0x1bd2	int3   	
  0x1bd3	int3   	
  0x1bd4	int3   	
  0x1bd5	int3   	
  === BLOCK LINK ===
    0x1bd6
=== CODE BLOCK END ===

=== CODE BLOCK ADDRESS 0x1bd6 ===
  0x1bd6	int3   	
  0x1bd7	int3   	
  0x1bd8	int3   	
  0x1bd9	int3   	
  0x1bda	int3   	
  === BLOCK LINK ===
    0x1bdb
=== CODE BLOCK END ===

=== CODE BLOCK ADDRESS 0x1bdb ===
  0x1bdb	int3   	
  0x1bdc	int3   	
  0x1bdd	int3   	
  0x1bde	int3   	
  0x1bdf	int3   	
  === BLOCK LINK ===
    0x1be0
=== CODE BLOCK END ===

=== CODE BLOCK ADDRESS 0x1be0 ===
  0x1be0	dec    	eax
  0x1be1	sub    	esp, 0x28
  0x1be4	call   	0x1e54
  === BLOCK LINK ===
    0x1be9
=== CODE BLOCK END ===

=== CODE BLOCK ADDRESS 0x1be9 ===
  0x1be9	dec    	eax
  0x1bea	add    	esp, 0x28
  0x1bed	jmp    	0x1a10
  === BLOCK LINK ===
    0x1bf2
=== CODE BLOCK END ===

=== CODE BLOCK ADDRESS 0x1bf2 ===
  0x1bf2	int3   	
  0x1bf3	int3   	
  0x1bf4	int3   	
  0x1bf5	int3   	
  0x1bf6	int3   	
  === BLOCK LINK ===
    0x1bf7
=== CODE BLOCK END ===

=== CODE BLOCK ADDRESS 0x1bf7 ===
  0x1bf7	int3   	
  0x1bf8	int3   	
  0x1bf9	int3   	
  0x1bfa	int3   	
  0x1bfb	int3   	
  === BLOCK LINK ===
    0x1bfc
=== CODE BLOCK END ===

=== CODE BLOCK ADDRESS 0x1bfc ===
  0x1bfc	int3   	
  0x1bfd	int3   	
  0x1bfe	int3   	
  0x1bff	int3   	
  0x1c00	int3   	
  === BLOCK LINK ===
    0x1c01
=== CODE BLOCK END ===

=== CODE BLOCK ADDRESS 0x1c01 ===
  0x1c01	int3   	
  0x1c02	int3   	
  0x1c03	int3   	
  0x1c04	int3   	
  0x1c05	int3   	
  === BLOCK LINK ===
    0x1c06
=== CODE BLOCK END ===

=== CODE BLOCK ADDRESS 0x1c06 ===
  0x1c06	nop    	word ptr [eax + eax]
  0x1c10	dec    	eax
  0x1c11	cmp    	ecx, dword ptr [0x33f1]
  0x1c17	jne    	0x1c29
  === BLOCK LINK ===
    0x1c19
=== CODE BLOCK END ===

=== CODE BLOCK ADDRESS 0x1c19 ===
  0x1c19	dec    	eax
  0x1c1a	rol    	ecx, 0x10
  0x1c1d	test   	cx, 0xffff
  0x1c22	jne    	0x1c25
  === BLOCK LINK ===
    0x1c24
=== CODE BLOCK END ===

=== CODE BLOCK ADDRESS 0x1c24 ===
  0x1c24	ret    	
  0x1c25	dec    	eax
  0x1c26	ror    	ecx, 0x10
  0x1c29	jmp    	0x1fa0
  === BLOCK LINK ===
    0x1c2e
=== CODE BLOCK END ===

=== CODE BLOCK ADDRESS 0x1146 ===
=== CODE BLOCK END ===

=== CODE BLOCK ADDRESS 0x1c2e ===
  0x1c2e	int3   	
  0x1c2f	int3   	
  0x1c30	int3   	
  0x1c31	int3   	
  0x1c32	int3   	
  === BLOCK LINK ===
    0x1c33
=== CODE BLOCK END ===

=== CODE BLOCK ADDRESS 0x1c33 ===
  0x1c33	int3   	
  0x1c34	int3   	
  0x1c35	int3   	
  0x1c36	int3   	
  0x1c37	int3   	
  === BLOCK LINK ===
    0x1c38
=== CODE BLOCK END ===

=== CODE BLOCK ADDRESS 0x1c38 ===
  0x1c38	int3   	
  0x1c39	int3   	
  0x1c3a	int3   	
  0x1c3b	int3   	
  0x1c3c	int3   	
  === BLOCK LINK ===
    0x1c3d
=== CODE BLOCK END ===

=== CODE BLOCK ADDRESS 0x1c3d ===
  0x1c3d	int3   	
  0x1c3e	int3   	
  0x1c3f	int3   	
  0x1c40	dec    	eax
  0x1c41	sub    	esp, 0x28
  === BLOCK LINK ===
    0x1c44
=== CODE BLOCK END ===

=== CODE BLOCK ADDRESS 0x1c44 ===
  0x1c44	dec    	eax
  0x1c45	mov    	eax, dword ptr [ecx]
  0x1c47	cmp    	dword ptr [eax], 0xe06d7363
  0x1c4d	jne    	0x1c72
  === BLOCK LINK ===
    0x1c4f
=== CODE BLOCK END ===

=== CODE BLOCK ADDRESS 0x1c4f ===
  0x1c4f	cmp    	dword ptr [eax + 0x18], 4
  0x1c53	jne    	0x1c72
  === BLOCK LINK ===
    0x1c55
=== CODE BLOCK END ===

=== CODE BLOCK ADDRESS 0x1c55 ===
  0x1c55	mov    	ecx, dword ptr [eax + 0x20]
  0x1c58	lea    	eax, [ecx - 0x19930520]
  0x1c5e	cmp    	eax, 2
  0x1c61	jbe    	0x1c6b
  === BLOCK LINK ===
    0x1c63
=== CODE BLOCK END ===

=== CODE BLOCK ADDRESS 0x1c63 ===
  0x1c63	cmp    	ecx, 0x1994000
  0x1c69	jne    	0x1c72
  === BLOCK LINK ===
    0x1c6b
=== CODE BLOCK END ===

=== CODE BLOCK ADDRESS 0x1c6b ===
  0x1c6b	call   	dword ptr [0x15cf]
  === BLOCK LINK ===
    0x1c71
=== CODE BLOCK END ===

=== CODE BLOCK ADDRESS 0x1c71 ===
  0x1c71	int3   	
  0x1c72	xor    	eax, eax
  0x1c74	dec    	eax
  0x1c75	add    	esp, 0x28
  0x1c78	ret    	
  === BLOCK LINK ===
    0x1c79
=== CODE BLOCK END ===

=== CODE BLOCK ADDRESS 0x1c79 ===
  0x1c79	int3   	
  0x1c7a	int3   	
  0x1c7b	int3   	
  0x1c7c	int3   	
  0x1c7d	int3   	
  === BLOCK LINK ===
    0x1c7e
=== CODE BLOCK END ===

=== CODE BLOCK ADDRESS 0x1c7e ===
  0x1c7e	int3   	
  0x1c7f	int3   	
  0x1c80	dec    	eax
  0x1c81	sub    	esp, 0x28
  0x1c84	dec    	eax
  === BLOCK LINK ===
    0x1c85
=== CODE BLOCK END ===

=== CODE BLOCK ADDRESS 0x1c85 ===
  0x1c85	lea    	ecx, [0xffffffb5]
  0x1c8b	call   	dword ptr [0x1527]
  === BLOCK LINK ===
    0x1c91
=== CODE BLOCK END ===

=== CODE BLOCK ADDRESS 0x1c91 ===
  0x1c91	xor    	eax, eax
  0x1c93	dec    	eax
  0x1c94	add    	esp, 0x28
  0x1c97	ret    	
  0x1c98	int3   	
  === BLOCK LINK ===
    0x1c99
=== CODE BLOCK END ===

=== CODE BLOCK ADDRESS 0x1c99 ===
  0x1c99	int3   	
  0x1c9a	int3   	
  0x1c9b	int3   	
  0x1c9c	int3   	
  0x1c9d	int3   	
  === BLOCK LINK ===
    0x1c9e
=== CODE BLOCK END ===

=== CODE BLOCK ADDRESS 0x1c9e ===
  0x1c9e	jmp    	dword ptr [0x15cc]
  === BLOCK LINK ===
    0x1ca4
=== CODE BLOCK END ===

=== CODE BLOCK ADDRESS 0x1ca4 ===
  0x1ca4	int3   	
  0x1ca5	int3   	
  0x1ca6	int3   	
  0x1ca7	int3   	
  0x1ca8	int3   	
  === BLOCK LINK ===
    0x1ca9
=== CODE BLOCK END ===

=== CODE BLOCK ADDRESS 0x1ca9 ===
  0x1ca9	int3   	
  0x1caa	int3   	
  0x1cab	int3   	
  0x1cac	dec    	eax
  0x1cad	sub    	esp, 0x18
  === BLOCK LINK ===
    0x1cb0
=== CODE BLOCK END ===

=== CODE BLOCK ADDRESS 0x1cb0 ===
  0x1cb0	xor    	edx, edx
  0x1cb2	dec    	eax
  0x1cb3	lea    	eax, [ecx - 1]
  0x1cb6	dec    	eax
  0x1cb7	cmp    	eax, -3
  === BLOCK LINK ===
    0x1cba
=== CODE BLOCK END ===

=== CODE BLOCK ADDRESS 0x1cba ===
  0x1cba	ja     	0x1cf8
  === BLOCK LINK ===
    0x1cbc
=== CODE BLOCK END ===

=== CODE BLOCK ADDRESS 0x1cbc ===
  0x1cbc	mov    	eax, 0x5a4d
  0x1cc1	cmp    	word ptr [ecx], ax
  0x1cc4	jne    	0x1cf0
  === BLOCK LINK ===
    0x1cc6
=== CODE BLOCK END ===

=== CODE BLOCK ADDRESS 0x1cc6 ===
  0x1cc6	cmp    	dword ptr [ecx + 0x3c], edx
  0x1cc9	jl     	0x1cf0
  === BLOCK LINK ===
    0x1ccb
=== CODE BLOCK END ===

=== CODE BLOCK ADDRESS 0x1ccb ===
  0x1ccb	cmp    	dword ptr [ecx + 0x3c], 0x10000000
  0x1cd2	jae    	0x1cf0
  === BLOCK LINK ===
    0x1cd4
=== CODE BLOCK END ===

=== CODE BLOCK ADDRESS 0x1cd4 ===
  0x1cd4	dec    	eax
  0x1cd5	arpl   	word ptr [ecx + 0x3c], ax
  0x1cd8	dec    	eax
  0x1cd9	add    	eax, ecx
  0x1cdb	dec    	eax
  === BLOCK LINK ===
    0x1cdc
=== CODE BLOCK END ===

=== CODE BLOCK ADDRESS 0x1cdc ===
  0x1cdc	mov    	dword ptr [esp], eax
  0x1cdf	cmp    	dword ptr [eax], 0x4550
  0x1ce5	dec    	eax
  0x1ce6	cmovne  	eax, edx
  0x1ce9	dec    	eax
  === BLOCK LINK ===
    0x1cea
=== CODE BLOCK END ===

=== CODE BLOCK ADDRESS 0x1cea ===
  0x1cea	mov    	edx, eax
  0x1cec	dec    	eax
  0x1ced	mov    	dword ptr [esp], eax
  0x1cf0	jmp    	0x1cf8
  === BLOCK LINK ===
    0x1cf2
=== CODE BLOCK END ===

=== CODE BLOCK ADDRESS 0x1cf2 ===
  0x1cf2	xor    	edx, edx
  0x1cf4	dec    	eax
  0x1cf5	mov    	dword ptr [esp], edx
  0x1cf8	dec    	eax
  0x1cf9	mov    	eax, edx
  === BLOCK LINK ===
    0x1cfb
=== CODE BLOCK END ===

=== CODE BLOCK ADDRESS 0x1cfb ===
  0x1cfb	dec    	eax
  0x1cfc	add    	esp, 0x18
  0x1cff	ret    	
  0x1d00	int3   	
  0x1d01	int3   	
  === BLOCK LINK ===
    0x1d02
=== CODE BLOCK END ===

=== CODE BLOCK ADDRESS 0x1d02 ===
  0x1d02	int3   	
  0x1d03	int3   	
  0x1d04	int3   	
  0x1d05	int3   	
  0x1d06	int3   	
  === BLOCK LINK ===
    0x1d07
=== CODE BLOCK END ===

=== CODE BLOCK ADDRESS 0x1d07 ===
  0x1d07	int3   	
  0x1d08	inc    	eax
  0x1d09	push   	ebx
  0x1d0a	dec    	eax
  0x1d0b	sub    	esp, 0x20
  === BLOCK LINK ===
    0x1d0e
=== CODE BLOCK END ===

=== CODE BLOCK ADDRESS 0x1d0e ===
  0x1d0e	mov    	ebx, ecx
  0x1d10	xor    	ecx, ecx
  0x1d12	call   	dword ptr [0x1498]
  === BLOCK LINK ===
    0x1d18
=== CODE BLOCK END ===

=== CODE BLOCK ADDRESS 0x1d18 ===
  0x1d18	dec    	eax
  0x1d19	test   	eax, eax
  0x1d1b	je     	0x1d45
  === BLOCK LINK ===
    0x1d1d
=== CODE BLOCK END ===

=== CODE BLOCK ADDRESS 0x1d1d ===
  0x1d1d	dec    	eax
  0x1d1e	mov    	ecx, eax
  0x1d20	call   	0x1cac
  === BLOCK LINK ===
    0x1d25
=== CODE BLOCK END ===

=== CODE BLOCK ADDRESS 0x1d25 ===
  0x1d25	dec    	eax
  0x1d26	test   	eax, eax
  0x1d28	je     	0x1d45
  === BLOCK LINK ===
    0x1d2a
=== CODE BLOCK END ===

=== CODE BLOCK ADDRESS 0x1d2a ===
  0x1d2a	mov    	ecx, 2
  0x1d2f	cmp    	word ptr [eax + 0x5c], cx
  0x1d33	jne    	0x1d39
  === BLOCK LINK ===
    0x1d35
=== CODE BLOCK END ===

=== CODE BLOCK ADDRESS 0x1d35 ===
  0x1d35	mov    	eax, ecx
  0x1d37	jmp    	0x1d47
  === BLOCK LINK ===
    0x1d39
=== CODE BLOCK END ===

=== CODE BLOCK ADDRESS 0x1d39 ===
  0x1d39	cmp    	word ptr [eax + 0x5c], 3
  0x1d3e	mov    	eax, 1
  0x1d43	je     	0x1d47
  === BLOCK LINK ===
    0x1d45
=== CODE BLOCK END ===

=== CODE BLOCK ADDRESS 0x1d45 ===
  0x1d45	mov    	eax, ebx
  0x1d47	dec    	eax
  0x1d48	add    	esp, 0x20
  0x1d4b	pop    	ebx
  0x1d4c	ret    	
  === BLOCK LINK ===
    0x1d4d
=== CODE BLOCK END ===

=== CODE BLOCK ADDRESS 0x1d4d ===
  0x1d4d	int3   	
  0x1d4e	int3   	
  0x1d4f	int3   	
  0x1d50	int3   	
  0x1d51	int3   	
  === BLOCK LINK ===
    0x1d52
=== CODE BLOCK END ===

=== CODE BLOCK ADDRESS 0x1d52 ===
  0x1d52	int3   	
  0x1d53	jmp    	dword ptr [0x150f]
  === BLOCK LINK ===
    0x1d59
=== CODE BLOCK END ===

=== CODE BLOCK ADDRESS 0x1d59 ===
  0x1d59	int3   	
  0x1d5a	int3   	
  0x1d5b	int3   	
  0x1d5c	int3   	
  0x1d5d	int3   	
  === BLOCK LINK ===
    0x1d5e
=== CODE BLOCK END ===

=== CODE BLOCK ADDRESS 0x1d5e ===
  0x1d5e	int3   	
  0x1d5f	int3   	
  0x1d60	xor    	eax, eax
  0x1d62	ret    	
  0x1d63	int3   	
  === BLOCK LINK ===
    0x1d64
=== CODE BLOCK END ===

=== CODE BLOCK ADDRESS 0x1d64 ===
  0x1d64	int3   	
  0x1d65	int3   	
  0x1d66	int3   	
  0x1d67	int3   	
  0x1d68	int3   	
  === BLOCK LINK ===
    0x1d69
=== CODE BLOCK END ===

=== CODE BLOCK ADDRESS 0x1d69 ===
  0x1d69	int3   	
  0x1d6a	int3   	
  0x1d6b	int3   	
  0x1d6c	int3   	
  0x1d6d	int3   	
  === BLOCK LINK ===
    0x1d6e
=== CODE BLOCK END ===

=== CODE BLOCK ADDRESS 0x1d6e ===
  0x1d6e	int3   	
  0x1d6f	int3   	
  0x1d70	dec    	esp
  0x1d71	arpl   	word ptr [ecx + 0x3c], ax
  0x1d74	inc    	ebp
  === BLOCK LINK ===
    0x1d75
=== CODE BLOCK END ===

=== CODE BLOCK ADDRESS 0x1d75 ===
  0x1d75	xor    	ecx, ecx
  0x1d77	dec    	esp
  0x1d78	add    	eax, ecx
  0x1d7a	dec    	esp
  0x1d7b	mov    	edx, edx
  === BLOCK LINK ===
    0x1d7d
=== CODE BLOCK END ===

=== CODE BLOCK ADDRESS 0x1d7d ===
  0x1d7d	inc    	ecx
  0x1d7e	movzx  	eax, word ptr [eax + 0x14]
  0x1d82	inc    	ebp
  0x1d83	movzx  	ebx, word ptr [eax + 6]
  0x1d87	dec    	eax
  === BLOCK LINK ===
    0x1d88
=== CODE BLOCK END ===

=== CODE BLOCK ADDRESS 0x1d88 ===
  0x1d88	add    	eax, 0x18
  0x1d8b	dec    	ecx
  0x1d8c	add    	eax, eax
  0x1d8e	inc    	ebp
  0x1d8f	test   	ebx, ebx
  === BLOCK LINK ===
    0x1d91
=== CODE BLOCK END ===

=== CODE BLOCK ADDRESS 0x1d91 ===
  0x1d91	je     	0x1db1
  === BLOCK LINK ===
    0x1d93
=== CODE BLOCK END ===

=== CODE BLOCK ADDRESS 0x1d93 ===
  0x1d93	mov    	edx, dword ptr [eax + 0xc]
  0x1d96	dec    	esp
  0x1d97	cmp    	edx, edx
  0x1d99	jb     	0x1da5
  === BLOCK LINK ===
    0x1d9b
=== CODE BLOCK END ===

=== CODE BLOCK ADDRESS 0x1d9b ===
  0x1d9b	mov    	ecx, dword ptr [eax + 8]
  0x1d9e	add    	ecx, edx
  0x1da0	dec    	esp
  0x1da1	cmp    	edx, ecx
  0x1da3	jb     	0x1db3
  === BLOCK LINK ===
    0x1da5
=== CODE BLOCK END ===

=== CODE BLOCK ADDRESS 0x1da5 ===
  0x1da5	inc    	ecx
  0x1da6	inc    	ecx
  0x1da8	dec    	eax
  0x1da9	add    	eax, 0x28
  0x1dac	inc    	ebp
  === BLOCK LINK ===
    0x1dad
=== CODE BLOCK END ===

=== CODE BLOCK ADDRESS 0x1dad ===
  0x1dad	cmp    	ecx, ebx
  0x1daf	jb     	0x1d93
  === BLOCK LINK ===
    0x1db1
=== CODE BLOCK END ===

=== CODE BLOCK ADDRESS 0x1db1 ===
  0x1db1	xor    	eax, eax
  0x1db3	ret    	
  0x1db4	int3   	
  0x1db5	int3   	
  0x1db6	int3   	
  === BLOCK LINK ===
    0x1db7
=== CODE BLOCK END ===

=== CODE BLOCK ADDRESS 0x1db7 ===
  0x1db7	int3   	
  0x1db8	int3   	
  0x1db9	int3   	
  0x1dba	int3   	
  0x1dbb	int3   	
  === BLOCK LINK ===
    0x1dbc
=== CODE BLOCK END ===

=== CODE BLOCK ADDRESS 0x1dbc ===
  0x1dbc	int3   	
  0x1dbd	int3   	
  0x1dbe	int3   	
  0x1dbf	int3   	
  0x1dc0	dec    	eax
  === BLOCK LINK ===
    0x1dc1
=== CODE BLOCK END ===

=== CODE BLOCK ADDRESS 0x1dc1 ===
  0x1dc1	mov    	dword ptr [esp + 8], ebx
  0x1dc5	push   	edi
  0x1dc6	dec    	eax
  0x1dc7	sub    	esp, 0x20
  0x1dca	dec    	eax
  === BLOCK LINK ===
    0x1dcb
=== CODE BLOCK END ===

=== CODE BLOCK ADDRESS 0x1dcb ===
  0x1dcb	mov    	ebx, ecx
  0x1dcd	dec    	eax
  0x1dce	lea    	edi, [0xffffe22c]
  0x1dd4	dec    	eax
  0x1dd5	mov    	ecx, edi
  === BLOCK LINK ===
    0x1dd7
=== CODE BLOCK END ===

=== CODE BLOCK ADDRESS 0x1dd7 ===
  0x1dd7	call   	0x1e20
  === BLOCK LINK ===
    0x1ddc
=== CODE BLOCK END ===

=== CODE BLOCK ADDRESS 0x1ddc ===
  0x1ddc	test   	eax, eax
  0x1dde	je     	0x1e02
  === BLOCK LINK ===
    0x1de0
=== CODE BLOCK END ===

=== CODE BLOCK ADDRESS 0x1de0 ===
  0x1de0	dec    	eax
  0x1de1	sub    	ebx, edi
  0x1de3	dec    	eax
  0x1de4	mov    	edx, ebx
  0x1de6	dec    	eax
  === BLOCK LINK ===
    0x1de7
=== CODE BLOCK END ===

=== CODE BLOCK ADDRESS 0x1de7 ===
  0x1de7	mov    	ecx, edi
  0x1de9	call   	0x1d70
  === BLOCK LINK ===
    0x1dee
=== CODE BLOCK END ===

=== CODE BLOCK ADDRESS 0x1dee ===
  0x1dee	dec    	eax
  0x1def	test   	eax, eax
  0x1df1	je     	0x1e02
  === BLOCK LINK ===
    0x1df3
=== CODE BLOCK END ===

=== CODE BLOCK ADDRESS 0x1df3 ===
  0x1df3	mov    	eax, dword ptr [eax + 0x24]
  0x1df6	shr    	eax, 0x1f
  0x1df9	not    	eax
  0x1dfb	and    	eax, 1
  0x1dfe	jmp    	0x1e02
  === BLOCK LINK ===
    0x1e00
=== CODE BLOCK END ===

=== CODE BLOCK ADDRESS 0x1e00 ===
  0x1e00	xor    	eax, eax
  0x1e02	dec    	eax
  0x1e03	mov    	ebx, dword ptr [esp + 0x30]
  0x1e07	dec    	eax
  0x1e08	add    	esp, 0x20
  === BLOCK LINK ===
    0x1e0b
=== CODE BLOCK END ===

=== CODE BLOCK ADDRESS 0x1e0b ===
  0x1e0b	pop    	edi
  0x1e0c	ret    	
  0x1e0d	int3   	
  0x1e0e	int3   	
  0x1e0f	int3   	
  === BLOCK LINK ===
    0x1e10
=== CODE BLOCK END ===

=== CODE BLOCK ADDRESS 0x122d ===
  0x122d	dec    	eax
  0x122e	mov    	ecx, dword ptr [ebp - 8]
  0x1231	dec    	eax
  === BLOCK LINK ===
    0x1232
=== CODE BLOCK END ===

=== CODE BLOCK ADDRESS 0x1e10 ===
  0x1e10	int3   	
  0x1e11	int3   	
  0x1e12	int3   	
  0x1e13	int3   	
  0x1e14	int3   	
  === BLOCK LINK ===
    0x1e15
=== CODE BLOCK END ===

=== CODE BLOCK ADDRESS 0x1e15 ===
  0x1e15	int3   	
  0x1e16	int3   	
  0x1e17	int3   	
  0x1e18	int3   	
  0x1e19	int3   	
  === BLOCK LINK ===
    0x1e1a
=== CODE BLOCK END ===

=== CODE BLOCK ADDRESS 0x1e1a ===
  0x1e1a	int3   	
  0x1e1b	int3   	
  0x1e1c	int3   	
  0x1e1d	int3   	
  0x1e1e	int3   	
  === BLOCK LINK ===
    0x1e1f
=== CODE BLOCK END ===

=== CODE BLOCK ADDRESS 0x1e1f ===
  0x1e1f	int3   	
  0x1e20	mov    	eax, 0x5a4d
  0x1e25	cmp    	word ptr [ecx], ax
  0x1e28	jne    	0x1e4a
  === BLOCK LINK ===
    0x1e2a
=== CODE BLOCK END ===

=== CODE BLOCK ADDRESS 0x1e2a ===
  0x1e2a	dec    	eax
  0x1e2b	arpl   	word ptr [ecx + 0x3c], ax
  0x1e2e	dec    	eax
  0x1e2f	add    	eax, ecx
  0x1e31	cmp    	dword ptr [eax], 0x4550
  === BLOCK LINK ===
    0x1e37
=== CODE BLOCK END ===

=== CODE BLOCK ADDRESS 0x1e37 ===
  0x1e37	jne    	0x1e4a
  === BLOCK LINK ===
    0x1e39
=== CODE BLOCK END ===

=== CODE BLOCK ADDRESS 0x1e39 ===
  0x1e39	mov    	ecx, 0x20b
  0x1e3e	cmp    	word ptr [eax + 0x18], cx
  0x1e42	jne    	0x1e4a
  === BLOCK LINK ===
    0x1e44
=== CODE BLOCK END ===

=== CODE BLOCK ADDRESS 0x1e44 ===
  0x1e44	mov    	eax, 1
  0x1e49	ret    	
  0x1e4a	xor    	eax, eax
  0x1e4c	ret    	
  0x1e4d	int3   	
  === BLOCK LINK ===
    0x1e4e
=== CODE BLOCK END ===

=== CODE BLOCK ADDRESS 0x1e4e ===
  0x1e4e	int3   	
  0x1e4f	int3   	
  0x1e50	int3   	
  0x1e51	int3   	
  0x1e52	int3   	
  === BLOCK LINK ===
    0x1e53
=== CODE BLOCK END ===

=== CODE BLOCK ADDRESS 0x1e53 ===
  0x1e53	int3   	
  0x1e54	dec    	eax
  0x1e55	mov    	dword ptr [esp + 0x20], ebx
  0x1e59	push   	ebp
  0x1e5a	dec    	eax
  === BLOCK LINK ===
    0x1e5b
=== CODE BLOCK END ===

=== CODE BLOCK ADDRESS 0x1e5b ===
  0x1e5b	mov    	ebp, esp
  0x1e5d	dec    	eax
  0x1e5e	sub    	esp, 0x20
  0x1e61	dec    	eax
  0x1e62	and    	dword ptr [ebp + 0x18], 0
  === BLOCK LINK ===
    0x1e66
=== CODE BLOCK END ===

=== CODE BLOCK ADDRESS 0x1e66 ===
  0x1e66	dec    	eax
  0x1e67	mov    	ebx, 0x2ddfa232
  0x1e6c	cdq    	
  0x1e6d	sub    	eax, dword ptr [eax]
  0x1e6f	add    	byte ptr [eax - 0x75], cl
  === BLOCK LINK ===
    0x1e72
=== CODE BLOCK END ===

=== CODE BLOCK ADDRESS 0x1e72 ===
  0x1e72	add    	eax, 0x3191
  0x1e77	dec    	eax
  0x1e78	cmp    	eax, ebx
  0x1e7a	jne    	0x1f13
  === BLOCK LINK ===
    0x1e80
=== CODE BLOCK END ===

=== CODE BLOCK ADDRESS 0x1e80 ===
  0x1e80	dec    	eax
  0x1e81	lea    	ecx, [ebp + 0x18]
  0x1e84	call   	dword ptr [0x1306]
  === BLOCK LINK ===
    0x1e8a
=== CODE BLOCK END ===

=== CODE BLOCK ADDRESS 0x1e8a ===
  0x1e8a	dec    	eax
  0x1e8b	mov    	eax, dword ptr [ebp + 0x18]
  0x1e8e	dec    	eax
  0x1e8f	mov    	dword ptr [ebp + 0x10], eax
  0x1e92	call   	dword ptr [0x1308]
  === BLOCK LINK ===
    0x1e98
=== CODE BLOCK END ===

=== CODE BLOCK ADDRESS 0x1e98 ===
  0x1e98	mov    	eax, eax
  0x1e9a	dec    	eax
  0x1e9b	xor    	dword ptr [ebp + 0x10], eax
  0x1e9e	call   	dword ptr [0x12f4]
  === BLOCK LINK ===
    0x1ea4
=== CODE BLOCK END ===

=== CODE BLOCK ADDRESS 0x1ea4 ===
  0x1ea4	mov    	eax, eax
  0x1ea6	dec    	eax
  0x1ea7	xor    	dword ptr [ebp + 0x10], eax
  0x1eaa	call   	dword ptr [0x1338]
  === BLOCK LINK ===
    0x1eb0
=== CODE BLOCK END ===

=== CODE BLOCK ADDRESS 0x1eb0 ===
  0x1eb0	mov    	eax, eax
  0x1eb2	dec    	eax
  0x1eb3	shl    	eax, 0x18
  0x1eb6	dec    	eax
  0x1eb7	xor    	dword ptr [ebp + 0x10], eax
  === BLOCK LINK ===
    0x1eba
=== CODE BLOCK END ===

=== CODE BLOCK ADDRESS 0x1eba ===
  0x1eba	call   	dword ptr [0x1328]
  === BLOCK LINK ===
    0x1ec0
=== CODE BLOCK END ===

=== CODE BLOCK ADDRESS 0x1ec0 ===
  0x1ec0	mov    	eax, eax
  0x1ec2	dec    	eax
  0x1ec3	lea    	ecx, [ebp + 0x10]
  0x1ec6	dec    	eax
  0x1ec7	xor    	eax, dword ptr [ebp + 0x10]
  === BLOCK LINK ===
    0x1eca
=== CODE BLOCK END ===

=== CODE BLOCK ADDRESS 0x1eca ===
  0x1eca	dec    	eax
  0x1ecb	xor    	eax, ecx
  0x1ecd	dec    	eax
  0x1ece	lea    	ecx, [ebp + 0x20]
  0x1ed1	dec    	eax
  === BLOCK LINK ===
    0x1ed2
=== CODE BLOCK END ===

=== CODE BLOCK ADDRESS 0x1ed2 ===
  0x1ed2	mov    	dword ptr [ebp + 0x10], eax
  0x1ed5	call   	dword ptr [0x12cd]
  === BLOCK LINK ===
    0x1edb
=== CODE BLOCK END ===

=== CODE BLOCK ADDRESS 0x1edb ===
  0x1edb	mov    	eax, dword ptr [ebp + 0x20]
  0x1ede	dec    	eax
  0x1edf	mov    	ecx, 0xffffffff
  0x1ee4	.byte  	0xff
  0x1ee5	inc    	dword ptr [eax]
  === BLOCK LINK ===
    0x1ee7
=== CODE BLOCK END ===

=== CODE BLOCK ADDRESS 0x1ee7 ===
  0x1ee7	add    	byte ptr [eax - 0x3f], cl
  0x1eea	loopne  	0x1f0c
  === BLOCK LINK ===
    0x1eec
=== CODE BLOCK END ===

=== CODE BLOCK ADDRESS 0x1eec ===
  0x1eec	dec    	eax
  0x1eed	xor    	eax, dword ptr [ebp + 0x20]
  0x1ef0	dec    	eax
  0x1ef1	xor    	eax, dword ptr [ebp + 0x10]
  0x1ef4	dec    	eax
  === BLOCK LINK ===
    0x1ef5
=== CODE BLOCK END ===

=== CODE BLOCK ADDRESS 0x1ef5 ===
  0x1ef5	and    	eax, ecx
  0x1ef7	dec    	eax
  0x1ef8	mov    	ecx, eax
  0x1efa	dec    	eax
  0x1efb	cmp    	eax, ebx
  === BLOCK LINK ===
    0x1efd
=== CODE BLOCK END ===

=== CODE BLOCK ADDRESS 0x1efd ===
  0x1efd	jne    	0x1f0c
  === BLOCK LINK ===
    0x1eff
=== CODE BLOCK END ===

=== CODE BLOCK ADDRESS 0x1eff ===
  0x1eff	dec    	eax
  0x1f00	mov    	eax, 0x2ddfa233
  0x1f05	cdq    	
  0x1f06	sub    	eax, dword ptr [eax]
  0x1f08	add    	byte ptr [eax - 0x75], cl
  === BLOCK LINK ===
    0x1f0b
=== CODE BLOCK END ===

=== CODE BLOCK ADDRESS 0x1f0b ===
  0x1f0b	enter  	-0x76b8, 0xd
  0x1f0f	cmc    	
  0x1f10	xor    	byte ptr [eax], al
  0x1f12	add    	byte ptr [eax - 0x75], cl
  0x1f15	pop    	esp
  === BLOCK LINK ===
    0x1f16
=== CODE BLOCK END ===

=== CODE BLOCK ADDRESS 0x1f16 ===
  0x1f16	and    	al, 0x48
  0x1f18	dec    	eax
  0x1f19	not    	eax
  0x1f1b	dec    	eax
  0x1f1c	mov    	dword ptr [0x30ee], eax
  === BLOCK LINK ===
    0x1f22
=== CODE BLOCK END ===

=== CODE BLOCK ADDRESS 0x1f22 ===
  0x1f22	dec    	eax
  0x1f23	add    	esp, 0x20
  0x1f26	pop    	ebp
  0x1f27	ret    	
  0x1f28	int3   	
  === BLOCK LINK ===
    0x1f29
=== CODE BLOCK END ===

=== CODE BLOCK ADDRESS 0x1f29 ===
  0x1f29	int3   	
  0x1f2a	int3   	
  0x1f2b	int3   	
  0x1f2c	int3   	
  0x1f2d	int3   	
  === BLOCK LINK ===
    0x1f2e
=== CODE BLOCK END ===

=== CODE BLOCK ADDRESS 0x1f2e ===
  0x1f2e	jmp    	dword ptr [0x1364]
  === BLOCK LINK ===
    0x1f34
=== CODE BLOCK END ===

=== CODE BLOCK ADDRESS 0x1f34 ===
  0x1f34	int3   	
  0x1f35	int3   	
  0x1f36	int3   	
  0x1f37	int3   	
  0x1f38	int3   	
  === BLOCK LINK ===
    0x1f39
=== CODE BLOCK END ===

=== CODE BLOCK ADDRESS 0x1f39 ===
  0x1f39	int3   	
  0x1f3a	jmp    	dword ptr [0x1318]
  === BLOCK LINK ===
    0x1f40
=== CODE BLOCK END ===

=== CODE BLOCK ADDRESS 0x1f40 ===
  0x1f40	int3   	
  0x1f41	int3   	
  0x1f42	int3   	
  0x1f43	int3   	
  0x1f44	int3   	
  === BLOCK LINK ===
    0x1f45
=== CODE BLOCK END ===

=== CODE BLOCK ADDRESS 0x1f45 ===
  0x1f45	int3   	
  0x1f46	int3   	
  0x1f47	int3   	
  0x1f48	int3   	
  0x1f49	int3   	
  === BLOCK LINK ===
    0x1f4a
=== CODE BLOCK END ===

=== CODE BLOCK ADDRESS 0x1f4a ===
  0x1f4a	int3   	
  0x1f4b	int3   	
  0x1f4c	int3   	
  0x1f4d	int3   	
  0x1f4e	int3   	
  === BLOCK LINK ===
    0x1f4f
=== CODE BLOCK END ===

=== CODE BLOCK ADDRESS 0x1f4f ===
  0x1f4f	int3   	
  0x1f50	ret    	0
  0x1f53	int3   	
  0x1f54	int3   	
  0x1f55	int3   	
  === BLOCK LINK ===
    0x1f56
=== CODE BLOCK END ===

=== CODE BLOCK ADDRESS 0x1f56 ===
  0x1f56	int3   	
  0x1f57	int3   	
  0x1f58	int3   	
  0x1f59	int3   	
  0x1f5a	int3   	
  === BLOCK LINK ===
    0x1f5b
=== CODE BLOCK END ===

=== CODE BLOCK ADDRESS 0x1f5b ===
  0x1f5b	int3   	
  0x1f5c	inc    	eax
  0x1f5d	push   	ebx
  0x1f5e	dec    	eax
  0x1f5f	sub    	esp, 0x20
  === BLOCK LINK ===
    0x1f62
=== CODE BLOCK END ===

=== CODE BLOCK ADDRESS 0x1f62 ===
  0x1f62	dec    	eax
  0x1f63	mov    	ebx, ecx
  0x1f65	xor    	ecx, ecx
  0x1f67	call   	dword ptr [0x124b]
  === BLOCK LINK ===
    0x1f6d
=== CODE BLOCK END ===

=== CODE BLOCK ADDRESS 0x1f6d ===
  0x1f6d	dec    	eax
  0x1f6e	mov    	ecx, ebx
  0x1f70	call   	dword ptr [0x1262]
  === BLOCK LINK ===
    0x1f76
=== CODE BLOCK END ===

=== CODE BLOCK ADDRESS 0x1f76 ===
  0x1f76	call   	dword ptr [0x11c4]
  === BLOCK LINK ===
    0x1f7c
=== CODE BLOCK END ===

=== CODE BLOCK ADDRESS 0x1f7c ===
  0x1f7c	dec    	eax
  0x1f7d	mov    	ecx, eax
  0x1f7f	mov    	edx, 0xc0000409
  0x1f84	dec    	eax
  0x1f85	add    	esp, 0x20
  === BLOCK LINK ===
    0x1f88
=== CODE BLOCK END ===

=== CODE BLOCK ADDRESS 0x1f88 ===
  0x1f88	pop    	ebx
  0x1f89	dec    	eax
  0x1f8a	jmp    	dword ptr [0x1250]
  === BLOCK LINK ===
    0x1f90
=== CODE BLOCK END ===

=== CODE BLOCK ADDRESS 0x1f90 ===
  0x1f90	int3   	
  0x1f91	int3   	
  0x1f92	int3   	
  0x1f93	int3   	
  0x1f94	int3   	
  === BLOCK LINK ===
    0x1f95
=== CODE BLOCK END ===

=== CODE BLOCK ADDRESS 0x1f95 ===
  0x1f95	int3   	
  0x1f96	int3   	
  0x1f97	int3   	
  0x1f98	int3   	
  0x1f99	int3   	
  === BLOCK LINK ===
    0x1f9a
=== CODE BLOCK END ===

=== CODE BLOCK ADDRESS 0x1f9a ===
  0x1f9a	int3   	
  0x1f9b	int3   	
  0x1f9c	int3   	
  0x1f9d	int3   	
  0x1f9e	int3   	
  === BLOCK LINK ===
    0x1f9f
=== CODE BLOCK END ===

=== CODE BLOCK ADDRESS 0x1f9f ===
  0x1f9f	int3   	
  0x1fa0	dec    	eax
  0x1fa1	mov    	dword ptr [esp + 8], ecx
  0x1fa5	dec    	eax
  0x1fa6	sub    	esp, 0x88
  === BLOCK LINK ===
    0x1fac
=== CODE BLOCK END ===

=== CODE BLOCK ADDRESS 0x1fac ===
  0x1fac	dec    	eax
  0x1fad	lea    	ecx, [0x314d]
  0x1fb3	call   	dword ptr [0x1207]
  === BLOCK LINK ===
    0x1fb9
=== CODE BLOCK END ===

=== CODE BLOCK ADDRESS 0x1fb9 ===
  0x1fb9	dec    	eax
  0x1fba	mov    	eax, dword ptr [0x3238]
  0x1fc0	dec    	eax
  0x1fc1	mov    	dword ptr [esp + 0x48], eax
  0x1fc5	inc    	ebp
  === BLOCK LINK ===
    0x1fc6
=== CODE BLOCK END ===

=== CODE BLOCK ADDRESS 0x1fc6 ===
  0x1fc6	xor    	eax, eax
  0x1fc8	dec    	eax
  0x1fc9	lea    	edx, [esp + 0x50]
  0x1fcd	dec    	eax
  0x1fce	mov    	ecx, dword ptr [esp + 0x48]
  === BLOCK LINK ===
    0x1fd2
=== CODE BLOCK END ===

=== CODE BLOCK ADDRESS 0x1fd2 ===
  0x1fd2	call   	dword ptr [0x11f0]
  === BLOCK LINK ===
    0x1fd8
=== CODE BLOCK END ===

=== CODE BLOCK ADDRESS 0x1fd8 ===
  0x1fd8	dec    	eax
  0x1fd9	mov    	dword ptr [esp + 0x40], eax
  0x1fdd	dec    	eax
  0x1fde	cmp    	dword ptr [esp + 0x40], 0
  0x1fe3	je     	0x2027
  === BLOCK LINK ===
    0x1fe5
=== CODE BLOCK END ===

=== CODE BLOCK ADDRESS 0x1fe5 ===
  0x1fe5	dec    	eax
  0x1fe6	mov    	dword ptr [esp + 0x38], 0
  0x1fee	dec    	eax
  0x1fef	lea    	eax, [esp + 0x58]
  0x1ff3	dec    	eax
  === BLOCK LINK ===
    0x1ff4
=== CODE BLOCK END ===

=== CODE BLOCK ADDRESS 0x1ff4 ===
  0x1ff4	mov    	dword ptr [esp + 0x30], eax
  0x1ff8	dec    	eax
  0x1ff9	lea    	eax, [esp + 0x60]
  0x1ffd	dec    	eax
  0x1ffe	mov    	dword ptr [esp + 0x28], eax
  === BLOCK LINK ===
    0x2002
=== CODE BLOCK END ===

=== CODE BLOCK ADDRESS 0x2002 ===
  0x2002	dec    	eax
  0x2003	lea    	eax, [0x30f7]
  0x2009	dec    	eax
  0x200a	mov    	dword ptr [esp + 0x20], eax
  0x200e	dec    	esp
  === BLOCK LINK ===
    0x200f
=== CODE BLOCK END ===

=== CODE BLOCK ADDRESS 0x200f ===
  0x200f	mov    	ecx, dword ptr [esp + 0x40]
  0x2013	dec    	esp
  0x2014	mov    	eax, dword ptr [esp + 0x48]
  0x2018	dec    	eax
  0x2019	mov    	edx, dword ptr [esp + 0x50]
  === BLOCK LINK ===
    0x201d
=== CODE BLOCK END ===

=== CODE BLOCK ADDRESS 0x201d ===
  0x201d	xor    	ecx, ecx
  0x201f	call   	dword ptr [0x11ab]
  === BLOCK LINK ===
    0x2025
=== CODE BLOCK END ===

=== CODE BLOCK ADDRESS 0x2025 ===
  0x2025	jmp    	0x204a
  === BLOCK LINK ===
    0x2027
=== CODE BLOCK END ===

=== CODE BLOCK ADDRESS 0x2027 ===
  0x2027	dec    	eax
  0x2028	mov    	eax, dword ptr [0x316a]
  0x202e	dec    	eax
  0x202f	mov    	eax, dword ptr [eax]
  0x2031	dec    	eax
  === BLOCK LINK ===
    0x2032
=== CODE BLOCK END ===

=== CODE BLOCK ADDRESS 0x2032 ===
  0x2032	mov    	dword ptr [0x31c0], eax
  0x2038	dec    	eax
  0x2039	mov    	eax, dword ptr [0x3159]
  0x203f	dec    	eax
  0x2040	add    	eax, 8
  === BLOCK LINK ===
    0x2043
=== CODE BLOCK END ===

=== CODE BLOCK ADDRESS 0x2043 ===
  0x2043	dec    	eax
  0x2044	mov    	dword ptr [0x314e], eax
  0x204a	dec    	eax
  0x204b	mov    	eax, dword ptr [0x31a7]
  0x2051	dec    	eax
  === BLOCK LINK ===
    0x2052
=== CODE BLOCK END ===

=== CODE BLOCK ADDRESS 0x2052 ===
  0x2052	mov    	dword ptr [0x3018], eax
  0x2058	dec    	eax
  0x2059	mov    	eax, dword ptr [esp + 0x90]
  0x2060	dec    	eax
  0x2061	mov    	dword ptr [0x3119], eax
  === BLOCK LINK ===
    0x2067
=== CODE BLOCK END ===

=== CODE BLOCK ADDRESS 0x2067 ===
  0x2067	mov    	dword ptr [0x2fef], 0xc0000409
  0x2071	mov    	dword ptr [0x2fe9], 1
  0x207b	mov    	dword ptr [0x2ff3], 3
  0x2085	mov    	eax, 8
  0x208a	dec    	eax
  === BLOCK LINK ===
    0x208b
=== CODE BLOCK END ===

=== CODE BLOCK ADDRESS 0x208b ===
  0x208b	imul   	eax, eax, 0
  0x208e	dec    	eax
  0x208f	lea    	ecx, [0x2feb]
  0x2095	dec    	eax
  0x2096	mov    	dword ptr [ecx + eax], 2
  === BLOCK LINK ===
    0x209d
=== CODE BLOCK END ===

=== CODE BLOCK ADDRESS 0x209d ===
  0x209d	mov    	eax, 8
  0x20a2	dec    	eax
  0x20a3	imul   	eax, eax, 1
  0x20a6	dec    	eax
  0x20a7	lea    	ecx, [0x2fd3]
  === BLOCK LINK ===
    0x20ad
=== CODE BLOCK END ===

=== CODE BLOCK ADDRESS 0x20ad ===
  0x20ad	dec    	eax
  0x20ae	mov    	edx, dword ptr [0x2f54]
  0x20b4	dec    	eax
  0x20b5	mov    	dword ptr [ecx + eax], edx
  0x20b8	mov    	eax, 8
  === BLOCK LINK ===
    0x20bd
=== CODE BLOCK END ===

=== CODE BLOCK ADDRESS 0x20bd ===
  0x20bd	dec    	eax
  0x20be	imul   	eax, eax, 2
  0x20c1	dec    	eax
  0x20c2	lea    	ecx, [0x2fb8]
  0x20c8	dec    	eax
  === BLOCK LINK ===
    0x20c9
=== CODE BLOCK END ===

=== CODE BLOCK ADDRESS 0x20c9 ===
  0x20c9	mov    	edx, dword ptr [0x2f41]
  0x20cf	dec    	eax
  0x20d0	mov    	dword ptr [ecx + eax], edx
  0x20d3	mov    	eax, 8
  0x20d8	dec    	eax
  === BLOCK LINK ===
    0x20d9
=== CODE BLOCK END ===

=== CODE BLOCK ADDRESS 0x20d9 ===
  0x20d9	imul   	eax, eax, 0
  0x20dc	dec    	eax
  0x20dd	mov    	ecx, dword ptr [0x2f25]
  0x20e3	dec    	eax
  0x20e4	mov    	dword ptr [esp + eax + 0x68], ecx
  === BLOCK LINK ===
    0x20e8
=== CODE BLOCK END ===

=== CODE BLOCK ADDRESS 0x20e8 ===
  0x20e8	mov    	eax, 8
  0x20ed	dec    	eax
  0x20ee	imul   	eax, eax, 1
  0x20f1	dec    	eax
  0x20f2	mov    	ecx, dword ptr [0x2f18]
  === BLOCK LINK ===
    0x20f8
=== CODE BLOCK END ===

=== CODE BLOCK ADDRESS 0x20f8 ===
  0x20f8	dec    	eax
  0x20f9	mov    	dword ptr [esp + eax + 0x68], ecx
  0x20fd	dec    	eax
  0x20fe	lea    	ecx, [0xefc]
  0x2104	call   	0x1f5c
  === BLOCK LINK ===
    0x2109
=== CODE BLOCK END ===

=== CODE BLOCK ADDRESS 0x2109 ===
  0x2109	dec    	eax
  0x210a	add    	esp, 0x88
  0x2110	ret    	
  0x2111	int3   	
  0x2112	int3   	
  === BLOCK LINK ===
    0x2113
=== CODE BLOCK END ===

=== CODE BLOCK ADDRESS 0x2113 ===
  0x2113	int3   	
  0x2114	int3   	
  0x2115	int3   	
  0x2116	int3   	
  0x2117	int3   	
  === BLOCK LINK ===
    0x2118
=== CODE BLOCK END ===

=== CODE BLOCK ADDRESS 0x2118 ===
  0x2118	int3   	
  0x2119	int3   	
  0x211a	int3   	
  0x211b	int3   	
  0x211c	int3   	
  === BLOCK LINK ===
    0x211d
=== CODE BLOCK END ===

=== CODE BLOCK ADDRESS 0x211d ===
  0x211d	int3   	
  0x211e	int3   	
  0x211f	int3   	
  0x2120	int3   	
  0x2121	int3   	
  === BLOCK LINK ===
    0x2122
=== CODE BLOCK END ===

=== CODE BLOCK ADDRESS 0x2122 ===
  0x2122	int3   	
  0x2123	int3   	
  0x2124	int3   	
  0x2125	int3   	
  0x2126	int3   	
  === BLOCK LINK ===
    0x2127
=== CODE BLOCK END ===

=== CODE BLOCK ADDRESS 0x2127 ===
  0x2127	int3   	
  0x2128	dec    	eax
  0x2129	sub    	esp, 0x28
  0x212c	dec    	ebp
  0x212d	mov    	eax, dword ptr [ecx + 0x38]
  === BLOCK LINK ===
    0x2130
=== CODE BLOCK END ===

=== CODE BLOCK ADDRESS 0x2130 ===
  0x2130	dec    	eax
  0x2131	mov    	ecx, edx
  0x2133	dec    	ecx
  0x2134	mov    	edx, ecx
  0x2136	call   	0x214c
  === BLOCK LINK ===
    0x213b
=== CODE BLOCK END ===

=== CODE BLOCK ADDRESS 0x213b ===
  0x213b	mov    	eax, 1
  0x2140	dec    	eax
  0x2141	add    	esp, 0x28
  0x2144	ret    	
  0x2145	int3   	
  === BLOCK LINK ===
    0x2146
=== CODE BLOCK END ===

=== CODE BLOCK ADDRESS 0x2146 ===
  0x2146	int3   	
  0x2147	int3   	
  0x2148	int3   	
  0x2149	int3   	
  0x214a	int3   	
  === BLOCK LINK ===
    0x214b
=== CODE BLOCK END ===

=== CODE BLOCK ADDRESS 0x214b ===
  0x214b	int3   	
  0x214c	inc    	eax
  0x214d	push   	ebx
  0x214e	inc    	ebp
  0x214f	mov    	ebx, dword ptr [eax]
  === BLOCK LINK ===
    0x2151
=== CODE BLOCK END ===

=== CODE BLOCK ADDRESS 0x2151 ===
  0x2151	dec    	eax
  0x2152	mov    	ebx, edx
  0x2154	inc    	ecx
  0x2155	and    	ebx, 0xfffffff8
  0x2158	dec    	esp
  === BLOCK LINK ===
    0x2159
=== CODE BLOCK END ===

=== CODE BLOCK ADDRESS 0x2159 ===
  0x2159	mov    	ecx, ecx
  0x215b	inc    	ecx
  0x215c	test   	byte ptr [eax], 4
  0x215f	dec    	esp
  0x2160	mov    	edx, ecx
  === BLOCK LINK ===
    0x2162
=== CODE BLOCK END ===

=== CODE BLOCK ADDRESS 0x2162 ===
  0x2162	je     	0x2177
  === BLOCK LINK ===
    0x2164
=== CODE BLOCK END ===

=== CODE BLOCK ADDRESS 0x2164 ===
  0x2164	inc    	ecx
  0x2165	mov    	eax, dword ptr [eax + 8]
  0x2168	dec    	ebp
  0x2169	arpl   	word ptr [eax + 4], dx
  0x216c	neg    	eax
  === BLOCK LINK ===
    0x216e
=== CODE BLOCK END ===

=== CODE BLOCK ADDRESS 0x216e ===
  0x216e	dec    	esp
  0x216f	add    	edx, ecx
  0x2171	dec    	eax
  0x2172	arpl   	ax, cx
  0x2174	dec    	esp
  === BLOCK LINK ===
    0x2175
=== CODE BLOCK END ===

=== CODE BLOCK ADDRESS 0x2175 ===
  0x2175	and    	edx, ecx
  0x2177	dec    	ecx
  0x2178	arpl   	bx, ax
  0x217a	dec    	edx
  0x217b	mov    	edx, dword ptr [eax + edx]
  === BLOCK LINK ===
    0x217e
=== CODE BLOCK END ===

=== CODE BLOCK ADDRESS 0x217e ===
  0x217e	dec    	eax
  0x217f	mov    	eax, dword ptr [ebx + 0x10]
  0x2182	mov    	ecx, dword ptr [eax + 8]
  0x2185	dec    	eax
  0x2186	mov    	eax, dword ptr [ebx + 8]
  === BLOCK LINK ===
    0x2189
=== CODE BLOCK END ===

=== CODE BLOCK ADDRESS 0x2189 ===
  0x2189	test   	byte ptr [ecx + eax + 3], 0xf
  0x218e	je     	0x219b
  === BLOCK LINK ===
    0x2190
=== CODE BLOCK END ===

=== CODE BLOCK ADDRESS 0x2190 ===
  0x2190	movzx  	eax, byte ptr [ecx + eax + 3]
  0x2195	and    	eax, 0xfffffff0
  0x2198	dec    	esp
  0x2199	add    	ecx, eax
  0x219b	dec    	esp
  === BLOCK LINK ===
    0x219c
=== CODE BLOCK END ===

=== CODE BLOCK ADDRESS 0x219c ===
  0x219c	xor    	ecx, edx
  0x219e	dec    	ecx
  0x219f	mov    	ecx, ecx
  0x21a1	pop    	ebx
  0x21a2	jmp    	0x1c10
  === BLOCK LINK ===
    0x21a7
=== CODE BLOCK END ===

=== CODE BLOCK ADDRESS 0x21a7 ===
  0x21a7	int3   	
  0x21a8	int3   	
  0x21a9	int3   	
  0x21aa	int3   	
  0x21ab	int3   	
  === BLOCK LINK ===
    0x21ac
=== CODE BLOCK END ===

=== CODE BLOCK ADDRESS 0x21ac ===
  0x21ac	int3   	
  0x21ad	int3   	
  0x21ae	int3   	
  0x21af	int3   	
  0x21b0	int3   	
  === BLOCK LINK ===
    0x21b1
=== CODE BLOCK END ===

=== CODE BLOCK ADDRESS 0x21b1 ===
  0x21b1	int3   	
  0x21b2	int3   	
  0x21b3	int3   	
  0x21b4	int3   	
  0x21b5	int3   	
  === BLOCK LINK ===
    0x21b6
=== CODE BLOCK END ===

=== CODE BLOCK ADDRESS 0x21bc ===
  0x21bc	int3   	
  0x21bd	int3   	
  0x21be	int3   	
  0x21bf	int3   	
  0x21c0	int3   	
  === BLOCK LINK ===
    0x21c1
=== CODE BLOCK END ===

=== CODE BLOCK ADDRESS 0x21c1 ===
  0x21c1	int3   	
  0x21c2	int3   	
  0x21c3	int3   	
  0x21c4	int3   	
  0x21c5	int3   	
  === BLOCK LINK ===
    0x21c6
=== CODE BLOCK END ===

=== CODE BLOCK ADDRESS 0x21c6 ===
  0x21c6	nop    	word ptr [eax + eax]
  0x21d0	jmp    	eax
  === BLOCK LINK ===
    0x21d2
=== CODE BLOCK END ===

=== CODE BLOCK ADDRESS 0x21d2 ===
  0x21d2	int3   	
  0x21d3	int3   	
  0x21d4	int3   	
  0x21d5	int3   	
  0x21d6	int3   	
  === BLOCK LINK ===
    0x21d7
=== CODE BLOCK END ===

=== CODE BLOCK ADDRESS 0x21d7 ===
  0x21d7	int3   	
  0x21d8	int3   	
  0x21d9	int3   	
  0x21da	int3   	
  0x21db	int3   	
  === BLOCK LINK ===
    0x21dc
=== CODE BLOCK END ===

=== CODE BLOCK ADDRESS 0x21dc ===
  0x21dc	int3   	
  0x21dd	int3   	
  0x21de	int3   	
  0x21df	int3   	
  0x21e0	int3   	
  === BLOCK LINK ===
    0x21e1
=== CODE BLOCK END ===

=== CODE BLOCK ADDRESS 0x21e1 ===
  0x21e1	int3   	
  0x21e2	int3   	
  0x21e3	int3   	
  0x21e4	int3   	
  0x21e5	int3   	
  === BLOCK LINK ===
    0x21e6
=== CODE BLOCK END ===

=== CODE BLOCK ADDRESS 0x21e6 ===
  0x21e6	nop    	word ptr [eax + eax]
  0x21f0	dec    	eax
  0x21f1	sub    	esp, 0x10
  0x21f4	dec    	esp
  0x21f5	mov    	dword ptr [esp], edx
  === BLOCK LINK ===
    0x21f8
=== CODE BLOCK END ===

=== CODE BLOCK ADDRESS 0x21f8 ===
  0x21f8	dec    	esp
  0x21f9	mov    	dword ptr [esp + 8], ebx
  0x21fd	dec    	ebp
  0x21fe	xor    	ebx, ebx
  0x2200	dec    	esp
  === BLOCK LINK ===
    0x2201
=== CODE BLOCK END ===

=== CODE BLOCK ADDRESS 0x2201 ===
  0x2201	lea    	edx, [esp + 0x18]
  0x2205	dec    	esp
  0x2206	sub    	edx, eax
  0x2208	dec    	ebp
  0x2209	cmovb  	edx, ebx
  === BLOCK LINK ===
    0x220c
=== CODE BLOCK END ===

=== CODE BLOCK ADDRESS 0x220c ===
  0x220c	dec    	esp
  0x220e	mov    	ebx, dword ptr [0x10]
  0x2215	dec    	ebp
  0x2216	cmp    	edx, ebx
  0x2218	jae    	0x222f
  === BLOCK LINK ===
    0x221a
=== CODE BLOCK END ===

=== CODE BLOCK ADDRESS 0x221a ===
  0x221a	inc    	cx
  0x221c	and    	edx, 0x8d4df000
  0x2222	wait   	
  0x2223	add    	al, dh
  0x2225	.byte  	0xff
  === BLOCK LINK ===
    0x2226
=== CODE BLOCK END ===

=== CODE BLOCK ADDRESS 0x2226 ===
  0x2226	inc    	dword ptr [ebp - 0x7c]
  0x2229	sbb    	ecx, dword ptr [ebp + 0x3b]
  0x222c	sal    	dword ptr [edx - 0xf], cl
  0x222f	dec    	esp
  0x2230	mov    	edx, dword ptr [esp]
  === BLOCK LINK ===
    0x2233
=== CODE BLOCK END ===

=== CODE BLOCK ADDRESS 0x2233 ===
  0x2233	dec    	esp
  0x2234	mov    	ebx, dword ptr [esp + 8]
  0x2238	dec    	eax
  0x2239	add    	esp, 0x10
  0x223c	ret    	
  === BLOCK LINK ===
    0x223d
=== CODE BLOCK END ===

=== CODE BLOCK ADDRESS 0x223d ===
  0x223d	int3   	
  0x223e	int3   	
  0x223f	int3   	
  0x2240	int3   	
  0x2241	int3   	
  === BLOCK LINK ===
    0x2242
=== CODE BLOCK END ===

=== CODE BLOCK ADDRESS 0x2242 ===
  0x2242	int3   	
  0x2243	inc    	eax
  0x2244	push   	ebp
  0x2245	dec    	eax
  0x2246	sub    	esp, 0x20
  === BLOCK LINK ===
    0x2249
=== CODE BLOCK END ===

=== CODE BLOCK ADDRESS 0x2249 ===
  0x2249	dec    	eax
  0x224a	mov    	ebp, edx
  0x224c	dec    	eax
  0x224d	mov    	eax, dword ptr [ecx]
  0x224f	dec    	eax
  === BLOCK LINK ===
    0x2250
=== CODE BLOCK END ===

=== CODE BLOCK ADDRESS 0x2250 ===
  0x2250	mov    	edx, ecx
  0x2252	mov    	ecx, dword ptr [eax]
  0x2254	call   	0x1c9e
  === BLOCK LINK ===
    0x2259
=== CODE BLOCK END ===

=== CODE BLOCK ADDRESS 0x2259 ===
  0x2259	nop    	
  0x225a	dec    	eax
  0x225b	add    	esp, 0x20
  0x225e	pop    	ebp
  0x225f	ret    	
  === BLOCK LINK ===
    0x2260
=== CODE BLOCK END ===

=== CODE BLOCK ADDRESS 0x2260 ===
  0x2260	int3   	
  0x2261	int3   	
  0x2262	int3   	
  0x2263	int3   	
  0x2264	int3   	
  === BLOCK LINK ===
    0x2265
=== CODE BLOCK END ===

=== CODE BLOCK ADDRESS 0x2265 ===
  0x2265	int3   	
  0x2266	int3   	
  0x2267	int3   	
  0x2268	int3   	
  0x2269	int3   	
  === BLOCK LINK ===
    0x226a
=== CODE BLOCK END ===

=== CODE BLOCK ADDRESS 0x226a ===
  0x226a	int3   	
  0x226b	int3   	
  0x226c	int3   	
  0x226d	int3   	
  0x226e	int3   	
  === BLOCK LINK ===
    0x226f
=== CODE BLOCK END ===

=== CODE BLOCK ADDRESS 0x226f ===
  0x226f	int3   	
  0x2270	inc    	eax
  0x2271	push   	ebp
  0x2272	dec    	eax
  0x2273	sub    	esp, 0x20
  === BLOCK LINK ===
    0x2276
=== CODE BLOCK END ===

=== CODE BLOCK ADDRESS 0x2276 ===
  0x2276	dec    	eax
  0x2277	mov    	ebp, edx
  0x2279	dec    	eax
  0x227a	mov    	eax, dword ptr [ecx]
  0x227c	xor    	ecx, ecx
  === BLOCK LINK ===
    0x227e
=== CODE BLOCK END ===

=== CODE BLOCK ADDRESS 0x227e ===
  0x227e	cmp    	dword ptr [eax], 0xc0000005
  0x2284	sete   	cl
  0x2287	mov    	eax, ecx
  0x2289	dec    	eax
  0x228a	add    	esp, 0x20
  === BLOCK LINK ===
    0x228d
=== CODE BLOCK END ===

=== CODE BLOCK ADDRESS 0x228d ===
  0x228d	pop    	ebp
  0x228e	ret    	
  0x228f	int3   	
  0x2290	add    	byte ptr [eax], al
  0x2292	add    	byte ptr [eax], al
  === BLOCK LINK ===
    0x2294
=== CODE BLOCK END ===

=== CODE BLOCK ADDRESS 0x2294 ===
  0x2294	add    	byte ptr [eax], al
  0x2296	add    	byte ptr [eax], al
  0x2298	add    	byte ptr [eax], al
  0x229a	add    	byte ptr [eax], al
  0x229c	add    	byte ptr [eax], al
  === BLOCK LINK ===
    0x229e
=== CODE BLOCK END ===

=== CODE BLOCK ADDRESS 0x229e ===
  0x229e	add    	byte ptr [eax], al
  0x22a0	add    	byte ptr [eax], al
  0x22a2	add    	byte ptr [eax], al
  0x22a4	add    	byte ptr [eax], al
  0x22a6	add    	byte ptr [eax], al
  === BLOCK LINK ===
    0x22a8
=== CODE BLOCK END ===

=== CODE BLOCK ADDRESS 0x22a8 ===
  0x22a8	add    	byte ptr [eax], al
  0x22aa	add    	byte ptr [eax], al
  0x22ac	add    	byte ptr [eax], al
  0x22ae	add    	byte ptr [eax], al
  0x22b0	add    	byte ptr [eax], al
  === BLOCK LINK ===
    0x22b2
=== CODE BLOCK END ===

=== CODE BLOCK ADDRESS 0x22b2 ===
  0x22b2	add    	byte ptr [eax], al
  0x22b4	add    	byte ptr [eax], al
  0x22b6	add    	byte ptr [eax], al
  0x22b8	add    	byte ptr [eax], al
  0x22ba	add    	byte ptr [eax], al
  === BLOCK LINK ===
    0x22bc
=== CODE BLOCK END ===

=== CODE BLOCK ADDRESS 0x22bc ===
  0x22bc	add    	byte ptr [eax], al
  0x22be	add    	byte ptr [eax], al
  0x22c0	add    	byte ptr [eax], al
  0x22c2	add    	byte ptr [eax], al
  0x22c4	add    	byte ptr [eax], al
  === BLOCK LINK ===
    0x22c6
=== CODE BLOCK END ===

=== CODE BLOCK ADDRESS 0x22c6 ===
  0x22c6	add    	byte ptr [eax], al
  0x22c8	add    	byte ptr [eax], al
  0x22ca	add    	byte ptr [eax], al
  0x22cc	add    	byte ptr [eax], al
  0x22ce	add    	byte ptr [eax], al
  === BLOCK LINK ===
    0x22d0
=== CODE BLOCK END ===

=== CODE BLOCK ADDRESS 0x22d0 ===
  0x22d0	add    	byte ptr [eax], al
  0x22d2	add    	byte ptr [eax], al
  0x22d4	add    	byte ptr [eax], al
  0x22d6	add    	byte ptr [eax], al
  0x22d8	add    	byte ptr [eax], al
  === BLOCK LINK ===
    0x22da
=== CODE BLOCK END ===

=== CODE BLOCK ADDRESS 0x22da ===
  0x22da	add    	byte ptr [eax], al
  0x22dc	add    	byte ptr [eax], al
  0x22de	add    	byte ptr [eax], al
  0x22e0	add    	byte ptr [eax], al
  0x22e2	add    	byte ptr [eax], al
  === BLOCK LINK ===
    0x22e4
=== CODE BLOCK END ===

=== CODE BLOCK ADDRESS 0x22e4 ===
  0x22e4	add    	byte ptr [eax], al
  0x22e6	add    	byte ptr [eax], al
  0x22e8	add    	byte ptr [eax], al
  0x22ea	add    	byte ptr [eax], al
  0x22ec	add    	byte ptr [eax], al
  === BLOCK LINK ===
    0x22ee
=== CODE BLOCK END ===

=== CODE BLOCK ADDRESS 0x22ee ===
  0x22ee	add    	byte ptr [eax], al
  0x22f0	add    	byte ptr [eax], al
  0x22f2	add    	byte ptr [eax], al
  0x22f4	add    	byte ptr [eax], al
  0x22f6	add    	byte ptr [eax], al
  === BLOCK LINK ===
    0x22f8
=== CODE BLOCK END ===

=== CODE BLOCK ADDRESS 0x22f8 ===
  0x22f8	add    	byte ptr [eax], al
  0x22fa	add    	byte ptr [eax], al
  0x22fc	add    	byte ptr [eax], al
  0x22fe	add    	byte ptr [eax], al
  0x2300	add    	byte ptr [eax], al
  === BLOCK LINK ===
    0x2302
=== CODE BLOCK END ===

=== CODE BLOCK ADDRESS 0x2302 ===
  0x2302	add    	byte ptr [eax], al
  0x2304	add    	byte ptr [eax], al
  0x2306	add    	byte ptr [eax], al
  0x2308	add    	byte ptr [eax], al
  0x230a	add    	byte ptr [eax], al
  === BLOCK LINK ===
    0x230c
=== CODE BLOCK END ===

=== CODE BLOCK ADDRESS 0x230c ===
  0x230c	add    	byte ptr [eax], al
  0x230e	add    	byte ptr [eax], al
  0x2310	add    	byte ptr [eax], al
  0x2312	add    	byte ptr [eax], al
  0x2314	add    	byte ptr [eax], al
  === BLOCK LINK ===
    0x2316
=== CODE BLOCK END ===

=== CODE BLOCK ADDRESS 0x2316 ===
  0x2316	add    	byte ptr [eax], al
  0x2318	add    	byte ptr [eax], al
  0x231a	add    	byte ptr [eax], al
  0x231c	add    	byte ptr [eax], al
  0x231e	add    	byte ptr [eax], al
  === BLOCK LINK ===
    0x2320
=== CODE BLOCK END ===

=== CODE BLOCK ADDRESS 0x2320 ===
  0x2320	add    	byte ptr [eax], al
  0x2322	add    	byte ptr [eax], al
  0x2324	add    	byte ptr [eax], al
  0x2326	add    	byte ptr [eax], al
  0x2328	add    	byte ptr [eax], al
  === BLOCK LINK ===
    0x232a
=== CODE BLOCK END ===

=== CODE BLOCK ADDRESS 0x232a ===
  0x232a	add    	byte ptr [eax], al
  0x232c	add    	byte ptr [eax], al
  0x232e	add    	byte ptr [eax], al
  0x2330	add    	byte ptr [eax], al
  0x2332	add    	byte ptr [eax], al
  === BLOCK LINK ===
    0x2334
=== CODE BLOCK END ===

=== CODE BLOCK ADDRESS 0x2334 ===
  0x2334	add    	byte ptr [eax], al
  0x2336	add    	byte ptr [eax], al
  0x2338	add    	byte ptr [eax], al
  0x233a	add    	byte ptr [eax], al
  0x233c	add    	byte ptr [eax], al
  === BLOCK LINK ===
    0x233e
=== CODE BLOCK END ===

=== CODE BLOCK ADDRESS 0x233e ===
  0x233e	add    	byte ptr [eax], al
  0x2340	add    	byte ptr [eax], al
  0x2342	add    	byte ptr [eax], al
  0x2344	add    	byte ptr [eax], al
  0x2346	add    	byte ptr [eax], al
  === BLOCK LINK ===
    0x2348
=== CODE BLOCK END ===

=== CODE BLOCK ADDRESS 0x2348 ===
  0x2348	add    	byte ptr [eax], al
  0x234a	add    	byte ptr [eax], al
  0x234c	add    	byte ptr [eax], al
  0x234e	add    	byte ptr [eax], al
  0x2350	add    	byte ptr [eax], al
  === BLOCK LINK ===
    0x2352
=== CODE BLOCK END ===

=== CODE BLOCK ADDRESS 0x2352 ===
  0x2352	add    	byte ptr [eax], al
  0x2354	add    	byte ptr [eax], al
  0x2356	add    	byte ptr [eax], al
  0x2358	add    	byte ptr [eax], al
  0x235a	add    	byte ptr [eax], al
  === BLOCK LINK ===
    0x235c
=== CODE BLOCK END ===

=== CODE BLOCK ADDRESS 0x235c ===
  0x235c	add    	byte ptr [eax], al
  0x235e	add    	byte ptr [eax], al
  0x2360	add    	byte ptr [eax], al
  0x2362	add    	byte ptr [eax], al
  0x2364	add    	byte ptr [eax], al
  === BLOCK LINK ===
    0x2366
=== CODE BLOCK END ===

=== CODE BLOCK ADDRESS 0x2366 ===
  0x2366	add    	byte ptr [eax], al
  0x2368	add    	byte ptr [eax], al
  0x236a	add    	byte ptr [eax], al
  0x236c	add    	byte ptr [eax], al
  0x236e	add    	byte ptr [eax], al
  === BLOCK LINK ===
    0x2370
=== CODE BLOCK END ===

=== CODE BLOCK ADDRESS 0x2370 ===
  0x2370	add    	byte ptr [eax], al
  0x2372	add    	byte ptr [eax], al
  0x2374	add    	byte ptr [eax], al
  0x2376	add    	byte ptr [eax], al
  0x2378	add    	byte ptr [eax], al
  === BLOCK LINK ===
    0x237a
=== CODE BLOCK END ===

=== CODE BLOCK ADDRESS 0x237a ===
  0x237a	add    	byte ptr [eax], al
  0x237c	add    	byte ptr [eax], al
  0x237e	add    	byte ptr [eax], al
  0x2380	add    	byte ptr [eax], al
  0x2382	add    	byte ptr [eax], al
  === BLOCK LINK ===
    0x2384
=== CODE BLOCK END ===

=== CODE BLOCK ADDRESS 0x2384 ===
  0x2384	add    	byte ptr [eax], al
  0x2386	add    	byte ptr [eax], al
  0x2388	add    	byte ptr [eax], al
  0x238a	add    	byte ptr [eax], al
  0x238c	add    	byte ptr [eax], al
  === BLOCK LINK ===
    0x238e
=== CODE BLOCK END ===

=== CODE BLOCK ADDRESS 0x238e ===
  0x238e	add    	byte ptr [eax], al
  0x2390	add    	byte ptr [eax], al
  0x2392	add    	byte ptr [eax], al
  0x2394	add    	byte ptr [eax], al
  0x2396	add    	byte ptr [eax], al
  === BLOCK LINK ===
    0x2398
=== CODE BLOCK END ===

=== CODE BLOCK ADDRESS 0x2398 ===
  0x2398	add    	byte ptr [eax], al
  0x239a	add    	byte ptr [eax], al
  0x239c	add    	byte ptr [eax], al
  0x239e	add    	byte ptr [eax], al
  0x23a0	add    	byte ptr [eax], al
  === BLOCK LINK ===
    0x23a2
=== CODE BLOCK END ===

=== CODE BLOCK ADDRESS 0x23a2 ===
  0x23a2	add    	byte ptr [eax], al
  0x23a4	add    	byte ptr [eax], al
  0x23a6	add    	byte ptr [eax], al
  0x23a8	add    	byte ptr [eax], al
  0x23aa	add    	byte ptr [eax], al
  === BLOCK LINK ===
    0x23ac
=== CODE BLOCK END ===

=== CODE BLOCK ADDRESS 0x23ac ===
  0x23ac	add    	byte ptr [eax], al
  0x23ae	add    	byte ptr [eax], al
  0x23b0	add    	byte ptr [eax], al
  0x23b2	add    	byte ptr [eax], al
  0x23b4	add    	byte ptr [eax], al
  === BLOCK LINK ===
    0x23b6
=== CODE BLOCK END ===

=== CODE BLOCK ADDRESS 0x23b6 ===
  0x23b6	add    	byte ptr [eax], al
  0x23b8	add    	byte ptr [eax], al
  0x23ba	add    	byte ptr [eax], al
  0x23bc	add    	byte ptr [eax], al
  0x23be	add    	byte ptr [eax], al
  === BLOCK LINK ===
    0x23c0
=== CODE BLOCK END ===

=== CODE BLOCK ADDRESS 0x23c0 ===
  0x23c0	add    	byte ptr [eax], al
  0x23c2	add    	byte ptr [eax], al
  0x23c4	add    	byte ptr [eax], al
  0x23c6	add    	byte ptr [eax], al
  0x23c8	add    	byte ptr [eax], al
  === BLOCK LINK ===
    0x23ca
=== CODE BLOCK END ===

=== CODE BLOCK ADDRESS 0x23ca ===
  0x23ca	add    	byte ptr [eax], al
  0x23cc	add    	byte ptr [eax], al
  0x23ce	add    	byte ptr [eax], al
  0x23d0	add    	byte ptr [eax], al
  0x23d2	add    	byte ptr [eax], al
  === BLOCK LINK ===
    0x23d4
=== CODE BLOCK END ===

=== CODE BLOCK ADDRESS 0x23d4 ===
  0x23d4	add    	byte ptr [eax], al
  0x23d6	add    	byte ptr [eax], al
  0x23d8	add    	byte ptr [eax], al
  0x23da	add    	byte ptr [eax], al
  0x23dc	add    	byte ptr [eax], al
  === BLOCK LINK ===
    0x23de
=== CODE BLOCK END ===

=== CODE BLOCK ADDRESS 0x23de ===
  0x23de	add    	byte ptr [eax], al
  0x23e0	add    	byte ptr [eax], al
  0x23e2	add    	byte ptr [eax], al
  0x23e4	add    	byte ptr [eax], al
  0x23e6	add    	byte ptr [eax], al
  === BLOCK LINK ===
    0x23e8
=== CODE BLOCK END ===

=== CODE BLOCK ADDRESS 0x23e8 ===
  0x23e8	add    	byte ptr [eax], al
  0x23ea	add    	byte ptr [eax], al
  0x23ec	add    	byte ptr [eax], al
  0x23ee	add    	byte ptr [eax], al
  0x23f0	add    	byte ptr [eax], al
  === BLOCK LINK ===
    0x23f2
=== CODE BLOCK END ===

=== CODE BLOCK ADDRESS 0x23f2 ===
  0x23f2	add    	byte ptr [eax], al
  0x23f4	add    	byte ptr [eax], al
  0x23f6	add    	byte ptr [eax], al
  0x23f8	add    	byte ptr [eax], al
  0x23fa	add    	byte ptr [eax], al
  === BLOCK LINK ===
    0x23fc
=== CODE BLOCK END ===

=== CODE BLOCK ADDRESS 0x23fc ===
  0x23fc	add    	byte ptr [eax], al
=== CODE BLOCK END ===

=== DATA BLOCK ADDRESS 0x3000 ===
  0x3000	60 50 00 40 01 00 00 00 00 51 00 40 01 00 00 00 	`P0@00000Q0@0000
  0x3010	18 01 00 00 00 00 00 00 00 00 00 00 00 00 00 00 	0000000000000000
  0x3020	00 00 00 00 00 00 00 00 00 00 00 00 00 00 00 00 	0000000000000000
  0x3030	00 00 00 00 00 00 00 00 00 00 00 00 00 00 00 00 	0000000000000000
  0x3040	00 00 00 00 00 00 00 00 00 00 00 00 00 00 00 00 	0000000000000000
  0x3050	00 00 00 00 00 00 00 00 00 00 00 00 00 00 00 00 	0000000000000000
  0x3060	00 00 00 00 00 00 00 00 08 50 00 40 01 00 00 00 	000000000P0@0000
  0x3070	00 00 00 00 00 00 00 00 00 00 00 00 00 00 00 00 	0000000000000000
  0x3080	d0 32 00 40 01 00 00 00 d8 32 00 40 01 00 00 00 	020@0000020@0000
  0x3090	24 33 00 40 01 00 00 00 09 00 00 00 00 00 00 00 	$30@000000000000
  0x30a0	00 75 41 00 00 00 00 00 00 00 00 00 00 00 00 00 	0uA0000000000000
  0x30b0	00 00 00 00 00 00 00 00 00 00 00 00 00 00 00 00 	0000000000000000
  0x30c0	00 00 00 00 00 00 00 00 00 00 00 00 00 00 00 00 	0000000000000000
  0x30d0	00 00 00 00 00 00 00 00 00 00 00 00 00 00 00 00 	0000000000000000
  0x30e0	00 00 00 00 00 00 00 00 00 00 00 00 00 00 00 00 	0000000000000000
  0x30f0	00 00 00 00 00 00 00 00 00 00 00 00 00 00 00 00 	0000000000000000
  0x3100	00 00 00 00 00 00 00 00 00 00 00 00 00 00 00 00 	0000000000000000
  0x3110	00 00 00 00 00 00 00 00 18 33 00 40 01 00 00 00 	00000000030@0000
  0x3120	03 00 00 00 00 00 00 00 ee 40 00 00 00 00 00 00 	000000000@000000
  0x3130	d8 40 00 00 00 00 00 00 00 00 00 00 00 00 00 00 	0@00000000000000
  0x3140	10 41 00 00 00 00 00 00 24 41 00 00 00 00 00 00 	0A000000$A000000
  0x3150	30 41 00 00 00 00 00 00 3e 41 00 00 00 00 00 00 	0A000000>A000000
  0x3160	5c 41 00 00 00 00 00 00 6a 41 00 00 00 00 00 00 	0A000000jA000000
  0x3170	72 41 00 00 00 00 00 00 82 41 00 00 00 00 00 00 	rA0000000A000000
  0x3180	90 41 00 00 00 00 00 00 a4 41 00 00 00 00 00 00 	0A0000000A000000
  0x3190	bc 43 00 00 00 00 00 00 a6 43 00 00 00 00 00 00 	0C0000000C000000
  0x31a0	90 43 00 00 00 00 00 00 76 43 00 00 00 00 00 00 	0C000000vC000000
  0x31b0	62 43 00 00 00 00 00 00 44 43 00 00 00 00 00 00 	bC000000DC000000
  0x31c0	e6 43 00 00 00 00 00 00 fa 43 00 00 00 00 00 00 	0C0000000C000000
  0x31d0	14 44 00 00 00 00 00 00 28 44 00 00 00 00 00 00 	0D000000(D000000
  0x31e0	44 44 00 00 00 00 00 00 d6 43 00 00 00 00 00 00 	DD0000000C000000
  0x31f0	00 00 00 00 00 00 00 00 f8 42 00 00 00 00 00 00 	000000000B000000
  0x3200	00 00 00 00 00 00 00 00 16 43 00 00 00 00 00 00 	000000000C000000
  0x3210	22 43 00 00 00 00 00 00 00 00 00 00 00 00 00 00 	"C00000000000000
  0x3220	36 42 00 00 00 00 00 00 2e 42 00 00 00 00 00 00 	6B000000.B000000
  0x3230	1c 42 00 00 00 00 00 00 0a 42 00 00 00 00 00 00 	0B0000000B000000
  0x3240	a2 42 00 00 00 00 00 00 8a 42 00 00 00 00 00 00 	0B0000000B000000
  0x3250	80 42 00 00 00 00 00 00 68 42 00 00 00 00 00 00 	0B000000hB000000
  0x3260	3e 42 00 00 00 00 00 00 fc 41 00 00 00 00 00 00 	>B0000000A000000
  0x3270	ee 41 00 00 00 00 00 00 de 41 00 00 00 00 00 00 	0A0000000A000000
  0x3280	d2 41 00 00 00 00 00 00 c8 41 00 00 00 00 00 00 	0A0000000A000000
  0x3290	48 42 00 00 00 00 00 00 5c 42 00 00 00 00 00 00 	HB0000000B000000
  0x32a0	58 44 00 00 00 00 00 00 00 00 00 00 00 00 00 00 	XD00000000000000
  0x32b0	b6 42 00 00 00 00 00 00 c8 42 00 00 00 00 00 00 	0B0000000B000000
  0x32c0	dc 42 00 00 00 00 00 00 00 00 00 00 00 00 00 00 	0B00000000000000
  0x32d0	50 1f 00 40 01 00 00 00 d0 21 00 40 01 00 00 00 	P00@00000!0@0000
  0x32e0	00 00 00 00 00 00 00 00 c0 19 00 40 01 00 00 00 	00000000000@0000
  0x32f0	00 00 00 00 00 00 00 00 00 00 00 00 00 00 00 00 	0000000000000000
  0x3300	e0 18 00 40 01 00 00 00 80 1c 00 40 01 00 00 00 	000@0000000@0000
  0x3310	00 00 00 00 00 00 00 00 8b 1b 00 00 f2 1c 00 00 	0000000000000000
  0x3320	00 1e 00 00 d0 10 00 00 e0 18 00 00 c0 19 00 00 	0000000000000000
  0x3330	e0 1b 00 00 40 1c 00 00 80 1c 00 00 60 1d 00 00 	0000@0000000`000
  0x3340	50 1f 00 00 a0 1f 00 00 00 00 00 00 00 00 00 00 	P000000000000000
  0x3350	d9 e3 5f 7e 5f 98 08 49 91 f9 ee 19 f9 fd 15 14 	00_~_00I00000000
  0x3360	53 00 65 00 6e 00 64 00 69 00 6e 00 67 00 20 00 	S0e0n0d0i0n0g0 0
  0x3370	27 00 57 00 69 00 6e 00 2d 00 44 00 27 00 0d 00 	'0W0i0n0-0D0'000
  0x3380	0a 00 00 00 00 00 00 00 53 00 65 00 6e 00 64 00 	00000000S0e0n0d0
  0x3390	49 00 6e 00 70 00 75 00 74 00 20 00 66 00 61 00 	I0n0p0u0t0 0f0a0
  0x33a0	69 00 6c 00 65 00 64 00 3a 00 20 00 30 00 78 00 	i0l0e0d0:0 000x0
  0x33b0	25 00 78 00 0a 00 00 00 09 00 4d 00 6f 00 6e 00 	%0x0000000M0o0n0
  0x33c0	69 00 74 00 6f 00 72 00 20 00 4d 00 6f 00 64 00 	i0t0o0r0 0M0o0d0
  0x33d0	65 00 3a 00 09 00 09 00 00 00 00 00 00 00 00 00 	e0:0000000000000
  0x33e0	55 00 4e 00 4b 00 4e 00 4f 00 57 00 4e 00 0d 00 	U0N0K0N0O0W0N000
  0x33f0	0a 00 00 00 00 00 00 00 44 00 45 00 53 00 4b 00 	00000000D0E0S0K0
  0x3400	54 00 4f 00 50 00 0d 00 0a 00 00 00 00 00 00 00 	T0O0P00000000000
  0x3410	57 00 49 00 4e 00 44 00 4f 00 57 00 53 00 53 00 	W0I0N0D0O0W0S0S0
  0x3420	54 00 4f 00 52 00 45 00 0d 00 0a 00 00 00 00 00 	T0O0R0E000000000
  0x3430	55 00 4e 00 44 00 45 00 46 00 49 00 4e 00 45 00 	U0N0D0E0F0I0N0E0
  0x3440	44 00 0d 00 0a 00 00 00 00 00 00 00 00 00 00 00 	D000000000000000
  0x3450	43 00 68 00 65 00 63 00 6b 00 69 00 6e 00 67 00 	C0h0e0c0k0i0n0g0
  0x3460	20 00 66 00 6f 00 72 00 20 00 57 00 69 00 6e 00 	 0f0o0r0 0W0i0n0
  0x3470	64 00 6f 00 77 00 73 00 20 00 53 00 74 00 6f 00 	d0o0w0s0 0S0t0o0
  0x3480	72 00 65 00 20 00 61 00 70 00 70 00 20 00 55 00 	r0e0 0a0p0p0 0U0
  0x3490	49 00 0d 00 0a 00 00 00 54 00 52 00 55 00 45 00 	I0000000T0R0U0E0
  0x34a0	00 00 00 00 00 00 00 00 46 00 41 00 4c 00 53 00 	00000000F0A0L0S0
  0x34b0	45 00 00 00 00 00 00 00 09 00 49 00 73 00 4c 00 	E000000000I0s0L0
  0x34c0	61 00 75 00 6e 00 63 00 68 00 65 00 72 00 56 00 	a0u0n0c0h0e0r0V0
  0x34d0	69 00 73 00 69 00 62 00 6c 00 65 00 3a 00 09 00 	i0s0i0b0l0e0:000
  0x34e0	25 00 73 00 0d 00 0a 00 00 00 00 00 00 00 00 00 	%0s0000000000000
  0x34f0	45 00 6e 00 75 00 6d 00 44 00 69 00 73 00 70 00 	E0n0u0m0D0i0s0p0
  0x3500	6c 00 61 00 79 00 4d 00 6f 00 6e 00 69 00 74 00 	l0a0y0M0o0n0i0t0
  0x3510	6f 00 72 00 73 00 20 00 66 00 61 00 69 00 6c 00 	o0r0s0 0f0a0i0l0
  0x3520	65 00 64 00 2e 00 0d 00 0a 00 00 00 00 00 00 00 	e0d0.00000000000
  0x3530	49 00 73 00 57 00 69 00 6e 00 64 00 6f 00 77 00 	I0s0W0i0n0d0o0w0
  0x3540	73 00 53 00 74 00 6f 00 72 00 65 00 41 00 70 00 	s0S0t0o0r0e0A0p0
  0x3550	70 00 56 00 69 00 73 00 69 00 62 00 6c 00 65 00 	p0V0i0s0i0b0l0e0
  0x3560	20 00 66 00 61 00 69 00 6c 00 65 00 64 00 3a 00 	 0f0a0i0l0e0d0:0
  0x3570	20 00 30 00 78 00 25 00 78 00 0d 00 0a 00 00 00 	 000x0%0x0000000
  0x3580	46 00 4f 00 55 00 4e 00 44 00 00 00 00 00 00 00 	F0O0U0N0D0000000
  0x3590	4e 00 4f 00 54 00 20 00 46 00 4f 00 55 00 4e 00 	N0O0T0 0F0O0U0N0
  0x35a0	44 00 00 00 00 00 00 00 09 00 57 00 69 00 6e 00 	D000000000W0i0n0
  0x35b0	64 00 6f 00 77 00 73 00 20 00 53 00 74 00 6f 00 	d0o0w0s0 0S0t0o0
  0x35c0	72 00 65 00 20 00 61 00 70 00 70 00 20 00 55 00 	r0e0 0a0p0p0 0U0
  0x35d0	49 00 3a 00 09 00 09 00 25 00 73 00 0d 00 0a 00 	I0:00000%0s00000
  0x35e0	00 00 00 00 00 00 00 00 47 00 65 00 74 00 54 00 	00000000G0e0t0T0
  0x35f0	6f 00 6b 00 65 00 6e 00 49 00 6e 00 66 00 6f 00 	o0k0e0n0I0n0f0o0
  0x3600	72 00 6d 00 61 00 74 00 69 00 6f 00 6e 00 20 00 	r0m0a0t0i0o0n0 0
  0x3610	65 00 72 00 72 00 6f 00 72 00 3a 00 25 00 64 00 	e0r0r0o0r0:0%0d0
  0x3620	0a 00 00 00 00 00 00 00 46 00 61 00 69 00 6c 00 	00000000F0a0i0l0
  0x3630	65 00 64 00 20 00 74 00 6f 00 20 00 6f 00 70 00 	e0d0 0t0o0 0o0p0
  0x3640	65 00 6e 00 20 00 74 00 68 00 65 00 20 00 74 00 	e0n0 0t0h0e0 0t0
  0x3650	6f 00 6b 00 65 00 6e 00 2e 00 0a 00 00 00 00 00 	o0k0e0n0.0000000
  0x3660	46 00 61 00 69 00 6c 00 65 00 64 00 20 00 74 00 	F0a0i0l0e0d0 0t0
  0x3670	6f 00 20 00 65 00 6e 00 75 00 6d 00 20 00 70 00 	o0 0e0n0u0m0 0p0
  0x3680	72 00 6f 00 63 00 65 00 73 00 73 00 65 00 73 00 	r0o0c0e0s0s0e0s0
  0x3690	3a 00 20 00 30 00 78 00 25 00 78 00 0a 00 00 00 	:0 000x0%0x00000
  0x36a0	74 00 65 00 2e 00 65 00 78 00 65 00 00 00 00 00 	t0e0.0e0x0e00000
  0x36b0	74 00 65 00 2e 00 70 00 72 00 6f 00 63 00 65 00 	t0e0.0p0r0o0c0e0
  0x36c0	73 00 73 00 68 00 6f 00 73 00 74 00 2e 00 65 00 	s0s0h0o0s0t0.0e0
  0x36d0	78 00 65 00 00 00 00 00 61 00 70 00 70 00 63 00 	x0e00000a0p0p0c0
  0x36e0	65 00 72 00 74 00 2e 00 65 00 78 00 65 00 00 00 	e0r0t0.0e0x0e000
  0x36f0	61 00 70 00 70 00 63 00 65 00 72 00 74 00 75 00 	a0p0p0c0e0r0t0u0
  0x3700	69 00 2e 00 65 00 78 00 65 00 00 00 2d 00 3f 00 	i0.0e0x0e000-0?0
  0x3710	00 00 00 00 00 00 00 00 00 00 00 00 00 00 00 00 	0000000000000000
  0x3720	43 00 6f 00 6d 00 6d 00 61 00 6e 00 64 00 20 00 	C0o0m0m0a0n0d0 0
  0x3730	6c 00 69 00 6e 00 65 00 20 00 6f 00 70 00 74 00 	l0i0n0e0 0o0p0t0
  0x3740	69 00 6f 00 6e 00 73 00 3a 00 0a 00 2d 00 6f 00 	i0o0n0s0:000-0o0
  0x3750	20 00 3c 00 66 00 69 00 6c 00 65 00 20 00 70 00 	 0<0f0i0l0e0 0p0
  0x3760	61 00 74 00 68 00 3e 00 3a 00 20 00 57 00 72 00 	a0t0h0>0:0 0W0r0
  0x3770	69 00 74 00 65 00 73 00 20 00 6f 00 75 00 74 00 	i0t0e0s0 0o0u0t0
  0x3780	70 00 75 00 74 00 20 00 74 00 6f 00 20 00 61 00 	p0u0t0 0t0o0 0a0
  0x3790	20 00 74 00 68 00 65 00 20 00 73 00 70 00 65 00 	 0t0h0e0 0s0p0e0
  0x37a0	63 00 69 00 66 00 69 00 65 00 64 00 20 00 6c 00 	c0i0f0i0e0d0 0l0
  0x37b0	6f 00 67 00 20 00 66 00 69 00 6c 00 65 00 20 00 	o0g0 0f0i0l0e0 0
  0x37c0	69 00 6e 00 73 00 74 00 65 00 61 00 64 00 20 00 	i0n0s0t0e0a0d0 0
  0x37d0	6f 00 66 00 20 00 74 00 68 00 65 00 20 00 63 00 	o0f0 0t0h0e0 0c0
  0x37e0	6f 00 6e 00 73 00 6f 00 6c 00 65 00 0a 00 2d 00 	o0n0s0o0l0e000-0
  0x37f0	66 00 3a 00 20 00 46 00 6f 00 72 00 63 00 65 00 	f0:0 0F0o0r0c0e0
  0x3800	73 00 20 00 74 00 68 00 65 00 20 00 66 00 69 00 	s0 0t0h0e0 0f0i0
  0x3810	6c 00 65 00 20 00 73 00 70 00 65 00 63 00 69 00 	l0e0 0s0p0e0c0i0
  0x3820	66 00 69 00 65 00 64 00 20 00 69 00 6e 00 20 00 	f0i0e0d0 0i0n0 0
  0x3830	2d 00 6f 00 20 00 66 00 6c 00 61 00 67 00 20 00 	-0o0 0f0l0a0g0 0
  0x3840	74 00 6f 00 20 00 62 00 65 00 20 00 6f 00 76 00 	t0o0 0b0e0 0o0v0
  0x3850	65 00 72 00 77 00 72 00 69 00 74 00 74 00 65 00 	e0r0w0r0i0t0t0e0
  0x3860	6e 00 20 00 69 00 66 00 20 00 74 00 68 00 65 00 	n0 0i0f0 0t0h0e0
  0x3870	20 00 66 00 69 00 6c 00 65 00 20 00 65 00 78 00 	 0f0i0l0e0 0e0x0
  0x3880	69 00 73 00 74 00 73 00 0a 00 00 00 2d 00 66 00 	i0s0t0s00000-0f0
  0x3890	00 00 00 00 2d 00 6f 00 00 00 00 00 00 00 00 00 	0000-0o000000000
  0x38a0	43 00 61 00 6e 00 6e 00 6f 00 74 00 20 00 77 00 	C0a0n0n0o0t0 0w0
  0x38b0	72 00 69 00 74 00 65 00 20 00 74 00 6f 00 20 00 	r0i0t0e0 0t0o0 0
  0x38c0	74 00 68 00 65 00 20 00 73 00 70 00 65 00 63 00 	t0h0e0 0s0p0e0c0
  0x38d0	69 00 66 00 69 00 65 00 64 00 20 00 66 00 69 00 	i0f0i0e0d0 0f0i0
  0x38e0	6c 00 65 00 2c 00 20 00 65 00 72 00 72 00 6f 00 	l0e0,0 0e0r0r0o0
  0x38f0	72 00 3a 00 20 00 30 00 78 00 25 00 78 00 0d 00 	r0:0 000x0%0x000
  0x3900	0a 00 00 00 00 00 00 00 00 00 00 00 00 00 00 00 	0000000000000000
  0x3910	57 00 69 00 6e 00 64 00 6f 00 77 00 73 00 41 00 	W0i0n0d0o0w0s0A0
  0x3920	43 00 4b 00 20 00 69 00 73 00 20 00 6e 00 6f 00 	C0K0 0i0s0 0n0o0
  0x3930	74 00 20 00 72 00 75 00 6e 00 6e 00 69 00 6e 00 	t0 0r0u0n0n0i0n0
  0x3940	67 00 2e 00 20 00 4e 00 6f 00 74 00 20 00 70 00 	g0.0 0N0o0t0 0p0
  0x3950	72 00 6f 00 63 00 65 00 65 00 64 00 69 00 6e 00 	r0o0c0e0e0d0i0n0
  0x3960	67 00 20 00 77 00 69 00 74 00 68 00 20 00 74 00 	g0 0w0i0t0h0 0t0
  0x3970	68 00 65 00 20 00 64 00 65 00 73 00 6b 00 74 00 	h0e0 0d0e0s0k0t0
  0x3980	6f 00 70 00 20 00 73 00 77 00 69 00 74 00 63 00 	o0p0 0s0w0i0t0c0
  0x3990	68 00 2e 00 0d 00 0a 00 00 00 00 00 00 00 00 00 	h0.0000000000000
  0x39a0	55 00 49 00 20 00 61 00 75 00 74 00 6f 00 6d 00 	U0I0 0a0u0t0o0m0
  0x39b0	61 00 74 00 69 00 6f 00 6e 00 20 00 61 00 63 00 	a0t0i0o0n0 0a0c0
  0x39c0	63 00 65 00 73 00 73 00 20 00 69 00 73 00 20 00 	c0e0s0s0 0i0s0 0
  0x39d0	61 00 6c 00 6c 00 6f 00 77 00 65 00 64 00 2e 00 	a0l0l0o0w0e0d0.0
  0x39e0	0d 00 0a 00 00 00 00 00 00 00 00 00 00 00 00 00 	0000000000000000
  0x39f0	55 00 49 00 20 00 61 00 75 00 74 00 6f 00 6d 00 	U0I0 0a0u0t0o0m0
  0x3a00	61 00 74 00 69 00 6f 00 6e 00 20 00 61 00 63 00 	a0t0i0o0n0 0a0c0
  0x3a10	63 00 65 00 73 00 73 00 20 00 69 00 73 00 20 00 	c0e0s0s0 0i0s0 0
  0x3a20	4e 00 4f 00 54 00 20 00 61 00 6c 00 6c 00 6f 00 	N0O0T0 0a0l0l0o0
  0x3a30	77 00 65 00 64 00 2e 00 0d 00 0a 00 00 00 00 00 	w0e0d0.000000000
  0x3a40	43 00 6f 00 49 00 6e 00 69 00 74 00 69 00 61 00 	C0o0I0n0i0t0i0a0
  0x3a50	6c 00 69 00 7a 00 65 00 45 00 78 00 20 00 66 00 	l0i0z0e0E0x0 0f0
  0x3a60	61 00 69 00 6c 00 65 00 64 00 3a 00 20 00 30 00 	a0i0l0e0d0:0 000
  0x3a70	78 00 25 00 78 00 0d 00 0a 00 00 00 00 00 00 00 	x0%0x00000000000
  0x3a80	2d ea 46 22 ea ca 44 44 a3 c4 6d e8 27 e4 43 13 	-0F"00DD00m0'0C0
  0x3a90	00 00 00 00 15 5d dd cf 00 00 00 00 02 00 00 00 	00000]0000000000
  0x3aa0	47 00 00 00 e4 3a 00 00 e4 22 00 00 00 00 00 00 	G0000:000"000000
  0x3ab0	15 5d dd cf 00 00 00 00 0d 00 00 00 04 02 00 00 	0]00000000000000
  0x3ac0	2c 3b 00 00 2c 23 00 00 00 00 00 00 15 5d dd cf 	,;00,#0000000]00
  0x3ad0	00 00 00 00 10 00 00 00 24 00 00 00 30 3d 00 00 	00000000$0000=00
  0x3ae0	30 25 00 00 52 53 44 53 45 40 9e 81 d0 54 29 5c 	0%00RSDSE@000T)0
  0x3af0	81 cb 6f de 89 80 d5 0e 01 00 00 00 4d 69 63 72 	00o000000000Micr
  0x3b00	6f 73 6f 66 74 2e 57 69 6e 64 6f 77 73 2e 53 6f 	osoft.Windows.So
  0x3b10	66 74 77 61 72 65 4c 6f 67 6f 2e 53 68 6f 77 44 	ftwareLogo.ShowD
  0x3b20	65 73 6b 74 6f 70 2e 70 64 62 00 00 47 43 54 4c 	esktop.pdb00GCTL
  0x3b30	00 10 00 00 c0 11 00 00 2e 74 65 78 74 24 6d 6e 	00000000.text$mn
  0x3b40	00 00 00 00 c0 21 00 00 80 00 00 00 2e 74 65 78 	00000!000000.tex
  0x3b50	74 24 6d 6e 24 30 30 00 40 22 00 00 50 00 00 00 	t$mn$000@"00P000
  0x3b60	2e 74 65 78 74 24 78 00 00 30 00 00 28 01 00 00 	.text$x00000(000
  0x3b70	2e 72 64 61 74 61 24 62 72 63 00 00 28 31 00 00 	.rdata$brc00(100
  0x3b80	a8 01 00 00 2e 69 64 61 74 61 24 35 00 00 00 00 	0000.idata$50000
  0x3b90	d0 32 00 00 10 00 00 00 2e 30 30 63 66 67 00 00 	02000000.00cfg00
  0x3ba0	e0 32 00 00 08 00 00 00 2e 43 52 54 24 58 43 41 	02000000.CRT$XCA
  0x3bb0	00 00 00 00 e8 32 00 00 08 00 00 00 2e 43 52 54 	000002000000.CRT
  0x3bc0	24 58 43 41 41 00 00 00 f0 32 00 00 08 00 00 00 	$XCAA00002000000
  0x3bd0	2e 43 52 54 24 58 43 5a 00 00 00 00 f8 32 00 00 	.CRT$XCZ00000200
  0x3be0	08 00 00 00 2e 43 52 54 24 58 49 41 00 00 00 00 	0000.CRT$XIA0000
  0x3bf0	00 33 00 00 08 00 00 00 2e 43 52 54 24 58 49 41 	03000000.CRT$XIA
  0x3c00	41 00 00 00 08 33 00 00 08 00 00 00 2e 43 52 54 	A00003000000.CRT
  0x3c10	24 58 49 59 00 00 00 00 10 33 00 00 08 00 00 00 	$XIY000003000000
  0x3c20	2e 43 52 54 24 58 49 5a 00 00 00 00 18 33 00 00 	.CRT$XIZ00000300
  0x3c30	0c 00 00 00 2e 67 65 68 63 6f 6e 74 00 00 00 00 	0000.gehcont0000
  0x3c40	24 33 00 00 2c 00 00 00 2e 67 66 69 64 73 00 00 	$300,000.gfids00
  0x3c50	50 33 00 00 94 07 00 00 2e 72 64 61 74 61 00 00 	P3000000.rdata00
  0x3c60	e4 3a 00 00 74 02 00 00 2e 72 64 61 74 61 24 7a 	0:00t000.rdata$z
  0x3c70	7a 7a 64 62 67 00 00 00 58 3d 00 00 4c 01 00 00 	zzdbg000X=00L000
  0x3c80	2e 78 64 61 74 61 00 00 a4 3e 00 00 78 00 00 00 	.xdata000>00x000
  0x3c90	2e 69 64 61 74 61 24 32 00 00 00 00 1c 3f 00 00 	.idata$200000?00
  0x3ca0	14 00 00 00 2e 69 64 61 74 61 24 33 00 00 00 00 	0000.idata$30000
  0x3cb0	30 3f 00 00 a8 01 00 00 2e 69 64 61 74 61 24 34 	0?000000.idata$4
  0x3cc0	00 00 00 00 d8 40 00 00 8a 03 00 00 2e 69 64 61 	00000@000000.ida
  0x3cd0	74 61 24 36 00 00 00 00 00 50 00 00 20 00 00 00 	ta$600000P00 000
  0x3ce0	2e 64 61 74 61 00 00 00 20 50 00 00 68 06 00 00 	.data000 P00h000
  0x3cf0	2e 62 73 73 00 00 00 00 00 60 00 00 38 01 00 00 	.bss00000`008000
  0x3d00	2e 70 64 61 74 61 00 00 00 70 00 00 a0 00 00 00 	.pdata000p000000
  0x3d10	2e 72 73 72 63 24 30 31 00 00 00 00 a0 70 00 00 	.rsrc$0100000p00
  0x3d20	50 0a 00 00 2e 72 73 72 63 24 30 32 00 00 00 00 	P000.rsrc$020000
  0x3d30	20 00 00 00 45 40 9e 81 d0 54 29 5c 81 cb 6f de 	 000E@000T)000o0
  0x3d40	89 80 d5 0e 61 73 de fe 4b 8d 5f 33 e9 5f 78 b2 	0000as00K0_30_x0
  0x3d50	15 5d dd cf 00 00 00 00 19 1c 03 00 0e 01 1a 00 	0]00000000000000
  0x3d60	02 50 00 00 28 21 00 00 c0 00 00 00 01 06 02 00 	0P00(!0000000000
  0x3d70	06 32 02 30 01 0d 04 00 0d 34 0b 00 0d 72 06 50 	0200000004000r0P
  0x3d80	01 06 02 00 06 52 02 30 19 2d 03 00 1b 01 6e 00 	00000R000-0000n0
  0x3d90	14 30 00 00 28 21 00 00 60 03 00 00 19 3d 0d 00 	0000(!00`0000=00
  0x3da0	2c 74 52 02 2c 64 51 02 2c 34 50 02 2c 01 4a 02 	,tR0,dQ0,4P0,0J0
  0x3db0	18 f0 16 e0 14 d0 12 c0 10 50 00 00 28 21 00 00 	000000000P00(!00
  0x3dc0	40 12 00 00 01 1c 0c 00 1c 64 10 00 1c 54 0f 00 	@00000000d000T00
  0x3dd0	1c 34 0e 00 1c 72 18 f0 16 e0 14 d0 12 c0 10 70 	04000r000000000p
  0x3de0	01 04 01 00 04 42 00 00 01 04 01 00 04 62 00 00 	00000B0000000b00
  0x3df0	09 15 08 00 15 74 0a 00 15 64 09 00 15 34 08 00 	00000t000d000400
  0x3e00	15 52 11 f0 3a 1f 00 00 01 00 00 00 25 1a 00 00 	0R00:0000000%000
  0x3e10	8b 1b 00 00 43 22 00 00 8b 1b 00 00 01 06 02 00 	0000C"0000000000
  0x3e20	06 32 02 50 00 00 00 00 01 00 00 00 09 04 01 00 	020P000000000000
  0x3e30	04 22 00 00 3a 1f 00 00 01 00 00 00 bc 1c 00 00 	0"00:00000000000
  0x3e40	f2 1c 00 00 01 00 00 00 f2 1c 00 00 09 0a 04 00 	0000000000000000
  0x3e50	0a 34 06 00 0a 32 06 70 3a 1f 00 00 01 00 00 00 	0400020p:0000000
  0x3e60	cd 1d 00 00 00 1e 00 00 70 22 00 00 00 1e 00 00 	00000000p"000000
  0x3e70	01 0d 04 00 0d 34 09 00 0d 32 06 50 01 0c 02 00 	00000400020P0000
  0x3e80	0c 01 11 00 00 00 00 00 01 00 00 00 01 02 01 00 	0000000000000000
  0x3e90	02 30 00 00 00 00 00 00 02 04 03 00 01 16 00 06 	0000000000000000
  0x3ea0	04 12 00 00 30 3f 00 00 00 00 00 00 00 00 00 00 	00000?0000000000
  0x3eb0	02 41 00 00 28 31 00 00 48 3f 00 00 00 00 00 00 	0A00(100H?000000
  0x3ec0	00 00 00 00 ba 41 00 00 40 31 00 00 28 40 00 00 	00000A00@100(@00
  0x3ed0	00 00 00 00 00 00 00 00 96 42 00 00 20 32 00 00 	000000000B00 200
  0x3ee0	b8 40 00 00 00 00 00 00 00 00 00 00 ee 42 00 00 	0@00000000000B00
  0x3ef0	b0 32 00 00 00 40 00 00 00 00 00 00 00 00 00 00 	02000@0000000000
  0x3f00	0a 43 00 00 f8 31 00 00 10 40 00 00 00 00 00 00 	0C0001000@000000
  0x3f10	00 00 00 00 38 43 00 00 08 32 00 00 00 00 00 00 	00008C0002000000
  0x3f20	00 00 00 00 00 00 00 00 00 00 00 00 00 00 00 00 	0000000000000000
  0x3f30	ee 40 00 00 00 00 00 00 d8 40 00 00 00 00 00 00 	0@0000000@000000
  0x3f40	00 00 00 00 00 00 00 00 10 41 00 00 00 00 00 00 	000000000A000000
  0x3f50	24 41 00 00 00 00 00 00 30 41 00 00 00 00 00 00 	$A0000000A000000
  0x3f60	3e 41 00 00 00 00 00 00 5c 41 00 00 00 00 00 00 	>A0000000A000000
  0x3f70	6a 41 00 00 00 00 00 00 72 41 00 00 00 00 00 00 	jA000000rA000000
  0x3f80	82 41 00 00 00 00 00 00 90 41 00 00 00 00 00 00 	0A0000000A000000
  0x3f90	a4 41 00 00 00 00 00 00 bc 43 00 00 00 00 00 00 	0A0000000C000000
  0x3fa0	a6 43 00 00 00 00 00 00 90 43 00 00 00 00 00 00 	0C0000000C000000
  0x3fb0	76 43 00 00 00 00 00 00 62 43 00 00 00 00 00 00 	vC000000bC000000
  0x3fc0	44 43 00 00 00 00 00 00 e6 43 00 00 00 00 00 00 	DC0000000C000000
  0x3fd0	fa 43 00 00 00 00 00 00 14 44 00 00 00 00 00 00 	0C0000000D000000
  0x3fe0	28 44 00 00 00 00 00 00 44 44 00 00 00 00 00 00 	(D000000DD000000
  0x3ff0	d6 43 00 00 00 00 00 00 00 00 00 00 00 00 00 00 	0C00000000000000
  0x4000	f8 42 00 00 00 00 00 00 00 00 00 00 00 00 00 00 	0B00000000000000
  0x4010	16 43 00 00 00 00 00 00 22 43 00 00 00 00 00 00 	0C000000"C000000
  0x4020	00 00 00 00 00 00 00 00 36 42 00 00 00 00 00 00 	000000006B000000
  0x4030	2e 42 00 00 00 00 00 00 1c 42 00 00 00 00 00 00 	.B0000000B000000
  0x4040	0a 42 00 00 00 00 00 00 a2 42 00 00 00 00 00 00 	0B0000000B000000
  0x4050	8a 42 00 00 00 00 00 00 80 42 00 00 00 00 00 00 	0B0000000B000000
  0x4060	68 42 00 00 00 00 00 00 3e 42 00 00 00 00 00 00 	hB000000>B000000
  0x4070	fc 41 00 00 00 00 00 00 ee 41 00 00 00 00 00 00 	0A0000000A000000
  0x4080	de 41 00 00 00 00 00 00 d2 41 00 00 00 00 00 00 	0A0000000A000000
  0x4090	c8 41 00 00 00 00 00 00 48 42 00 00 00 00 00 00 	0A000000HB000000
  0x40a0	5c 42 00 00 00 00 00 00 58 44 00 00 00 00 00 00 	0B000000XD000000
  0x40b0	00 00 00 00 00 00 00 00 b6 42 00 00 00 00 00 00 	000000000B000000
  0x40c0	c8 42 00 00 00 00 00 00 dc 42 00 00 00 00 00 00 	0B0000000B000000
  0x40d0	00 00 00 00 00 00 00 00 70 01 47 65 74 54 6f 6b 	00000000p0GetTok
  0x40e0	65 6e 49 6e 66 6f 72 6d 61 74 69 6f 6e 00 15 02 	enInformation000
  0x40f0	4f 70 65 6e 50 72 6f 63 65 73 73 54 6f 6b 65 6e 	OpenProcessToken
  0x4100	00 00 41 44 56 41 50 49 33 32 2e 64 6c 6c 00 00 	00ADVAPI32.dll00
  0x4110	20 02 47 65 74 43 75 72 72 65 6e 74 50 72 6f 63 	 0GetCurrentProc
  0x4120	65 73 73 00 25 06 57 72 69 74 65 46 69 6c 65 00 	ess0%0WriteFile0
  0x4130	ce 00 43 72 65 61 74 65 46 69 6c 65 57 00 ae 03 	00CreateFileW000
  0x4140	4b 33 32 47 65 74 50 72 6f 63 65 73 73 49 6d 61 	K32GetProcessIma
  0x4150	67 65 46 69 6c 65 4e 61 6d 65 57 00 12 04 4f 70 	geFileNameW000Op
  0x4160	65 6e 50 72 6f 63 65 73 73 00 8f 05 53 6c 65 65 	enProcess000Slee
  0x4170	70 00 6a 02 47 65 74 4c 61 73 74 45 72 72 6f 72 	p0j0GetLastError
  0x4180	00 00 89 00 43 6c 6f 73 65 48 61 6e 64 6c 65 00 	0000CloseHandle0
  0x4190	a0 03 4b 33 32 45 6e 75 6d 50 72 6f 63 65 73 73 	00K32EnumProcess
  0x41a0	65 73 00 00 11 06 57 69 64 65 43 68 61 72 54 6f 	es0000WideCharTo
  0x41b0	4d 75 6c 74 69 42 79 74 65 00 4b 45 52 4e 45 4c 	MultiByte0KERNEL
  0x41c0	33 32 2e 64 6c 6c 00 00 20 05 77 70 72 69 6e 74 	32.dll00 0wprint
  0x41d0	66 00 8a 03 5f 77 63 73 69 63 6d 70 00 00 6b 03 	f000_wcsicmp00k0
  0x41e0	5f 76 73 6e 77 70 72 69 6e 74 66 5f 73 00 55 00 	_vsnwprintf_s0U0
  0x41f0	5f 58 63 70 74 46 69 6c 74 65 72 00 ae 00 5f 61 	_XcptFilter000_a
  0x4200	6d 73 67 5f 65 78 69 74 00 00 9d 00 5f 5f 77 67 	msg_exit0000__wg
  0x4210	65 74 6d 61 69 6e 61 72 67 73 00 00 8e 00 5f 5f 	etmainargs0000__
  0x4220	73 65 74 5f 61 70 70 5f 74 79 70 65 00 00 32 04 	set_app_type0020
  0x4230	65 78 69 74 00 00 0e 01 5f 65 78 69 74 00 c1 00 	exit0000_exit000
  0x4240	5f 63 65 78 69 74 00 00 90 00 5f 5f 73 65 74 75 	_cexit0000__setu
  0x4250	73 65 72 6d 61 74 68 65 72 72 00 00 7d 01 5f 69 	sermatherr00}0_i
  0x4260	6e 69 74 74 65 72 6d 00 57 00 5f 5f 43 5f 73 70 	nitterm0W0__C_sp
  0x4270	65 63 69 66 69 63 5f 68 61 6e 64 6c 65 72 00 00 	ecific_handler00
  0x4280	27 01 5f 66 6d 6f 64 65 00 00 d2 00 5f 63 6f 6d 	'0_fmode0000_com
  0x4290	6d 6f 64 65 00 00 6d 73 76 63 72 74 2e 64 6c 6c 	mode00msvcrt.dll
  0x42a0	00 00 2f 00 3f 74 65 72 6d 69 6e 61 74 65 40 40 	00/0?terminate@@
  0x42b0	59 41 58 58 5a 00 90 00 43 6f 55 6e 69 6e 69 74 	YAXXZ000CoUninit
  0x42c0	69 61 6c 69 7a 65 00 00 2b 00 43 6f 43 72 65 61 	ialize00+0CoCrea
  0x42d0	74 65 49 6e 73 74 61 6e 63 65 00 00 61 00 43 6f 	teInstance00a0Co
  0x42e0	49 6e 69 74 69 61 6c 69 7a 65 45 78 00 00 6f 6c 	InitializeEx00ol
  0x42f0	65 33 32 2e 64 6c 6c 00 99 00 50 61 74 68 53 74 	e32.dll000PathSt
  0x4300	72 69 70 50 61 74 68 57 00 00 53 48 4c 57 41 50 	ripPathW00SHLWAP
  0x4310	49 2e 64 6c 6c 00 12 03 53 65 6e 64 49 6e 70 75 	I.dll000SendInpu
  0x4320	74 00 fe 00 45 6e 75 6d 44 69 73 70 6c 61 79 4d 	t000EnumDisplayM
  0x4330	6f 6e 69 74 6f 72 73 00 55 53 45 52 33 32 2e 64 	onitors0USER32.d
  0x4340	6c 6c 00 00 7f 05 53 65 74 55 6e 68 61 6e 64 6c 	ll0000SetUnhandl
  0x4350	65 64 45 78 63 65 70 74 69 6f 6e 46 69 6c 74 65 	edExceptionFilte
  0x4360	72 00 81 02 47 65 74 4d 6f 64 75 6c 65 48 61 6e 	r000GetModuleHan
  0x4370	64 6c 65 57 00 00 52 04 51 75 65 72 79 50 65 72 	dleW00R0QueryPer
  0x4380	66 6f 72 6d 61 6e 63 65 43 6f 75 6e 74 65 72 00 	formanceCounter0
  0x4390	21 02 47 65 74 43 75 72 72 65 6e 74 50 72 6f 63 	!0GetCurrentProc
  0x43a0	65 73 73 49 64 00 25 02 47 65 74 43 75 72 72 65 	essId0%0GetCurre
  0x43b0	6e 74 54 68 72 65 61 64 49 64 00 00 f3 02 47 65 	ntThreadId0000Ge
  0x43c0	74 53 79 73 74 65 6d 54 69 6d 65 41 73 46 69 6c 	tSystemTimeAsFil
  0x43d0	65 54 69 6d 65 00 11 03 47 65 74 54 69 63 6b 43 	eTime000GetTickC
  0x43e0	6f 75 6e 74 00 00 d5 04 52 74 6c 43 61 70 74 75 	ount0000RtlCaptu
  0x43f0	72 65 43 6f 6e 74 65 78 74 00 dc 04 52 74 6c 4c 	reContext000RtlL
  0x4400	6f 6f 6b 75 70 46 75 6e 63 74 69 6f 6e 45 6e 74 	ookupFunctionEnt
  0x4410	72 79 00 00 e3 04 52 74 6c 56 69 72 74 75 61 6c 	ry0000RtlVirtual
  0x4420	55 6e 77 69 6e 64 00 00 c0 05 55 6e 68 61 6e 64 	Unwind0000Unhand
  0x4430	6c 65 64 45 78 63 65 70 74 69 6f 6e 46 69 6c 74 	ledExceptionFilt
  0x4440	65 72 00 00 9e 05 54 65 72 6d 69 6e 61 74 65 50 	er0000TerminateP
  0x4450	72 6f 63 65 73 73 00 00 96 04 6d 65 6d 73 65 74 	rocess0000memset
  0x4460	00 00 00 00 00 00 00 00 00 00 00 00 00 00 00 00 	0000000000000000
  0x4470	00 00 00 00 00 00 00 00 00 00 00 00 00 00 00 00 	0000000000000000
  0x4480	00 00 00 00 00 00 00 00 00 00 00 00 00 00 00 00 	0000000000000000
  0x4490	00 00 00 00 00 00 00 00 00 00 00 00 00 00 00 00 	0000000000000000
  0x44a0	00 00 00 00 00 00 00 00 00 00 00 00 00 00 00 00 	0000000000000000
  0x44b0	00 00 00 00 00 00 00 00 00 00 00 00 00 00 00 00 	0000000000000000
  0x44c0	00 00 00 00 00 00 00 00 00 00 00 00 00 00 00 00 	0000000000000000
  0x44d0	00 00 00 00 00 00 00 00 00 00 00 00 00 00 00 00 	0000000000000000
  0x44e0	00 00 00 00 00 00 00 00 00 00 00 00 00 00 00 00 	0000000000000000
  0x44f0	00 00 00 00 00 00 00 00 00 00 00 00 00 00 00 00 	0000000000000000
  0x4500	00 00 00 00 00 00 00 00 00 00 00 00 00 00 00 00 	0000000000000000
  0x4510	00 00 00 00 00 00 00 00 00 00 00 00 00 00 00 00 	0000000000000000
  0x4520	00 00 00 00 00 00 00 00 00 00 00 00 00 00 00 00 	0000000000000000
  0x4530	00 00 00 00 00 00 00 00 00 00 00 00 00 00 00 00 	0000000000000000
  0x4540	00 00 00 00 00 00 00 00 00 00 00 00 00 00 00 00 	0000000000000000
  0x4550	00 00 00 00 00 00 00 00 00 00 00 00 00 00 00 00 	0000000000000000
  0x4560	00 00 00 00 00 00 00 00 00 00 00 00 00 00 00 00 	0000000000000000
  0x4570	00 00 00 00 00 00 00 00 00 00 00 00 00 00 00 00 	0000000000000000
  0x4580	00 00 00 00 00 00 00 00 00 00 00 00 00 00 00 00 	0000000000000000
  0x4590	00 00 00 00 00 00 00 00 00 00 00 00 00 00 00 00 	0000000000000000
  0x45a0	00 00 00 00 00 00 00 00 00 00 00 00 00 00 00 00 	0000000000000000
  0x45b0	00 00 00 00 00 00 00 00 00 00 00 00 00 00 00 00 	0000000000000000
  0x45c0	00 00 00 00 00 00 00 00 00 00 00 00 00 00 00 00 	0000000000000000
  0x45d0	00 00 00 00 00 00 00 00 00 00 00 00 00 00 00 00 	0000000000000000
  0x45e0	00 00 00 00 00 00 00 00 00 00 00 00 00 00 00 00 	0000000000000000
  0x45f0	00 00 00 00 00 00 00 00 00 00 00 00 00 00 00 00 	0000000000000000
=== DATA BLOCK END ===

=== DATA BLOCK ADDRESS 0x5000 ===
  0x5000	01 00 00 00 00 00 00 00 32 a2 df 2d 99 2b 00 00 	00000000200-0+00
  0x5010	cd 5d 20 d2 66 d4 ff ff 00 00 00 00 00 00 00 00 	0] 0f00000000000
  0x5020	00 00 00 00 00 00 00 00 00 00 00 00 00 00 00 00 	0000000000000000
  0x5030	00 00 00 00 00 00 00 00 00 00 00 00 00 00 00 00 	0000000000000000
  0x5040	00 00 00 00 00 00 00 00 00 00 00 00 00 00 00 00 	0000000000000000
  0x5050	00 00 00 00 00 00 00 00 00 00 00 00 00 00 00 00 	0000000000000000
  0x5060	00 00 00 00 00 00 00 00 00 00 00 00 00 00 00 00 	0000000000000000
  0x5070	00 00 00 00 00 00 00 00 00 00 00 00 00 00 00 00 	0000000000000000
  0x5080	00 00 00 00 00 00 00 00 00 00 00 00 00 00 00 00 	0000000000000000
  0x5090	00 00 00 00 00 00 00 00 00 00 00 00 00 00 00 00 	0000000000000000
  0x50a0	00 00 00 00 00 00 00 00 00 00 00 00 00 00 00 00 	0000000000000000
  0x50b0	00 00 00 00 00 00 00 00 00 00 00 00 00 00 00 00 	0000000000000000
  0x50c0	00 00 00 00 00 00 00 00 00 00 00 00 00 00 00 00 	0000000000000000
  0x50d0	00 00 00 00 00 00 00 00 00 00 00 00 00 00 00 00 	0000000000000000
  0x50e0	00 00 00 00 00 00 00 00 00 00 00 00 00 00 00 00 	0000000000000000
  0x50f0	00 00 00 00 00 00 00 00 00 00 00 00 00 00 00 00 	0000000000000000
  0x5100	00 00 00 00 00 00 00 00 00 00 00 00 00 00 00 00 	0000000000000000
  0x5110	00 00 00 00 00 00 00 00 00 00 00 00 00 00 00 00 	0000000000000000
  0x5120	00 00 00 00 00 00 00 00 00 00 00 00 00 00 00 00 	0000000000000000
  0x5130	00 00 00 00 00 00 00 00 00 00 00 00 00 00 00 00 	0000000000000000
  0x5140	00 00 00 00 00 00 00 00 00 00 00 00 00 00 00 00 	0000000000000000
  0x5150	00 00 00 00 00 00 00 00 00 00 00 00 00 00 00 00 	0000000000000000
  0x5160	00 00 00 00 00 00 00 00 00 00 00 00 00 00 00 00 	0000000000000000
  0x5170	00 00 00 00 00 00 00 00 00 00 00 00 00 00 00 00 	0000000000000000
  0x5180	00 00 00 00 00 00 00 00 00 00 00 00 00 00 00 00 	0000000000000000
  0x5190	00 00 00 00 00 00 00 00 00 00 00 00 00 00 00 00 	0000000000000000
  0x51a0	00 00 00 00 00 00 00 00 00 00 00 00 00 00 00 00 	0000000000000000
  0x51b0	00 00 00 00 00 00 00 00 00 00 00 00 00 00 00 00 	0000000000000000
  0x51c0	00 00 00 00 00 00 00 00 00 00 00 00 00 00 00 00 	0000000000000000
  0x51d0	00 00 00 00 00 00 00 00 00 00 00 00 00 00 00 00 	0000000000000000
  0x51e0	00 00 00 00 00 00 00 00 00 00 00 00 00 00 00 00 	0000000000000000
  0x51f0	00 00 00 00 00 00 00 00 00 00 00 00 00 00 00 00 	0000000000000000
=== DATA BLOCK END ===

=== DATA BLOCK ADDRESS 0x6000 ===
  0x6000	08 10 00 00 c9 10 00 00 58 3d 00 00 d0 10 00 00 	00000000X=000000
  0x6010	57 11 00 00 6c 3d 00 00 60 11 00 00 81 12 00 00 	W000l=00`0000000
  0x6020	74 3d 00 00 88 12 00 00 32 13 00 00 80 3d 00 00 	t=00000020000=00
  0x6030	38 13 00 00 36 14 00 00 88 3d 00 00 3c 14 00 00 	800060000=00<000
  0x6040	7a 16 00 00 9c 3d 00 00 80 16 00 00 cc 18 00 00 	z0000=0000000000
  0x6050	c4 3d 00 00 e0 18 00 00 b3 19 00 00 e0 3d 00 00 	0=00000000000=00
  0x6060	c0 19 00 00 09 1a 00 00 e8 3d 00 00 10 1a 00 00 	000000000=000000
  0x6070	ce 1b 00 00 f0 3d 00 00 e0 1b 00 00 f2 1b 00 00 	00000=0000000000
  0x6080	e0 3d 00 00 10 1c 00 00 2e 1c 00 00 28 3e 00 00 	0=000000.000(>00
  0x6090	40 1c 00 00 79 1c 00 00 e0 3d 00 00 80 1c 00 00 	@000y0000=000000
  0x60a0	98 1c 00 00 e0 3d 00 00 ac 1c 00 00 00 1d 00 00 	00000=0000000000
  0x60b0	2c 3e 00 00 08 1d 00 00 4d 1d 00 00 6c 3d 00 00 	,>000000M000l=00
  0x60c0	c0 1d 00 00 0d 1e 00 00 4c 3e 00 00 54 1e 00 00 	00000000L>00T000
  0x60d0	28 1f 00 00 70 3e 00 00 5c 1f 00 00 90 1f 00 00 	(000p>0000000000
  0x60e0	6c 3d 00 00 a0 1f 00 00 11 21 00 00 7c 3e 00 00 	l=0000000!00|>00
  0x60f0	28 21 00 00 45 21 00 00 e0 3d 00 00 4c 21 00 00 	(!00E!000=00L!00
  0x6100	a7 21 00 00 8c 3e 00 00 d0 21 00 00 d2 21 00 00 	0!000>000!000!00
  0x6110	88 3e 00 00 f0 21 00 00 3d 22 00 00 98 3e 00 00 	0>000!00="000>00
  0x6120	43 22 00 00 61 22 00 00 1c 3e 00 00 70 22 00 00 	C"00a"000>00p"00
  0x6130	90 22 00 00 1c 3e 00 00 00 00 00 00 00 00 00 00 	0"000>0000000000
  0x6140	00 00 00 00 00 00 00 00 00 00 00 00 00 00 00 00 	0000000000000000
  0x6150	00 00 00 00 00 00 00 00 00 00 00 00 00 00 00 00 	0000000000000000
  0x6160	00 00 00 00 00 00 00 00 00 00 00 00 00 00 00 00 	0000000000000000
  0x6170	00 00 00 00 00 00 00 00 00 00 00 00 00 00 00 00 	0000000000000000
  0x6180	00 00 00 00 00 00 00 00 00 00 00 00 00 00 00 00 	0000000000000000
  0x6190	00 00 00 00 00 00 00 00 00 00 00 00 00 00 00 00 	0000000000000000
  0x61a0	00 00 00 00 00 00 00 00 00 00 00 00 00 00 00 00 	0000000000000000
  0x61b0	00 00 00 00 00 00 00 00 00 00 00 00 00 00 00 00 	0000000000000000
  0x61c0	00 00 00 00 00 00 00 00 00 00 00 00 00 00 00 00 	0000000000000000
  0x61d0	00 00 00 00 00 00 00 00 00 00 00 00 00 00 00 00 	0000000000000000
  0x61e0	00 00 00 00 00 00 00 00 00 00 00 00 00 00 00 00 	0000000000000000
  0x61f0	00 00 00 00 00 00 00 00 00 00 00 00 00 00 00 00 	0000000000000000
=== DATA BLOCK END ===
